GAS LISTING /tmp/ccrRrWH0.s 			page 1


   1              		.file	"memoryAllcator.cpp"
   2              		.option pic
   3              		.option norelax
   4              		.text
   5              	.Ltext0:
   6              		.align	2
   8              	_Z41__static_initialization_and_destruction_0ii:
   9              	.LFB34:
  10              		.file 1 "src/memoryAllcator.cpp"
   1:src/memoryAllcator.cpp **** //
   2:src/memoryAllcator.cpp **** // Created by os on 5/11/24.
   3:src/memoryAllcator.cpp **** //
   4:src/memoryAllcator.cpp **** 
   5:src/memoryAllcator.cpp **** #include "../h/memoryAllocator.hpp"
   6:src/memoryAllcator.cpp **** #include "../h/tcb.hpp"
   7:src/memoryAllcator.cpp **** 
   8:src/memoryAllcator.cpp **** memoryAllocator::BlockHeader* memoryAllocator::head = nullptr;
   9:src/memoryAllcator.cpp **** size_t memoryAllocator::velicinaHedera= sizeof(memoryAllocator::BlockHeader);
  10:src/memoryAllcator.cpp **** bool memoryAllocator::inicijalizovana =false;
  11:src/memoryAllcator.cpp **** size_t memoryAllocator::slobodnaMemorija = (((size_t)HEAP_END_ADDR - (size_t)HEAP_START_ADDR - veli
  12:src/memoryAllcator.cpp **** size_t memoryAllocator::maxKapacitetMemorije = (((size_t)HEAP_END_ADDR - (size_t)HEAP_START_ADDR - 
  13:src/memoryAllcator.cpp **** 
  14:src/memoryAllcator.cpp **** void memoryAllocator::init() {
  15:src/memoryAllcator.cpp ****     head =( BlockHeader*)(HEAP_START_ADDR);
  16:src/memoryAllcator.cpp ****     head->size = ((uint64)HEAP_END_ADDR - (uint64)HEAP_START_ADDR) - velicinaHedera;;
  17:src/memoryAllcator.cpp ****     head->next = nullptr;
  18:src/memoryAllcator.cpp ****     slobodnaMemorija = (((size_t)HEAP_END_ADDR - (size_t)HEAP_START_ADDR - velicinaHedera)/MEM_BLOC
  19:src/memoryAllcator.cpp ****     maxKapacitetMemorije = (((size_t)HEAP_END_ADDR - (size_t)HEAP_START_ADDR - velicinaHedera)/MEM_
  20:src/memoryAllcator.cpp **** }
  21:src/memoryAllcator.cpp **** 
  22:src/memoryAllcator.cpp **** void* memoryAllocator::mem_alloc(size_t size) {
  23:src/memoryAllcator.cpp ****     if(!inicijalizovana){
  24:src/memoryAllcator.cpp ****         init();
  25:src/memoryAllcator.cpp ****         inicijalizovana=true;
  26:src/memoryAllcator.cpp ****     }
  27:src/memoryAllcator.cpp **** 
  28:src/memoryAllcator.cpp ****     if (size == 0 || size > slobodnaMemorija) return nullptr;
  29:src/memoryAllcator.cpp **** 
  30:src/memoryAllcator.cpp ****     // Align size to MEM_BLOCK_SIZE
  31:src/memoryAllcator.cpp ****     if (size%MEM_BLOCK_SIZE) {
  32:src/memoryAllcator.cpp ****         size=MEM_BLOCK_SIZE*(1+size/MEM_BLOCK_SIZE);
  33:src/memoryAllcator.cpp ****     }
  34:src/memoryAllcator.cpp ****     //dodato modifikacija ping thread
  35:src/memoryAllcator.cpp ****     if(TCB::running){
  36:src/memoryAllcator.cpp ****         TCB::running->incrementMemory((size % MEM_BLOCK_SIZE == 0) ?
  37:src/memoryAllcator.cpp ****                                       size / MEM_BLOCK_SIZE :
  38:src/memoryAllcator.cpp ****                                       (1 + size / MEM_BLOCK_SIZE));
  39:src/memoryAllcator.cpp ****     }
  40:src/memoryAllcator.cpp **** 
  41:src/memoryAllcator.cpp ****     BlockHeader* curr = head;
  42:src/memoryAllcator.cpp ****     BlockHeader* prev = nullptr;
  43:src/memoryAllcator.cpp **** 
  44:src/memoryAllcator.cpp ****     //radim first fit :(
  45:src/memoryAllcator.cpp ****     while (curr != nullptr) {
  46:src/memoryAllcator.cpp ****         if (curr->size >= size) {
  47:src/memoryAllcator.cpp ****             //prvi na koji sam naisla a da u njega moze da stane zadat broj bajtova
  48:src/memoryAllcator.cpp ****             //sta je ostalo od bloka i moze li se od tog ostatka napraviti noi blok, provera u nast
GAS LISTING /tmp/ccrRrWH0.s 			page 2


  49:src/memoryAllcator.cpp ****             size_t remainingSize = curr->size - size;
  50:src/memoryAllcator.cpp **** 
  51:src/memoryAllcator.cpp ****             if (remainingSize >= sizeof(BlockHeader)) {
  52:src/memoryAllcator.cpp ****                 //pocepaj blok na stari + novi ako je moguce
  53:src/memoryAllcator.cpp ****                 // Ako je ostatak dovoljno veliki da u njega stane zaglavlje + informacije -> od os
  54:src/memoryAllcator.cpp ****                 BlockHeader* newBlock = reinterpret_cast<BlockHeader*>(reinterpret_cast<char*>(curr
  55:src/memoryAllcator.cpp ****                 newBlock->size = remainingSize - velicinaHedera;
  56:src/memoryAllcator.cpp ****                 newBlock->next = curr->next;
  57:src/memoryAllcator.cpp **** 
  58:src/memoryAllcator.cpp ****                 if (prev == nullptr) {
  59:src/memoryAllcator.cpp ****                     head = newBlock;
  60:src/memoryAllcator.cpp ****                 } else {
  61:src/memoryAllcator.cpp ****                     prev->next = newBlock;
  62:src/memoryAllcator.cpp ****                 }
  63:src/memoryAllcator.cpp **** 
  64:src/memoryAllcator.cpp ****                 curr->size = size;
  65:src/memoryAllcator.cpp ****                 curr->next = nullptr;
  66:src/memoryAllcator.cpp ****             } else {
  67:src/memoryAllcator.cpp ****                 // Ako blok nije dovoljno veliki da u njega stane jos nesto sem zaglavlja
  68:src/memoryAllcator.cpp ****                 if (prev == nullptr) {
  69:src/memoryAllcator.cpp ****                     head = curr->next;
  70:src/memoryAllcator.cpp ****                 } else {
  71:src/memoryAllcator.cpp ****                     prev->next = curr->next;
  72:src/memoryAllcator.cpp ****                 }
  73:src/memoryAllcator.cpp ****                 curr->next = nullptr;
  74:src/memoryAllcator.cpp ****             }
  75:src/memoryAllcator.cpp **** 
  76:src/memoryAllcator.cpp ****             //smanji slobodnu memoriju za velicinu trenutnog bloka i njegov heder
  77:src/memoryAllcator.cpp ****             slobodnaMemorija -= curr->size + velicinaHedera;
  78:src/memoryAllcator.cpp ****             //vratiti pokazivac na slobodan prostor ispod zaglavlja!!!
  79:src/memoryAllcator.cpp ****             return reinterpret_cast<void*>(reinterpret_cast<char*>(curr) + velicinaHedera);
  80:src/memoryAllcator.cpp ****         }
  81:src/memoryAllcator.cpp **** 
  82:src/memoryAllcator.cpp ****         prev = curr;
  83:src/memoryAllcator.cpp ****         curr = curr->next;
  84:src/memoryAllcator.cpp ****     }
  85:src/memoryAllcator.cpp **** 
  86:src/memoryAllcator.cpp ****     return nullptr; // No suitable block found
  87:src/memoryAllcator.cpp **** }
  88:src/memoryAllcator.cpp **** 
  89:src/memoryAllcator.cpp **** int memoryAllocator::mem_free(void* ptr) {
  90:src/memoryAllcator.cpp **** 
  91:src/memoryAllcator.cpp ****     if (!ptr) {
  92:src/memoryAllcator.cpp ****         return -1; // Nevalidna adresa, ne moze se osloboditi nesto sto ne postoji
  93:src/memoryAllcator.cpp ****     }
  94:src/memoryAllcator.cpp **** 
  95:src/memoryAllcator.cpp ****     BlockHeader* freeBlock = reinterpret_cast<BlockHeader*>(reinterpret_cast<char*>(ptr) - velicina
  96:src/memoryAllcator.cpp **** 
  97:src/memoryAllcator.cpp ****     if (freeBlock->size % MEM_BLOCK_SIZE != 0 || freeBlock->size == 0 || freeBlock->next != nullptr
  98:src/memoryAllcator.cpp ****         return -1; // Nevalidan blok ili već oslobođen, ako nije poravnat onda nije ni blok, ovo 
  99:src/memoryAllcator.cpp ****         //if it works - dont touch ! :)
 100:src/memoryAllcator.cpp ****     }
 101:src/memoryAllcator.cpp **** 
 102:src/memoryAllcator.cpp ****     // Pronađi tačnu poziciju za umetanje oslobođenog bloka
 103:src/memoryAllcator.cpp ****     BlockHeader* curr = head;
 104:src/memoryAllcator.cpp ****     BlockHeader* prev = nullptr;
 105:src/memoryAllcator.cpp **** 
GAS LISTING /tmp/ccrRrWH0.s 			page 3


 106:src/memoryAllcator.cpp ****     while (curr && curr < freeBlock) {
 107:src/memoryAllcator.cpp ****         prev = curr;
 108:src/memoryAllcator.cpp ****         curr = curr->next;
 109:src/memoryAllcator.cpp ****     }
 110:src/memoryAllcator.cpp **** 
 111:src/memoryAllcator.cpp ****     // Uguraj oslobođeni blok
 112:src/memoryAllcator.cpp ****     if (!prev) {
 113:src/memoryAllcator.cpp ****         head = freeBlock;
 114:src/memoryAllcator.cpp ****     } else {
 115:src/memoryAllcator.cpp ****         prev->next = freeBlock;
 116:src/memoryAllcator.cpp ****     }
 117:src/memoryAllcator.cpp **** 
 118:src/memoryAllcator.cpp ****     freeBlock->next = curr;
 119:src/memoryAllcator.cpp **** 
 120:src/memoryAllcator.cpp ****     // Spoji susedne slobodne blokove
 121:src/memoryAllcator.cpp ****     while(pokusajDaSpojis(freeBlock));
 122:src/memoryAllcator.cpp ****     if(prev)
 123:src/memoryAllcator.cpp ****         //nek stoji while za svaki slucaj, isti djavo mogo je i samo if
 124:src/memoryAllcator.cpp ****         if (pokusajDaSpojis(prev));
 125:src/memoryAllcator.cpp **** 
 126:src/memoryAllcator.cpp ****     //ovde sam povecala slobodnu memoriju, jer sam oslobodila prostor - bez ovoga ne valja!!!
 127:src/memoryAllcator.cpp ****     slobodnaMemorija += freeBlock->size + velicinaHedera;
 128:src/memoryAllcator.cpp **** 
 129:src/memoryAllcator.cpp ****     return 0; // Uspeh
 130:src/memoryAllcator.cpp **** }
 131:src/memoryAllcator.cpp **** 
 132:src/memoryAllcator.cpp **** bool memoryAllocator::pokusajDaSpojis(BlockHeader* left) {
 133:src/memoryAllcator.cpp **** 
 134:src/memoryAllcator.cpp ****     if(left== nullptr)return false;
 135:src/memoryAllcator.cpp ****     BlockHeader* right = left->next;
 136:src/memoryAllcator.cpp ****     if(right== nullptr)return false;
 137:src/memoryAllcator.cpp ****     if((char*)left + left->size + sizeof(BlockHeader) != (char*)right)
 138:src/memoryAllcator.cpp ****     {
 139:src/memoryAllcator.cpp ****         return false;
 140:src/memoryAllcator.cpp ****     }
 141:src/memoryAllcator.cpp ****     BlockHeader* rightright = right->next;
 142:src/memoryAllcator.cpp ****     left->size += right->size + sizeof(BlockHeader);
 143:src/memoryAllcator.cpp ****     left->next = rightright;
 144:src/memoryAllcator.cpp ****     return true;
 145:src/memoryAllcator.cpp **** }
 146:src/memoryAllcator.cpp **** 
 147:src/memoryAllcator.cpp **** 
 148:src/memoryAllcator.cpp **** void memcpy(const void *src, const void *dst, int len) {
 149:src/memoryAllcator.cpp ****     char *src1 = (char *) src;
 150:src/memoryAllcator.cpp ****     char *dst1 = (char *) dst;
 151:src/memoryAllcator.cpp ****     for (int i = 0; i < len; i++)
 152:src/memoryAllcator.cpp ****         dst1[i] = src1[i];
 153:src/memoryAllcator.cpp **** }
  11              		.loc 1 153 1
  12              		.cfi_startproc
  13              	.LVL0:
  14 0000 130101FF 		addi	sp,sp,-16
  15              		.cfi_def_cfa_offset 16
  16 0004 23348100 		sd	s0,8(sp)
  17              		.cfi_offset 8, -8
  18 0008 13040101 		addi	s0,sp,16
  19              		.cfi_def_cfa 8, 0
GAS LISTING /tmp/ccrRrWH0.s 			page 4


  20              		.loc 1 153 1 is_stmt 0
  21 000c 93071000 		li	a5,1
  22 0010 6308F500 		beq	a0,a5,.L4
  23              	.L1:
  24 0014 03348100 		ld	s0,8(sp)
  25              		.cfi_remember_state
  26              		.cfi_restore 8
  27              		.cfi_def_cfa 2, 16
  28 0018 13010101 		addi	sp,sp,16
  29              		.cfi_def_cfa_offset 0
  30 001c 67800000 		jr	ra
  31              	.L4:
  32              		.cfi_restore_state
  33              		.loc 1 153 1 discriminator 1
  34 0020 B7070100 		li	a5,65536
  35 0024 9387F7FF 		addi	a5,a5,-1
  36 0028 E396F5FE 		bne	a1,a5,.L1
  11:src/memoryAllcator.cpp **** size_t memoryAllocator::maxKapacitetMemorije = (((size_t)HEAP_END_ADDR - (size_t)HEAP_START_ADDR - 
  37              		.loc 1 11 68
  38 002c 97070000 		la	a5,HEAP_END_ADDR
  38      83B70700 
  39 0034 83B70700 		ld	a5,0(a5)
  40 0038 17070000 		la	a4,HEAP_START_ADDR
  40      03370700 
  41 0040 03370700 		ld	a4,0(a4)
  42 0044 B387E740 		sub	a5,a5,a4
  11:src/memoryAllcator.cpp **** size_t memoryAllocator::maxKapacitetMemorije = (((size_t)HEAP_END_ADDR - (size_t)HEAP_START_ADDR - 
  43              		.loc 1 11 94
  44 0048 17070000 		ld	a4,.LANCHOR0
  44      03370700 
  45 0050 B387E740 		sub	a5,a5,a4
  11:src/memoryAllcator.cpp **** size_t memoryAllocator::maxKapacitetMemorije = (((size_t)HEAP_END_ADDR - (size_t)HEAP_START_ADDR - 
  46              		.loc 1 11 127
  47 0054 93F707FC 		andi	a5,a5,-64
  11:src/memoryAllcator.cpp **** size_t memoryAllocator::maxKapacitetMemorije = (((size_t)HEAP_END_ADDR - (size_t)HEAP_START_ADDR - 
  48              		.loc 1 11 8
  49 0058 17070000 		lla	a4,.LANCHOR1
  49      13070700 
  50 0060 2330F700 		sd	a5,0(a4)
  12:src/memoryAllcator.cpp **** 
  51              		.loc 1 12 8
  52 0064 2334F700 		sd	a5,8(a4)
  53              		.loc 1 153 1
  54 0068 6FF0DFFA 		j	.L1
  55              		.cfi_endproc
  56              	.LFE34:
  58              		.align	2
  59              		.globl	_ZN15memoryAllocator4initEv
  61              	_ZN15memoryAllocator4initEv:
  62              	.LFB29:
  14:src/memoryAllcator.cpp ****     head =( BlockHeader*)(HEAP_START_ADDR);
  63              		.loc 1 14 30 is_stmt 1
  64              		.cfi_startproc
  65 006c 130101FF 		addi	sp,sp,-16
  66              		.cfi_def_cfa_offset 16
  67 0070 23348100 		sd	s0,8(sp)
  68              		.cfi_offset 8, -8
GAS LISTING /tmp/ccrRrWH0.s 			page 5


  69 0074 13040101 		addi	s0,sp,16
  70              		.cfi_def_cfa 8, 0
  15:src/memoryAllcator.cpp ****     head->size = ((uint64)HEAP_END_ADDR - (uint64)HEAP_START_ADDR) - velicinaHedera;;
  71              		.loc 1 15 5
  15:src/memoryAllcator.cpp ****     head->size = ((uint64)HEAP_END_ADDR - (uint64)HEAP_START_ADDR) - velicinaHedera;;
  72              		.loc 1 15 10 is_stmt 0
  73 0078 97050000 		la	a1,HEAP_START_ADDR
  73      83B50500 
  74 0080 03B70500 		ld	a4,0(a1)
  75 0084 97060000 		lla	a3,.LANCHOR1
  75      93860600 
  76 008c 23B8E600 		sd	a4,16(a3)
  16:src/memoryAllcator.cpp ****     head->next = nullptr;
  77              		.loc 1 16 5 is_stmt 1
  16:src/memoryAllcator.cpp ****     head->next = nullptr;
  78              		.loc 1 16 41 is_stmt 0
  79 0090 17050000 		la	a0,HEAP_END_ADDR
  79      03350500 
  80 0098 83370500 		ld	a5,0(a0)
  81 009c B387E740 		sub	a5,a5,a4
  16:src/memoryAllcator.cpp ****     head->next = nullptr;
  82              		.loc 1 16 68
  83 00a0 17060000 		lla	a2,.LANCHOR0
  83      13060600 
  84 00a8 03380600 		ld	a6,0(a2)
  85 00ac B3870741 		sub	a5,a5,a6
  16:src/memoryAllcator.cpp ****     head->next = nullptr;
  86              		.loc 1 16 16
  87 00b0 2334F700 		sd	a5,8(a4)
  16:src/memoryAllcator.cpp ****     head->next = nullptr;
  88              		.loc 1 16 85 is_stmt 1
  17:src/memoryAllcator.cpp ****     slobodnaMemorija = (((size_t)HEAP_END_ADDR - (size_t)HEAP_START_ADDR - velicinaHedera)/MEM_BLOC
  89              		.loc 1 17 5
  17:src/memoryAllcator.cpp ****     slobodnaMemorija = (((size_t)HEAP_END_ADDR - (size_t)HEAP_START_ADDR - velicinaHedera)/MEM_BLOC
  90              		.loc 1 17 16 is_stmt 0
  91 00b4 23300700 		sd	zero,0(a4)
  18:src/memoryAllcator.cpp ****     maxKapacitetMemorije = (((size_t)HEAP_END_ADDR - (size_t)HEAP_START_ADDR - velicinaHedera)/MEM_
  92              		.loc 1 18 5 is_stmt 1
  18:src/memoryAllcator.cpp ****     maxKapacitetMemorije = (((size_t)HEAP_END_ADDR - (size_t)HEAP_START_ADDR - velicinaHedera)/MEM_
  93              		.loc 1 18 48 is_stmt 0
  94 00b8 83370500 		ld	a5,0(a0)
  95 00bc 03B70500 		ld	a4,0(a1)
  96 00c0 B387E740 		sub	a5,a5,a4
  18:src/memoryAllcator.cpp ****     maxKapacitetMemorije = (((size_t)HEAP_END_ADDR - (size_t)HEAP_START_ADDR - velicinaHedera)/MEM_
  97              		.loc 1 18 74
  98 00c4 03370600 		ld	a4,0(a2)
  99 00c8 B387E740 		sub	a5,a5,a4
  18:src/memoryAllcator.cpp ****     maxKapacitetMemorije = (((size_t)HEAP_END_ADDR - (size_t)HEAP_START_ADDR - velicinaHedera)/MEM_
 100              		.loc 1 18 107
 101 00cc 93F707FC 		andi	a5,a5,-64
  18:src/memoryAllcator.cpp ****     maxKapacitetMemorije = (((size_t)HEAP_END_ADDR - (size_t)HEAP_START_ADDR - velicinaHedera)/MEM_
 102              		.loc 1 18 22
 103 00d0 23B0F600 		sd	a5,0(a3)
  19:src/memoryAllcator.cpp **** }
 104              		.loc 1 19 5 is_stmt 1
  19:src/memoryAllcator.cpp **** }
 105              		.loc 1 19 26 is_stmt 0
GAS LISTING /tmp/ccrRrWH0.s 			page 6


 106 00d4 23B4F600 		sd	a5,8(a3)
  20:src/memoryAllcator.cpp **** 
 107              		.loc 1 20 1
 108 00d8 03348100 		ld	s0,8(sp)
 109              		.cfi_restore 8
 110              		.cfi_def_cfa 2, 16
 111 00dc 13010101 		addi	sp,sp,16
 112              		.cfi_def_cfa_offset 0
 113 00e0 67800000 		jr	ra
 114              		.cfi_endproc
 115              	.LFE29:
 117              		.align	2
 118              		.globl	_ZN15memoryAllocator9mem_allocEm
 120              	_ZN15memoryAllocator9mem_allocEm:
 121              	.LFB30:
  22:src/memoryAllcator.cpp ****     if(!inicijalizovana){
 122              		.loc 1 22 47 is_stmt 1
 123              		.cfi_startproc
 124              	.LVL1:
 125 00e4 130101FE 		addi	sp,sp,-32
 126              		.cfi_def_cfa_offset 32
 127 00e8 233C1100 		sd	ra,24(sp)
 128 00ec 23388100 		sd	s0,16(sp)
 129 00f0 23349100 		sd	s1,8(sp)
 130              		.cfi_offset 1, -8
 131              		.cfi_offset 8, -16
 132              		.cfi_offset 9, -24
 133 00f4 13040102 		addi	s0,sp,32
 134              		.cfi_def_cfa 8, 0
 135 00f8 93040500 		mv	s1,a0
  23:src/memoryAllcator.cpp ****         init();
 136              		.loc 1 23 5
  23:src/memoryAllcator.cpp ****         init();
 137              		.loc 1 23 8 is_stmt 0
 138 00fc 97070000 		lbu	a5,.LANCHOR1+24
 138      83C70700 
  23:src/memoryAllcator.cpp ****         init();
 139              		.loc 1 23 5
 140 0104 638C0706 		beqz	a5,.L25
 141              	.LVL2:
 142              	.L8:
  28:src/memoryAllcator.cpp **** 
 143              		.loc 1 28 5 is_stmt 1
 144 0108 63800414 		beqz	s1,.L22
  28:src/memoryAllcator.cpp **** 
 145              		.loc 1 28 27 is_stmt 0 discriminator 2
 146 010c 97070000 		ld	a5,.LANCHOR1
 146      83B70700 
  28:src/memoryAllcator.cpp **** 
 147              		.loc 1 28 19 discriminator 2
 148 0114 63EE9712 		bltu	a5,s1,.L23
  31:src/memoryAllcator.cpp ****         size=MEM_BLOCK_SIZE*(1+size/MEM_BLOCK_SIZE);
 149              		.loc 1 31 5 is_stmt 1
  31:src/memoryAllcator.cpp ****         size=MEM_BLOCK_SIZE*(1+size/MEM_BLOCK_SIZE);
 150              		.loc 1 31 13 is_stmt 0
 151 0118 93F7F403 		andi	a5,s1,63
  31:src/memoryAllcator.cpp ****         size=MEM_BLOCK_SIZE*(1+size/MEM_BLOCK_SIZE);
GAS LISTING /tmp/ccrRrWH0.s 			page 7


 152              		.loc 1 31 5
 153 011c 63880700 		beqz	a5,.L10
  32:src/memoryAllcator.cpp ****     }
 154              		.loc 1 32 9 is_stmt 1
  32:src/memoryAllcator.cpp ****     }
 155              		.loc 1 32 36 is_stmt 0
 156 0120 93D46400 		srli	s1,s1,6
 157              	.LVL3:
  32:src/memoryAllcator.cpp ****     }
 158              		.loc 1 32 31
 159 0124 93841400 		addi	s1,s1,1
  32:src/memoryAllcator.cpp ****     }
 160              		.loc 1 32 13
 161 0128 93946400 		slli	s1,s1,6
 162              	.LVL4:
 163              	.L10:
  35:src/memoryAllcator.cpp ****         TCB::running->incrementMemory((size % MEM_BLOCK_SIZE == 0) ?
 164              		.loc 1 35 5 is_stmt 1
  35:src/memoryAllcator.cpp ****         TCB::running->incrementMemory((size % MEM_BLOCK_SIZE == 0) ?
 165              		.loc 1 35 20 is_stmt 0
 166 012c 97070000 		la	a5,_ZN3TCB7runningE
 166      83B70700 
 167 0134 83B70700 		ld	a5,0(a5)
  35:src/memoryAllcator.cpp ****         TCB::running->incrementMemory((size % MEM_BLOCK_SIZE == 0) ?
 168              		.loc 1 35 5
 169 0138 63800702 		beqz	a5,.L11
  36:src/memoryAllcator.cpp ****                                       size / MEM_BLOCK_SIZE :
 170              		.loc 1 36 9 is_stmt 1
  36:src/memoryAllcator.cpp ****                                       size / MEM_BLOCK_SIZE :
 171              		.loc 1 36 45 is_stmt 0
 172 013c 13F7F403 		andi	a4,s1,63
  36:src/memoryAllcator.cpp ****                                       size / MEM_BLOCK_SIZE :
 173              		.loc 1 36 38
 174 0140 631A0704 		bnez	a4,.L12
  37:src/memoryAllcator.cpp ****                                       (1 + size / MEM_BLOCK_SIZE));
 175              		.loc 1 37 44 discriminator 1
 176 0144 13D76400 		srli	a4,s1,6
  36:src/memoryAllcator.cpp ****                                       size / MEM_BLOCK_SIZE :
 177              		.loc 1 36 38 discriminator 1
 178 0148 9B060700 		sext.w	a3,a4
 179              	.L13:
 180              	.LVL5:
 181              	.LBB9:
 182              	.LBB10:
 183              		.file 2 "src/../h/tcb.hpp"
   1:src/../h/tcb.hpp **** 
   2:src/../h/tcb.hpp **** #ifndef TCB_HPP
   3:src/../h/tcb.hpp **** #define TCB_HPP
   4:src/../h/tcb.hpp **** 
   5:src/../h/tcb.hpp **** #include "../lib/hw.h"
   6:src/../h/tcb.hpp **** #include "scheduler.hpp"
   7:src/../h/tcb.hpp **** 
   8:src/../h/tcb.hpp **** 
   9:src/../h/tcb.hpp **** 
  10:src/../h/tcb.hpp **** int main();
  11:src/../h/tcb.hpp **** typedef struct Molecule{
  12:src/../h/tcb.hpp ****     int* ids;
GAS LISTING /tmp/ccrRrWH0.s 			page 8


  13:src/../h/tcb.hpp ****     char const **type;
  14:src/../h/tcb.hpp **** }Molecule;
  15:src/../h/tcb.hpp **** 
  16:src/../h/tcb.hpp **** 
  17:src/../h/tcb.hpp **** class Semaphore_k;
  18:src/../h/tcb.hpp **** //Thread Control Block
  19:src/../h/tcb.hpp **** 
  20:src/../h/tcb.hpp **** class TCB
  21:src/../h/tcb.hpp **** {
  22:src/../h/tcb.hpp **** public:
  23:src/../h/tcb.hpp **** 
  24:src/../h/tcb.hpp ****     using Body = void (*)(void*);
  25:src/../h/tcb.hpp ****     void* operator new(size_t size) {
  26:src/../h/tcb.hpp ****         return memoryAllocator::mem_alloc(size);
  27:src/../h/tcb.hpp ****     }
  28:src/../h/tcb.hpp ****     void* operator new[](size_t size) {
  29:src/../h/tcb.hpp ****         return memoryAllocator::mem_alloc(size);
  30:src/../h/tcb.hpp ****     }
  31:src/../h/tcb.hpp **** 
  32:src/../h/tcb.hpp ****     void operator delete(void *ptr) {
  33:src/../h/tcb.hpp ****         memoryAllocator::mem_free(ptr);
  34:src/../h/tcb.hpp ****     }
  35:src/../h/tcb.hpp ****     void operator delete[](void *ptr) {
  36:src/../h/tcb.hpp ****         memoryAllocator::mem_free(ptr);
  37:src/../h/tcb.hpp ****     }
  38:src/../h/tcb.hpp **** 
  39:src/../h/tcb.hpp ****     static TCB* kreiraj_thread(TCB** handle, TCB::Body body, void* arg, char * stek);
  40:src/../h/tcb.hpp **** 
  41:src/../h/tcb.hpp ****     static TCB *running;
  42:src/../h/tcb.hpp **** 
  43:src/../h/tcb.hpp ****     ~TCB() { delete[] stack;
  44:src/../h/tcb.hpp **** 
  45:src/../h/tcb.hpp ****     }
  46:src/../h/tcb.hpp **** 
  47:src/../h/tcb.hpp ****     bool isFinished() const { return finished; }
  48:src/../h/tcb.hpp **** 
  49:src/../h/tcb.hpp ****     void setFinished(bool value) { finished = value; }
  50:src/../h/tcb.hpp **** 
  51:src/../h/tcb.hpp ****     bool isBlocked() const { return this->blocked; }
  52:src/../h/tcb.hpp **** 
  53:src/../h/tcb.hpp ****     void setBlocked(bool value) { this->blocked = value; }
  54:src/../h/tcb.hpp **** 
  55:src/../h/tcb.hpp ****     bool isMain() const { return this->main; }
  56:src/../h/tcb.hpp **** 
  57:src/../h/tcb.hpp ****     //modifikacija PING thread
  58:src/../h/tcb.hpp ****     void incrementMemory(int increment){
  59:src/../h/tcb.hpp ****         this->allocatedBlocks+=increment;
 184              		.loc 2 59 9 is_stmt 1 discriminator 4
 185              		.loc 2 59 30 is_stmt 0 discriminator 4
 186 014c 03A70708 		lw	a4,128(a5)
 187 0150 3B07D700 		addw	a4,a4,a3
 188 0154 23A0E708 		sw	a4,128(a5)
 189              	.LVL6:
 190              	.L11:
 191              	.LBE10:
 192              	.LBE9:
  41:src/memoryAllcator.cpp ****     BlockHeader* prev = nullptr;
GAS LISTING /tmp/ccrRrWH0.s 			page 9


 193              		.loc 1 41 5 is_stmt 1
  41:src/memoryAllcator.cpp ****     BlockHeader* prev = nullptr;
 194              		.loc 1 41 18 is_stmt 0
 195 0158 17050000 		ld	a0,.LANCHOR1+16
 195      03350500 
 196              	.LVL7:
  42:src/memoryAllcator.cpp **** 
 197              		.loc 1 42 5 is_stmt 1
  42:src/memoryAllcator.cpp **** 
 198              		.loc 1 42 18 is_stmt 0
 199 0160 13070000 		li	a4,0
 200              	.LVL8:
 201              	.L21:
  45:src/memoryAllcator.cpp ****         if (curr->size >= size) {
 202              		.loc 1 45 5 is_stmt 1
  45:src/memoryAllcator.cpp ****         if (curr->size >= size) {
 203              		.loc 1 45 17
 204 0164 6300050A 		beqz	a0,.L7
 205              	.LBB11:
  46:src/memoryAllcator.cpp ****             //prvi na koji sam naisla a da u njega moze da stane zadat broj bajtova
 206              		.loc 1 46 9
 207              	.LBB12:
  46:src/memoryAllcator.cpp ****             //prvi na koji sam naisla a da u njega moze da stane zadat broj bajtova
 208              		.loc 1 46 19 is_stmt 0
 209 0168 83378500 		ld	a5,8(a0)
  46:src/memoryAllcator.cpp ****             //prvi na koji sam naisla a da u njega moze da stane zadat broj bajtova
 210              		.loc 1 46 9
 211 016c 63FA9702 		bgeu	a5,s1,.L26
 212              	.LBE12:
  82:src/memoryAllcator.cpp ****         curr = curr->next;
 213              		.loc 1 82 9 is_stmt 1
 214              	.LVL9:
  83:src/memoryAllcator.cpp ****     }
 215              		.loc 1 83 9
  82:src/memoryAllcator.cpp ****         curr = curr->next;
 216              		.loc 1 82 14 is_stmt 0
 217 0170 13070500 		mv	a4,a0
  83:src/memoryAllcator.cpp ****     }
 218              		.loc 1 83 14
 219 0174 03350500 		ld	a0,0(a0)
 220              	.LVL10:
 221              	.LBE11:
  45:src/memoryAllcator.cpp ****         if (curr->size >= size) {
 222              		.loc 1 45 5
 223 0178 6FF0DFFE 		j	.L21
 224              	.LVL11:
 225              	.L25:
  24:src/memoryAllcator.cpp ****         inicijalizovana=true;
 226              		.loc 1 24 9 is_stmt 1
  24:src/memoryAllcator.cpp ****         inicijalizovana=true;
 227              		.loc 1 24 13 is_stmt 0
 228 017c 97000000 		call	_ZN15memoryAllocator4initEv
 228      E7800000 
 229              	.LVL12:
  25:src/memoryAllcator.cpp ****     }
 230              		.loc 1 25 9 is_stmt 1
  25:src/memoryAllcator.cpp ****     }
GAS LISTING /tmp/ccrRrWH0.s 			page 10


 231              		.loc 1 25 24 is_stmt 0
 232 0184 93071000 		li	a5,1
 233 0188 17070000 		sb	a5,.LANCHOR1+24,a4
 233      2300F700 
 234 0190 6FF09FF7 		j	.L8
 235              	.L12:
  38:src/memoryAllcator.cpp ****     }
 236              		.loc 1 38 49 discriminator 2
 237 0194 13D76400 		srli	a4,s1,6
  36:src/memoryAllcator.cpp ****                                       size / MEM_BLOCK_SIZE :
 238              		.loc 1 36 38 discriminator 2
 239 0198 9B061700 		addiw	a3,a4,1
 240 019c 6FF01FFB 		j	.L13
 241              	.LVL13:
 242              	.L26:
 243              	.LBB21:
 244              	.LBB19:
 245              	.LBB13:
  49:src/memoryAllcator.cpp **** 
 246              		.loc 1 49 13 is_stmt 1
  49:src/memoryAllcator.cpp **** 
 247              		.loc 1 49 20 is_stmt 0
 248 01a0 B3879740 		sub	a5,a5,s1
 249              	.LVL14:
  51:src/memoryAllcator.cpp ****                 //pocepaj blok na stari + novi ako je moguce
 250              		.loc 1 51 13 is_stmt 1
 251              	.LBB14:
 252 01a4 9306F000 		li	a3,15
 253 01a8 63FEF606 		bleu	a5,a3,.L15
 254              	.LBB15:
  54:src/memoryAllcator.cpp ****                 newBlock->size = remainingSize - velicinaHedera;
 255              		.loc 1 54 17
  54:src/memoryAllcator.cpp ****                 newBlock->size = remainingSize - velicinaHedera;
 256              		.loc 1 54 111 is_stmt 0
 257 01ac 17060000 		ld	a2,.LANCHOR0
 257      03360600 
  54:src/memoryAllcator.cpp ****                 newBlock->size = remainingSize - velicinaHedera;
 258              		.loc 1 54 109
 259 01b4 B3069600 		add	a3,a2,s1
  54:src/memoryAllcator.cpp ****                 newBlock->size = remainingSize - velicinaHedera;
 260              		.loc 1 54 30
 261 01b8 B306D500 		add	a3,a0,a3
 262              	.LVL15:
  55:src/memoryAllcator.cpp ****                 newBlock->next = curr->next;
 263              		.loc 1 55 17 is_stmt 1
  55:src/memoryAllcator.cpp ****                 newBlock->next = curr->next;
 264              		.loc 1 55 48 is_stmt 0
 265 01bc B387C740 		sub	a5,a5,a2
 266              	.LVL16:
  55:src/memoryAllcator.cpp ****                 newBlock->next = curr->next;
 267              		.loc 1 55 32
 268 01c0 23B4F600 		sd	a5,8(a3)
 269              	.LVL17:
  56:src/memoryAllcator.cpp **** 
 270              		.loc 1 56 17 is_stmt 1
  56:src/memoryAllcator.cpp **** 
 271              		.loc 1 56 40 is_stmt 0
GAS LISTING /tmp/ccrRrWH0.s 			page 11


 272 01c4 83370500 		ld	a5,0(a0)
  56:src/memoryAllcator.cpp **** 
 273              		.loc 1 56 32
 274 01c8 23B0F600 		sd	a5,0(a3)
  58:src/memoryAllcator.cpp ****                     head = newBlock;
 275              		.loc 1 58 17 is_stmt 1
 276 01cc 63060704 		beqz	a4,.L27
  61:src/memoryAllcator.cpp ****                 }
 277              		.loc 1 61 21
  61:src/memoryAllcator.cpp ****                 }
 278              		.loc 1 61 32 is_stmt 0
 279 01d0 2330D700 		sd	a3,0(a4)
 280              	.L17:
  64:src/memoryAllcator.cpp ****                 curr->next = nullptr;
 281              		.loc 1 64 17 is_stmt 1
  64:src/memoryAllcator.cpp ****                 curr->next = nullptr;
 282              		.loc 1 64 28 is_stmt 0
 283 01d4 23349500 		sd	s1,8(a0)
  65:src/memoryAllcator.cpp ****             } else {
 284              		.loc 1 65 17 is_stmt 1
  65:src/memoryAllcator.cpp ****             } else {
 285              		.loc 1 65 28 is_stmt 0
 286 01d8 23300500 		sd	zero,0(a0)
 287              	.LVL18:
 288              	.L18:
 289              	.LBE15:
 290              	.LBE14:
  77:src/memoryAllcator.cpp ****             //vratiti pokazivac na slobodan prostor ispod zaglavlja!!!
 291              		.loc 1 77 13 is_stmt 1
  77:src/memoryAllcator.cpp ****             //vratiti pokazivac na slobodan prostor ispod zaglavlja!!!
 292              		.loc 1 77 39 is_stmt 0
 293 01dc 83378500 		ld	a5,8(a0)
  77:src/memoryAllcator.cpp ****             //vratiti pokazivac na slobodan prostor ispod zaglavlja!!!
 294              		.loc 1 77 44
 295 01e0 97060000 		ld	a3,.LANCHOR0
 295      83B60600 
 296 01e8 3387D700 		add	a4,a5,a3
  77:src/memoryAllcator.cpp ****             //vratiti pokazivac na slobodan prostor ispod zaglavlja!!!
 297              		.loc 1 77 30
 298 01ec 17060000 		lla	a2,.LANCHOR1
 298      13060600 
 299 01f4 83370600 		ld	a5,0(a2)
 300 01f8 B387E740 		sub	a5,a5,a4
 301 01fc 2330F600 		sd	a5,0(a2)
  79:src/memoryAllcator.cpp ****         }
 302              		.loc 1 79 13 is_stmt 1
  79:src/memoryAllcator.cpp ****         }
 303              		.loc 1 79 90 is_stmt 0
 304 0200 3305D500 		add	a0,a0,a3
 305              	.LVL19:
 306              	.L7:
 307              	.LBE13:
 308              	.LBE19:
 309              	.LBE21:
  87:src/memoryAllcator.cpp **** 
 310              		.loc 1 87 1
 311 0204 83308101 		ld	ra,24(sp)
GAS LISTING /tmp/ccrRrWH0.s 			page 12


 312              		.cfi_remember_state
 313              		.cfi_restore 1
 314 0208 03340101 		ld	s0,16(sp)
 315              		.cfi_restore 8
 316              		.cfi_def_cfa 2, 32
 317 020c 83348100 		ld	s1,8(sp)
 318              		.cfi_restore 9
 319              	.LVL20:
 320 0210 13010102 		addi	sp,sp,32
 321              		.cfi_def_cfa_offset 0
 322 0214 67800000 		jr	ra
 323              	.LVL21:
 324              	.L27:
 325              		.cfi_restore_state
 326              	.LBB22:
 327              	.LBB20:
 328              	.LBB18:
 329              	.LBB17:
 330              	.LBB16:
  59:src/memoryAllcator.cpp ****                 } else {
 331              		.loc 1 59 21 is_stmt 1
  59:src/memoryAllcator.cpp ****                 } else {
 332              		.loc 1 59 26 is_stmt 0
 333 0218 97070000 		sd	a3,.LANCHOR1+16,a5
 333      23B0D700 
 334 0220 6FF05FFB 		j	.L17
 335              	.LVL22:
 336              	.L15:
 337              	.LBE16:
  68:src/memoryAllcator.cpp ****                     head = curr->next;
 338              		.loc 1 68 17 is_stmt 1
 339 0224 630A0700 		beqz	a4,.L28
  71:src/memoryAllcator.cpp ****                 }
 340              		.loc 1 71 21
  71:src/memoryAllcator.cpp ****                 }
 341              		.loc 1 71 40 is_stmt 0
 342 0228 83370500 		ld	a5,0(a0)
 343              	.LVL23:
  71:src/memoryAllcator.cpp ****                 }
 344              		.loc 1 71 32
 345 022c 2330F700 		sd	a5,0(a4)
 346              	.LVL24:
 347              	.L20:
  73:src/memoryAllcator.cpp ****             }
 348              		.loc 1 73 17 is_stmt 1
  73:src/memoryAllcator.cpp ****             }
 349              		.loc 1 73 28 is_stmt 0
 350 0230 23300500 		sd	zero,0(a0)
 351 0234 6FF09FFA 		j	.L18
 352              	.LVL25:
 353              	.L28:
  69:src/memoryAllcator.cpp ****                 } else {
 354              		.loc 1 69 21 is_stmt 1
  69:src/memoryAllcator.cpp ****                 } else {
 355              		.loc 1 69 34 is_stmt 0
 356 0238 83370500 		ld	a5,0(a0)
 357              	.LVL26:
GAS LISTING /tmp/ccrRrWH0.s 			page 13


  69:src/memoryAllcator.cpp ****                 } else {
 358              		.loc 1 69 26
 359 023c 17070000 		sd	a5,.LANCHOR1+16,a4
 359      2330F700 
 360              	.LVL27:
 361 0244 6FF0DFFE 		j	.L20
 362              	.LVL28:
 363              	.L22:
 364              	.LBE17:
 365              	.LBE18:
 366              	.LBE20:
 367              	.LBE22:
  28:src/memoryAllcator.cpp **** 
 368              		.loc 1 28 54
 369 0248 13050000 		li	a0,0
 370 024c 6FF09FFB 		j	.L7
 371              	.L23:
 372 0250 13050000 		li	a0,0
 373 0254 6FF01FFB 		j	.L7
 374              		.cfi_endproc
 375              	.LFE30:
 377              		.align	2
 378              		.globl	_ZN15memoryAllocator15pokusajDaSpojisEPNS_11BlockHeaderE
 380              	_ZN15memoryAllocator15pokusajDaSpojisEPNS_11BlockHeaderE:
 381              	.LFB32:
 132:src/memoryAllcator.cpp **** 
 382              		.loc 1 132 58 is_stmt 1
 383              		.cfi_startproc
 384              	.LVL29:
 385 0258 130101FF 		addi	sp,sp,-16
 386              		.cfi_def_cfa_offset 16
 387 025c 23348100 		sd	s0,8(sp)
 388              		.cfi_offset 8, -8
 389 0260 13040101 		addi	s0,sp,16
 390              		.cfi_def_cfa 8, 0
 134:src/memoryAllcator.cpp ****     BlockHeader* right = left->next;
 391              		.loc 1 134 5
 392 0264 63060504 		beqz	a0,.L31
 135:src/memoryAllcator.cpp ****     if(right== nullptr)return false;
 393              		.loc 1 135 5
 135:src/memoryAllcator.cpp ****     if(right== nullptr)return false;
 394              		.loc 1 135 18 is_stmt 0
 395 0268 83370500 		ld	a5,0(a0)
 396              	.LVL30:
 136:src/memoryAllcator.cpp ****     if((char*)left + left->size + sizeof(BlockHeader) != (char*)right)
 397              		.loc 1 136 5 is_stmt 1
 398 026c 63860704 		beqz	a5,.L32
 137:src/memoryAllcator.cpp ****     {
 399              		.loc 1 137 5
 137:src/memoryAllcator.cpp ****     {
 400              		.loc 1 137 28 is_stmt 0
 401 0270 03378500 		ld	a4,8(a0)
 137:src/memoryAllcator.cpp ****     {
 402              		.loc 1 137 33
 403 0274 93060701 		addi	a3,a4,16
 404 0278 B306D500 		add	a3,a0,a3
 137:src/memoryAllcator.cpp ****     {
GAS LISTING /tmp/ccrRrWH0.s 			page 14


 405              		.loc 1 137 5
 406 027c 638AF600 		beq	a3,a5,.L35
 139:src/memoryAllcator.cpp ****     }
 407              		.loc 1 139 16
 408 0280 13050000 		li	a0,0
 409              	.LVL31:
 410              	.L30:
 145:src/memoryAllcator.cpp **** 
 411              		.loc 1 145 1
 412 0284 03348100 		ld	s0,8(sp)
 413              		.cfi_remember_state
 414              		.cfi_restore 8
 415              		.cfi_def_cfa 2, 16
 416 0288 13010101 		addi	sp,sp,16
 417              		.cfi_def_cfa_offset 0
 418 028c 67800000 		jr	ra
 419              	.LVL32:
 420              	.L35:
 421              		.cfi_restore_state
 141:src/memoryAllcator.cpp ****     left->size += right->size + sizeof(BlockHeader);
 422              		.loc 1 141 5 is_stmt 1
 141:src/memoryAllcator.cpp ****     left->size += right->size + sizeof(BlockHeader);
 423              		.loc 1 141 18 is_stmt 0
 424 0290 83B60700 		ld	a3,0(a5)
 425              	.LVL33:
 142:src/memoryAllcator.cpp ****     left->next = rightright;
 426              		.loc 1 142 5 is_stmt 1
 142:src/memoryAllcator.cpp ****     left->next = rightright;
 427              		.loc 1 142 26 is_stmt 0
 428 0294 83B78700 		ld	a5,8(a5)
 429              	.LVL34:
 142:src/memoryAllcator.cpp ****     left->next = rightright;
 430              		.loc 1 142 16
 431 0298 3307F700 		add	a4,a4,a5
 432 029c 13070701 		addi	a4,a4,16
 433 02a0 2334E500 		sd	a4,8(a0)
 143:src/memoryAllcator.cpp ****     return true;
 434              		.loc 1 143 5 is_stmt 1
 143:src/memoryAllcator.cpp ****     return true;
 435              		.loc 1 143 16 is_stmt 0
 436 02a4 2330D500 		sd	a3,0(a0)
 437              	.LVL35:
 144:src/memoryAllcator.cpp **** }
 438              		.loc 1 144 5 is_stmt 1
 144:src/memoryAllcator.cpp **** }
 439              		.loc 1 144 12 is_stmt 0
 440 02a8 13051000 		li	a0,1
 441              	.LVL36:
 442 02ac 6FF09FFD 		j	.L30
 443              	.LVL37:
 444              	.L31:
 134:src/memoryAllcator.cpp ****     BlockHeader* right = left->next;
 445              		.loc 1 134 30
 446 02b0 13050000 		li	a0,0
 447              	.LVL38:
 448 02b4 6FF01FFD 		j	.L30
 449              	.LVL39:
GAS LISTING /tmp/ccrRrWH0.s 			page 15


 450              	.L32:
 136:src/memoryAllcator.cpp ****     if((char*)left + left->size + sizeof(BlockHeader) != (char*)right)
 451              		.loc 1 136 31
 452 02b8 13050000 		li	a0,0
 453              	.LVL40:
 454 02bc 6FF09FFC 		j	.L30
 455              		.cfi_endproc
 456              	.LFE32:
 458              		.align	2
 459              		.globl	_ZN15memoryAllocator8mem_freeEPv
 461              	_ZN15memoryAllocator8mem_freeEPv:
 462              	.LFB31:
  89:src/memoryAllcator.cpp **** 
 463              		.loc 1 89 42 is_stmt 1
 464              		.cfi_startproc
 465              	.LVL41:
  91:src/memoryAllcator.cpp ****         return -1; // Nevalidna adresa, ne moze se osloboditi nesto sto ne postoji
 466              		.loc 1 91 5
 467 02c0 630A050C 		beqz	a0,.L44
  89:src/memoryAllcator.cpp **** 
 468              		.loc 1 89 42 is_stmt 0
 469 02c4 130101FE 		addi	sp,sp,-32
 470              		.cfi_def_cfa_offset 32
 471 02c8 233C1100 		sd	ra,24(sp)
 472 02cc 23388100 		sd	s0,16(sp)
 473 02d0 23349100 		sd	s1,8(sp)
 474 02d4 23302101 		sd	s2,0(sp)
 475              		.cfi_offset 1, -8
 476              		.cfi_offset 8, -16
 477              		.cfi_offset 9, -24
 478              		.cfi_offset 18, -32
 479 02d8 13040102 		addi	s0,sp,32
 480              		.cfi_def_cfa 8, 0
  95:src/memoryAllcator.cpp **** 
 481              		.loc 1 95 5 is_stmt 1
  95:src/memoryAllcator.cpp **** 
 482              		.loc 1 95 18 is_stmt 0
 483 02dc 97040000 		ld	s1,.LANCHOR0
 483      83B40400 
 484 02e4 B3049540 		sub	s1,a0,s1
 485              	.LVL42:
  97:src/memoryAllcator.cpp ****         return -1; // Nevalidan blok ili već oslobođen, ako nije poravnat onda nije ni blok, ovo 
 486              		.loc 1 97 5 is_stmt 1
  97:src/memoryAllcator.cpp ****         return -1; // Nevalidan blok ili već oslobođen, ako nije poravnat onda nije ni blok, ovo 
 487              		.loc 1 97 20 is_stmt 0
 488 02e8 83B78400 		ld	a5,8(s1)
  97:src/memoryAllcator.cpp ****         return -1; // Nevalidan blok ili već oslobođen, ako nije poravnat onda nije ni blok, ovo 
 489              		.loc 1 97 25
 490 02ec 13F7F703 		andi	a4,a5,63
  97:src/memoryAllcator.cpp ****         return -1; // Nevalidan blok ili već oslobođen, ako nije poravnat onda nije ni blok, ovo 
 491              		.loc 1 97 5
 492 02f0 6316070A 		bnez	a4,.L45
  97:src/memoryAllcator.cpp ****         return -1; // Nevalidan blok ili već oslobođen, ako nije poravnat onda nije ni blok, ovo 
 493              		.loc 1 97 47 discriminator 1
 494 02f4 6388070A 		beqz	a5,.L46
  97:src/memoryAllcator.cpp ****         return -1; // Nevalidan blok ili već oslobođen, ako nije poravnat onda nije ni blok, ovo 
 495              		.loc 1 97 85 discriminator 2
GAS LISTING /tmp/ccrRrWH0.s 			page 16


 496 02f8 03B90400 		ld	s2,0(s1)
  97:src/memoryAllcator.cpp ****         return -1; // Nevalidan blok ili već oslobođen, ako nije poravnat onda nije ni blok, ovo 
 497              		.loc 1 97 71 discriminator 2
 498 02fc 6318090A 		bnez	s2,.L47
 103:src/memoryAllcator.cpp ****     BlockHeader* prev = nullptr;
 499              		.loc 1 103 5 is_stmt 1
 103:src/memoryAllcator.cpp ****     BlockHeader* prev = nullptr;
 500              		.loc 1 103 18 is_stmt 0
 501 0300 97070000 		ld	a5,.LANCHOR1+16
 501      83B70700 
 502              	.LVL43:
 104:src/memoryAllcator.cpp **** 
 503              		.loc 1 104 5 is_stmt 1
 504              	.L39:
 106:src/memoryAllcator.cpp ****         prev = curr;
 505              		.loc 1 106 5
 106:src/memoryAllcator.cpp ****         prev = curr;
 506              		.loc 1 106 17
 507 0308 638A0700 		beqz	a5,.L38
 106:src/memoryAllcator.cpp ****         prev = curr;
 508              		.loc 1 106 17 is_stmt 0 discriminator 1
 509 030c 63F89700 		bgeu	a5,s1,.L38
 107:src/memoryAllcator.cpp ****         curr = curr->next;
 510              		.loc 1 107 9 is_stmt 1
 511              	.LVL44:
 108:src/memoryAllcator.cpp ****     }
 512              		.loc 1 108 9
 107:src/memoryAllcator.cpp ****         curr = curr->next;
 513              		.loc 1 107 14 is_stmt 0
 514 0310 13890700 		mv	s2,a5
 108:src/memoryAllcator.cpp ****     }
 515              		.loc 1 108 14
 516 0314 83B70700 		ld	a5,0(a5)
 517              	.LVL45:
 106:src/memoryAllcator.cpp ****         prev = curr;
 518              		.loc 1 106 5
 519 0318 6FF01FFF 		j	.L39
 520              	.L38:
 112:src/memoryAllcator.cpp ****         head = freeBlock;
 521              		.loc 1 112 5 is_stmt 1
 522 031c 63060906 		beqz	s2,.L52
 115:src/memoryAllcator.cpp ****     }
 523              		.loc 1 115 9
 115:src/memoryAllcator.cpp ****     }
 524              		.loc 1 115 20 is_stmt 0
 525 0320 23309900 		sd	s1,0(s2)
 526              	.L41:
 118:src/memoryAllcator.cpp **** 
 527              		.loc 1 118 5 is_stmt 1
 118:src/memoryAllcator.cpp **** 
 528              		.loc 1 118 21 is_stmt 0
 529 0324 23B0F400 		sd	a5,0(s1)
 530              	.LVL46:
 531              	.L42:
 121:src/memoryAllcator.cpp ****     if(prev)
 532              		.loc 1 121 5 is_stmt 1
 121:src/memoryAllcator.cpp ****     if(prev)
GAS LISTING /tmp/ccrRrWH0.s 			page 17


 533              		.loc 1 121 26
 534 0328 13850400 		mv	a0,s1
 535 032c 97000000 		call	_ZN15memoryAllocator15pokusajDaSpojisEPNS_11BlockHeaderE
 535      E7800000 
 536              	.LVL47:
 537 0334 E31A05FE 		bnez	a0,.L42
 122:src/memoryAllcator.cpp ****         //nek stoji while za svaki slucaj, isti djavo mogo je i samo if
 538              		.loc 1 122 5
 539 0338 63080900 		beqz	s2,.L43
 124:src/memoryAllcator.cpp **** 
 540              		.loc 1 124 9
 124:src/memoryAllcator.cpp **** 
 541              		.loc 1 124 28 is_stmt 0
 542 033c 13050900 		mv	a0,s2
 543 0340 97000000 		call	_ZN15memoryAllocator15pokusajDaSpojisEPNS_11BlockHeaderE
 543      E7800000 
 544              	.LVL48:
 545              	.L43:
 127:src/memoryAllcator.cpp **** 
 546              		.loc 1 127 5 is_stmt 1
 127:src/memoryAllcator.cpp **** 
 547              		.loc 1 127 36 is_stmt 0
 548 0348 83B78400 		ld	a5,8(s1)
 127:src/memoryAllcator.cpp **** 
 549              		.loc 1 127 41
 550 034c 17070000 		ld	a4,.LANCHOR0
 550      03370700 
 551 0354 3387E700 		add	a4,a5,a4
 127:src/memoryAllcator.cpp **** 
 552              		.loc 1 127 22
 553 0358 97060000 		lla	a3,.LANCHOR1
 553      93860600 
 554 0360 83B70600 		ld	a5,0(a3)
 555 0364 B387E700 		add	a5,a5,a4
 556 0368 23B0F600 		sd	a5,0(a3)
 129:src/memoryAllcator.cpp **** }
 557              		.loc 1 129 5 is_stmt 1
 129:src/memoryAllcator.cpp **** }
 558              		.loc 1 129 12 is_stmt 0
 559 036c 13050000 		li	a0,0
 560              	.LVL49:
 561              	.L37:
 130:src/memoryAllcator.cpp **** 
 562              		.loc 1 130 1
 563 0370 83308101 		ld	ra,24(sp)
 564              		.cfi_remember_state
 565              		.cfi_restore 1
 566 0374 03340101 		ld	s0,16(sp)
 567              		.cfi_restore 8
 568              		.cfi_def_cfa 2, 32
 569 0378 83348100 		ld	s1,8(sp)
 570              		.cfi_restore 9
 571              	.LVL50:
 572 037c 03390100 		ld	s2,0(sp)
 573              		.cfi_restore 18
 574 0380 13010102 		addi	sp,sp,32
 575              		.cfi_def_cfa_offset 0
GAS LISTING /tmp/ccrRrWH0.s 			page 18


 576 0384 67800000 		jr	ra
 577              	.LVL51:
 578              	.L52:
 579              		.cfi_restore_state
 113:src/memoryAllcator.cpp ****     } else {
 580              		.loc 1 113 9 is_stmt 1
 113:src/memoryAllcator.cpp ****     } else {
 581              		.loc 1 113 14 is_stmt 0
 582 0388 17070000 		sd	s1,.LANCHOR1+16,a4
 582      23309700 
 583 0390 6FF05FF9 		j	.L41
 584              	.LVL52:
 585              	.L44:
 586              		.cfi_def_cfa_register 2
 587              		.cfi_restore 1
 588              		.cfi_restore 8
 589              		.cfi_restore 9
 590              		.cfi_restore 18
  92:src/memoryAllcator.cpp ****     }
 591              		.loc 1 92 17
 592 0394 1305F0FF 		li	a0,-1
 593              	.LVL53:
 130:src/memoryAllcator.cpp **** 
 594              		.loc 1 130 1
 595 0398 67800000 		ret
 596              	.LVL54:
 597              	.L45:
 598              		.cfi_def_cfa_register 8
 599              		.cfi_offset 1, -8
 600              		.cfi_offset 8, -16
 601              		.cfi_offset 9, -24
 602              		.cfi_offset 18, -32
  98:src/memoryAllcator.cpp ****         //if it works - dont touch ! :)
 603              		.loc 1 98 17
 604 039c 1305F0FF 		li	a0,-1
 605              	.LVL55:
 606 03a0 6FF01FFD 		j	.L37
 607              	.LVL56:
 608              	.L46:
 609 03a4 1305F0FF 		li	a0,-1
 610              	.LVL57:
 611 03a8 6FF09FFC 		j	.L37
 612              	.LVL58:
 613              	.L47:
 614 03ac 1305F0FF 		li	a0,-1
 615              	.LVL59:
 616 03b0 6FF01FFC 		j	.L37
 617              		.cfi_endproc
 618              	.LFE31:
 620              		.align	2
 621              		.globl	_Z6memcpyPKvS0_i
 623              	_Z6memcpyPKvS0_i:
 624              	.LFB33:
 148:src/memoryAllcator.cpp ****     char *src1 = (char *) src;
 625              		.loc 1 148 56 is_stmt 1
 626              		.cfi_startproc
 627              	.LVL60:
GAS LISTING /tmp/ccrRrWH0.s 			page 19


 628 03b4 130101FF 		addi	sp,sp,-16
 629              		.cfi_def_cfa_offset 16
 630 03b8 23348100 		sd	s0,8(sp)
 631              		.cfi_offset 8, -8
 632 03bc 13040101 		addi	s0,sp,16
 633              		.cfi_def_cfa 8, 0
 149:src/memoryAllcator.cpp ****     char *dst1 = (char *) dst;
 634              		.loc 1 149 5
 635              	.LVL61:
 150:src/memoryAllcator.cpp ****     for (int i = 0; i < len; i++)
 636              		.loc 1 150 5
 151:src/memoryAllcator.cpp ****         dst1[i] = src1[i];
 637              		.loc 1 151 5
 638              	.LBB23:
 151:src/memoryAllcator.cpp ****         dst1[i] = src1[i];
 639              		.loc 1 151 14 is_stmt 0
 640 03c0 93070000 		li	a5,0
 641              	.LVL62:
 642              	.L55:
 151:src/memoryAllcator.cpp ****         dst1[i] = src1[i];
 643              		.loc 1 151 23 is_stmt 1 discriminator 3
 644 03c4 63DEC700 		bge	a5,a2,.L53
 152:src/memoryAllcator.cpp **** }
 645              		.loc 1 152 9 discriminator 2
 152:src/memoryAllcator.cpp **** }
 646              		.loc 1 152 15 is_stmt 0 discriminator 2
 647 03c8 3387F500 		add	a4,a1,a5
 152:src/memoryAllcator.cpp **** }
 648              		.loc 1 152 25 discriminator 2
 649 03cc B306F500 		add	a3,a0,a5
 650 03d0 83C60600 		lbu	a3,0(a3)
 152:src/memoryAllcator.cpp **** }
 651              		.loc 1 152 17 discriminator 2
 652 03d4 2300D700 		sb	a3,0(a4)
 151:src/memoryAllcator.cpp ****         dst1[i] = src1[i];
 653              		.loc 1 151 5 is_stmt 1 discriminator 2
 654 03d8 9B871700 		addiw	a5,a5,1
 655              	.LVL63:
 656 03dc 6FF09FFE 		j	.L55
 657              	.LVL64:
 658              	.L53:
 659              	.LBE23:
 660              		.loc 1 153 1 is_stmt 0
 661 03e0 03348100 		ld	s0,8(sp)
 662              		.cfi_restore 8
 663              		.cfi_def_cfa 2, 16
 664 03e4 13010101 		addi	sp,sp,16
 665              		.cfi_def_cfa_offset 0
 666 03e8 67800000 		jr	ra
 667              		.cfi_endproc
 668              	.LFE33:
 670              		.align	2
 672              	_GLOBAL__sub_I__ZN15memoryAllocator4headE:
 673              	.LFB35:
 674              		.loc 1 153 1 is_stmt 1
 675              		.cfi_startproc
 676 03ec 130101FF 		addi	sp,sp,-16
GAS LISTING /tmp/ccrRrWH0.s 			page 20


 677              		.cfi_def_cfa_offset 16
 678 03f0 23341100 		sd	ra,8(sp)
 679 03f4 23308100 		sd	s0,0(sp)
 680              		.cfi_offset 1, -8
 681              		.cfi_offset 8, -16
 682 03f8 13040101 		addi	s0,sp,16
 683              		.cfi_def_cfa 8, 0
 684              		.loc 1 153 1 is_stmt 0
 685 03fc B7050100 		li	a1,65536
 686 0400 9385F5FF 		addi	a1,a1,-1
 687 0404 13051000 		li	a0,1
 688 0408 97000000 		call	_Z41__static_initialization_and_destruction_0ii
 688      E7800000 
 689              	.LVL65:
 690 0410 83308100 		ld	ra,8(sp)
 691              		.cfi_restore 1
 692 0414 03340100 		ld	s0,0(sp)
 693              		.cfi_restore 8
 694              		.cfi_def_cfa 2, 16
 695 0418 13010101 		addi	sp,sp,16
 696              		.cfi_def_cfa_offset 0
 697 041c 67800000 		jr	ra
 698              		.cfi_endproc
 699              	.LFE35:
 701              		.section	.init_array,"aw"
 702              		.align	3
 703 0000 00000000 		.dword	_GLOBAL__sub_I__ZN15memoryAllocator4headE
 703      00000000 
 704              		.globl	_ZN15memoryAllocator20maxKapacitetMemorijeE
 705              		.globl	_ZN15memoryAllocator16slobodnaMemorijaE
 706              		.globl	_ZN15memoryAllocator15inicijalizovanaE
 707              		.globl	_ZN15memoryAllocator14velicinaHederaE
 708              		.globl	_ZN15memoryAllocator4headE
 709              		.data
 710              		.align	3
 711              		.set	.LANCHOR0,. + 0
 714              	_ZN15memoryAllocator14velicinaHederaE:
 715 0000 10000000 		.dword	16
 715      00000000 
 716              		.bss
 717              		.align	3
 718              		.set	.LANCHOR1,. + 0
 721              	_ZN15memoryAllocator16slobodnaMemorijaE:
 722 0000 00000000 		.zero	8
 722      00000000 
 725              	_ZN15memoryAllocator20maxKapacitetMemorijeE:
 726 0008 00000000 		.zero	8
 726      00000000 
 729              	_ZN15memoryAllocator4headE:
 730 0010 00000000 		.zero	8
 730      00000000 
 733              	_ZN15memoryAllocator15inicijalizovanaE:
 734 0018 00       		.zero	1
 735              		.text
 736              	.Letext0:
 737              		.file 3 "src/../h/../lib/hw.h"
 738              		.file 4 "src/../h/memoryAllocator.hpp"
GAS LISTING /tmp/ccrRrWH0.s 			page 21


 739              		.file 5 "src/../h/List.hpp"
GAS LISTING /tmp/ccrRrWH0.s 			page 22

