GAS LISTING /tmp/ccGC7MtP.s 			page 1


   1              		.file	"Semaphore_k.cpp"
   2              		.option pic
   3              		.option norelax
   4              		.text
   5              	.Ltext0:
   6              		.align	2
   7              		.globl	_ZN11Semaphore_k14kreirajSemaforEj
   9              	_ZN11Semaphore_k14kreirajSemaforEj:
  10              	.LFB36:
  11              		.file 1 "src/Semaphore_k.cpp"
   1:src/Semaphore_k.cpp **** //
   2:src/Semaphore_k.cpp **** // Created by os on 5/17/24.
   3:src/Semaphore_k.cpp **** //
   4:src/Semaphore_k.cpp **** 
   5:src/Semaphore_k.cpp **** #include "../h/Semaphore_k.hpp"
   6:src/Semaphore_k.cpp **** #include "../h/syscall_c.h"
   7:src/Semaphore_k.cpp **** #include "../test/printing.hpp"
   8:src/Semaphore_k.cpp **** 
   9:src/Semaphore_k.cpp **** //ovo mi treba za sem_open
  10:src/Semaphore_k.cpp **** Semaphore_k *Semaphore_k::kreirajSemafor(unsigned int init) {
  12              		.loc 1 10 61
  13              		.cfi_startproc
  14              	.LVL0:
  15 0000 130101FE 		addi	sp,sp,-32
  16              		.cfi_def_cfa_offset 32
  17 0004 233C1100 		sd	ra,24(sp)
  18 0008 23388100 		sd	s0,16(sp)
  19 000c 23349100 		sd	s1,8(sp)
  20              		.cfi_offset 1, -8
  21              		.cfi_offset 8, -16
  22              		.cfi_offset 9, -24
  23 0010 13040102 		addi	s0,sp,32
  24              		.cfi_def_cfa 8, 0
  25 0014 93040500 		mv	s1,a0
  11:src/Semaphore_k.cpp ****     return new Semaphore_k(init);
  26              		.loc 1 11 5
  27              	.LVL1:
  28              	.LBB40:
  29              	.LBB41:
  30              		.file 2 "src/../h/Semaphore_k.hpp"
   1:src/../h/Semaphore_k.hpp **** //
   2:src/../h/Semaphore_k.hpp **** // Created by os on 5/17/24.
   3:src/../h/Semaphore_k.hpp **** //
   4:src/../h/Semaphore_k.hpp **** 
   5:src/../h/Semaphore_k.hpp **** #ifndef SEMAPHORE_K_HPP
   6:src/../h/Semaphore_k.hpp **** #define SEMAPHORE_K_HPP
   7:src/../h/Semaphore_k.hpp **** 
   8:src/../h/Semaphore_k.hpp **** #include "List.hpp"
   9:src/../h/Semaphore_k.hpp **** #include "tcb.hpp"
  10:src/../h/Semaphore_k.hpp **** 
  11:src/../h/Semaphore_k.hpp **** 
  12:src/../h/Semaphore_k.hpp **** class Semaphore_k {
  13:src/../h/Semaphore_k.hpp **** private:
  14:src/../h/Semaphore_k.hpp ****     bool closed;
  15:src/../h/Semaphore_k.hpp ****     int value;
  16:src/../h/Semaphore_k.hpp ****     Lista<TCB> blocked;
  17:src/../h/Semaphore_k.hpp **** protected:
GAS LISTING /tmp/ccGC7MtP.s 			page 2


  18:src/../h/Semaphore_k.hpp ****     void block();
  19:src/../h/Semaphore_k.hpp **** 
  20:src/../h/Semaphore_k.hpp ****     void deblock();
  21:src/../h/Semaphore_k.hpp **** 
  22:src/../h/Semaphore_k.hpp **** 
  23:src/../h/Semaphore_k.hpp **** public:
  24:src/../h/Semaphore_k.hpp ****     using sem_t = Semaphore_k*;
  25:src/../h/Semaphore_k.hpp ****     void* operator new(size_t size) {
  26:src/../h/Semaphore_k.hpp ****         return memoryAllocator::mem_alloc(size);
  31              		.loc 2 26 9
  32              		.loc 2 26 42 is_stmt 0
  33 0018 13058001 		li	a0,24
  34              	.LVL2:
  35 001c 97000000 		call	_ZN15memoryAllocator9mem_allocEm@plt
  35      E7800000 
  36              	.LVL3:
  37              	.LBE41:
  38              	.LBE40:
  39              	.LBB42:
  40              	.LBB43:
  27:src/../h/Semaphore_k.hpp ****     }
  28:src/../h/Semaphore_k.hpp ****     void* operator new[](size_t size) {
  29:src/../h/Semaphore_k.hpp ****         return memoryAllocator::mem_alloc(size);
  30:src/../h/Semaphore_k.hpp ****     }
  31:src/../h/Semaphore_k.hpp **** 
  32:src/../h/Semaphore_k.hpp ****     void operator delete(void *ptr) {
  33:src/../h/Semaphore_k.hpp ****         memoryAllocator::mem_free(ptr);
  34:src/../h/Semaphore_k.hpp ****     }
  35:src/../h/Semaphore_k.hpp ****     void operator delete[](void *ptr) {
  36:src/../h/Semaphore_k.hpp ****         memoryAllocator::mem_free(ptr);
  37:src/../h/Semaphore_k.hpp ****     }
  38:src/../h/Semaphore_k.hpp **** 
  39:src/../h/Semaphore_k.hpp ****     Semaphore_k(unsigned init = 0):closed(false),value(init){
  41              		.loc 2 39 60
  42 0024 23000500 		sb	zero,0(a0)
  43 0028 23229500 		sw	s1,4(a0)
  44              	.LVL4:
  45              	.LBB44:
  46              	.LBB45:
  47              		.file 3 "src/../h/List.hpp"
   1:src/../h/List.hpp **** //
   2:src/../h/List.hpp **** // Created by marko on 20.4.22..
   3:src/../h/List.hpp **** //
   4:src/../h/List.hpp **** 
   5:src/../h/List.hpp **** #ifndef OS1_VEZBE07_RISCV_CONTEXT_SWITCH_2_INTERRUPT_LIST_HPP
   6:src/../h/List.hpp **** #define OS1_VEZBE07_RISCV_CONTEXT_SWITCH_2_INTERRUPT_LIST_HPP
   7:src/../h/List.hpp **** 
   8:src/../h/List.hpp **** #include "memoryAllocator.hpp"
   9:src/../h/List.hpp **** 
  10:src/../h/List.hpp **** template<typename T>
  11:src/../h/List.hpp **** class Lista
  12:src/../h/List.hpp **** {
  13:src/../h/List.hpp **** private:
  14:src/../h/List.hpp ****     struct Elem
  15:src/../h/List.hpp ****     {
  16:src/../h/List.hpp ****         T *data;
  17:src/../h/List.hpp ****         Elem *next;
GAS LISTING /tmp/ccGC7MtP.s 			page 3


  18:src/../h/List.hpp **** 
  19:src/../h/List.hpp ****         Elem(T *data, Elem *next) : data(data), next(next) {}
  20:src/../h/List.hpp **** 
  21:src/../h/List.hpp ****     };
  22:src/../h/List.hpp **** 
  23:src/../h/List.hpp ****     Elem *head, *tail;
  24:src/../h/List.hpp **** 
  25:src/../h/List.hpp **** public:
  26:src/../h/List.hpp ****     Lista() : head(0), tail(0) {}
  48              		.loc 3 26 30
  49 002c 23340500 		sd	zero,8(a0)
  50 0030 23380500 		sd	zero,16(a0)
  51              	.LVL5:
  52              	.LBE45:
  53              	.LBE44:
  54              	.LBE43:
  55              	.LBE42:
  12:src/Semaphore_k.cpp **** }
  56              		.loc 1 12 1
  57 0034 83308101 		ld	ra,24(sp)
  58              		.cfi_restore 1
  59 0038 03340101 		ld	s0,16(sp)
  60              		.cfi_restore 8
  61              		.cfi_def_cfa 2, 32
  62 003c 83348100 		ld	s1,8(sp)
  63              		.cfi_restore 9
  64 0040 13010102 		addi	sp,sp,32
  65              		.cfi_def_cfa_offset 0
  66 0044 67800000 		jr	ra
  67              		.cfi_endproc
  68              	.LFE36:
  70              		.align	2
  71              		.globl	_ZN11Semaphore_k7deblockEv
  73              	_ZN11Semaphore_k7deblockEv:
  74              	.LFB37:
  13:src/Semaphore_k.cpp **** 
  14:src/Semaphore_k.cpp **** //deblock i block pozivam u signal i wait
  15:src/Semaphore_k.cpp **** //slicno kao u skolskom jezgru (knjiga str. 273)
  16:src/Semaphore_k.cpp **** //inicijalizujes sem sa unsigned, a interna semaforska
  17:src/Semaphore_k.cpp **** //promenljiva moze value moze biti negativna
  18:src/Semaphore_k.cpp **** void Semaphore_k::deblock() {
  75              		.loc 1 18 29 is_stmt 1
  76              		.cfi_startproc
  77              	.LVL6:
  78 0048 130101FE 		addi	sp,sp,-32
  79              		.cfi_def_cfa_offset 32
  80 004c 233C1100 		sd	ra,24(sp)
  81 0050 23388100 		sd	s0,16(sp)
  82 0054 23349100 		sd	s1,8(sp)
  83              		.cfi_offset 1, -8
  84              		.cfi_offset 8, -16
  85              		.cfi_offset 9, -24
  86 0058 13040102 		addi	s0,sp,32
  87              		.cfi_def_cfa 8, 0
  88 005c 93070500 		mv	a5,a0
  19:src/Semaphore_k.cpp **** 
  20:src/Semaphore_k.cpp **** 
GAS LISTING /tmp/ccGC7MtP.s 			page 4


  21:src/Semaphore_k.cpp ****     TCB* tcb = blocked.removeFirst();
  89              		.loc 1 21 5
  90              	.LVL7:
  91              	.LBB46:
  92              	.LBB47:
  27:src/../h/List.hpp **** 
  28:src/../h/List.hpp ****     Lista(const Lista<T> &) = delete;
  29:src/../h/List.hpp **** 
  30:src/../h/List.hpp ****     Lista<T> &operator=(const Lista<T> &) = delete;
  31:src/../h/List.hpp **** 
  32:src/../h/List.hpp ****     void addFirst(T *data)
  33:src/../h/List.hpp ****     {
  34:src/../h/List.hpp ****         Elem *elem = new Elem(data, head);
  35:src/../h/List.hpp ****         head = elem;
  36:src/../h/List.hpp ****         if (!tail) { tail = head; }
  37:src/../h/List.hpp ****     }
  38:src/../h/List.hpp **** 
  39:src/../h/List.hpp ****     void addLast(T *data)
  40:src/../h/List.hpp ****     {
  41:src/../h/List.hpp ****         Elem *elem = new Elem(data, 0);
  42:src/../h/List.hpp ****         if (tail)
  43:src/../h/List.hpp ****         {
  44:src/../h/List.hpp ****             tail->next = elem;
  45:src/../h/List.hpp ****             tail = elem;
  46:src/../h/List.hpp ****         } else
  47:src/../h/List.hpp ****         {
  48:src/../h/List.hpp ****             head = tail = elem;
  49:src/../h/List.hpp ****         }
  50:src/../h/List.hpp ****     }
  51:src/../h/List.hpp **** 
  52:src/../h/List.hpp ****     T *removeFirst()
  53:src/../h/List.hpp ****     {
  54:src/../h/List.hpp ****         if (!head) { return 0; }
  93              		.loc 3 54 14 is_stmt 0
  94 0060 03358500 		ld	a0,8(a0)
  95              	.LVL8:
  96              		.loc 3 54 9
  97 0064 63040504 		beqz	a0,.L6
  98              	.LVL9:
  55:src/../h/List.hpp **** 
  56:src/../h/List.hpp ****         Elem *elem = head;
  57:src/../h/List.hpp ****         head = head->next;
  99              		.loc 3 57 22
 100 0068 03378500 		ld	a4,8(a0)
 101              		.loc 3 57 9
 102 006c 23B4E700 		sd	a4,8(a5)
  58:src/../h/List.hpp ****         if (!head) { tail = 0; }
 103              		.loc 3 58 9
 104 0070 630A0702 		beqz	a4,.L8
 105              	.L5:
  59:src/../h/List.hpp **** 
  60:src/../h/List.hpp ****         T *ret = elem->data;
 106              		.loc 3 60 12
 107 0074 83340500 		ld	s1,0(a0)
 108              	.LVL10:
  61:src/../h/List.hpp ****         delete elem;
 109              		.loc 3 61 9
GAS LISTING /tmp/ccGC7MtP.s 			page 5


 110 0078 97000000 		call	_ZdlPv@plt
 110      E7800000 
 111              	.LVL11:
 112              	.L4:
 113              	.LBE47:
 114              	.LBE46:
  22:src/Semaphore_k.cpp ****     tcb->setBlocked(false);
 115              		.loc 1 22 5 is_stmt 1
 116              	.LBB49:
 117              	.LBB50:
 118              		.file 4 "src/../h/tcb.hpp"
   1:src/../h/tcb.hpp **** 
   2:src/../h/tcb.hpp **** #ifndef TCB_HPP
   3:src/../h/tcb.hpp **** #define TCB_HPP
   4:src/../h/tcb.hpp **** 
   5:src/../h/tcb.hpp **** #include "../lib/hw.h"
   6:src/../h/tcb.hpp **** #include "scheduler.hpp"
   7:src/../h/tcb.hpp **** 
   8:src/../h/tcb.hpp **** 
   9:src/../h/tcb.hpp **** 
  10:src/../h/tcb.hpp **** int main();
  11:src/../h/tcb.hpp **** typedef struct Molecule{
  12:src/../h/tcb.hpp ****     int* ids;
  13:src/../h/tcb.hpp ****     char const **type;
  14:src/../h/tcb.hpp **** }Molecule;
  15:src/../h/tcb.hpp **** 
  16:src/../h/tcb.hpp **** 
  17:src/../h/tcb.hpp **** class Semaphore_k;
  18:src/../h/tcb.hpp **** //Thread Control Block
  19:src/../h/tcb.hpp **** 
  20:src/../h/tcb.hpp **** class TCB
  21:src/../h/tcb.hpp **** {
  22:src/../h/tcb.hpp **** public:
  23:src/../h/tcb.hpp **** 
  24:src/../h/tcb.hpp ****     using Body = void (*)(void*);
  25:src/../h/tcb.hpp ****     void* operator new(size_t size) {
  26:src/../h/tcb.hpp ****         return memoryAllocator::mem_alloc(size);
  27:src/../h/tcb.hpp ****     }
  28:src/../h/tcb.hpp ****     void* operator new[](size_t size) {
  29:src/../h/tcb.hpp ****         return memoryAllocator::mem_alloc(size);
  30:src/../h/tcb.hpp ****     }
  31:src/../h/tcb.hpp **** 
  32:src/../h/tcb.hpp ****     void operator delete(void *ptr) {
  33:src/../h/tcb.hpp ****         memoryAllocator::mem_free(ptr);
  34:src/../h/tcb.hpp ****     }
  35:src/../h/tcb.hpp ****     void operator delete[](void *ptr) {
  36:src/../h/tcb.hpp ****         memoryAllocator::mem_free(ptr);
  37:src/../h/tcb.hpp ****     }
  38:src/../h/tcb.hpp **** 
  39:src/../h/tcb.hpp ****     static TCB* kreiraj_thread(TCB** handle, TCB::Body body, void* arg, char * stek);
  40:src/../h/tcb.hpp **** 
  41:src/../h/tcb.hpp ****     static TCB *running;
  42:src/../h/tcb.hpp **** 
  43:src/../h/tcb.hpp ****     ~TCB() { delete[] stack;
  44:src/../h/tcb.hpp **** 
  45:src/../h/tcb.hpp ****     }
  46:src/../h/tcb.hpp **** 
GAS LISTING /tmp/ccGC7MtP.s 			page 6


  47:src/../h/tcb.hpp ****     bool isFinished() const { return finished; }
  48:src/../h/tcb.hpp **** 
  49:src/../h/tcb.hpp ****     void setFinished(bool value) { finished = value; }
  50:src/../h/tcb.hpp **** 
  51:src/../h/tcb.hpp ****     bool isBlocked() const { return this->blocked; }
  52:src/../h/tcb.hpp **** 
  53:src/../h/tcb.hpp ****     void setBlocked(bool value) { this->blocked = value; }
 119              		.loc 4 53 35
 120              		.loc 4 53 49 is_stmt 0
 121 0080 A3800402 		sb	zero,33(s1)
 122              	.LVL12:
 123              	.LBE50:
 124              	.LBE49:
  23:src/Semaphore_k.cpp **** 
  24:src/Semaphore_k.cpp ****     Scheduler::put(tcb);
 125              		.loc 1 24 5 is_stmt 1
 126              		.loc 1 24 19 is_stmt 0
 127 0084 13850400 		mv	a0,s1
 128 0088 97000000 		call	_ZN9Scheduler3putEP3TCB@plt
 128      E7800000 
 129              	.LVL13:
  25:src/Semaphore_k.cpp ****     //printString("Jedna nit deblokirana\n");
  26:src/Semaphore_k.cpp **** }
 130              		.loc 1 26 1
 131 0090 83308101 		ld	ra,24(sp)
 132              		.cfi_remember_state
 133              		.cfi_restore 1
 134 0094 03340101 		ld	s0,16(sp)
 135              		.cfi_restore 8
 136              		.cfi_def_cfa 2, 32
 137 0098 83348100 		ld	s1,8(sp)
 138              		.cfi_restore 9
 139              	.LVL14:
 140 009c 13010102 		addi	sp,sp,32
 141              		.cfi_def_cfa_offset 0
 142 00a0 67800000 		jr	ra
 143              	.LVL15:
 144              	.L8:
 145              		.cfi_restore_state
 146              	.LBB51:
 147              	.LBB48:
  58:src/../h/List.hpp **** 
 148              		.loc 3 58 22
 149 00a4 23B80700 		sd	zero,16(a5)
 150 00a8 6FF0DFFC 		j	.L5
 151              	.LVL16:
 152              	.L6:
  54:src/../h/List.hpp **** 
 153              		.loc 3 54 29
 154 00ac 93040500 		mv	s1,a0
 155 00b0 6FF01FFD 		j	.L4
 156              	.LBE48:
 157              	.LBE51:
 158              		.cfi_endproc
 159              	.LFE37:
 161              		.align	2
 162              		.globl	_ZN11Semaphore_k5blockEv
GAS LISTING /tmp/ccGC7MtP.s 			page 7


 164              	_ZN11Semaphore_k5blockEv:
 165              	.LFB38:
  27:src/Semaphore_k.cpp **** 
  28:src/Semaphore_k.cpp **** 
  29:src/Semaphore_k.cpp **** void Semaphore_k::block() {
 166              		.loc 1 29 27 is_stmt 1
 167              		.cfi_startproc
 168              	.LVL17:
 169 00b4 130101FE 		addi	sp,sp,-32
 170              		.cfi_def_cfa_offset 32
 171 00b8 233C1100 		sd	ra,24(sp)
 172 00bc 23388100 		sd	s0,16(sp)
 173 00c0 23349100 		sd	s1,8(sp)
 174 00c4 23302101 		sd	s2,0(sp)
 175              		.cfi_offset 1, -8
 176              		.cfi_offset 8, -16
 177              		.cfi_offset 9, -24
 178              		.cfi_offset 18, -32
 179 00c8 13040102 		addi	s0,sp,32
 180              		.cfi_def_cfa 8, 0
 181 00cc 93040500 		mv	s1,a0
  30:src/Semaphore_k.cpp ****     blocked.addLast(TCB::running);
 182              		.loc 1 30 5
 183              		.loc 1 30 20 is_stmt 0
 184 00d0 97070000 		la	a5,_ZN3TCB7runningE
 184      83B70700 
 185 00d8 03B90700 		ld	s2,0(a5)
 186              	.LVL18:
 187              	.LBB52:
 188              	.LBB53:
  41:src/../h/List.hpp ****         if (tail)
 189              		.loc 3 41 22
 190 00dc 13050001 		li	a0,16
 191              	.LVL19:
 192 00e0 97000000 		call	_Znwm@plt
 192      E7800000 
 193              	.LVL20:
 194              	.LBB54:
 195              	.LBB55:
  19:src/../h/List.hpp **** 
 196              		.loc 3 19 58
 197 00e8 23302501 		sd	s2,0(a0)
 198 00ec 23340500 		sd	zero,8(a0)
 199              	.LVL21:
 200              	.LBE55:
 201              	.LBE54:
  42:src/../h/List.hpp ****         {
 202              		.loc 3 42 13
 203 00f0 83B70401 		ld	a5,16(s1)
  42:src/../h/List.hpp ****         {
 204              		.loc 3 42 9
 205 00f4 63800704 		beqz	a5,.L10
  44:src/../h/List.hpp ****             tail = elem;
 206              		.loc 3 44 13
 207 00f8 23B4A700 		sd	a0,8(a5)
  45:src/../h/List.hpp ****         } else
 208              		.loc 3 45 13
GAS LISTING /tmp/ccGC7MtP.s 			page 8


 209 00fc 23B8A400 		sd	a0,16(s1)
 210              	.L11:
 211              	.LVL22:
 212              	.LBE53:
 213              	.LBE52:
  31:src/Semaphore_k.cpp ****     TCB::running->setBlocked(true);
 214              		.loc 1 31 5 is_stmt 1
 215              		.loc 1 31 29 is_stmt 0
 216 0100 97070000 		la	a5,_ZN3TCB7runningE
 216      83B70700 
 217 0108 83B70700 		ld	a5,0(a5)
 218              	.LVL23:
 219              	.LBB57:
 220              	.LBB58:
 221              		.loc 4 53 35 is_stmt 1
 222              		.loc 4 53 49 is_stmt 0
 223 010c 13071000 		li	a4,1
 224 0110 A380E702 		sb	a4,33(a5)
 225              	.LVL24:
 226              	.LBE58:
 227              	.LBE57:
  32:src/Semaphore_k.cpp ****     thread_dispatch();
 228              		.loc 1 32 5 is_stmt 1
 229              		.loc 1 32 20 is_stmt 0
 230 0114 97000000 		call	_Z15thread_dispatchv@plt
 230      E7800000 
 231              	.LVL25:
  33:src/Semaphore_k.cpp **** }
 232              		.loc 1 33 1
 233 011c 83308101 		ld	ra,24(sp)
 234              		.cfi_remember_state
 235              		.cfi_restore 1
 236 0120 03340101 		ld	s0,16(sp)
 237              		.cfi_restore 8
 238              		.cfi_def_cfa 2, 32
 239 0124 83348100 		ld	s1,8(sp)
 240              		.cfi_restore 9
 241              	.LVL26:
 242 0128 03390100 		ld	s2,0(sp)
 243              		.cfi_restore 18
 244 012c 13010102 		addi	sp,sp,32
 245              		.cfi_def_cfa_offset 0
 246 0130 67800000 		jr	ra
 247              	.LVL27:
 248              	.L10:
 249              		.cfi_restore_state
 250              	.LBB59:
 251              	.LBB56:
  48:src/../h/List.hpp ****         }
 252              		.loc 3 48 13
 253 0134 23B8A400 		sd	a0,16(s1)
 254 0138 23B4A400 		sd	a0,8(s1)
 255 013c 6FF05FFC 		j	.L11
 256              	.LBE56:
 257              	.LBE59:
 258              		.cfi_endproc
 259              	.LFE38:
GAS LISTING /tmp/ccGC7MtP.s 			page 9


 261              		.align	2
 262              		.globl	_ZN11Semaphore_k4waitEv
 264              	_ZN11Semaphore_k4waitEv:
 265              	.LFB39:
  34:src/Semaphore_k.cpp **** 
  35:src/Semaphore_k.cpp **** 
  36:src/Semaphore_k.cpp **** 
  37:src/Semaphore_k.cpp **** int Semaphore_k::wait() {
 266              		.loc 1 37 25 is_stmt 1
 267              		.cfi_startproc
 268              	.LVL28:
  38:src/Semaphore_k.cpp **** 
  39:src/Semaphore_k.cpp ****     if(closed) {
 269              		.loc 1 39 5
 270              		.loc 1 39 8 is_stmt 0
 271 0140 83470500 		lbu	a5,0(a0)
 272              		.loc 1 39 5
 273 0144 63900706 		bnez	a5,.L15
  37:src/Semaphore_k.cpp **** 
 274              		.loc 1 37 25
 275 0148 130101FE 		addi	sp,sp,-32
 276              		.cfi_def_cfa_offset 32
 277 014c 233C1100 		sd	ra,24(sp)
 278 0150 23388100 		sd	s0,16(sp)
 279 0154 23349100 		sd	s1,8(sp)
 280              		.cfi_offset 1, -8
 281              		.cfi_offset 8, -16
 282              		.cfi_offset 9, -24
 283 0158 13040102 		addi	s0,sp,32
 284              		.cfi_def_cfa 8, 0
 285 015c 93040500 		mv	s1,a0
  40:src/Semaphore_k.cpp ****         return -1;
  41:src/Semaphore_k.cpp ****     }
  42:src/Semaphore_k.cpp **** 
  43:src/Semaphore_k.cpp ****     if(--value < 0) {
 286              		.loc 1 43 5 is_stmt 1
 287              		.loc 1 43 10 is_stmt 0
 288 0160 83274500 		lw	a5,4(a0)
 289              		.loc 1 43 8
 290 0164 9B87F7FF 		addiw	a5,a5,-1
 291              		.loc 1 43 16
 292 0168 2322F500 		sw	a5,4(a0)
 293              		.loc 1 43 5
 294 016c 13970702 		slli	a4,a5,32
 295 0170 634E0700 		bltz	a4,.L22
  44:src/Semaphore_k.cpp ****         block();
  45:src/Semaphore_k.cpp **** 
  46:src/Semaphore_k.cpp ****         if(closed) {
  47:src/Semaphore_k.cpp ****             return -1;
  48:src/Semaphore_k.cpp ****         }
  49:src/Semaphore_k.cpp **** 
  50:src/Semaphore_k.cpp ****     }
  51:src/Semaphore_k.cpp **** 
  52:src/Semaphore_k.cpp ****     return 0;
 296              		.loc 1 52 12
 297 0174 13050000 		li	a0,0
 298              	.LVL29:
GAS LISTING /tmp/ccGC7MtP.s 			page 10


 299              	.L14:
  53:src/Semaphore_k.cpp **** }
 300              		.loc 1 53 1
 301 0178 83308101 		ld	ra,24(sp)
 302              		.cfi_remember_state
 303              		.cfi_restore 1
 304 017c 03340101 		ld	s0,16(sp)
 305              		.cfi_restore 8
 306              		.cfi_def_cfa 2, 32
 307 0180 83348100 		ld	s1,8(sp)
 308              		.cfi_restore 9
 309              	.LVL30:
 310 0184 13010102 		addi	sp,sp,32
 311              		.cfi_def_cfa_offset 0
 312 0188 67800000 		jr	ra
 313              	.LVL31:
 314              	.L22:
 315              		.cfi_restore_state
  44:src/Semaphore_k.cpp ****         block();
 316              		.loc 1 44 9 is_stmt 1
  44:src/Semaphore_k.cpp ****         block();
 317              		.loc 1 44 14 is_stmt 0
 318 018c 97000000 		call	_ZN11Semaphore_k5blockEv
 318      E7800000 
 319              	.LVL32:
  46:src/Semaphore_k.cpp ****             return -1;
 320              		.loc 1 46 9 is_stmt 1
  46:src/Semaphore_k.cpp ****             return -1;
 321              		.loc 1 46 12 is_stmt 0
 322 0194 83C70400 		lbu	a5,0(s1)
  46:src/Semaphore_k.cpp ****             return -1;
 323              		.loc 1 46 9
 324 0198 639A0700 		bnez	a5,.L17
  52:src/Semaphore_k.cpp **** }
 325              		.loc 1 52 12
 326 019c 13050000 		li	a0,0
 327 01a0 6FF09FFD 		j	.L14
 328              	.LVL33:
 329              	.L15:
 330              		.cfi_def_cfa_register 2
 331              		.cfi_restore 1
 332              		.cfi_restore 8
 333              		.cfi_restore 9
  40:src/Semaphore_k.cpp ****     }
 334              		.loc 1 40 17
 335 01a4 1305F0FF 		li	a0,-1
 336              	.LVL34:
 337              		.loc 1 53 1
 338 01a8 67800000 		ret
 339              	.LVL35:
 340              	.L17:
 341              		.cfi_def_cfa_register 8
 342              		.cfi_offset 1, -8
 343              		.cfi_offset 8, -16
 344              		.cfi_offset 9, -24
  47:src/Semaphore_k.cpp ****         }
 345              		.loc 1 47 21
GAS LISTING /tmp/ccGC7MtP.s 			page 11


 346 01ac 1305F0FF 		li	a0,-1
 347 01b0 6FF09FFC 		j	.L14
 348              		.cfi_endproc
 349              	.LFE39:
 351              		.align	2
 352              		.globl	_ZN11Semaphore_k7trywaitEv
 354              	_ZN11Semaphore_k7trywaitEv:
 355              	.LFB40:
  54:src/Semaphore_k.cpp **** 
  55:src/Semaphore_k.cpp **** 
  56:src/Semaphore_k.cpp **** int Semaphore_k::trywait() {
 356              		.loc 1 56 28 is_stmt 1
 357              		.cfi_startproc
 358              	.LVL36:
 359 01b4 130101FF 		addi	sp,sp,-16
 360              		.cfi_def_cfa_offset 16
 361 01b8 23348100 		sd	s0,8(sp)
 362              		.cfi_offset 8, -8
 363 01bc 13040101 		addi	s0,sp,16
 364              		.cfi_def_cfa 8, 0
  57:src/Semaphore_k.cpp ****     //U slučaju zaključavanja semafora vraća 0,
  58:src/Semaphore_k.cpp ****     if (closed) {
 365              		.loc 1 58 5
 366              		.loc 1 58 9 is_stmt 0
 367 01c0 83470500 		lbu	a5,0(a0)
 368              		.loc 1 58 5
 369 01c4 63920702 		bnez	a5,.L25
  59:src/Semaphore_k.cpp ****         return 0;
  60:src/Semaphore_k.cpp ****     }
  61:src/Semaphore_k.cpp **** 
  62:src/Semaphore_k.cpp ****     //u slučaju neuspeha
  63:src/Semaphore_k.cpp ****     //vraća negativnu vrednost (kod greške)
  64:src/Semaphore_k.cpp ****     if (value <= 0) {
 370              		.loc 1 64 5 is_stmt 1
 371              		.loc 1 64 9 is_stmt 0
 372 01c8 83274500 		lw	a5,4(a0)
 373              		.loc 1 64 5
 374 01cc 6352F002 		blez	a5,.L26
  65:src/Semaphore_k.cpp ****         return -1; // Semafor nije dostupan, odustajemo od čekanja
  66:src/Semaphore_k.cpp ****     }
  67:src/Semaphore_k.cpp ****     //mogu da umnajim kad je value>0
  68:src/Semaphore_k.cpp ****     --value;
 375              		.loc 1 68 5 is_stmt 1
 376 01d0 9B87F7FF 		addiw	a5,a5,-1
 377 01d4 2322F500 		sw	a5,4(a0)
  69:src/Semaphore_k.cpp **** 
  70:src/Semaphore_k.cpp ****     //u
  71:src/Semaphore_k.cpp ****     //slučaju kada semafor nije zaključan 1
  72:src/Semaphore_k.cpp ****     return 1;
 378              		.loc 1 72 5
 379              		.loc 1 72 12 is_stmt 0
 380 01d8 13051000 		li	a0,1
 381              	.LVL37:
 382              	.L24:
  73:src/Semaphore_k.cpp **** 
  74:src/Semaphore_k.cpp **** }
 383              		.loc 1 74 1
GAS LISTING /tmp/ccGC7MtP.s 			page 12


 384 01dc 03348100 		ld	s0,8(sp)
 385              		.cfi_remember_state
 386              		.cfi_restore 8
 387              		.cfi_def_cfa 2, 16
 388 01e0 13010101 		addi	sp,sp,16
 389              		.cfi_def_cfa_offset 0
 390 01e4 67800000 		jr	ra
 391              	.LVL38:
 392              	.L25:
 393              		.cfi_restore_state
  59:src/Semaphore_k.cpp ****     }
 394              		.loc 1 59 16
 395 01e8 13050000 		li	a0,0
 396              	.LVL39:
 397 01ec 6FF01FFF 		j	.L24
 398              	.LVL40:
 399              	.L26:
  65:src/Semaphore_k.cpp ****     }
 400              		.loc 1 65 17
 401 01f0 1305F0FF 		li	a0,-1
 402              	.LVL41:
 403 01f4 6FF09FFE 		j	.L24
 404              		.cfi_endproc
 405              	.LFE40:
 407              		.align	2
 408              		.globl	_ZN11Semaphore_k6signalEv
 410              	_ZN11Semaphore_k6signalEv:
 411              	.LFB41:
  75:src/Semaphore_k.cpp **** 
  76:src/Semaphore_k.cpp **** int Semaphore_k::signal() {
 412              		.loc 1 76 27 is_stmt 1
 413              		.cfi_startproc
 414              	.LVL42:
  77:src/Semaphore_k.cpp **** 
  78:src/Semaphore_k.cpp ****     if(closed) {
 415              		.loc 1 78 5
 416              		.loc 1 78 8 is_stmt 0
 417 01f8 83470500 		lbu	a5,0(a0)
 418              		.loc 1 78 5
 419 01fc 63960704 		bnez	a5,.L30
  79:src/Semaphore_k.cpp ****         return -1;
  80:src/Semaphore_k.cpp ****     }
  81:src/Semaphore_k.cpp **** 
  82:src/Semaphore_k.cpp **** 
  83:src/Semaphore_k.cpp **** 
  84:src/Semaphore_k.cpp ****     if(++value <= 0) {
 420              		.loc 1 84 5 is_stmt 1
 421              		.loc 1 84 10 is_stmt 0
 422 0200 83274500 		lw	a5,4(a0)
 423              		.loc 1 84 8
 424 0204 9B871700 		addiw	a5,a5,1
 425 0208 1B870700 		sext.w	a4,a5
 426              		.loc 1 84 16
 427 020c 2322F500 		sw	a5,4(a0)
 428              		.loc 1 84 5
 429 0210 6356E000 		blez	a4,.L36
  85:src/Semaphore_k.cpp ****         deblock();
GAS LISTING /tmp/ccGC7MtP.s 			page 13


  86:src/Semaphore_k.cpp **** 
  87:src/Semaphore_k.cpp **** 
  88:src/Semaphore_k.cpp **** 
  89:src/Semaphore_k.cpp ****     }
  90:src/Semaphore_k.cpp **** 
  91:src/Semaphore_k.cpp ****     return 0;
 430              		.loc 1 91 12
 431 0214 13050000 		li	a0,0
 432              	.LVL43:
  92:src/Semaphore_k.cpp **** 
  93:src/Semaphore_k.cpp **** }
 433              		.loc 1 93 1
 434 0218 67800000 		ret
 435              	.LVL44:
 436              	.L36:
  76:src/Semaphore_k.cpp **** 
 437              		.loc 1 76 27
 438 021c 130101FF 		addi	sp,sp,-16
 439              		.cfi_def_cfa_offset 16
 440 0220 23341100 		sd	ra,8(sp)
 441 0224 23308100 		sd	s0,0(sp)
 442              		.cfi_offset 1, -8
 443              		.cfi_offset 8, -16
 444 0228 13040101 		addi	s0,sp,16
 445              		.cfi_def_cfa 8, 0
  85:src/Semaphore_k.cpp ****         deblock();
 446              		.loc 1 85 9 is_stmt 1
  85:src/Semaphore_k.cpp ****         deblock();
 447              		.loc 1 85 16 is_stmt 0
 448 022c 97000000 		call	_ZN11Semaphore_k7deblockEv
 448      E7800000 
 449              	.LVL45:
  91:src/Semaphore_k.cpp **** 
 450              		.loc 1 91 12
 451 0234 13050000 		li	a0,0
 452              		.loc 1 93 1
 453 0238 83308100 		ld	ra,8(sp)
 454              		.cfi_restore 1
 455 023c 03340100 		ld	s0,0(sp)
 456              		.cfi_restore 8
 457              		.cfi_def_cfa 2, 16
 458 0240 13010101 		addi	sp,sp,16
 459              		.cfi_def_cfa_offset 0
 460 0244 67800000 		jr	ra
 461              	.LVL46:
 462              	.L30:
  79:src/Semaphore_k.cpp ****     }
 463              		.loc 1 79 17
 464 0248 1305F0FF 		li	a0,-1
 465              	.LVL47:
 466 024c 67800000 		ret
 467              		.cfi_endproc
 468              	.LFE41:
 470              		.align	2
 471              		.globl	_ZN11Semaphore_k5closeEv
 473              	_ZN11Semaphore_k5closeEv:
 474              	.LFB42:
GAS LISTING /tmp/ccGC7MtP.s 			page 14


  94:src/Semaphore_k.cpp **** 
  95:src/Semaphore_k.cpp **** 
  96:src/Semaphore_k.cpp **** 
  97:src/Semaphore_k.cpp **** 
  98:src/Semaphore_k.cpp **** int Semaphore_k::close() {
 475              		.loc 1 98 26 is_stmt 1
 476              		.cfi_startproc
 477              	.LVL48:
  99:src/Semaphore_k.cpp **** 
 100:src/Semaphore_k.cpp ****     if (closed) {
 478              		.loc 1 100 5
 479              		.loc 1 100 9 is_stmt 0
 480 0250 83470500 		lbu	a5,0(a0)
 481              		.loc 1 100 5
 482 0254 63940708 		bnez	a5,.L43
  98:src/Semaphore_k.cpp **** 
 483              		.loc 1 98 26
 484 0258 130101FE 		addi	sp,sp,-32
 485              		.cfi_def_cfa_offset 32
 486 025c 233C1100 		sd	ra,24(sp)
 487 0260 23388100 		sd	s0,16(sp)
 488 0264 23349100 		sd	s1,8(sp)
 489              		.cfi_offset 1, -8
 490              		.cfi_offset 8, -16
 491              		.cfi_offset 9, -24
 492 0268 13040102 		addi	s0,sp,32
 493              		.cfi_def_cfa 8, 0
 494 026c 93040500 		mv	s1,a0
 101:src/Semaphore_k.cpp ****         return -1;
 102:src/Semaphore_k.cpp ****     }
 103:src/Semaphore_k.cpp **** 
 104:src/Semaphore_k.cpp ****     closed = true;
 495              		.loc 1 104 5 is_stmt 1
 496              		.loc 1 104 12 is_stmt 0
 497 0270 93071000 		li	a5,1
 498 0274 2300F500 		sb	a5,0(a0)
 105:src/Semaphore_k.cpp **** 
 106:src/Semaphore_k.cpp ****     //odblokira sve niti
 107:src/Semaphore_k.cpp ****     if (blocked.peekFirst() != nullptr) {
 499              		.loc 1 107 5 is_stmt 1
 500              	.LVL49:
 501              	.LBB70:
 502              	.LBB71:
  62:src/../h/List.hpp ****         return ret;
  63:src/../h/List.hpp ****     }
  64:src/../h/List.hpp **** 
  65:src/../h/List.hpp ****     T *peekFirst()
  66:src/../h/List.hpp ****     {
  67:src/../h/List.hpp ****         if (!head) { return 0; }
 503              		.loc 3 67 14 is_stmt 0
 504 0278 83378500 		ld	a5,8(a0)
 505              		.loc 3 67 9
 506 027c 63840706 		beqz	a5,.L44
  68:src/../h/List.hpp ****         return head->data;
 507              		.loc 3 68 22
 508 0280 83B70700 		ld	a5,0(a5)
 509              	.LVL50:
GAS LISTING /tmp/ccGC7MtP.s 			page 15


 510              	.LBE71:
 511              	.LBE70:
 512              		.loc 1 107 5
 513 0284 639C0700 		bnez	a5,.L42
 108:src/Semaphore_k.cpp ****         while (blocked.peekFirst()) {
 109:src/Semaphore_k.cpp ****             blocked.peekFirst()->setBlocked(false);             //odblokira sve niti koje su bile z
 110:src/Semaphore_k.cpp ****             Scheduler::put(blocked.peekFirst());
 111:src/Semaphore_k.cpp ****             blocked.removeFirst();
 112:src/Semaphore_k.cpp ****         }
 113:src/Semaphore_k.cpp ****     }
 114:src/Semaphore_k.cpp **** 
 115:src/Semaphore_k.cpp **** 
 116:src/Semaphore_k.cpp **** 
 117:src/Semaphore_k.cpp ****     return 0;
 514              		.loc 1 117 12
 515 0288 13050000 		li	a0,0
 516              	.LVL51:
 517 028c 6F004006 		j	.L38
 518              	.LVL52:
 519              	.L52:
 520              	.LBB72:
 521              	.LBB73:
  58:src/../h/List.hpp **** 
 522              		.loc 3 58 22
 523 0290 23B80400 		sd	zero,16(s1)
 524              	.L41:
 525              	.LVL53:
  61:src/../h/List.hpp ****         return ret;
 526              		.loc 3 61 9
 527 0294 97000000 		call	_ZdlPv@plt
 527      E7800000 
 528              	.LVL54:
 529              	.L42:
 530              	.LBE73:
 531              	.LBE72:
 108:src/Semaphore_k.cpp ****         while (blocked.peekFirst()) {
 532              		.loc 1 108 9 is_stmt 1
 108:src/Semaphore_k.cpp ****         while (blocked.peekFirst()) {
 533              		.loc 1 108 34
 534              	.LBB75:
 535              	.LBB76:
  67:src/../h/List.hpp ****         return head->data;
 536              		.loc 3 67 14 is_stmt 0
 537 029c 83B78400 		ld	a5,8(s1)
  67:src/../h/List.hpp ****         return head->data;
 538              		.loc 3 67 9
 539 02a0 63860704 		beqz	a5,.L46
 540              		.loc 3 68 22
 541 02a4 83B70700 		ld	a5,0(a5)
 542              	.LVL55:
 543              	.LBE76:
 544              	.LBE75:
 108:src/Semaphore_k.cpp ****             blocked.peekFirst()->setBlocked(false);             //odblokira sve niti koje su bile z
 545              		.loc 1 108 34
 546 02a8 638E0704 		beqz	a5,.L47
 109:src/Semaphore_k.cpp ****             Scheduler::put(blocked.peekFirst());
 547              		.loc 1 109 13 is_stmt 1
GAS LISTING /tmp/ccGC7MtP.s 			page 16


 548              	.LVL56:
 549              	.LBB77:
 550              	.LBB78:
 551              		.loc 4 53 35
 552              		.loc 4 53 49 is_stmt 0
 553 02ac A3800702 		sb	zero,33(a5)
 554              	.LVL57:
 555              	.LBE78:
 556              	.LBE77:
 110:src/Semaphore_k.cpp ****             blocked.removeFirst();
 557              		.loc 1 110 13 is_stmt 1
 558              	.LBB79:
 559              	.LBB80:
  67:src/../h/List.hpp ****         return head->data;
 560              		.loc 3 67 14 is_stmt 0
 561 02b0 03B58400 		ld	a0,8(s1)
  67:src/../h/List.hpp ****         return head->data;
 562              		.loc 3 67 9
 563 02b4 63040500 		beqz	a0,.L39
 564              		.loc 3 68 22
 565 02b8 03350500 		ld	a0,0(a0)
 566              	.L39:
 567              	.LVL58:
 568              	.LBE80:
 569              	.LBE79:
 110:src/Semaphore_k.cpp ****             blocked.removeFirst();
 570              		.loc 1 110 27
 571 02bc 97000000 		call	_ZN9Scheduler3putEP3TCB@plt
 571      E7800000 
 572              	.LVL59:
 111:src/Semaphore_k.cpp ****         }
 573              		.loc 1 111 13 is_stmt 1
 574              	.LBB81:
 575              	.LBB74:
  54:src/../h/List.hpp **** 
 576              		.loc 3 54 14 is_stmt 0
 577 02c4 03B58400 		ld	a0,8(s1)
  54:src/../h/List.hpp **** 
 578              		.loc 3 54 9
 579 02c8 E30A05FC 		beqz	a0,.L42
 580              	.LVL60:
  57:src/../h/List.hpp ****         if (!head) { tail = 0; }
 581              		.loc 3 57 22
 582 02cc 83378500 		ld	a5,8(a0)
  57:src/../h/List.hpp ****         if (!head) { tail = 0; }
 583              		.loc 3 57 9
 584 02d0 23B4F400 		sd	a5,8(s1)
  58:src/../h/List.hpp **** 
 585              		.loc 3 58 9
 586 02d4 E39007FC 		bnez	a5,.L41
 587 02d8 6FF09FFB 		j	.L52
 588              	.LVL61:
 589              	.L43:
 590              		.cfi_def_cfa_register 2
 591              		.cfi_restore 1
 592              		.cfi_restore 8
 593              		.cfi_restore 9
GAS LISTING /tmp/ccGC7MtP.s 			page 17


 594              	.LBE74:
 595              	.LBE81:
 101:src/Semaphore_k.cpp ****     }
 596              		.loc 1 101 17
 597 02dc 1305F0FF 		li	a0,-1
 598              	.LVL62:
 118:src/Semaphore_k.cpp **** }
 599              		.loc 1 118 1
 600 02e0 67800000 		ret
 601              	.LVL63:
 602              	.L44:
 603              		.cfi_def_cfa_register 8
 604              		.cfi_offset 1, -8
 605              		.cfi_offset 8, -16
 606              		.cfi_offset 9, -24
 117:src/Semaphore_k.cpp **** }
 607              		.loc 1 117 12
 608 02e4 13050000 		li	a0,0
 609 02e8 6F008000 		j	.L38
 610              	.LVL64:
 611              	.L46:
 612 02ec 13050000 		li	a0,0
 613              	.LVL65:
 614              	.L38:
 615              		.loc 1 118 1
 616 02f0 83308101 		ld	ra,24(sp)
 617              		.cfi_remember_state
 618              		.cfi_restore 1
 619 02f4 03340101 		ld	s0,16(sp)
 620              		.cfi_restore 8
 621              		.cfi_def_cfa 2, 32
 622 02f8 83348100 		ld	s1,8(sp)
 623              		.cfi_restore 9
 624              	.LVL66:
 625 02fc 13010102 		addi	sp,sp,32
 626              		.cfi_def_cfa_offset 0
 627 0300 67800000 		jr	ra
 628              	.LVL67:
 629              	.L47:
 630              		.cfi_restore_state
 117:src/Semaphore_k.cpp **** }
 631              		.loc 1 117 12
 632 0304 13050000 		li	a0,0
 633 0308 6FF09FFE 		j	.L38
 634              		.cfi_endproc
 635              	.LFE42:
 637              		.align	2
 638              		.globl	_ZN11Semaphore_k9timedwaitEm
 640              	_ZN11Semaphore_k9timedwaitEm:
 641              	.LFB43:
 119:src/Semaphore_k.cpp **** 
 120:src/Semaphore_k.cpp **** //nisam radila asinhronu
 121:src/Semaphore_k.cpp **** int Semaphore_k::timedwait(time_t timeout) {
 642              		.loc 1 121 44 is_stmt 1
 643              		.cfi_startproc
 644              	.LVL68:
 645 030c 130101FF 		addi	sp,sp,-16
GAS LISTING /tmp/ccGC7MtP.s 			page 18


 646              		.cfi_def_cfa_offset 16
 647 0310 23348100 		sd	s0,8(sp)
 648              		.cfi_offset 8, -8
 649 0314 13040101 		addi	s0,sp,16
 650              		.cfi_def_cfa 8, 0
 122:src/Semaphore_k.cpp ****     return 0;
 651              		.loc 1 122 5
 123:src/Semaphore_k.cpp **** }
 652              		.loc 1 123 1 is_stmt 0
 653 0318 13050000 		li	a0,0
 654              	.LVL69:
 655 031c 03348100 		ld	s0,8(sp)
 656              		.cfi_restore 8
 657              		.cfi_def_cfa 2, 16
 658 0320 13010101 		addi	sp,sp,16
 659              		.cfi_def_cfa_offset 0
 660 0324 67800000 		jr	ra
 661              		.cfi_endproc
 662              	.LFE43:
 664              		.align	2
 665              		.globl	_ZN11Semaphore_kD2Ev
 667              	_ZN11Semaphore_kD2Ev:
 668              	.LFB45:
 124:src/Semaphore_k.cpp **** 
 125:src/Semaphore_k.cpp **** Semaphore_k::~Semaphore_k() {
 669              		.loc 1 125 1 is_stmt 1
 670              		.cfi_startproc
 671              		.cfi_personality 0x9b,DW.ref.__gxx_personality_v0
 672              		.cfi_lsda 0x1b,.LLSDA45
 673              	.LVL70:
 674 0328 130101FF 		addi	sp,sp,-16
 675              		.cfi_def_cfa_offset 16
 676 032c 23341100 		sd	ra,8(sp)
 677 0330 23308100 		sd	s0,0(sp)
 678              		.cfi_offset 1, -8
 679              		.cfi_offset 8, -16
 680 0334 13040101 		addi	s0,sp,16
 681              		.cfi_def_cfa 8, 0
 682              	.LBB82:
 126:src/Semaphore_k.cpp ****     close();
 683              		.loc 1 126 5
 684              		.loc 1 126 10 is_stmt 0
 685 0338 97000000 		call	_ZN11Semaphore_k5closeEv
 685      E7800000 
 686              	.LVL71:
 687              	.LBE82:
 127:src/Semaphore_k.cpp **** }
 688              		.loc 1 127 1
 689 0340 83308100 		ld	ra,8(sp)
 690              		.cfi_restore 1
 691 0344 03340100 		ld	s0,0(sp)
 692              		.cfi_restore 8
 693              		.cfi_def_cfa 2, 16
 694 0348 13010101 		addi	sp,sp,16
 695              		.cfi_def_cfa_offset 0
 696 034c 67800000 		jr	ra
 697              		.cfi_endproc
GAS LISTING /tmp/ccGC7MtP.s 			page 19


 698              	.LFE45:
 699              		.globl	__gxx_personality_v0
 700              		.section	.gcc_except_table,"a",@progbits
 701              	.LLSDA45:
 702 0000 FF       		.byte	0xff
 703 0001 FF       		.byte	0xff
 704 0002 03       		.byte	0x3
 705 0003 00       		.byte	0
 706              		.text
 708              		.globl	_ZN11Semaphore_kD1Ev
 709              		.set	_ZN11Semaphore_kD1Ev,_ZN11Semaphore_kD2Ev
 710              		.align	2
 711              		.globl	_ZN11Semaphore_k5waitNEj
 713              	_ZN11Semaphore_k5waitNEj:
 714              	.LFB47:
 128:src/Semaphore_k.cpp **** 
 129:src/Semaphore_k.cpp **** int Semaphore_k::waitN(unsigned int n) {
 715              		.loc 1 129 40 is_stmt 1
 716              		.cfi_startproc
 717              	.LVL72:
 130:src/Semaphore_k.cpp ****     value-=n;
 718              		.loc 1 130 5
 719              		.loc 1 130 10 is_stmt 0
 720 0350 83274500 		lw	a5,4(a0)
 721 0354 BB85B740 		subw	a1,a5,a1
 722              	.LVL73:
 723 0358 2322B500 		sw	a1,4(a0)
 131:src/Semaphore_k.cpp ****     //printInt(value);
 132:src/Semaphore_k.cpp ****     //printString("\n");
 133:src/Semaphore_k.cpp ****     if(value<0){
 724              		.loc 1 133 5 is_stmt 1
 725 035c 93970502 		slli	a5,a1,32
 726 0360 63C60700 		bltz	a5,.L63
 134:src/Semaphore_k.cpp ****         //printString("NIt ceka na jos: \n");
 135:src/Semaphore_k.cpp ****         TCB::running->waiting = -(value);
 136:src/Semaphore_k.cpp ****         //printInt(TCB::running->waiting);
 137:src/Semaphore_k.cpp ****         //printString(" zetona\n");
 138:src/Semaphore_k.cpp ****         value=0;
 139:src/Semaphore_k.cpp ****         block();
 140:src/Semaphore_k.cpp ****     }
 141:src/Semaphore_k.cpp **** 
 142:src/Semaphore_k.cpp ****     return 0;
 727              		.loc 1 142 5
 143:src/Semaphore_k.cpp **** }
 728              		.loc 1 143 1 is_stmt 0
 729 0364 13050000 		li	a0,0
 730              	.LVL74:
 731 0368 67800000 		ret
 732              	.LVL75:
 733              	.L63:
 129:src/Semaphore_k.cpp ****     value-=n;
 734              		.loc 1 129 40
 735 036c 130101FF 		addi	sp,sp,-16
 736              		.cfi_def_cfa_offset 16
 737 0370 23341100 		sd	ra,8(sp)
 738 0374 23308100 		sd	s0,0(sp)
 739              		.cfi_offset 1, -8
GAS LISTING /tmp/ccGC7MtP.s 			page 20


 740              		.cfi_offset 8, -16
 741 0378 13040101 		addi	s0,sp,16
 742              		.cfi_def_cfa 8, 0
 135:src/Semaphore_k.cpp ****         //printInt(TCB::running->waiting);
 743              		.loc 1 135 9 is_stmt 1
 135:src/Semaphore_k.cpp ****         //printInt(TCB::running->waiting);
 744              		.loc 1 135 33 is_stmt 0
 745 037c BB05B040 		negw	a1,a1
 135:src/Semaphore_k.cpp ****         //printInt(TCB::running->waiting);
 746              		.loc 1 135 31
 747 0380 97070000 		la	a5,_ZN3TCB7waitingE
 747      83B70700 
 748 0388 23A0B700 		sw	a1,0(a5)
 138:src/Semaphore_k.cpp ****         block();
 749              		.loc 1 138 9 is_stmt 1
 138:src/Semaphore_k.cpp ****         block();
 750              		.loc 1 138 14 is_stmt 0
 751 038c 23220500 		sw	zero,4(a0)
 139:src/Semaphore_k.cpp ****     }
 752              		.loc 1 139 9 is_stmt 1
 139:src/Semaphore_k.cpp ****     }
 753              		.loc 1 139 14 is_stmt 0
 754 0390 97000000 		call	_ZN11Semaphore_k5blockEv
 754      E7800000 
 755              	.LVL76:
 142:src/Semaphore_k.cpp **** }
 756              		.loc 1 142 5 is_stmt 1
 757              		.loc 1 143 1 is_stmt 0
 758 0398 13050000 		li	a0,0
 759 039c 83308100 		ld	ra,8(sp)
 760              		.cfi_restore 1
 761 03a0 03340100 		ld	s0,0(sp)
 762              		.cfi_restore 8
 763              		.cfi_def_cfa 2, 16
 764 03a4 13010101 		addi	sp,sp,16
 765              		.cfi_def_cfa_offset 0
 766 03a8 67800000 		jr	ra
 767              		.cfi_endproc
 768              	.LFE47:
 770              		.align	2
 771              		.globl	_ZN11Semaphore_k7signalNEv
 773              	_ZN11Semaphore_k7signalNEv:
 774              	.LFB48:
 144:src/Semaphore_k.cpp **** 
 145:src/Semaphore_k.cpp **** int Semaphore_k::signalN() {
 775              		.loc 1 145 28 is_stmt 1
 776              		.cfi_startproc
 777              	.LVL77:
 146:src/Semaphore_k.cpp **** 
 147:src/Semaphore_k.cpp ****     TCB* tcb = blocked.peekFirst();
 778              		.loc 1 147 5
 779              	.LBB83:
 780              	.LBB84:
  67:src/../h/List.hpp ****         return head->data;
 781              		.loc 3 67 14 is_stmt 0
 782 03ac 83378500 		ld	a5,8(a0)
  67:src/../h/List.hpp ****         return head->data;
GAS LISTING /tmp/ccGC7MtP.s 			page 21


 783              		.loc 3 67 9
 784 03b0 638E0704 		beqz	a5,.L65
 785              		.loc 3 68 22
 786 03b4 83B70700 		ld	a5,0(a5)
 787              	.LVL78:
 788              	.LBE84:
 789              	.LBE83:
 148:src/Semaphore_k.cpp ****     if(tcb){
 790              		.loc 1 148 5 is_stmt 1
 791 03b8 638A0704 		beqz	a5,.L65
 149:src/Semaphore_k.cpp **** //        printString("Usao u if waiting = \n");
 150:src/Semaphore_k.cpp **** //        printInt(tcb->waiting);
 151:src/Semaphore_k.cpp **** //        printString("\n");
 152:src/Semaphore_k.cpp ****         tcb->waiting--;
 792              		.loc 1 152 9
 793              		.loc 1 152 21 is_stmt 0
 794 03bc 17070000 		la	a4,_ZN3TCB7waitingE
 794      03370700 
 795 03c4 83270700 		lw	a5,0(a4)
 796              	.LVL79:
 797 03c8 9B87F7FF 		addiw	a5,a5,-1
 798 03cc 9B860700 		sext.w	a3,a5
 799 03d0 2320F700 		sw	a5,0(a4)
 800              	.LVL80:
 153:src/Semaphore_k.cpp ****         if(tcb->waiting==0 ){
 801              		.loc 1 153 9 is_stmt 1
 802 03d4 63860600 		beqz	a3,.L71
 803              	.L68:
 154:src/Semaphore_k.cpp ****             //printString("Usla u waiting ==0 signalN\n");
 155:src/Semaphore_k.cpp ****             deblock();
 156:src/Semaphore_k.cpp ****             //printString("Deblokirna\n");
 157:src/Semaphore_k.cpp ****         }
 158:src/Semaphore_k.cpp **** 
 159:src/Semaphore_k.cpp ****     }else{
 160:src/Semaphore_k.cpp ****         value=value+1;
 161:src/Semaphore_k.cpp ****         //printString("Value u else u signalN\n");
 162:src/Semaphore_k.cpp ****         //printInt(value);
 163:src/Semaphore_k.cpp ****         //printString("\n");
 164:src/Semaphore_k.cpp ****     }
 165:src/Semaphore_k.cpp **** 
 166:src/Semaphore_k.cpp ****     return 0;
 804              		.loc 1 166 5
 167:src/Semaphore_k.cpp **** }
 805              		.loc 1 167 1 is_stmt 0
 806 03d8 13050000 		li	a0,0
 807              	.LVL81:
 808 03dc 67800000 		ret
 809              	.LVL82:
 810              	.L71:
 145:src/Semaphore_k.cpp **** 
 811              		.loc 1 145 28
 812 03e0 130101FF 		addi	sp,sp,-16
 813              		.cfi_def_cfa_offset 16
 814 03e4 23341100 		sd	ra,8(sp)
 815 03e8 23308100 		sd	s0,0(sp)
 816              		.cfi_offset 1, -8
 817              		.cfi_offset 8, -16
GAS LISTING /tmp/ccGC7MtP.s 			page 22


 818 03ec 13040101 		addi	s0,sp,16
 819              		.cfi_def_cfa 8, 0
 155:src/Semaphore_k.cpp ****             //printString("Deblokirna\n");
 820              		.loc 1 155 13 is_stmt 1
 155:src/Semaphore_k.cpp ****             //printString("Deblokirna\n");
 821              		.loc 1 155 20 is_stmt 0
 822 03f0 97000000 		call	_ZN11Semaphore_k7deblockEv
 822      E7800000 
 823              	.LVL83:
 166:src/Semaphore_k.cpp **** }
 824              		.loc 1 166 5 is_stmt 1
 825              		.loc 1 167 1 is_stmt 0
 826 03f8 13050000 		li	a0,0
 827 03fc 83308100 		ld	ra,8(sp)
 828              		.cfi_restore 1
 829 0400 03340100 		ld	s0,0(sp)
 830              		.cfi_restore 8
 831              		.cfi_def_cfa 2, 16
 832 0404 13010101 		addi	sp,sp,16
 833              		.cfi_def_cfa_offset 0
 834 0408 67800000 		jr	ra
 835              	.LVL84:
 836              	.L65:
 160:src/Semaphore_k.cpp ****         //printString("Value u else u signalN\n");
 837              		.loc 1 160 9 is_stmt 1
 160:src/Semaphore_k.cpp ****         //printString("Value u else u signalN\n");
 838              		.loc 1 160 15 is_stmt 0
 839 040c 83274500 		lw	a5,4(a0)
 160:src/Semaphore_k.cpp ****         //printString("Value u else u signalN\n");
 840              		.loc 1 160 20
 841 0410 9B871700 		addiw	a5,a5,1
 160:src/Semaphore_k.cpp ****         //printString("Value u else u signalN\n");
 842              		.loc 1 160 14
 843 0414 2322F500 		sw	a5,4(a0)
 844 0418 6FF01FFC 		j	.L68
 845              		.cfi_endproc
 846              	.LFE48:
 848              	.Letext0:
 849              		.file 5 "src/../h/../lib/hw.h"
 850              		.file 6 "src/../h/memoryAllocator.hpp"
 851              		.file 7 "src/../h/scheduler.hpp"
 852              		.file 8 "src/../h/syscall_c.h"
 6042              		.align	3
 6045              	DW.ref.__gxx_personality_v0:
 6046 0000 00000000 		.dword	__gxx_personality_v0
 6046      00000000 
 6047              		.ident	"GCC: (Ubuntu 9.4.0-1ubuntu1~20.04) 9.4.0"
 6048              		.section	.note.GNU-stack,"",@progbits
GAS LISTING /tmp/ccGC7MtP.s 			page 23

