GAS LISTING /tmp/ccxslZcu.s 			page 1


   1              		.file	"syscall_cpp.cpp"
   2              		.option pic
   3              		.option norelax
   4              		.text
   5              	.Ltext0:
   6              		.section	.text._ZN6Thread3runEv,"axG",@progbits,_ZN6Thread3runEv,comdat
   7              		.align	2
   8              		.weak	_ZN6Thread3runEv
  10              	_ZN6Thread3runEv:
  11              	.LFB3:
  12              		.file 1 "src/../h/syscall_cpp.hpp"
   1:src/../h/syscall_cpp.hpp **** //
   2:src/../h/syscall_cpp.hpp **** // Created by os on 5/17/24.
   3:src/../h/syscall_cpp.hpp **** //
   4:src/../h/syscall_cpp.hpp **** 
   5:src/../h/syscall_cpp.hpp **** #ifndef syscall_cpp
   6:src/../h/syscall_cpp.hpp **** #define syscall_cpp
   7:src/../h/syscall_cpp.hpp **** 
   8:src/../h/syscall_cpp.hpp **** #include "syscall_c.h"
   9:src/../h/syscall_cpp.hpp **** 
  10:src/../h/syscall_cpp.hpp **** 
  11:src/../h/syscall_cpp.hpp **** void* operator new(size_t size);
  12:src/../h/syscall_cpp.hpp **** void operator delete(void* p) noexcept;
  13:src/../h/syscall_cpp.hpp **** 
  14:src/../h/syscall_cpp.hpp **** class Semaphore {
  15:src/../h/syscall_cpp.hpp **** public:
  16:src/../h/syscall_cpp.hpp ****     explicit Semaphore(unsigned init = 1);
  17:src/../h/syscall_cpp.hpp ****     virtual ~Semaphore();
  18:src/../h/syscall_cpp.hpp **** 
  19:src/../h/syscall_cpp.hpp ****     int wait();
  20:src/../h/syscall_cpp.hpp ****     int signal();
  21:src/../h/syscall_cpp.hpp ****     int timedwait(time_t timeout) ;
  22:src/../h/syscall_cpp.hpp ****     int trywait();
  23:src/../h/syscall_cpp.hpp **** 
  24:src/../h/syscall_cpp.hpp ****     int waitN(int n);
  25:src/../h/syscall_cpp.hpp ****     int signalN();
  26:src/../h/syscall_cpp.hpp **** 
  27:src/../h/syscall_cpp.hpp **** protected:
  28:src/../h/syscall_cpp.hpp ****     sem_t myHandle;
  29:src/../h/syscall_cpp.hpp **** };
  30:src/../h/syscall_cpp.hpp **** 
  31:src/../h/syscall_cpp.hpp **** class Thread {
  32:src/../h/syscall_cpp.hpp **** public:
  33:src/../h/syscall_cpp.hpp **** 
  34:src/../h/syscall_cpp.hpp ****     Thread(void (*body)(void*), void* arg);
  35:src/../h/syscall_cpp.hpp ****     virtual ~Thread();
  36:src/../h/syscall_cpp.hpp **** 
  37:src/../h/syscall_cpp.hpp ****     int start();
  38:src/../h/syscall_cpp.hpp ****     static void dispatch();
  39:src/../h/syscall_cpp.hpp ****     static int sleep(time_t time);
  40:src/../h/syscall_cpp.hpp ****     int getThreadId();
  41:src/../h/syscall_cpp.hpp **** 
  42:src/../h/syscall_cpp.hpp **** 
  43:src/../h/syscall_cpp.hpp ****     void join();
  44:src/../h/syscall_cpp.hpp ****     static void joinALL();
  45:src/../h/syscall_cpp.hpp ****     static void setRunning(Thread* thread);
  46:src/../h/syscall_cpp.hpp ****     void man(unsigned int id);
GAS LISTING /tmp/ccxslZcu.s 			page 2


  47:src/../h/syscall_cpp.hpp ****     void woman(unsigned int id);
  48:src/../h/syscall_cpp.hpp ****     void barrier();
  49:src/../h/syscall_cpp.hpp **** 
  50:src/../h/syscall_cpp.hpp ****     void send(char const* message);
  51:src/../h/syscall_cpp.hpp ****     char const* receive();
  52:src/../h/syscall_cpp.hpp **** 
  53:src/../h/syscall_cpp.hpp ****     static void setMaxThreads( int num);
  54:src/../h/syscall_cpp.hpp ****     static void barrier_2();
  55:src/../h/syscall_cpp.hpp **** 
  56:src/../h/syscall_cpp.hpp ****     void producer(int id);
  57:src/../h/syscall_cpp.hpp ****     void consumer(int id);
  58:src/../h/syscall_cpp.hpp **** 
  59:src/../h/syscall_cpp.hpp ****     void O(unsigned int id);
  60:src/../h/syscall_cpp.hpp ****     void H(unsigned int id);
  61:src/../h/syscall_cpp.hpp **** 
  62:src/../h/syscall_cpp.hpp ****     void savage(unsigned int id);
  63:src/../h/syscall_cpp.hpp ****     void cook();
  64:src/../h/syscall_cpp.hpp **** 
  65:src/../h/syscall_cpp.hpp ****     void birdChild(unsigned int id);
  66:src/../h/syscall_cpp.hpp ****     void birdParent(unsigned int id);
  67:src/../h/syscall_cpp.hpp **** 
  68:src/../h/syscall_cpp.hpp ****     void pcela(unsigned int id);
  69:src/../h/syscall_cpp.hpp ****     void meda();
  70:src/../h/syscall_cpp.hpp **** 
  71:src/../h/syscall_cpp.hpp ****     void pingThread();
  72:src/../h/syscall_cpp.hpp **** protected:
  73:src/../h/syscall_cpp.hpp ****     Thread();
  74:src/../h/syscall_cpp.hpp ****     virtual void run(){};
  13              		.loc 1 74 18
  14              		.cfi_startproc
  15              	.LVL0:
  16 0000 130101FF 		addi	sp,sp,-16
  17              		.cfi_def_cfa_offset 16
  18 0004 23348100 		sd	s0,8(sp)
  19              		.cfi_offset 8, -8
  20 0008 13040101 		addi	s0,sp,16
  21              		.cfi_def_cfa 8, 0
  22              		.loc 1 74 24 is_stmt 0
  23 000c 03348100 		ld	s0,8(sp)
  24              		.cfi_restore 8
  25              		.cfi_def_cfa 2, 16
  26 0010 13010101 		addi	sp,sp,16
  27              		.cfi_def_cfa_offset 0
  28 0014 67800000 		jr	ra
  29              		.cfi_endproc
  30              	.LFE3:
  32              		.text
  33              		.align	2
  34              		.globl	_ZN6Thread13threadWrapperEPv
  36              	_ZN6Thread13threadWrapperEPv:
  37              	.LFB64:
  38              		.file 2 "src/syscall_cpp.cpp"
   1:src/syscall_cpp.cpp ****  //
   2:src/syscall_cpp.cpp **** // Created by os on 5/17/24.
   3:src/syscall_cpp.cpp **** //
   4:src/syscall_cpp.cpp **** 
   5:src/syscall_cpp.cpp **** 
GAS LISTING /tmp/ccxslZcu.s 			page 3


   6:src/syscall_cpp.cpp **** #include "../h/syscall_cpp.hpp"
   7:src/syscall_cpp.cpp **** #include "../h/syscall_c.h"
   8:src/syscall_cpp.cpp **** #include "../h/tcb.hpp"
   9:src/syscall_cpp.cpp **** #include "../h/Semaphore_k.hpp"
  10:src/syscall_cpp.cpp **** //***Semafor deo***
  11:src/syscall_cpp.cpp **** Semaphore::Semaphore(unsigned int init) {
  12:src/syscall_cpp.cpp ****     sem_open(&this->myHandle, init);
  13:src/syscall_cpp.cpp **** }
  14:src/syscall_cpp.cpp **** 
  15:src/syscall_cpp.cpp **** Semaphore::~Semaphore() {
  16:src/syscall_cpp.cpp ****     if(myHandle){
  17:src/syscall_cpp.cpp ****         sem_close(this->myHandle);
  18:src/syscall_cpp.cpp ****         mem_free(myHandle);
  19:src/syscall_cpp.cpp ****         myHandle = nullptr;
  20:src/syscall_cpp.cpp ****     }
  21:src/syscall_cpp.cpp **** 
  22:src/syscall_cpp.cpp **** 
  23:src/syscall_cpp.cpp **** }
  24:src/syscall_cpp.cpp **** 
  25:src/syscall_cpp.cpp **** int Semaphore::wait() {
  26:src/syscall_cpp.cpp ****     return sem_wait(this->myHandle);
  27:src/syscall_cpp.cpp **** }
  28:src/syscall_cpp.cpp **** 
  29:src/syscall_cpp.cpp **** int Semaphore::signal() {
  30:src/syscall_cpp.cpp ****     return sem_signal(this->myHandle);
  31:src/syscall_cpp.cpp **** }
  32:src/syscall_cpp.cpp **** 
  33:src/syscall_cpp.cpp **** 
  34:src/syscall_cpp.cpp **** //da li i jedan od ovih testova proverava trywait? ----> NE, SMOR :(
  35:src/syscall_cpp.cpp **** int Semaphore::trywait() {
  36:src/syscall_cpp.cpp ****     return sem_trywait(this->myHandle);
  37:src/syscall_cpp.cpp **** }
  38:src/syscall_cpp.cpp **** 
  39:src/syscall_cpp.cpp **** //nisam radila asinhronu
  40:src/syscall_cpp.cpp **** int Semaphore::timedwait(time_t t) {
  41:src/syscall_cpp.cpp ****     return sem_timedwait(this->myHandle,t);
  42:src/syscall_cpp.cpp **** }
  43:src/syscall_cpp.cpp **** 
  44:src/syscall_cpp.cpp ****  int Semaphore::waitN(int n) {
  45:src/syscall_cpp.cpp ****      return sem_waitN(this->myHandle,n);
  46:src/syscall_cpp.cpp ****  }
  47:src/syscall_cpp.cpp **** 
  48:src/syscall_cpp.cpp ****  int Semaphore::signalN() {
  49:src/syscall_cpp.cpp ****      return sem_signalN(this->myHandle);
  50:src/syscall_cpp.cpp ****  }
  51:src/syscall_cpp.cpp **** 
  52:src/syscall_cpp.cpp **** 
  53:src/syscall_cpp.cpp **** //***Thread deo***
  54:src/syscall_cpp.cpp **** void Thread::dispatch() {
  55:src/syscall_cpp.cpp ****     thread_dispatch();
  56:src/syscall_cpp.cpp **** }
  57:src/syscall_cpp.cpp **** 
  58:src/syscall_cpp.cpp **** Thread::Thread(void (*body)(void *), void *arg) {
  59:src/syscall_cpp.cpp **** 
  60:src/syscall_cpp.cpp ****     myHandle= nullptr;
  61:src/syscall_cpp.cpp ****     this->body=body;
  62:src/syscall_cpp.cpp ****     this->arg=arg;
GAS LISTING /tmp/ccxslZcu.s 			page 4


  63:src/syscall_cpp.cpp **** 
  64:src/syscall_cpp.cpp **** 
  65:src/syscall_cpp.cpp **** 
  66:src/syscall_cpp.cpp **** }
  67:src/syscall_cpp.cpp **** 
  68:src/syscall_cpp.cpp **** 
  69:src/syscall_cpp.cpp **** Thread::~Thread() {
  70:src/syscall_cpp.cpp ****     myHandle->setFinished(true);
  71:src/syscall_cpp.cpp ****     delete this->myHandle;
  72:src/syscall_cpp.cpp **** }
  73:src/syscall_cpp.cpp **** 
  74:src/syscall_cpp.cpp **** int Thread::start() {
  75:src/syscall_cpp.cpp **** 
  76:src/syscall_cpp.cpp ****     if(myHandle == nullptr){ thread_create(&myHandle,body,arg);
  77:src/syscall_cpp.cpp ****         return 0;
  78:src/syscall_cpp.cpp ****     }
  79:src/syscall_cpp.cpp ****     return -1;
  80:src/syscall_cpp.cpp **** }
  81:src/syscall_cpp.cpp **** 
  82:src/syscall_cpp.cpp **** Thread::Thread(){
  83:src/syscall_cpp.cpp ****     myHandle=nullptr;
  84:src/syscall_cpp.cpp ****     body = threadWrapper;
  85:src/syscall_cpp.cpp ****     arg = this;
  86:src/syscall_cpp.cpp **** }
  87:src/syscall_cpp.cpp **** 
  88:src/syscall_cpp.cpp **** 
  89:src/syscall_cpp.cpp **** 
  90:src/syscall_cpp.cpp **** int Thread::sleep(time_t time) {
  91:src/syscall_cpp.cpp ****     return 0;
  92:src/syscall_cpp.cpp **** }
  93:src/syscall_cpp.cpp **** 
  94:src/syscall_cpp.cpp **** 
  95:src/syscall_cpp.cpp **** void Thread::threadWrapper(void *thread) {
  39              		.loc 2 95 42 is_stmt 1
  40              		.cfi_startproc
  41              	.LVL1:
  42 0000 130101FF 		addi	sp,sp,-16
  43              		.cfi_def_cfa_offset 16
  44 0004 23341100 		sd	ra,8(sp)
  45 0008 23308100 		sd	s0,0(sp)
  46              		.cfi_offset 1, -8
  47              		.cfi_offset 8, -16
  48 000c 13040101 		addi	s0,sp,16
  49              		.cfi_def_cfa 8, 0
  96:src/syscall_cpp.cpp ****     ((Thread*)thread)->run();
  50              		.loc 2 96 5
  51              		.loc 2 96 28 is_stmt 0
  52 0010 83370500 		ld	a5,0(a0)
  53 0014 83B70701 		ld	a5,16(a5)
  54              		.loc 2 96 27
  55 0018 E7800700 		jalr	a5
  56              	.LVL2:
  97:src/syscall_cpp.cpp **** }
  57              		.loc 2 97 1
  58 001c 83308100 		ld	ra,8(sp)
  59              		.cfi_restore 1
  60 0020 03340100 		ld	s0,0(sp)
GAS LISTING /tmp/ccxslZcu.s 			page 5


  61              		.cfi_restore 8
  62              		.cfi_def_cfa 2, 16
  63 0024 13010101 		addi	sp,sp,16
  64              		.cfi_def_cfa_offset 0
  65 0028 67800000 		jr	ra
  66              		.cfi_endproc
  67              	.LFE64:
  69              		.align	2
  70              		.globl	_ZN9SemaphoreD2Ev
  72              	_ZN9SemaphoreD2Ev:
  73              	.LFB42:
  15:src/syscall_cpp.cpp ****     if(myHandle){
  74              		.loc 2 15 1 is_stmt 1
  75              		.cfi_startproc
  76              		.cfi_personality 0x9b,DW.ref.__gxx_personality_v0
  77              		.cfi_lsda 0x1b,.LLSDA42
  78              	.LVL3:
  79 002c 130101FE 		addi	sp,sp,-32
  80              		.cfi_def_cfa_offset 32
  81 0030 233C1100 		sd	ra,24(sp)
  82 0034 23388100 		sd	s0,16(sp)
  83 0038 23349100 		sd	s1,8(sp)
  84              		.cfi_offset 1, -8
  85              		.cfi_offset 8, -16
  86              		.cfi_offset 9, -24
  87 003c 13040102 		addi	s0,sp,32
  88              		.cfi_def_cfa 8, 0
  89 0040 93040500 		mv	s1,a0
  90              	.LBB10:
  15:src/syscall_cpp.cpp ****     if(myHandle){
  91              		.loc 2 15 23 is_stmt 0
  92 0044 97070000 		lla	a5,_ZTV9Semaphore+16
  92      93870700 
  93 004c 2330F500 		sd	a5,0(a0)
  16:src/syscall_cpp.cpp ****         sem_close(this->myHandle);
  94              		.loc 2 16 5 is_stmt 1
  16:src/syscall_cpp.cpp ****         sem_close(this->myHandle);
  95              		.loc 2 16 8 is_stmt 0
  96 0050 03358500 		ld	a0,8(a0)
  97              	.LVL4:
  16:src/syscall_cpp.cpp ****         sem_close(this->myHandle);
  98              		.loc 2 16 5
  99 0054 630C0500 		beqz	a0,.L5
  17:src/syscall_cpp.cpp ****         mem_free(myHandle);
 100              		.loc 2 17 9 is_stmt 1
  17:src/syscall_cpp.cpp ****         mem_free(myHandle);
 101              		.loc 2 17 18 is_stmt 0
 102 0058 97000000 		call	_Z9sem_closeP11Semaphore_k@plt
 102      E7800000 
 103              	.LVL5:
  18:src/syscall_cpp.cpp ****         myHandle = nullptr;
 104              		.loc 2 18 9 is_stmt 1
  18:src/syscall_cpp.cpp ****         myHandle = nullptr;
 105              		.loc 2 18 17 is_stmt 0
 106 0060 03B58400 		ld	a0,8(s1)
 107 0064 97000000 		call	_Z8mem_freePv@plt
 107      E7800000 
GAS LISTING /tmp/ccxslZcu.s 			page 6


 108              	.LVL6:
  19:src/syscall_cpp.cpp ****     }
 109              		.loc 2 19 9 is_stmt 1
 110              	.L5:
 111              	.LBE10:
  23:src/syscall_cpp.cpp **** 
 112              		.loc 2 23 1 is_stmt 0
 113 006c 83308101 		ld	ra,24(sp)
 114              		.cfi_restore 1
 115 0070 03340101 		ld	s0,16(sp)
 116              		.cfi_restore 8
 117              		.cfi_def_cfa 2, 32
 118 0074 83348100 		ld	s1,8(sp)
 119              		.cfi_restore 9
 120              	.LVL7:
 121 0078 13010102 		addi	sp,sp,32
 122              		.cfi_def_cfa_offset 0
 123 007c 67800000 		jr	ra
 124              		.cfi_endproc
 125              	.LFE42:
 126              		.globl	__gxx_personality_v0
 127              		.section	.gcc_except_table,"a",@progbits
 128              	.LLSDA42:
 129 0000 FF       		.byte	0xff
 130 0001 FF       		.byte	0xff
 131 0002 03       		.byte	0x3
 132 0003 00       		.byte	0
 133              		.text
 135              		.globl	_ZN9SemaphoreD1Ev
 136              		.set	_ZN9SemaphoreD1Ev,_ZN9SemaphoreD2Ev
 137              		.align	2
 138              		.globl	_ZN9SemaphoreD0Ev
 140              	_ZN9SemaphoreD0Ev:
 141              	.LFB44:
  15:src/syscall_cpp.cpp ****     if(myHandle){
 142              		.loc 2 15 1 is_stmt 1
 143              		.cfi_startproc
 144              	.LVL8:
 145 0080 130101FE 		addi	sp,sp,-32
 146              		.cfi_def_cfa_offset 32
 147 0084 233C1100 		sd	ra,24(sp)
 148 0088 23388100 		sd	s0,16(sp)
 149 008c 23349100 		sd	s1,8(sp)
 150              		.cfi_offset 1, -8
 151              		.cfi_offset 8, -16
 152              		.cfi_offset 9, -24
 153 0090 13040102 		addi	s0,sp,32
 154              		.cfi_def_cfa 8, 0
 155 0094 93040500 		mv	s1,a0
  23:src/syscall_cpp.cpp **** 
 156              		.loc 2 23 1 is_stmt 0
 157 0098 97000000 		call	_ZN9SemaphoreD1Ev
 157      E7800000 
 158              	.LVL9:
 159 00a0 13850400 		mv	a0,s1
 160 00a4 97000000 		call	_ZdlPv@plt
 160      E7800000 
GAS LISTING /tmp/ccxslZcu.s 			page 7


 161              	.LVL10:
 162 00ac 83308101 		ld	ra,24(sp)
 163              		.cfi_restore 1
 164 00b0 03340101 		ld	s0,16(sp)
 165              		.cfi_restore 8
 166              		.cfi_def_cfa 2, 32
 167 00b4 83348100 		ld	s1,8(sp)
 168              		.cfi_restore 9
 169              	.LVL11:
 170 00b8 13010102 		addi	sp,sp,32
 171              		.cfi_def_cfa_offset 0
 172 00bc 67800000 		jr	ra
 173              		.cfi_endproc
 174              	.LFE44:
 176              		.align	2
 177              		.globl	_ZN6ThreadD2Ev
 179              	_ZN6ThreadD2Ev:
 180              	.LFB56:
  69:src/syscall_cpp.cpp ****     myHandle->setFinished(true);
 181              		.loc 2 69 1 is_stmt 1
 182              		.cfi_startproc
 183              		.cfi_personality 0x9b,DW.ref.__gxx_personality_v0
 184              		.cfi_lsda 0x1b,.LLSDA56
 185              	.LVL12:
 186 00c0 130101FE 		addi	sp,sp,-32
 187              		.cfi_def_cfa_offset 32
 188 00c4 233C1100 		sd	ra,24(sp)
 189 00c8 23388100 		sd	s0,16(sp)
 190 00cc 23349100 		sd	s1,8(sp)
 191              		.cfi_offset 1, -8
 192              		.cfi_offset 8, -16
 193              		.cfi_offset 9, -24
 194 00d0 13040102 		addi	s0,sp,32
 195              		.cfi_def_cfa 8, 0
 196              	.LBB11:
  69:src/syscall_cpp.cpp ****     myHandle->setFinished(true);
 197              		.loc 2 69 17 is_stmt 0
 198 00d4 97070000 		lla	a5,_ZTV6Thread+16
 198      93870700 
 199 00dc 2330F500 		sd	a5,0(a0)
  70:src/syscall_cpp.cpp ****     delete this->myHandle;
 200              		.loc 2 70 5 is_stmt 1
 201 00e0 83378500 		ld	a5,8(a0)
 202              	.LVL13:
 203              	.LBB12:
 204              	.LBB13:
 205              		.file 3 "src/../h/tcb.hpp"
   1:src/../h/tcb.hpp **** 
   2:src/../h/tcb.hpp **** #ifndef TCB_HPP
   3:src/../h/tcb.hpp **** #define TCB_HPP
   4:src/../h/tcb.hpp **** 
   5:src/../h/tcb.hpp **** #include "../lib/hw.h"
   6:src/../h/tcb.hpp **** #include "scheduler.hpp"
   7:src/../h/tcb.hpp **** 
   8:src/../h/tcb.hpp **** 
   9:src/../h/tcb.hpp **** 
  10:src/../h/tcb.hpp **** int main();
GAS LISTING /tmp/ccxslZcu.s 			page 8


  11:src/../h/tcb.hpp **** typedef struct Molecule{
  12:src/../h/tcb.hpp ****     int* ids;
  13:src/../h/tcb.hpp ****     char const **type;
  14:src/../h/tcb.hpp **** }Molecule;
  15:src/../h/tcb.hpp **** 
  16:src/../h/tcb.hpp **** 
  17:src/../h/tcb.hpp **** class Semaphore_k;
  18:src/../h/tcb.hpp **** //Thread Control Block
  19:src/../h/tcb.hpp **** 
  20:src/../h/tcb.hpp **** class TCB
  21:src/../h/tcb.hpp **** {
  22:src/../h/tcb.hpp **** public:
  23:src/../h/tcb.hpp **** 
  24:src/../h/tcb.hpp ****     using Body = void (*)(void*);
  25:src/../h/tcb.hpp ****     void* operator new(size_t size) {
  26:src/../h/tcb.hpp ****         return memoryAllocator::mem_alloc(size);
  27:src/../h/tcb.hpp ****     }
  28:src/../h/tcb.hpp ****     void* operator new[](size_t size) {
  29:src/../h/tcb.hpp ****         return memoryAllocator::mem_alloc(size);
  30:src/../h/tcb.hpp ****     }
  31:src/../h/tcb.hpp **** 
  32:src/../h/tcb.hpp ****     void operator delete(void *ptr) {
  33:src/../h/tcb.hpp ****         memoryAllocator::mem_free(ptr);
  34:src/../h/tcb.hpp ****     }
  35:src/../h/tcb.hpp ****     void operator delete[](void *ptr) {
  36:src/../h/tcb.hpp ****         memoryAllocator::mem_free(ptr);
  37:src/../h/tcb.hpp ****     }
  38:src/../h/tcb.hpp **** 
  39:src/../h/tcb.hpp ****     static TCB* kreiraj_thread(TCB** handle, TCB::Body body, void* arg, char * stek);
  40:src/../h/tcb.hpp **** 
  41:src/../h/tcb.hpp ****     static TCB *running;
  42:src/../h/tcb.hpp **** 
  43:src/../h/tcb.hpp ****     ~TCB() { delete[] stack;
  44:src/../h/tcb.hpp **** 
  45:src/../h/tcb.hpp ****     }
  46:src/../h/tcb.hpp **** 
  47:src/../h/tcb.hpp ****     bool isFinished() const { return finished; }
  48:src/../h/tcb.hpp **** 
  49:src/../h/tcb.hpp ****     void setFinished(bool value) { finished = value; }
 206              		.loc 3 49 36
 207              		.loc 3 49 45 is_stmt 0
 208 00e4 13071000 		li	a4,1
 209 00e8 2380E702 		sb	a4,32(a5)
 210              	.LVL14:
 211              	.LBE13:
 212              	.LBE12:
  71:src/syscall_cpp.cpp **** }
 213              		.loc 2 71 5 is_stmt 1
  71:src/syscall_cpp.cpp **** }
 214              		.loc 2 71 18 is_stmt 0
 215 00ec 83348500 		ld	s1,8(a0)
  71:src/syscall_cpp.cpp **** }
 216              		.loc 2 71 26
 217 00f0 63800402 		beqz	s1,.L10
 218              	.LVL15:
 219              	.LBB14:
 220              	.LBB15:
GAS LISTING /tmp/ccxslZcu.s 			page 9


  43:src/../h/tcb.hpp **** 
 221              		.loc 3 43 14 is_stmt 1
  43:src/../h/tcb.hpp **** 
 222              		.loc 3 43 23 is_stmt 0
 223 00f4 03B58400 		ld	a0,8(s1)
 224              	.LVL16:
  43:src/../h/tcb.hpp **** 
 225              		.loc 3 43 28
 226 00f8 63060500 		beqz	a0,.L12
  43:src/../h/tcb.hpp **** 
 227              		.loc 3 43 23
 228 00fc 97000000 		call	_ZdaPv@plt
 228      E7800000 
 229              	.LVL17:
 230              	.L12:
 231              	.LBE15:
 232              	.LBE14:
 233              	.LBB16:
 234              	.LBB17:
  33:src/../h/tcb.hpp ****     }
 235              		.loc 3 33 9 is_stmt 1
  33:src/../h/tcb.hpp ****     }
 236              		.loc 3 33 34 is_stmt 0
 237 0104 13850400 		mv	a0,s1
 238 0108 97000000 		call	_ZN15memoryAllocator8mem_freeEPv@plt
 238      E7800000 
 239              	.LVL18:
 240              	.L10:
 241              	.LBE17:
 242              	.LBE16:
 243              	.LBE11:
  72:src/syscall_cpp.cpp **** 
 244              		.loc 2 72 1
 245 0110 83308101 		ld	ra,24(sp)
 246              		.cfi_restore 1
 247 0114 03340101 		ld	s0,16(sp)
 248              		.cfi_restore 8
 249              		.cfi_def_cfa 2, 32
 250 0118 83348100 		ld	s1,8(sp)
 251              		.cfi_restore 9
 252 011c 13010102 		addi	sp,sp,32
 253              		.cfi_def_cfa_offset 0
 254 0120 67800000 		jr	ra
 255              		.cfi_endproc
 256              	.LFE56:
 257              		.section	.gcc_except_table
 258              	.LLSDA56:
 259 0004 FF       		.byte	0xff
 260 0005 FF       		.byte	0xff
 261 0006 03       		.byte	0x3
 262 0007 00       		.byte	0
 263              		.text
 265              		.globl	_ZN6ThreadD1Ev
 266              		.set	_ZN6ThreadD1Ev,_ZN6ThreadD2Ev
 267              		.align	2
 268              		.globl	_ZN6ThreadD0Ev
 270              	_ZN6ThreadD0Ev:
GAS LISTING /tmp/ccxslZcu.s 			page 10


 271              	.LFB58:
  69:src/syscall_cpp.cpp ****     myHandle->setFinished(true);
 272              		.loc 2 69 1 is_stmt 1
 273              		.cfi_startproc
 274              	.LVL19:
 275 0124 130101FE 		addi	sp,sp,-32
 276              		.cfi_def_cfa_offset 32
 277 0128 233C1100 		sd	ra,24(sp)
 278 012c 23388100 		sd	s0,16(sp)
 279 0130 23349100 		sd	s1,8(sp)
 280              		.cfi_offset 1, -8
 281              		.cfi_offset 8, -16
 282              		.cfi_offset 9, -24
 283 0134 13040102 		addi	s0,sp,32
 284              		.cfi_def_cfa 8, 0
 285 0138 93040500 		mv	s1,a0
  72:src/syscall_cpp.cpp **** 
 286              		.loc 2 72 1 is_stmt 0
 287 013c 97000000 		call	_ZN6ThreadD1Ev
 287      E7800000 
 288              	.LVL20:
 289 0144 13850400 		mv	a0,s1
 290 0148 97000000 		call	_ZdlPv@plt
 290      E7800000 
 291              	.LVL21:
 292 0150 83308101 		ld	ra,24(sp)
 293              		.cfi_restore 1
 294 0154 03340101 		ld	s0,16(sp)
 295              		.cfi_restore 8
 296              		.cfi_def_cfa 2, 32
 297 0158 83348100 		ld	s1,8(sp)
 298              		.cfi_restore 9
 299              	.LVL22:
 300 015c 13010102 		addi	sp,sp,32
 301              		.cfi_def_cfa_offset 0
 302 0160 67800000 		jr	ra
 303              		.cfi_endproc
 304              	.LFE58:
 306              		.align	2
 307              		.globl	_ZN9SemaphoreC2Ej
 309              	_ZN9SemaphoreC2Ej:
 310              	.LFB39:
  11:src/syscall_cpp.cpp ****     sem_open(&this->myHandle, init);
 311              		.loc 2 11 1 is_stmt 1
 312              		.cfi_startproc
 313              	.LVL23:
 314 0164 130101FF 		addi	sp,sp,-16
 315              		.cfi_def_cfa_offset 16
 316 0168 23341100 		sd	ra,8(sp)
 317 016c 23308100 		sd	s0,0(sp)
 318              		.cfi_offset 1, -8
 319              		.cfi_offset 8, -16
 320 0170 13040101 		addi	s0,sp,16
 321              		.cfi_def_cfa 8, 0
 322              	.LBB18:
  11:src/syscall_cpp.cpp ****     sem_open(&this->myHandle, init);
 323              		.loc 2 11 39 is_stmt 0
GAS LISTING /tmp/ccxslZcu.s 			page 11


 324 0174 97070000 		lla	a5,_ZTV9Semaphore+16
 324      93870700 
 325 017c 2330F500 		sd	a5,0(a0)
  12:src/syscall_cpp.cpp **** }
 326              		.loc 2 12 5 is_stmt 1
  12:src/syscall_cpp.cpp **** }
 327              		.loc 2 12 13 is_stmt 0
 328 0180 13058500 		addi	a0,a0,8
 329              	.LVL24:
 330 0184 97000000 		call	_Z8sem_openPP11Semaphore_kj@plt
 330      E7800000 
 331              	.LVL25:
 332              	.LBE18:
  13:src/syscall_cpp.cpp **** 
 333              		.loc 2 13 1
 334 018c 83308100 		ld	ra,8(sp)
 335              		.cfi_restore 1
 336 0190 03340100 		ld	s0,0(sp)
 337              		.cfi_restore 8
 338              		.cfi_def_cfa 2, 16
 339 0194 13010101 		addi	sp,sp,16
 340              		.cfi_def_cfa_offset 0
 341 0198 67800000 		jr	ra
 342              		.cfi_endproc
 343              	.LFE39:
 345              		.globl	_ZN9SemaphoreC1Ej
 346              		.set	_ZN9SemaphoreC1Ej,_ZN9SemaphoreC2Ej
 347              		.align	2
 348              		.globl	_ZN9Semaphore4waitEv
 350              	_ZN9Semaphore4waitEv:
 351              	.LFB45:
  25:src/syscall_cpp.cpp ****     return sem_wait(this->myHandle);
 352              		.loc 2 25 23 is_stmt 1
 353              		.cfi_startproc
 354              	.LVL26:
 355 019c 130101FF 		addi	sp,sp,-16
 356              		.cfi_def_cfa_offset 16
 357 01a0 23341100 		sd	ra,8(sp)
 358 01a4 23308100 		sd	s0,0(sp)
 359              		.cfi_offset 1, -8
 360              		.cfi_offset 8, -16
 361 01a8 13040101 		addi	s0,sp,16
 362              		.cfi_def_cfa 8, 0
  26:src/syscall_cpp.cpp **** }
 363              		.loc 2 26 5
  26:src/syscall_cpp.cpp **** }
 364              		.loc 2 26 20 is_stmt 0
 365 01ac 03358500 		ld	a0,8(a0)
 366              	.LVL27:
 367 01b0 97000000 		call	_Z8sem_waitP11Semaphore_k@plt
 367      E7800000 
 368              	.LVL28:
  27:src/syscall_cpp.cpp **** 
 369              		.loc 2 27 1
 370 01b8 83308100 		ld	ra,8(sp)
 371              		.cfi_restore 1
 372 01bc 03340100 		ld	s0,0(sp)
GAS LISTING /tmp/ccxslZcu.s 			page 12


 373              		.cfi_restore 8
 374              		.cfi_def_cfa 2, 16
 375 01c0 13010101 		addi	sp,sp,16
 376              		.cfi_def_cfa_offset 0
 377 01c4 67800000 		jr	ra
 378              		.cfi_endproc
 379              	.LFE45:
 381              		.align	2
 382              		.globl	_ZN9Semaphore6signalEv
 384              	_ZN9Semaphore6signalEv:
 385              	.LFB46:
  29:src/syscall_cpp.cpp ****     return sem_signal(this->myHandle);
 386              		.loc 2 29 25 is_stmt 1
 387              		.cfi_startproc
 388              	.LVL29:
 389 01c8 130101FF 		addi	sp,sp,-16
 390              		.cfi_def_cfa_offset 16
 391 01cc 23341100 		sd	ra,8(sp)
 392 01d0 23308100 		sd	s0,0(sp)
 393              		.cfi_offset 1, -8
 394              		.cfi_offset 8, -16
 395 01d4 13040101 		addi	s0,sp,16
 396              		.cfi_def_cfa 8, 0
  30:src/syscall_cpp.cpp **** }
 397              		.loc 2 30 5
  30:src/syscall_cpp.cpp **** }
 398              		.loc 2 30 22 is_stmt 0
 399 01d8 03358500 		ld	a0,8(a0)
 400              	.LVL30:
 401 01dc 97000000 		call	_Z10sem_signalP11Semaphore_k@plt
 401      E7800000 
 402              	.LVL31:
  31:src/syscall_cpp.cpp **** 
 403              		.loc 2 31 1
 404 01e4 83308100 		ld	ra,8(sp)
 405              		.cfi_restore 1
 406 01e8 03340100 		ld	s0,0(sp)
 407              		.cfi_restore 8
 408              		.cfi_def_cfa 2, 16
 409 01ec 13010101 		addi	sp,sp,16
 410              		.cfi_def_cfa_offset 0
 411 01f0 67800000 		jr	ra
 412              		.cfi_endproc
 413              	.LFE46:
 415              		.align	2
 416              		.globl	_ZN9Semaphore7trywaitEv
 418              	_ZN9Semaphore7trywaitEv:
 419              	.LFB47:
  35:src/syscall_cpp.cpp ****     return sem_trywait(this->myHandle);
 420              		.loc 2 35 26 is_stmt 1
 421              		.cfi_startproc
 422              	.LVL32:
 423 01f4 130101FF 		addi	sp,sp,-16
 424              		.cfi_def_cfa_offset 16
 425 01f8 23341100 		sd	ra,8(sp)
 426 01fc 23308100 		sd	s0,0(sp)
 427              		.cfi_offset 1, -8
GAS LISTING /tmp/ccxslZcu.s 			page 13


 428              		.cfi_offset 8, -16
 429 0200 13040101 		addi	s0,sp,16
 430              		.cfi_def_cfa 8, 0
  36:src/syscall_cpp.cpp **** }
 431              		.loc 2 36 5
  36:src/syscall_cpp.cpp **** }
 432              		.loc 2 36 23 is_stmt 0
 433 0204 03358500 		ld	a0,8(a0)
 434              	.LVL33:
 435 0208 97000000 		call	_Z11sem_trywaitP11Semaphore_k@plt
 435      E7800000 
 436              	.LVL34:
  37:src/syscall_cpp.cpp **** 
 437              		.loc 2 37 1
 438 0210 83308100 		ld	ra,8(sp)
 439              		.cfi_restore 1
 440 0214 03340100 		ld	s0,0(sp)
 441              		.cfi_restore 8
 442              		.cfi_def_cfa 2, 16
 443 0218 13010101 		addi	sp,sp,16
 444              		.cfi_def_cfa_offset 0
 445 021c 67800000 		jr	ra
 446              		.cfi_endproc
 447              	.LFE47:
 449              		.align	2
 450              		.globl	_ZN9Semaphore9timedwaitEm
 452              	_ZN9Semaphore9timedwaitEm:
 453              	.LFB48:
  40:src/syscall_cpp.cpp ****     return sem_timedwait(this->myHandle,t);
 454              		.loc 2 40 36 is_stmt 1
 455              		.cfi_startproc
 456              	.LVL35:
 457 0220 130101FF 		addi	sp,sp,-16
 458              		.cfi_def_cfa_offset 16
 459 0224 23341100 		sd	ra,8(sp)
 460 0228 23308100 		sd	s0,0(sp)
 461              		.cfi_offset 1, -8
 462              		.cfi_offset 8, -16
 463 022c 13040101 		addi	s0,sp,16
 464              		.cfi_def_cfa 8, 0
  41:src/syscall_cpp.cpp **** }
 465              		.loc 2 41 5
  41:src/syscall_cpp.cpp **** }
 466              		.loc 2 41 25 is_stmt 0
 467 0230 03358500 		ld	a0,8(a0)
 468              	.LVL36:
 469 0234 97000000 		call	_Z13sem_timedwaitP11Semaphore_km@plt
 469      E7800000 
 470              	.LVL37:
  42:src/syscall_cpp.cpp **** 
 471              		.loc 2 42 1
 472 023c 83308100 		ld	ra,8(sp)
 473              		.cfi_restore 1
 474 0240 03340100 		ld	s0,0(sp)
 475              		.cfi_restore 8
 476              		.cfi_def_cfa 2, 16
 477 0244 13010101 		addi	sp,sp,16
GAS LISTING /tmp/ccxslZcu.s 			page 14


 478              		.cfi_def_cfa_offset 0
 479 0248 67800000 		jr	ra
 480              		.cfi_endproc
 481              	.LFE48:
 483              		.align	2
 484              		.globl	_ZN9Semaphore5waitNEi
 486              	_ZN9Semaphore5waitNEi:
 487              	.LFB49:
  44:src/syscall_cpp.cpp ****      return sem_waitN(this->myHandle,n);
 488              		.loc 2 44 30 is_stmt 1
 489              		.cfi_startproc
 490              	.LVL38:
 491 024c 130101FF 		addi	sp,sp,-16
 492              		.cfi_def_cfa_offset 16
 493 0250 23341100 		sd	ra,8(sp)
 494 0254 23308100 		sd	s0,0(sp)
 495              		.cfi_offset 1, -8
 496              		.cfi_offset 8, -16
 497 0258 13040101 		addi	s0,sp,16
 498              		.cfi_def_cfa 8, 0
  45:src/syscall_cpp.cpp ****  }
 499              		.loc 2 45 6
  45:src/syscall_cpp.cpp ****  }
 500              		.loc 2 45 22 is_stmt 0
 501 025c 03358500 		ld	a0,8(a0)
 502              	.LVL39:
 503 0260 97000000 		call	_Z9sem_waitNP11Semaphore_kj@plt
 503      E7800000 
 504              	.LVL40:
  46:src/syscall_cpp.cpp **** 
 505              		.loc 2 46 2
 506 0268 83308100 		ld	ra,8(sp)
 507              		.cfi_restore 1
 508 026c 03340100 		ld	s0,0(sp)
 509              		.cfi_restore 8
 510              		.cfi_def_cfa 2, 16
 511 0270 13010101 		addi	sp,sp,16
 512              		.cfi_def_cfa_offset 0
 513 0274 67800000 		jr	ra
 514              		.cfi_endproc
 515              	.LFE49:
 517              		.align	2
 518              		.globl	_ZN9Semaphore7signalNEv
 520              	_ZN9Semaphore7signalNEv:
 521              	.LFB50:
  48:src/syscall_cpp.cpp ****      return sem_signalN(this->myHandle);
 522              		.loc 2 48 27 is_stmt 1
 523              		.cfi_startproc
 524              	.LVL41:
 525 0278 130101FF 		addi	sp,sp,-16
 526              		.cfi_def_cfa_offset 16
 527 027c 23341100 		sd	ra,8(sp)
 528 0280 23308100 		sd	s0,0(sp)
 529              		.cfi_offset 1, -8
 530              		.cfi_offset 8, -16
 531 0284 13040101 		addi	s0,sp,16
 532              		.cfi_def_cfa 8, 0
GAS LISTING /tmp/ccxslZcu.s 			page 15


  49:src/syscall_cpp.cpp ****  }
 533              		.loc 2 49 6
  49:src/syscall_cpp.cpp ****  }
 534              		.loc 2 49 24 is_stmt 0
 535 0288 03358500 		ld	a0,8(a0)
 536              	.LVL42:
 537 028c 97000000 		call	_Z11sem_signalNP11Semaphore_k@plt
 537      E7800000 
 538              	.LVL43:
  50:src/syscall_cpp.cpp **** 
 539              		.loc 2 50 2
 540 0294 83308100 		ld	ra,8(sp)
 541              		.cfi_restore 1
 542 0298 03340100 		ld	s0,0(sp)
 543              		.cfi_restore 8
 544              		.cfi_def_cfa 2, 16
 545 029c 13010101 		addi	sp,sp,16
 546              		.cfi_def_cfa_offset 0
 547 02a0 67800000 		jr	ra
 548              		.cfi_endproc
 549              	.LFE50:
 551              		.align	2
 552              		.globl	_ZN6Thread8dispatchEv
 554              	_ZN6Thread8dispatchEv:
 555              	.LFB51:
  54:src/syscall_cpp.cpp ****     thread_dispatch();
 556              		.loc 2 54 25 is_stmt 1
 557              		.cfi_startproc
 558 02a4 130101FF 		addi	sp,sp,-16
 559              		.cfi_def_cfa_offset 16
 560 02a8 23341100 		sd	ra,8(sp)
 561 02ac 23308100 		sd	s0,0(sp)
 562              		.cfi_offset 1, -8
 563              		.cfi_offset 8, -16
 564 02b0 13040101 		addi	s0,sp,16
 565              		.cfi_def_cfa 8, 0
  55:src/syscall_cpp.cpp **** }
 566              		.loc 2 55 5
  55:src/syscall_cpp.cpp **** }
 567              		.loc 2 55 20 is_stmt 0
 568 02b4 97000000 		call	_Z15thread_dispatchv@plt
 568      E7800000 
 569              	.LVL44:
  56:src/syscall_cpp.cpp **** 
 570              		.loc 2 56 1
 571 02bc 83308100 		ld	ra,8(sp)
 572              		.cfi_restore 1
 573 02c0 03340100 		ld	s0,0(sp)
 574              		.cfi_restore 8
 575              		.cfi_def_cfa 2, 16
 576 02c4 13010101 		addi	sp,sp,16
 577              		.cfi_def_cfa_offset 0
 578 02c8 67800000 		jr	ra
 579              		.cfi_endproc
 580              	.LFE51:
 582              		.align	2
 583              		.globl	_ZN6ThreadC2EPFvPvES0_
GAS LISTING /tmp/ccxslZcu.s 			page 16


 585              	_ZN6ThreadC2EPFvPvES0_:
 586              	.LFB53:
  58:src/syscall_cpp.cpp **** 
 587              		.loc 2 58 1 is_stmt 1
 588              		.cfi_startproc
 589              	.LVL45:
 590 02cc 130101FF 		addi	sp,sp,-16
 591              		.cfi_def_cfa_offset 16
 592 02d0 23348100 		sd	s0,8(sp)
 593              		.cfi_offset 8, -8
 594 02d4 13040101 		addi	s0,sp,16
 595              		.cfi_def_cfa 8, 0
 596              	.LBB19:
  58:src/syscall_cpp.cpp **** 
 597              		.loc 2 58 47 is_stmt 0
 598 02d8 97070000 		lla	a5,_ZTV6Thread+16
 598      93870700 
 599 02e0 2330F500 		sd	a5,0(a0)
  60:src/syscall_cpp.cpp ****     this->body=body;
 600              		.loc 2 60 5 is_stmt 1
  60:src/syscall_cpp.cpp ****     this->body=body;
 601              		.loc 2 60 13 is_stmt 0
 602 02e4 23340500 		sd	zero,8(a0)
  61:src/syscall_cpp.cpp ****     this->arg=arg;
 603              		.loc 2 61 5 is_stmt 1
  61:src/syscall_cpp.cpp ****     this->arg=arg;
 604              		.loc 2 61 15 is_stmt 0
 605 02e8 2338B500 		sd	a1,16(a0)
  62:src/syscall_cpp.cpp **** 
 606              		.loc 2 62 5 is_stmt 1
  62:src/syscall_cpp.cpp **** 
 607              		.loc 2 62 14 is_stmt 0
 608 02ec 233CC500 		sd	a2,24(a0)
 609              	.LBE19:
  66:src/syscall_cpp.cpp **** 
 610              		.loc 2 66 1
 611 02f0 03348100 		ld	s0,8(sp)
 612              		.cfi_restore 8
 613              		.cfi_def_cfa 2, 16
 614 02f4 13010101 		addi	sp,sp,16
 615              		.cfi_def_cfa_offset 0
 616 02f8 67800000 		jr	ra
 617              		.cfi_endproc
 618              	.LFE53:
 620              		.globl	_ZN6ThreadC1EPFvPvES0_
 621              		.set	_ZN6ThreadC1EPFvPvES0_,_ZN6ThreadC2EPFvPvES0_
 622              		.align	2
 623              		.globl	_ZN6Thread5startEv
 625              	_ZN6Thread5startEv:
 626              	.LFB59:
  74:src/syscall_cpp.cpp **** 
 627              		.loc 2 74 21 is_stmt 1
 628              		.cfi_startproc
 629              	.LVL46:
  76:src/syscall_cpp.cpp ****         return 0;
 630              		.loc 2 76 5
  76:src/syscall_cpp.cpp ****         return 0;
GAS LISTING /tmp/ccxslZcu.s 			page 17


 631              		.loc 2 76 8 is_stmt 0
 632 02fc 83378500 		ld	a5,8(a0)
  76:src/syscall_cpp.cpp ****         return 0;
 633              		.loc 2 76 5
 634 0300 639E0702 		bnez	a5,.L36
  74:src/syscall_cpp.cpp **** 
 635              		.loc 2 74 21 discriminator 1
 636 0304 130101FF 		addi	sp,sp,-16
 637              		.cfi_def_cfa_offset 16
 638 0308 23341100 		sd	ra,8(sp)
 639 030c 23308100 		sd	s0,0(sp)
 640              		.cfi_offset 1, -8
 641              		.cfi_offset 8, -16
 642 0310 13040101 		addi	s0,sp,16
 643              		.cfi_def_cfa 8, 0
  76:src/syscall_cpp.cpp ****         return 0;
 644              		.loc 2 76 30 is_stmt 1 discriminator 1
  76:src/syscall_cpp.cpp ****         return 0;
 645              		.loc 2 76 43 is_stmt 0 discriminator 1
 646 0314 03368501 		ld	a2,24(a0)
 647 0318 83350501 		ld	a1,16(a0)
 648 031c 13058500 		addi	a0,a0,8
 649              	.LVL47:
 650 0320 97000000 		call	_Z13thread_createPP3TCBPFvPvES2_@plt
 650      E7800000 
 651              	.LVL48:
  77:src/syscall_cpp.cpp ****     }
 652              		.loc 2 77 9 is_stmt 1 discriminator 1
  77:src/syscall_cpp.cpp ****     }
 653              		.loc 2 77 16 is_stmt 0 discriminator 1
 654 0328 13050000 		li	a0,0
  80:src/syscall_cpp.cpp **** 
 655              		.loc 2 80 1 discriminator 1
 656 032c 83308100 		ld	ra,8(sp)
 657              		.cfi_restore 1
 658 0330 03340100 		ld	s0,0(sp)
 659              		.cfi_restore 8
 660              		.cfi_def_cfa 2, 16
 661 0334 13010101 		addi	sp,sp,16
 662              		.cfi_def_cfa_offset 0
 663 0338 67800000 		jr	ra
 664              	.LVL49:
 665              	.L36:
  79:src/syscall_cpp.cpp **** }
 666              		.loc 2 79 13
 667 033c 1305F0FF 		li	a0,-1
 668              	.LVL50:
  80:src/syscall_cpp.cpp **** 
 669              		.loc 2 80 1
 670 0340 67800000 		ret
 671              		.cfi_endproc
 672              	.LFE59:
 674              		.align	2
 675              		.globl	_ZN6ThreadC2Ev
 677              	_ZN6ThreadC2Ev:
 678              	.LFB61:
  82:src/syscall_cpp.cpp ****     myHandle=nullptr;
GAS LISTING /tmp/ccxslZcu.s 			page 18


 679              		.loc 2 82 1 is_stmt 1
 680              		.cfi_startproc
 681              	.LVL51:
 682 0344 130101FF 		addi	sp,sp,-16
 683              		.cfi_def_cfa_offset 16
 684 0348 23348100 		sd	s0,8(sp)
 685              		.cfi_offset 8, -8
 686 034c 13040101 		addi	s0,sp,16
 687              		.cfi_def_cfa 8, 0
 688              	.LBB20:
  82:src/syscall_cpp.cpp ****     myHandle=nullptr;
 689              		.loc 2 82 16 is_stmt 0
 690 0350 97070000 		lla	a5,_ZTV6Thread+16
 690      93870700 
 691 0358 2330F500 		sd	a5,0(a0)
  83:src/syscall_cpp.cpp ****     body = threadWrapper;
 692              		.loc 2 83 5 is_stmt 1
  83:src/syscall_cpp.cpp ****     body = threadWrapper;
 693              		.loc 2 83 13 is_stmt 0
 694 035c 23340500 		sd	zero,8(a0)
  84:src/syscall_cpp.cpp ****     arg = this;
 695              		.loc 2 84 5 is_stmt 1
  84:src/syscall_cpp.cpp ****     arg = this;
 696              		.loc 2 84 10 is_stmt 0
 697 0360 97070000 		lla	a5,_ZN6Thread13threadWrapperEPv
 697      93870700 
 698 0368 2338F500 		sd	a5,16(a0)
  85:src/syscall_cpp.cpp **** }
 699              		.loc 2 85 5 is_stmt 1
  85:src/syscall_cpp.cpp **** }
 700              		.loc 2 85 9 is_stmt 0
 701 036c 233CA500 		sd	a0,24(a0)
 702              	.LBE20:
  86:src/syscall_cpp.cpp **** 
 703              		.loc 2 86 1
 704 0370 03348100 		ld	s0,8(sp)
 705              		.cfi_restore 8
 706              		.cfi_def_cfa 2, 16
 707 0374 13010101 		addi	sp,sp,16
 708              		.cfi_def_cfa_offset 0
 709 0378 67800000 		jr	ra
 710              		.cfi_endproc
 711              	.LFE61:
 713              		.globl	_ZN6ThreadC1Ev
 714              		.set	_ZN6ThreadC1Ev,_ZN6ThreadC2Ev
 715              		.align	2
 716              		.globl	_ZN6Thread5sleepEm
 718              	_ZN6Thread5sleepEm:
 719              	.LFB63:
  90:src/syscall_cpp.cpp ****     return 0;
 720              		.loc 2 90 32 is_stmt 1
 721              		.cfi_startproc
 722              	.LVL52:
 723 037c 130101FF 		addi	sp,sp,-16
 724              		.cfi_def_cfa_offset 16
 725 0380 23348100 		sd	s0,8(sp)
 726              		.cfi_offset 8, -8
GAS LISTING /tmp/ccxslZcu.s 			page 19


 727 0384 13040101 		addi	s0,sp,16
 728              		.cfi_def_cfa 8, 0
  91:src/syscall_cpp.cpp **** }
 729              		.loc 2 91 5
  92:src/syscall_cpp.cpp **** 
 730              		.loc 2 92 1 is_stmt 0
 731 0388 13050000 		li	a0,0
 732              	.LVL53:
 733 038c 03348100 		ld	s0,8(sp)
 734              		.cfi_restore 8
 735              		.cfi_def_cfa 2, 16
 736 0390 13010101 		addi	sp,sp,16
 737              		.cfi_def_cfa_offset 0
 738 0394 67800000 		jr	ra
 739              		.cfi_endproc
 740              	.LFE63:
 742              		.align	2
 743              		.globl	_ZN6Thread10setRunningEPS_
 745              	_ZN6Thread10setRunningEPS_:
 746              	.LFB65:
  98:src/syscall_cpp.cpp **** 
  99:src/syscall_cpp.cpp **** 
 100:src/syscall_cpp.cpp **** 
 101:src/syscall_cpp.cpp **** 
 102:src/syscall_cpp.cpp ****  void Thread::setRunning(Thread *thread) {
 747              		.loc 2 102 42 is_stmt 1
 748              		.cfi_startproc
 749              	.LVL54:
 750 0398 130101FF 		addi	sp,sp,-16
 751              		.cfi_def_cfa_offset 16
 752 039c 23341100 		sd	ra,8(sp)
 753 03a0 23308100 		sd	s0,0(sp)
 754              		.cfi_offset 1, -8
 755              		.cfi_offset 8, -16
 756 03a4 13040101 		addi	s0,sp,16
 757              		.cfi_def_cfa 8, 0
 103:src/syscall_cpp.cpp ****      th_running(thread->myHandle);
 758              		.loc 2 103 6
 759              		.loc 2 103 16 is_stmt 0
 760 03a8 03358500 		ld	a0,8(a0)
 761              	.LVL55:
 762 03ac 97000000 		call	_Z10th_runningP3TCB@plt
 762      E7800000 
 763              	.LVL56:
 104:src/syscall_cpp.cpp ****  }
 764              		.loc 2 104 2
 765 03b4 83308100 		ld	ra,8(sp)
 766              		.cfi_restore 1
 767 03b8 03340100 		ld	s0,0(sp)
 768              		.cfi_restore 8
 769              		.cfi_def_cfa 2, 16
 770 03bc 13010101 		addi	sp,sp,16
 771              		.cfi_def_cfa_offset 0
 772 03c0 67800000 		jr	ra
 773              		.cfi_endproc
 774              	.LFE65:
 776              		.align	2
GAS LISTING /tmp/ccxslZcu.s 			page 20


 777              		.globl	_ZN6Thread11getThreadIdEv
 779              	_ZN6Thread11getThreadIdEv:
 780              	.LFB66:
 105:src/syscall_cpp.cpp **** 
 106:src/syscall_cpp.cpp ****  int Thread::getThreadId() {
 781              		.loc 2 106 28 is_stmt 1
 782              		.cfi_startproc
 783              	.LVL57:
 784 03c4 130101FF 		addi	sp,sp,-16
 785              		.cfi_def_cfa_offset 16
 786 03c8 23341100 		sd	ra,8(sp)
 787 03cc 23308100 		sd	s0,0(sp)
 788              		.cfi_offset 1, -8
 789              		.cfi_offset 8, -16
 790 03d0 13040101 		addi	s0,sp,16
 791              		.cfi_def_cfa 8, 0
 107:src/syscall_cpp.cpp ****     return thread_id(myHandle);
 792              		.loc 2 107 5
 793              		.loc 2 107 21 is_stmt 0
 794 03d4 03358500 		ld	a0,8(a0)
 795              	.LVL58:
 796 03d8 97000000 		call	_Z9thread_idP3TCB@plt
 796      E7800000 
 797              	.LVL59:
 108:src/syscall_cpp.cpp ****  }
 798              		.loc 2 108 2
 799 03e0 83308100 		ld	ra,8(sp)
 800              		.cfi_restore 1
 801 03e4 03340100 		ld	s0,0(sp)
 802              		.cfi_restore 8
 803              		.cfi_def_cfa 2, 16
 804 03e8 13010101 		addi	sp,sp,16
 805              		.cfi_def_cfa_offset 0
 806 03ec 67800000 		jr	ra
 807              		.cfi_endproc
 808              	.LFE66:
 810              		.align	2
 811              		.globl	_ZN6Thread4joinEv
 813              	_ZN6Thread4joinEv:
 814              	.LFB67:
 109:src/syscall_cpp.cpp **** 
 110:src/syscall_cpp.cpp ****  void Thread::join() {
 815              		.loc 2 110 22 is_stmt 1
 816              		.cfi_startproc
 817              	.LVL60:
 818 03f0 130101FF 		addi	sp,sp,-16
 819              		.cfi_def_cfa_offset 16
 820 03f4 23341100 		sd	ra,8(sp)
 821 03f8 23308100 		sd	s0,0(sp)
 822              		.cfi_offset 1, -8
 823              		.cfi_offset 8, -16
 824 03fc 13040101 		addi	s0,sp,16
 825              		.cfi_def_cfa 8, 0
 111:src/syscall_cpp.cpp ****      thread_join(myHandle);
 826              		.loc 2 111 6
 827              		.loc 2 111 17 is_stmt 0
 828 0400 03358500 		ld	a0,8(a0)
GAS LISTING /tmp/ccxslZcu.s 			page 21


 829              	.LVL61:
 830 0404 97000000 		call	_Z11thread_joinP3TCB@plt
 830      E7800000 
 831              	.LVL62:
 112:src/syscall_cpp.cpp ****  }
 832              		.loc 2 112 2
 833 040c 83308100 		ld	ra,8(sp)
 834              		.cfi_restore 1
 835 0410 03340100 		ld	s0,0(sp)
 836              		.cfi_restore 8
 837              		.cfi_def_cfa 2, 16
 838 0414 13010101 		addi	sp,sp,16
 839              		.cfi_def_cfa_offset 0
 840 0418 67800000 		jr	ra
 841              		.cfi_endproc
 842              	.LFE67:
 844              		.align	2
 845              		.globl	_ZN6Thread3manEj
 847              	_ZN6Thread3manEj:
 848              	.LFB68:
 113:src/syscall_cpp.cpp **** 
 114:src/syscall_cpp.cpp ****  void Thread::man(unsigned int id) {
 849              		.loc 2 114 36 is_stmt 1
 850              		.cfi_startproc
 851              	.LVL63:
 852 041c 130101FF 		addi	sp,sp,-16
 853              		.cfi_def_cfa_offset 16
 854 0420 23341100 		sd	ra,8(sp)
 855 0424 23308100 		sd	s0,0(sp)
 856              		.cfi_offset 1, -8
 857              		.cfi_offset 8, -16
 858 0428 13040101 		addi	s0,sp,16
 859              		.cfi_def_cfa 8, 0
 115:src/syscall_cpp.cpp ****      thread_man(id);
 860              		.loc 2 115 6
 861              		.loc 2 115 16 is_stmt 0
 862 042c 13850500 		mv	a0,a1
 863              	.LVL64:
 864 0430 97000000 		call	_Z10thread_manj@plt
 864      E7800000 
 865              	.LVL65:
 116:src/syscall_cpp.cpp **** 
 117:src/syscall_cpp.cpp ****  }
 866              		.loc 2 117 2
 867 0438 83308100 		ld	ra,8(sp)
 868              		.cfi_restore 1
 869 043c 03340100 		ld	s0,0(sp)
 870              		.cfi_restore 8
 871              		.cfi_def_cfa 2, 16
 872 0440 13010101 		addi	sp,sp,16
 873              		.cfi_def_cfa_offset 0
 874 0444 67800000 		jr	ra
 875              		.cfi_endproc
 876              	.LFE68:
 878              		.align	2
 879              		.globl	_ZN6Thread5womanEj
 881              	_ZN6Thread5womanEj:
GAS LISTING /tmp/ccxslZcu.s 			page 22


 882              	.LFB69:
 118:src/syscall_cpp.cpp **** 
 119:src/syscall_cpp.cpp ****  void Thread::woman(unsigned int id) {
 883              		.loc 2 119 38 is_stmt 1
 884              		.cfi_startproc
 885              	.LVL66:
 886 0448 130101FF 		addi	sp,sp,-16
 887              		.cfi_def_cfa_offset 16
 888 044c 23341100 		sd	ra,8(sp)
 889 0450 23308100 		sd	s0,0(sp)
 890              		.cfi_offset 1, -8
 891              		.cfi_offset 8, -16
 892 0454 13040101 		addi	s0,sp,16
 893              		.cfi_def_cfa 8, 0
 120:src/syscall_cpp.cpp ****      thread_woman(id);
 894              		.loc 2 120 6
 895              		.loc 2 120 18 is_stmt 0
 896 0458 13850500 		mv	a0,a1
 897              	.LVL67:
 898 045c 97000000 		call	_Z12thread_womanj@plt
 898      E7800000 
 899              	.LVL68:
 121:src/syscall_cpp.cpp ****  }
 900              		.loc 2 121 2
 901 0464 83308100 		ld	ra,8(sp)
 902              		.cfi_restore 1
 903 0468 03340100 		ld	s0,0(sp)
 904              		.cfi_restore 8
 905              		.cfi_def_cfa 2, 16
 906 046c 13010101 		addi	sp,sp,16
 907              		.cfi_def_cfa_offset 0
 908 0470 67800000 		jr	ra
 909              		.cfi_endproc
 910              	.LFE69:
 912              		.align	2
 913              		.globl	_ZN6Thread7barrierEv
 915              	_ZN6Thread7barrierEv:
 916              	.LFB70:
 122:src/syscall_cpp.cpp **** 
 123:src/syscall_cpp.cpp ****  void Thread::barrier() {
 917              		.loc 2 123 25 is_stmt 1
 918              		.cfi_startproc
 919              	.LVL69:
 920 0474 130101FF 		addi	sp,sp,-16
 921              		.cfi_def_cfa_offset 16
 922 0478 23341100 		sd	ra,8(sp)
 923 047c 23308100 		sd	s0,0(sp)
 924              		.cfi_offset 1, -8
 925              		.cfi_offset 8, -16
 926 0480 13040101 		addi	s0,sp,16
 927              		.cfi_def_cfa 8, 0
 124:src/syscall_cpp.cpp ****     thread_barriere();
 928              		.loc 2 124 5
 929              		.loc 2 124 20 is_stmt 0
 930 0484 97000000 		call	_Z15thread_barrierev@plt
 930      E7800000 
 931              	.LVL70:
GAS LISTING /tmp/ccxslZcu.s 			page 23


 125:src/syscall_cpp.cpp ****  }
 932              		.loc 2 125 2
 933 048c 83308100 		ld	ra,8(sp)
 934              		.cfi_restore 1
 935 0490 03340100 		ld	s0,0(sp)
 936              		.cfi_restore 8
 937              		.cfi_def_cfa 2, 16
 938 0494 13010101 		addi	sp,sp,16
 939              		.cfi_def_cfa_offset 0
 940 0498 67800000 		jr	ra
 941              		.cfi_endproc
 942              	.LFE70:
 944              		.align	2
 945              		.globl	_ZN6Thread4sendEPKc
 947              	_ZN6Thread4sendEPKc:
 948              	.LFB71:
 126:src/syscall_cpp.cpp **** 
 127:src/syscall_cpp.cpp **** 
 128:src/syscall_cpp.cpp **** 
 129:src/syscall_cpp.cpp **** 
 130:src/syscall_cpp.cpp ****  void Thread::send(char const* message) {
 949              		.loc 2 130 41 is_stmt 1
 950              		.cfi_startproc
 951              	.LVL71:
 952 049c 130101FF 		addi	sp,sp,-16
 953              		.cfi_def_cfa_offset 16
 954 04a0 23341100 		sd	ra,8(sp)
 955 04a4 23308100 		sd	s0,0(sp)
 956              		.cfi_offset 1, -8
 957              		.cfi_offset 8, -16
 958 04a8 13040101 		addi	s0,sp,16
 959              		.cfi_def_cfa 8, 0
 131:src/syscall_cpp.cpp ****      thread_send(myHandle,message);
 960              		.loc 2 131 6
 961              		.loc 2 131 17 is_stmt 0
 962 04ac 03358500 		ld	a0,8(a0)
 963              	.LVL72:
 964 04b0 97000000 		call	_Z11thread_sendP3TCBPKc@plt
 964      E7800000 
 965              	.LVL73:
 132:src/syscall_cpp.cpp ****  }
 966              		.loc 2 132 2
 967 04b8 83308100 		ld	ra,8(sp)
 968              		.cfi_restore 1
 969 04bc 03340100 		ld	s0,0(sp)
 970              		.cfi_restore 8
 971              		.cfi_def_cfa 2, 16
 972 04c0 13010101 		addi	sp,sp,16
 973              		.cfi_def_cfa_offset 0
 974 04c4 67800000 		jr	ra
 975              		.cfi_endproc
 976              	.LFE71:
 978              		.align	2
 979              		.globl	_ZN6Thread7receiveEv
 981              	_ZN6Thread7receiveEv:
 982              	.LFB72:
 133:src/syscall_cpp.cpp **** 
GAS LISTING /tmp/ccxslZcu.s 			page 24


 134:src/syscall_cpp.cpp ****  char const* Thread::receive() {
 983              		.loc 2 134 32 is_stmt 1
 984              		.cfi_startproc
 985              	.LVL74:
 986 04c8 130101FF 		addi	sp,sp,-16
 987              		.cfi_def_cfa_offset 16
 988 04cc 23341100 		sd	ra,8(sp)
 989 04d0 23308100 		sd	s0,0(sp)
 990              		.cfi_offset 1, -8
 991              		.cfi_offset 8, -16
 992 04d4 13040101 		addi	s0,sp,16
 993              		.cfi_def_cfa 8, 0
 135:src/syscall_cpp.cpp ****     return thread_receive();
 994              		.loc 2 135 5
 995              		.loc 2 135 26 is_stmt 0
 996 04d8 97000000 		call	_Z14thread_receivev@plt
 996      E7800000 
 997              	.LVL75:
 136:src/syscall_cpp.cpp ****  }
 998              		.loc 2 136 2
 999 04e0 83308100 		ld	ra,8(sp)
 1000              		.cfi_restore 1
 1001 04e4 03340100 		ld	s0,0(sp)
 1002              		.cfi_restore 8
 1003              		.cfi_def_cfa 2, 16
 1004 04e8 13010101 		addi	sp,sp,16
 1005              		.cfi_def_cfa_offset 0
 1006 04ec 67800000 		jr	ra
 1007              		.cfi_endproc
 1008              	.LFE72:
 1010              		.align	2
 1011              		.globl	_ZN6Thread7joinALLEv
 1013              	_ZN6Thread7joinALLEv:
 1014              	.LFB73:
 137:src/syscall_cpp.cpp **** 
 138:src/syscall_cpp.cpp ****  void Thread::joinALL() {
 1015              		.loc 2 138 25 is_stmt 1
 1016              		.cfi_startproc
 1017 04f0 130101FF 		addi	sp,sp,-16
 1018              		.cfi_def_cfa_offset 16
 1019 04f4 23341100 		sd	ra,8(sp)
 1020 04f8 23308100 		sd	s0,0(sp)
 1021              		.cfi_offset 1, -8
 1022              		.cfi_offset 8, -16
 1023 04fc 13040101 		addi	s0,sp,16
 1024              		.cfi_def_cfa 8, 0
 139:src/syscall_cpp.cpp ****     thread_joinALL();
 1025              		.loc 2 139 5
 1026              		.loc 2 139 19 is_stmt 0
 1027 0500 97000000 		call	_Z14thread_joinALLv@plt
 1027      E7800000 
 1028              	.LVL76:
 140:src/syscall_cpp.cpp ****  }
 1029              		.loc 2 140 2
 1030 0508 83308100 		ld	ra,8(sp)
 1031              		.cfi_restore 1
 1032 050c 03340100 		ld	s0,0(sp)
GAS LISTING /tmp/ccxslZcu.s 			page 25


 1033              		.cfi_restore 8
 1034              		.cfi_def_cfa 2, 16
 1035 0510 13010101 		addi	sp,sp,16
 1036              		.cfi_def_cfa_offset 0
 1037 0514 67800000 		jr	ra
 1038              		.cfi_endproc
 1039              	.LFE73:
 1041              		.align	2
 1042              		.globl	_ZN6Thread13setMaxThreadsEi
 1044              	_ZN6Thread13setMaxThreadsEi:
 1045              	.LFB74:
 141:src/syscall_cpp.cpp **** 
 142:src/syscall_cpp.cpp ****  void Thread::setMaxThreads(int num) {
 1046              		.loc 2 142 38 is_stmt 1
 1047              		.cfi_startproc
 1048              	.LVL77:
 1049 0518 130101FF 		addi	sp,sp,-16
 1050              		.cfi_def_cfa_offset 16
 1051 051c 23341100 		sd	ra,8(sp)
 1052 0520 23308100 		sd	s0,0(sp)
 1053              		.cfi_offset 1, -8
 1054              		.cfi_offset 8, -16
 1055 0524 13040101 		addi	s0,sp,16
 1056              		.cfi_def_cfa 8, 0
 143:src/syscall_cpp.cpp ****      thread_setMaxThread(num);
 1057              		.loc 2 143 6
 1058              		.loc 2 143 25 is_stmt 0
 1059 0528 97000000 		call	_Z19thread_setMaxThreadi@plt
 1059      E7800000 
 1060              	.LVL78:
 144:src/syscall_cpp.cpp ****  }
 1061              		.loc 2 144 2
 1062 0530 83308100 		ld	ra,8(sp)
 1063              		.cfi_restore 1
 1064 0534 03340100 		ld	s0,0(sp)
 1065              		.cfi_restore 8
 1066              		.cfi_def_cfa 2, 16
 1067 0538 13010101 		addi	sp,sp,16
 1068              		.cfi_def_cfa_offset 0
 1069 053c 67800000 		jr	ra
 1070              		.cfi_endproc
 1071              	.LFE74:
 1073              		.align	2
 1074              		.globl	_ZN6Thread9barrier_2Ev
 1076              	_ZN6Thread9barrier_2Ev:
 1077              	.LFB75:
 145:src/syscall_cpp.cpp **** 
 146:src/syscall_cpp.cpp ****  void Thread::barrier_2() {
 1078              		.loc 2 146 27 is_stmt 1
 1079              		.cfi_startproc
 1080 0540 130101FF 		addi	sp,sp,-16
 1081              		.cfi_def_cfa_offset 16
 1082 0544 23341100 		sd	ra,8(sp)
 1083 0548 23308100 		sd	s0,0(sp)
 1084              		.cfi_offset 1, -8
 1085              		.cfi_offset 8, -16
 1086 054c 13040101 		addi	s0,sp,16
GAS LISTING /tmp/ccxslZcu.s 			page 26


 1087              		.cfi_def_cfa 8, 0
 147:src/syscall_cpp.cpp ****     thread_barrier();
 1088              		.loc 2 147 5
 1089              		.loc 2 147 19 is_stmt 0
 1090 0550 97000000 		call	_Z14thread_barrierv@plt
 1090      E7800000 
 1091              	.LVL79:
 148:src/syscall_cpp.cpp ****  }
 1092              		.loc 2 148 2
 1093 0558 83308100 		ld	ra,8(sp)
 1094              		.cfi_restore 1
 1095 055c 03340100 		ld	s0,0(sp)
 1096              		.cfi_restore 8
 1097              		.cfi_def_cfa 2, 16
 1098 0560 13010101 		addi	sp,sp,16
 1099              		.cfi_def_cfa_offset 0
 1100 0564 67800000 		jr	ra
 1101              		.cfi_endproc
 1102              	.LFE75:
 1104              		.align	2
 1105              		.globl	_ZN6Thread8consumerEi
 1107              	_ZN6Thread8consumerEi:
 1108              	.LFB76:
 149:src/syscall_cpp.cpp **** 
 150:src/syscall_cpp.cpp ****  void Thread::consumer(int id) {
 1109              		.loc 2 150 32 is_stmt 1
 1110              		.cfi_startproc
 1111              	.LVL80:
 1112 0568 130101FF 		addi	sp,sp,-16
 1113              		.cfi_def_cfa_offset 16
 1114 056c 23341100 		sd	ra,8(sp)
 1115 0570 23308100 		sd	s0,0(sp)
 1116              		.cfi_offset 1, -8
 1117              		.cfi_offset 8, -16
 1118 0574 13040101 		addi	s0,sp,16
 1119              		.cfi_def_cfa 8, 0
 151:src/syscall_cpp.cpp ****      thread_consumer(id);
 1120              		.loc 2 151 6
 1121              		.loc 2 151 21 is_stmt 0
 1122 0578 13850500 		mv	a0,a1
 1123              	.LVL81:
 1124 057c 97000000 		call	_Z15thread_consumeri@plt
 1124      E7800000 
 1125              	.LVL82:
 152:src/syscall_cpp.cpp **** 
 153:src/syscall_cpp.cpp ****  }
 1126              		.loc 2 153 2
 1127 0584 83308100 		ld	ra,8(sp)
 1128              		.cfi_restore 1
 1129 0588 03340100 		ld	s0,0(sp)
 1130              		.cfi_restore 8
 1131              		.cfi_def_cfa 2, 16
 1132 058c 13010101 		addi	sp,sp,16
 1133              		.cfi_def_cfa_offset 0
 1134 0590 67800000 		jr	ra
 1135              		.cfi_endproc
 1136              	.LFE76:
GAS LISTING /tmp/ccxslZcu.s 			page 27


 1138              		.align	2
 1139              		.globl	_ZN6Thread8producerEi
 1141              	_ZN6Thread8producerEi:
 1142              	.LFB77:
 154:src/syscall_cpp.cpp **** 
 155:src/syscall_cpp.cpp ****  void Thread::producer(int id) {
 1143              		.loc 2 155 32 is_stmt 1
 1144              		.cfi_startproc
 1145              	.LVL83:
 1146 0594 130101FF 		addi	sp,sp,-16
 1147              		.cfi_def_cfa_offset 16
 1148 0598 23341100 		sd	ra,8(sp)
 1149 059c 23308100 		sd	s0,0(sp)
 1150              		.cfi_offset 1, -8
 1151              		.cfi_offset 8, -16
 1152 05a0 13040101 		addi	s0,sp,16
 1153              		.cfi_def_cfa 8, 0
 156:src/syscall_cpp.cpp ****     thread_producer(id);
 1154              		.loc 2 156 5
 1155              		.loc 2 156 20 is_stmt 0
 1156 05a4 13850500 		mv	a0,a1
 1157              	.LVL84:
 1158 05a8 97000000 		call	_Z15thread_produceri@plt
 1158      E7800000 
 1159              	.LVL85:
 157:src/syscall_cpp.cpp ****  }
 1160              		.loc 2 157 2
 1161 05b0 83308100 		ld	ra,8(sp)
 1162              		.cfi_restore 1
 1163 05b4 03340100 		ld	s0,0(sp)
 1164              		.cfi_restore 8
 1165              		.cfi_def_cfa 2, 16
 1166 05b8 13010101 		addi	sp,sp,16
 1167              		.cfi_def_cfa_offset 0
 1168 05bc 67800000 		jr	ra
 1169              		.cfi_endproc
 1170              	.LFE77:
 1172              		.align	2
 1173              		.globl	_ZN6Thread1OEj
 1175              	_ZN6Thread1OEj:
 1176              	.LFB78:
 158:src/syscall_cpp.cpp **** 
 159:src/syscall_cpp.cpp ****  void Thread::O(unsigned int id) {
 1177              		.loc 2 159 34 is_stmt 1
 1178              		.cfi_startproc
 1179              	.LVL86:
 1180 05c0 130101FF 		addi	sp,sp,-16
 1181              		.cfi_def_cfa_offset 16
 1182 05c4 23341100 		sd	ra,8(sp)
 1183 05c8 23308100 		sd	s0,0(sp)
 1184              		.cfi_offset 1, -8
 1185              		.cfi_offset 8, -16
 1186 05cc 13040101 		addi	s0,sp,16
 1187              		.cfi_def_cfa 8, 0
 160:src/syscall_cpp.cpp ****      thread_o(id);
 1188              		.loc 2 160 6
 1189              		.loc 2 160 14 is_stmt 0
GAS LISTING /tmp/ccxslZcu.s 			page 28


 1190 05d0 13850500 		mv	a0,a1
 1191              	.LVL87:
 1192 05d4 97000000 		call	_Z8thread_oj@plt
 1192      E7800000 
 1193              	.LVL88:
 161:src/syscall_cpp.cpp **** 
 162:src/syscall_cpp.cpp ****  }
 1194              		.loc 2 162 2
 1195 05dc 83308100 		ld	ra,8(sp)
 1196              		.cfi_restore 1
 1197 05e0 03340100 		ld	s0,0(sp)
 1198              		.cfi_restore 8
 1199              		.cfi_def_cfa 2, 16
 1200 05e4 13010101 		addi	sp,sp,16
 1201              		.cfi_def_cfa_offset 0
 1202 05e8 67800000 		jr	ra
 1203              		.cfi_endproc
 1204              	.LFE78:
 1206              		.align	2
 1207              		.globl	_ZN6Thread1HEj
 1209              	_ZN6Thread1HEj:
 1210              	.LFB79:
 163:src/syscall_cpp.cpp **** 
 164:src/syscall_cpp.cpp ****  void Thread::H(unsigned int id) {
 1211              		.loc 2 164 34 is_stmt 1
 1212              		.cfi_startproc
 1213              	.LVL89:
 1214 05ec 130101FF 		addi	sp,sp,-16
 1215              		.cfi_def_cfa_offset 16
 1216 05f0 23341100 		sd	ra,8(sp)
 1217 05f4 23308100 		sd	s0,0(sp)
 1218              		.cfi_offset 1, -8
 1219              		.cfi_offset 8, -16
 1220 05f8 13040101 		addi	s0,sp,16
 1221              		.cfi_def_cfa 8, 0
 165:src/syscall_cpp.cpp ****      thread_h(id);
 1222              		.loc 2 165 6
 1223              		.loc 2 165 14 is_stmt 0
 1224 05fc 13850500 		mv	a0,a1
 1225              	.LVL90:
 1226 0600 97000000 		call	_Z8thread_hj@plt
 1226      E7800000 
 1227              	.LVL91:
 166:src/syscall_cpp.cpp ****  }
 1228              		.loc 2 166 2
 1229 0608 83308100 		ld	ra,8(sp)
 1230              		.cfi_restore 1
 1231 060c 03340100 		ld	s0,0(sp)
 1232              		.cfi_restore 8
 1233              		.cfi_def_cfa 2, 16
 1234 0610 13010101 		addi	sp,sp,16
 1235              		.cfi_def_cfa_offset 0
 1236 0614 67800000 		jr	ra
 1237              		.cfi_endproc
 1238              	.LFE79:
 1240              		.align	2
 1241              		.globl	_ZN6Thread6savageEj
GAS LISTING /tmp/ccxslZcu.s 			page 29


 1243              	_ZN6Thread6savageEj:
 1244              	.LFB80:
 167:src/syscall_cpp.cpp **** 
 168:src/syscall_cpp.cpp ****  void Thread::savage(unsigned int id) {
 1245              		.loc 2 168 39 is_stmt 1
 1246              		.cfi_startproc
 1247              	.LVL92:
 1248 0618 130101FF 		addi	sp,sp,-16
 1249              		.cfi_def_cfa_offset 16
 1250 061c 23341100 		sd	ra,8(sp)
 1251 0620 23308100 		sd	s0,0(sp)
 1252              		.cfi_offset 1, -8
 1253              		.cfi_offset 8, -16
 1254 0624 13040101 		addi	s0,sp,16
 1255              		.cfi_def_cfa 8, 0
 169:src/syscall_cpp.cpp ****      thread_savage(id);
 1256              		.loc 2 169 6
 1257              		.loc 2 169 19 is_stmt 0
 1258 0628 13850500 		mv	a0,a1
 1259              	.LVL93:
 1260 062c 97000000 		call	_Z13thread_savagej@plt
 1260      E7800000 
 1261              	.LVL94:
 170:src/syscall_cpp.cpp **** 
 171:src/syscall_cpp.cpp ****  }
 1262              		.loc 2 171 2
 1263 0634 83308100 		ld	ra,8(sp)
 1264              		.cfi_restore 1
 1265 0638 03340100 		ld	s0,0(sp)
 1266              		.cfi_restore 8
 1267              		.cfi_def_cfa 2, 16
 1268 063c 13010101 		addi	sp,sp,16
 1269              		.cfi_def_cfa_offset 0
 1270 0640 67800000 		jr	ra
 1271              		.cfi_endproc
 1272              	.LFE80:
 1274              		.align	2
 1275              		.globl	_ZN6Thread4cookEv
 1277              	_ZN6Thread4cookEv:
 1278              	.LFB81:
 172:src/syscall_cpp.cpp **** 
 173:src/syscall_cpp.cpp ****  void Thread::cook() {
 1279              		.loc 2 173 22 is_stmt 1
 1280              		.cfi_startproc
 1281              	.LVL95:
 1282 0644 130101FF 		addi	sp,sp,-16
 1283              		.cfi_def_cfa_offset 16
 1284 0648 23341100 		sd	ra,8(sp)
 1285 064c 23308100 		sd	s0,0(sp)
 1286              		.cfi_offset 1, -8
 1287              		.cfi_offset 8, -16
 1288 0650 13040101 		addi	s0,sp,16
 1289              		.cfi_def_cfa 8, 0
 174:src/syscall_cpp.cpp ****      thread_cook();
 1290              		.loc 2 174 6
 1291              		.loc 2 174 17 is_stmt 0
 1292 0654 97000000 		call	_Z11thread_cookv@plt
GAS LISTING /tmp/ccxslZcu.s 			page 30


 1292      E7800000 
 1293              	.LVL96:
 175:src/syscall_cpp.cpp ****  }
 1294              		.loc 2 175 2
 1295 065c 83308100 		ld	ra,8(sp)
 1296              		.cfi_restore 1
 1297 0660 03340100 		ld	s0,0(sp)
 1298              		.cfi_restore 8
 1299              		.cfi_def_cfa 2, 16
 1300 0664 13010101 		addi	sp,sp,16
 1301              		.cfi_def_cfa_offset 0
 1302 0668 67800000 		jr	ra
 1303              		.cfi_endproc
 1304              	.LFE81:
 1306              		.align	2
 1307              		.globl	_ZN6Thread9birdChildEj
 1309              	_ZN6Thread9birdChildEj:
 1310              	.LFB82:
 176:src/syscall_cpp.cpp **** 
 177:src/syscall_cpp.cpp ****  void Thread::birdChild(unsigned int id) {
 1311              		.loc 2 177 42 is_stmt 1
 1312              		.cfi_startproc
 1313              	.LVL97:
 1314 066c 130101FF 		addi	sp,sp,-16
 1315              		.cfi_def_cfa_offset 16
 1316 0670 23341100 		sd	ra,8(sp)
 1317 0674 23308100 		sd	s0,0(sp)
 1318              		.cfi_offset 1, -8
 1319              		.cfi_offset 8, -16
 1320 0678 13040101 		addi	s0,sp,16
 1321              		.cfi_def_cfa 8, 0
 178:src/syscall_cpp.cpp ****      thread_birdCH(id);
 1322              		.loc 2 178 6
 1323              		.loc 2 178 19 is_stmt 0
 1324 067c 13850500 		mv	a0,a1
 1325              	.LVL98:
 1326 0680 97000000 		call	_Z13thread_birdCHj@plt
 1326      E7800000 
 1327              	.LVL99:
 179:src/syscall_cpp.cpp ****  }
 1328              		.loc 2 179 2
 1329 0688 83308100 		ld	ra,8(sp)
 1330              		.cfi_restore 1
 1331 068c 03340100 		ld	s0,0(sp)
 1332              		.cfi_restore 8
 1333              		.cfi_def_cfa 2, 16
 1334 0690 13010101 		addi	sp,sp,16
 1335              		.cfi_def_cfa_offset 0
 1336 0694 67800000 		jr	ra
 1337              		.cfi_endproc
 1338              	.LFE82:
 1340              		.align	2
 1341              		.globl	_ZN6Thread10birdParentEj
 1343              	_ZN6Thread10birdParentEj:
 1344              	.LFB83:
 180:src/syscall_cpp.cpp **** 
 181:src/syscall_cpp.cpp ****  void Thread::birdParent(unsigned int id) {
GAS LISTING /tmp/ccxslZcu.s 			page 31


 1345              		.loc 2 181 43 is_stmt 1
 1346              		.cfi_startproc
 1347              	.LVL100:
 1348 0698 130101FF 		addi	sp,sp,-16
 1349              		.cfi_def_cfa_offset 16
 1350 069c 23341100 		sd	ra,8(sp)
 1351 06a0 23308100 		sd	s0,0(sp)
 1352              		.cfi_offset 1, -8
 1353              		.cfi_offset 8, -16
 1354 06a4 13040101 		addi	s0,sp,16
 1355              		.cfi_def_cfa 8, 0
 182:src/syscall_cpp.cpp ****      thread_birdPA(id);
 1356              		.loc 2 182 6
 1357              		.loc 2 182 19 is_stmt 0
 1358 06a8 13850500 		mv	a0,a1
 1359              	.LVL101:
 1360 06ac 97000000 		call	_Z13thread_birdPAj@plt
 1360      E7800000 
 1361              	.LVL102:
 183:src/syscall_cpp.cpp ****  }
 1362              		.loc 2 183 2
 1363 06b4 83308100 		ld	ra,8(sp)
 1364              		.cfi_restore 1
 1365 06b8 03340100 		ld	s0,0(sp)
 1366              		.cfi_restore 8
 1367              		.cfi_def_cfa 2, 16
 1368 06bc 13010101 		addi	sp,sp,16
 1369              		.cfi_def_cfa_offset 0
 1370 06c0 67800000 		jr	ra
 1371              		.cfi_endproc
 1372              	.LFE83:
 1374              		.align	2
 1375              		.globl	_ZN6Thread4medaEv
 1377              	_ZN6Thread4medaEv:
 1378              	.LFB84:
 184:src/syscall_cpp.cpp **** 
 185:src/syscall_cpp.cpp ****  void Thread::meda() {
 1379              		.loc 2 185 22 is_stmt 1
 1380              		.cfi_startproc
 1381              	.LVL103:
 1382 06c4 130101FF 		addi	sp,sp,-16
 1383              		.cfi_def_cfa_offset 16
 1384 06c8 23341100 		sd	ra,8(sp)
 1385 06cc 23308100 		sd	s0,0(sp)
 1386              		.cfi_offset 1, -8
 1387              		.cfi_offset 8, -16
 1388 06d0 13040101 		addi	s0,sp,16
 1389              		.cfi_def_cfa 8, 0
 186:src/syscall_cpp.cpp ****      thread_BEAR();
 1390              		.loc 2 186 6
 1391              		.loc 2 186 17 is_stmt 0
 1392 06d4 97000000 		call	_Z11thread_BEARv@plt
 1392      E7800000 
 1393              	.LVL104:
 187:src/syscall_cpp.cpp **** 
 188:src/syscall_cpp.cpp ****  }
 1394              		.loc 2 188 2
GAS LISTING /tmp/ccxslZcu.s 			page 32


 1395 06dc 83308100 		ld	ra,8(sp)
 1396              		.cfi_restore 1
 1397 06e0 03340100 		ld	s0,0(sp)
 1398              		.cfi_restore 8
 1399              		.cfi_def_cfa 2, 16
 1400 06e4 13010101 		addi	sp,sp,16
 1401              		.cfi_def_cfa_offset 0
 1402 06e8 67800000 		jr	ra
 1403              		.cfi_endproc
 1404              	.LFE84:
 1406              		.align	2
 1407              		.globl	_ZN6Thread5pcelaEj
 1409              	_ZN6Thread5pcelaEj:
 1410              	.LFB85:
 189:src/syscall_cpp.cpp **** 
 190:src/syscall_cpp.cpp ****  void Thread::pcela(unsigned int id) {
 1411              		.loc 2 190 38 is_stmt 1
 1412              		.cfi_startproc
 1413              	.LVL105:
 1414 06ec 130101FF 		addi	sp,sp,-16
 1415              		.cfi_def_cfa_offset 16
 1416 06f0 23341100 		sd	ra,8(sp)
 1417 06f4 23308100 		sd	s0,0(sp)
 1418              		.cfi_offset 1, -8
 1419              		.cfi_offset 8, -16
 1420 06f8 13040101 		addi	s0,sp,16
 1421              		.cfi_def_cfa 8, 0
 191:src/syscall_cpp.cpp ****      thread_BEE(id);
 1422              		.loc 2 191 6
 1423              		.loc 2 191 16 is_stmt 0
 1424 06fc 13850500 		mv	a0,a1
 1425              	.LVL106:
 1426 0700 97000000 		call	_Z10thread_BEEj@plt
 1426      E7800000 
 1427              	.LVL107:
 192:src/syscall_cpp.cpp ****  }
 1428              		.loc 2 192 2
 1429 0708 83308100 		ld	ra,8(sp)
 1430              		.cfi_restore 1
 1431 070c 03340100 		ld	s0,0(sp)
 1432              		.cfi_restore 8
 1433              		.cfi_def_cfa 2, 16
 1434 0710 13010101 		addi	sp,sp,16
 1435              		.cfi_def_cfa_offset 0
 1436 0714 67800000 		jr	ra
 1437              		.cfi_endproc
 1438              	.LFE85:
 1440              		.align	2
 1441              		.globl	_ZN6Thread10pingThreadEv
 1443              	_ZN6Thread10pingThreadEv:
 1444              	.LFB86:
 193:src/syscall_cpp.cpp **** 
 194:src/syscall_cpp.cpp ****  void Thread::pingThread() {
 1445              		.loc 2 194 28 is_stmt 1
 1446              		.cfi_startproc
 1447              	.LVL108:
 1448 0718 130101FF 		addi	sp,sp,-16
GAS LISTING /tmp/ccxslZcu.s 			page 33


 1449              		.cfi_def_cfa_offset 16
 1450 071c 23341100 		sd	ra,8(sp)
 1451 0720 23308100 		sd	s0,0(sp)
 1452              		.cfi_offset 1, -8
 1453              		.cfi_offset 8, -16
 1454 0724 13040101 		addi	s0,sp,16
 1455              		.cfi_def_cfa 8, 0
 195:src/syscall_cpp.cpp ****      thread_ping(myHandle);
 1456              		.loc 2 195 6
 1457              		.loc 2 195 17 is_stmt 0
 1458 0728 03358500 		ld	a0,8(a0)
 1459              	.LVL109:
 1460 072c 97000000 		call	_Z11thread_pingP3TCB@plt
 1460      E7800000 
 1461              	.LVL110:
 196:src/syscall_cpp.cpp ****  }
 1462              		.loc 2 196 2
 1463 0734 83308100 		ld	ra,8(sp)
 1464              		.cfi_restore 1
 1465 0738 03340100 		ld	s0,0(sp)
 1466              		.cfi_restore 8
 1467              		.cfi_def_cfa 2, 16
 1468 073c 13010101 		addi	sp,sp,16
 1469              		.cfi_def_cfa_offset 0
 1470 0740 67800000 		jr	ra
 1471              		.cfi_endproc
 1472              	.LFE86:
 1474              		.align	2
 1475              		.globl	_ZN7Console4putcEc
 1477              	_ZN7Console4putcEc:
 1478              	.LFB87:
 197:src/syscall_cpp.cpp **** 
 198:src/syscall_cpp.cpp ****  //**Konzola deo***
 199:src/syscall_cpp.cpp **** void Console::putc(char c) {
 1479              		.loc 2 199 28 is_stmt 1
 1480              		.cfi_startproc
 1481              	.LVL111:
 1482 0744 130101FF 		addi	sp,sp,-16
 1483              		.cfi_def_cfa_offset 16
 1484 0748 23341100 		sd	ra,8(sp)
 1485 074c 23308100 		sd	s0,0(sp)
 1486              		.cfi_offset 1, -8
 1487              		.cfi_offset 8, -16
 1488 0750 13040101 		addi	s0,sp,16
 1489              		.cfi_def_cfa 8, 0
 200:src/syscall_cpp.cpp ****     syscall_c::putc(c);
 1490              		.loc 2 200 14
 1491              		.loc 2 200 20 is_stmt 0
 1492 0754 97000000 		call	_Z4putcc@plt
 1492      E7800000 
 1493              	.LVL112:
 201:src/syscall_cpp.cpp **** }
 1494              		.loc 2 201 1
 1495 075c 83308100 		ld	ra,8(sp)
 1496              		.cfi_restore 1
 1497 0760 03340100 		ld	s0,0(sp)
 1498              		.cfi_restore 8
GAS LISTING /tmp/ccxslZcu.s 			page 34


 1499              		.cfi_def_cfa 2, 16
 1500 0764 13010101 		addi	sp,sp,16
 1501              		.cfi_def_cfa_offset 0
 1502 0768 67800000 		jr	ra
 1503              		.cfi_endproc
 1504              	.LFE87:
 1506              		.align	2
 1507              		.globl	_ZN7Console4getcEv
 1509              	_ZN7Console4getcEv:
 1510              	.LFB88:
 202:src/syscall_cpp.cpp **** 
 203:src/syscall_cpp.cpp **** char Console::getc() {
 1511              		.loc 2 203 22 is_stmt 1
 1512              		.cfi_startproc
 1513 076c 130101FF 		addi	sp,sp,-16
 1514              		.cfi_def_cfa_offset 16
 1515 0770 23341100 		sd	ra,8(sp)
 1516 0774 23308100 		sd	s0,0(sp)
 1517              		.cfi_offset 1, -8
 1518              		.cfi_offset 8, -16
 1519 0778 13040101 		addi	s0,sp,16
 1520              		.cfi_def_cfa 8, 0
 204:src/syscall_cpp.cpp ****     return syscall_c::getc();
 1521              		.loc 2 204 5
 1522              		.loc 2 204 27 is_stmt 0
 1523 077c 97000000 		call	_Z4getcv@plt
 1523      E7800000 
 1524              	.LVL113:
 205:src/syscall_cpp.cpp **** }
 1525              		.loc 2 205 1
 1526 0784 83308100 		ld	ra,8(sp)
 1527              		.cfi_restore 1
 1528 0788 03340100 		ld	s0,0(sp)
 1529              		.cfi_restore 8
 1530              		.cfi_def_cfa 2, 16
 1531 078c 13010101 		addi	sp,sp,16
 1532              		.cfi_def_cfa_offset 0
 1533 0790 67800000 		jr	ra
 1534              		.cfi_endproc
 1535              	.LFE88:
 1537              		.weak	_ZTV9Semaphore
 1538              		.section	.data.rel.ro.local._ZTV9Semaphore,"awG",@progbits,_ZTV9Semaphore,comdat
 1539              		.align	3
 1542              	_ZTV9Semaphore:
 1543 0000 00000000 		.dword	0
 1543      00000000 
 1544 0008 00000000 		.dword	0
 1544      00000000 
 1545 0010 00000000 		.dword	_ZN9SemaphoreD1Ev
 1545      00000000 
 1546 0018 00000000 		.dword	_ZN9SemaphoreD0Ev
 1546      00000000 
 1547              		.weak	_ZTV6Thread
 1548              		.section	.data.rel.ro.local._ZTV6Thread,"awG",@progbits,_ZTV6Thread,comdat
 1549              		.align	3
 1552              	_ZTV6Thread:
 1553 0000 00000000 		.dword	0
GAS LISTING /tmp/ccxslZcu.s 			page 35


 1553      00000000 
 1554 0008 00000000 		.dword	0
 1554      00000000 
 1555 0010 00000000 		.dword	_ZN6ThreadD1Ev
 1555      00000000 
 1556 0018 00000000 		.dword	_ZN6ThreadD0Ev
 1556      00000000 
 1557 0020 00000000 		.dword	_ZN6Thread3runEv
 1557      00000000 
 1558              		.text
 1559              	.Letext0:
 1560              		.file 4 "src/../h/../lib/hw.h"
 1561              		.file 5 "src/../h/memoryAllocator.hpp"
 1562              		.file 6 "src/../h/syscall_c.h"
 1563              		.file 7 "src/../h/Semaphore_k.hpp"
 1564              		.file 8 "src/../h/List.hpp"
 8352              		.align	3
 8355              	DW.ref.__gxx_personality_v0:
 8356 0000 00000000 		.dword	__gxx_personality_v0
 8356      00000000 
 8357              		.ident	"GCC: (Ubuntu 9.4.0-1ubuntu1~20.04) 9.4.0"
 8358              		.section	.note.GNU-stack,"",@progbits
GAS LISTING /tmp/ccxslZcu.s 			page 36

