GAS LISTING /tmp/ccg8jNLS.s 			page 1


   1              		.file	"tcb.cpp"
   2              		.option pic
   3              		.option norelax
   4              		.text
   5              	.Ltext0:
   6              		.align	2
   8              	_Z41__static_initialization_and_destruction_0ii:
   9              	.LFB104:
  10              		.file 1 "src/tcb.cpp"
   1:src/tcb.cpp   **** //
   2:src/tcb.cpp   **** // Created by os on 5/17/24.
   3:src/tcb.cpp   **** //
   4:src/tcb.cpp   **** 
   5:src/tcb.cpp   **** #include "../h/tcb.hpp"
   6:src/tcb.cpp   **** #include "../h/riscv.hpp"
   7:src/tcb.cpp   **** #include "../h/syscall_cpp.hpp"
   8:src/tcb.cpp   **** #include "../test/printing.hpp"
   9:src/tcb.cpp   **** #include "../h/Semaphore_k.hpp"
  10:src/tcb.cpp   **** 
  11:src/tcb.cpp   **** int TCB::waiting=0;
  12:src/tcb.cpp   **** 
  13:src/tcb.cpp   **** TCB *TCB::running = nullptr;
  14:src/tcb.cpp   **** int TCB::ID =0;
  15:src/tcb.cpp   **** 
  16:src/tcb.cpp   **** 
  17:src/tcb.cpp   **** int TCB::numOfWoman=0;
  18:src/tcb.cpp   **** int TCB::numOfMan=0;
  19:src/tcb.cpp   **** 
  20:src/tcb.cpp   **** Semaphore_k* TCB::empty= nullptr;
  21:src/tcb.cpp   **** Semaphore_k* TCB::toilet= nullptr;
  22:src/tcb.cpp   **** Semaphore_k* TCB::mutexMen = nullptr;
  23:src/tcb.cpp   **** Semaphore_k* TCB::mutexWomen = nullptr;
  24:src/tcb.cpp   **** Semaphore_k* TCB::entry = nullptr;
  25:src/tcb.cpp   **** bool TCB::firstSet = false;
  26:src/tcb.cpp   **** 
  27:src/tcb.cpp   **** Lista<TCB> TCB::ListBarier;
  28:src/tcb.cpp   **** bool TCB::fsBarrier =false;
  29:src/tcb.cpp   **** int TCB::numCalls=0;
  30:src/tcb.cpp   **** int TCB::numOFthreads=0;
  31:src/tcb.cpp   **** 
  32:src/tcb.cpp   **** //atomic broadcast
  33:src/tcb.cpp   **** const int CAPACITY=10;
  34:src/tcb.cpp   **** const int M=8;
  35:src/tcb.cpp   **** int buffer[CAPACITY];
  36:src/tcb.cpp   **** int consumerCnt[CAPACITY]={0};
  37:src/tcb.cpp   **** Semaphore_k* emptyy;
  38:src/tcb.cpp   **** Semaphore_k* full[M];
  39:src/tcb.cpp   **** Semaphore_k* mutexC[CAPACITY];
  40:src/tcb.cpp   **** bool TCB::prodConsum = false;
  41:src/tcb.cpp   **** int TCB::newItem =0;
  42:src/tcb.cpp   **** 
  43:src/tcb.cpp   **** 
  44:src/tcb.cpp   **** Semaphore_k* TCB::semMaxThreads = nullptr;
  45:src/tcb.cpp   **** bool TCB::setMaxTh = false;
  46:src/tcb.cpp   **** int TCB::currThr = 0;
  47:src/tcb.cpp   **** 
  48:src/tcb.cpp   **** int TCB::threadCount = 0;
GAS LISTING /tmp/ccg8jNLS.s 			page 2


  49:src/tcb.cpp   **** int TCB::calls = 0;
  50:src/tcb.cpp   **** bool TCB::setBarrier2=false;
  51:src/tcb.cpp   **** Semaphore_k* TCB::firstDoor = nullptr;
  52:src/tcb.cpp   **** Semaphore_k* TCB::secondDoor = nullptr;
  53:src/tcb.cpp   **** 
  54:src/tcb.cpp   **** //moelkul H20
  55:src/tcb.cpp   **** 
  56:src/tcb.cpp   **** bool TCB::fsH20= false;
  57:src/tcb.cpp   **** Molecule* TCB::molecule= nullptr;
  58:src/tcb.cpp   **** int TCB::count =0;
  59:src/tcb.cpp   **** Semaphore_k* TCB::hydroSem = nullptr;
  60:src/tcb.cpp   **** Semaphore_k* TCB::oxySem= nullptr;
  61:src/tcb.cpp   **** Semaphore_k* TCB::door1= nullptr;
  62:src/tcb.cpp   **** Semaphore_k* TCB::door2= nullptr;
  63:src/tcb.cpp   **** 
  64:src/tcb.cpp   **** //DINING SAVAGE
  65:src/tcb.cpp   **** const int S=50;
  66:src/tcb.cpp   **** 
  67:src/tcb.cpp   **** Semaphore_k* TCB::mutex = nullptr;
  68:src/tcb.cpp   **** Semaphore_k* TCB::semSavage = nullptr;
  69:src/tcb.cpp   **** Semaphore_k* TCB::semCook = nullptr;
  70:src/tcb.cpp   **** int TCB::pot = 0;
  71:src/tcb.cpp   **** bool TCB::fsDiningSavage=false;
  72:src/tcb.cpp   **** 
  73:src/tcb.cpp   **** //HUGRY BIRDS PROBLEM
  74:src/tcb.cpp   **** 
  75:src/tcb.cpp   **** bool TCB::setHngryBird=false;
  76:src/tcb.cpp   **** Semaphore_k* TCB::parentt = nullptr;
  77:src/tcb.cpp   **** Semaphore_k* TCB::mutexChild = nullptr;
  78:src/tcb.cpp   **** Semaphore_k* TCB::mutexParent = nullptr;
  79:src/tcb.cpp   **** const int F=24;//broj crva u posudi
  80:src/tcb.cpp   **** int TCB::pot1 = 0;
  81:src/tcb.cpp   **** 
  82:src/tcb.cpp   **** //HONEY BEE PROBLEM
  83:src/tcb.cpp   **** int TCB::kosnica=0;
  84:src/tcb.cpp   **** bool TCB::fsMedaPcele=false;
  85:src/tcb.cpp   **** Semaphore_k* TCB::mtx = nullptr;
  86:src/tcb.cpp   **** Semaphore_k* TCB::bear = nullptr;
  87:src/tcb.cpp   **** 
  88:src/tcb.cpp   **** TCB* TCB::kreiraj_thread(TCB** handle, TCB::Body body, void* arg, char* stek){
  89:src/tcb.cpp   ****     *handle = new TCB(body,arg,stek);
  90:src/tcb.cpp   **** 
  91:src/tcb.cpp   ****     return *handle;
  92:src/tcb.cpp   **** }
  93:src/tcb.cpp   **** 
  94:src/tcb.cpp   **** //TCB::TCB(TCB &parent):
  95:src/tcb.cpp   **** void TCB::yield()
  96:src/tcb.cpp   **** {
  97:src/tcb.cpp   ****     Riscv::w_a0(0x13);
  98:src/tcb.cpp   ****     __asm__ volatile ("ecall");
  99:src/tcb.cpp   **** }
 100:src/tcb.cpp   **** 
 101:src/tcb.cpp   **** void TCB::dispatch()
 102:src/tcb.cpp   **** {
 103:src/tcb.cpp   ****     TCB *old = running;
 104:src/tcb.cpp   ****     if (!old->isFinished() && !old->isBlocked()) { Scheduler::put(old); }
 105:src/tcb.cpp   ****     else if(old->isFinished()){
GAS LISTING /tmp/ccg8jNLS.s 			page 3


 106:src/tcb.cpp   ****         delete old->stack;
 107:src/tcb.cpp   ****         old->stack = nullptr;
 108:src/tcb.cpp   ****     }
 109:src/tcb.cpp   ****     running = Scheduler::get();
 110:src/tcb.cpp   **** 
 111:src/tcb.cpp   ****     if(running->isMain()) {
 112:src/tcb.cpp   ****         Riscv::ms_sstatus(Riscv::SSTATUS_SPP);
 113:src/tcb.cpp   ****         //setujem previous privilege na 1 -> privilegovan rezim
 114:src/tcb.cpp   ****     }
 115:src/tcb.cpp   ****     else{
 116:src/tcb.cpp   ****         Riscv::mc_sstatus(Riscv::SSTATUS_SPP);
 117:src/tcb.cpp   ****         //klirujem previous privilege na 0 -> korisnicki rezim
 118:src/tcb.cpp   ****         //sret me stavlja u rezim odredjen bitom spp automatski
 119:src/tcb.cpp   ****         //ako sam u prekidnu rutinu usla sa spp = 0
 120:src/tcb.cpp   ****         //vracam se u korisnicki
 121:src/tcb.cpp   ****     }
 122:src/tcb.cpp   ****     if(old!=running){
 123:src/tcb.cpp   ****         TCB::contextSwitch(&old->context, &running->context);
 124:src/tcb.cpp   ****         if(running->pinged){
 125:src/tcb.cpp   ****             printString("Alocirani blokovi do pingovanja: ");
 126:src/tcb.cpp   ****             printInt(running->getAllocatedBlocks());
 127:src/tcb.cpp   ****             printString("\n");
 128:src/tcb.cpp   ****             printString("Vreme:");
 129:src/tcb.cpp   ****             printInt(running->getRunTime());
 130:src/tcb.cpp   ****             printString("\n");
 131:src/tcb.cpp   ****             running->setPinged(false);
 132:src/tcb.cpp   ****         }
 133:src/tcb.cpp   ****     }
 134:src/tcb.cpp   **** 
 135:src/tcb.cpp   **** }
 136:src/tcb.cpp   **** 
 137:src/tcb.cpp   **** void TCB::threadWrapper()
 138:src/tcb.cpp   **** {
 139:src/tcb.cpp   **** 
 140:src/tcb.cpp   ****     //ovde sam u sistemskom rezimu
 141:src/tcb.cpp   ****     Riscv::popSppSpie();
 142:src/tcb.cpp   ****     //ovde sam u korisnickom rezimu
 143:src/tcb.cpp   ****     running->body(running->arg);
 144:src/tcb.cpp   **** 
 145:src/tcb.cpp   ****     if(running->parent && running->parent->waitingForChildren){
 146:src/tcb.cpp   ****         running->parent->joinAllsem->signal();
 147:src/tcb.cpp   ****         running->parent->numberOfChildren--;
 148:src/tcb.cpp   ****     }
 149:src/tcb.cpp   **** 
 150:src/tcb.cpp   ****     //set max threads
 151:src/tcb.cpp   ****     if(setMaxTh && currThr>0){
 152:src/tcb.cpp   ****         currThr--;
 153:src/tcb.cpp   ****         semMaxThreads->signal();
 154:src/tcb.cpp   ****     }
 155:src/tcb.cpp   **** 
 156:src/tcb.cpp   **** 
 157:src/tcb.cpp   **** 
 158:src/tcb.cpp   ****     //korisnicki rezim
 159:src/tcb.cpp   ****     thread_exit();//prebaci me u sistemski rezim
 160:src/tcb.cpp   **** 
 161:src/tcb.cpp   ****     //running->setFinished(true);
 162:src/tcb.cpp   **** 
GAS LISTING /tmp/ccg8jNLS.s 			page 4


 163:src/tcb.cpp   ****     //sistemski poziv thread dispatch/thread exit, nikako kao na vezbama TCB::dispatch() ili TCB::y
 164:src/tcb.cpp   ****     //jer cu ako zovem interni dispatch/yield zaglaviti u prekidnoj rutini u
 165:src/tcb.cpp   ****     //korisnickom rezimu i onda cim pokusam da upisem u sepc
 166:src/tcb.cpp   ****     //sve crkava zbog ilegalne instrukcije
 167:src/tcb.cpp   **** }
 168:src/tcb.cpp   **** 
 169:src/tcb.cpp   **** void TCB::join(TCB *handle) {
 170:src/tcb.cpp   ****     if(!handle->isFinished()){
 171:src/tcb.cpp   ****         running->setBlocked(true);
 172:src/tcb.cpp   ****         handle->joined.addLast(running);
 173:src/tcb.cpp   ****     }
 174:src/tcb.cpp   **** }
 175:src/tcb.cpp   **** 
 176:src/tcb.cpp   **** 
 177:src/tcb.cpp   **** void TCB::pustiSveNiti() {
 178:src/tcb.cpp   ****     while(this->joined.peekFirst()){
 179:src/tcb.cpp   ****         TCB* tcb=this->joined.removeFirst();
 180:src/tcb.cpp   ****         tcb->setBlocked(false);
 181:src/tcb.cpp   ****         Scheduler::put(tcb);
 182:src/tcb.cpp   ****     }
 183:src/tcb.cpp   **** }
 184:src/tcb.cpp   **** 
 185:src/tcb.cpp   **** 
 186:src/tcb.cpp   **** 
 187:src/tcb.cpp   **** 
 188:src/tcb.cpp   **** 
 189:src/tcb.cpp   **** TCB::TCB(Body body, void *arg, char *stek):
 190:src/tcb.cpp   ****         body(body),
 191:src/tcb.cpp   ****         stack(body!= nullptr?(char*)((uint64)stek-DEFAULT_STACK_SIZE): nullptr), context({(uint64)&
 192:src/tcb.cpp   ****         blocked(false),main(body==nullptr),arg(arg),id(ID++),msgE(nullptr),msgA(nullptr),fsSemaphor
 193:src/tcb.cpp   ****         nullptr),parent(nullptr),waitingForChildren(false),joinALL(false),numberOfChildren(0),joinA
 194:src/tcb.cpp   **** 
 195:src/tcb.cpp   **** 
 196:src/tcb.cpp   ****     if(body!=nullptr){
 197:src/tcb.cpp   **** 
 198:src/tcb.cpp   ****         parent=running;
 199:src/tcb.cpp   ****         if(parent){
 200:src/tcb.cpp   ****             parent->numberOfChildren++;
 201:src/tcb.cpp   ****         }
 202:src/tcb.cpp   ****         if(fsBarrier){
 203:src/tcb.cpp   ****             numOFthreads++;
 204:src/tcb.cpp   ****         }
 205:src/tcb.cpp   ****         if(setMaxTh){
 206:src/tcb.cpp   ****             semMaxThreads->wait();
 207:src/tcb.cpp   ****             currThr++;
 208:src/tcb.cpp   ****         }
 209:src/tcb.cpp   ****         if(setBarrier2){
 210:src/tcb.cpp   ****             threadCount++;
 211:src/tcb.cpp   ****         }
 212:src/tcb.cpp   **** 
 213:src/tcb.cpp   ****         Scheduler::put(this);
 214:src/tcb.cpp   **** 
 215:src/tcb.cpp   **** 
 216:src/tcb.cpp   ****     }
 217:src/tcb.cpp   **** 
 218:src/tcb.cpp   **** }
 219:src/tcb.cpp   **** 
GAS LISTING /tmp/ccg8jNLS.s 			page 5


 220:src/tcb.cpp   **** 
 221:src/tcb.cpp   **** 
 222:src/tcb.cpp   **** 
 223:src/tcb.cpp   **** 
 224:src/tcb.cpp   **** 
 225:src/tcb.cpp   **** 
 226:src/tcb.cpp   **** 
 227:src/tcb.cpp   **** 
 228:src/tcb.cpp   **** 
 229:src/tcb.cpp   **** 
 230:src/tcb.cpp   **** 
 231:src/tcb.cpp   **** 
 232:src/tcb.cpp   **** 
 233:src/tcb.cpp   **** int TCB::getMyID() {
 234:src/tcb.cpp   ****     return  this->id;
 235:src/tcb.cpp   **** }
 236:src/tcb.cpp   **** 
 237:src/tcb.cpp   **** 
 238:src/tcb.cpp   **** 
 239:src/tcb.cpp   **** void TCB::setUnisexBatrroom() {
 240:src/tcb.cpp   ****     empty = new Semaphore_k(4);
 241:src/tcb.cpp   ****     toilet = new Semaphore_k(1);
 242:src/tcb.cpp   ****     mutexMen = new Semaphore_k(1);
 243:src/tcb.cpp   ****     mutexWomen = new Semaphore_k(1);
 244:src/tcb.cpp   ****     entry = new Semaphore_k(1);
 245:src/tcb.cpp   **** }
 246:src/tcb.cpp   **** 
 247:src/tcb.cpp   **** void TCB::man(unsigned int id) {
 248:src/tcb.cpp   ****     if(!firstSet){
 249:src/tcb.cpp   ****         setUnisexBatrroom();
 250:src/tcb.cpp   ****         firstSet=true;
 251:src/tcb.cpp   ****     }
 252:src/tcb.cpp   **** 
 253:src/tcb.cpp   ****     entry->wait();
 254:src/tcb.cpp   ****     mutexMen->wait();
 255:src/tcb.cpp   ****     printString("Usao novi muskarac, al ne koristi jos ");
 256:src/tcb.cpp   ****     printString("ID: ");
 257:src/tcb.cpp   ****     printInt(id);
 258:src/tcb.cpp   ****     printString("\n");
 259:src/tcb.cpp   ****     numOfMan++;
 260:src/tcb.cpp   ****     if(numOfMan==1){
 261:src/tcb.cpp   ****         toilet->wait();
 262:src/tcb.cpp   ****         printString("Usao jedan muskarac, zene ne mogu sad ulaziti\n");
 263:src/tcb.cpp   ****         printString("ID: ");
 264:src/tcb.cpp   ****         printInt(id);
 265:src/tcb.cpp   ****         printString("\n");
 266:src/tcb.cpp   ****     }
 267:src/tcb.cpp   ****     mutexMen->signal();
 268:src/tcb.cpp   ****     thread_dispatch();
 269:src/tcb.cpp   **** 
 270:src/tcb.cpp   ****     entry->signal();
 271:src/tcb.cpp   ****     thread_dispatch();
 272:src/tcb.cpp   ****     empty->wait();
 273:src/tcb.cpp   ****     printString("Muskarac koristi WC\n");
 274:src/tcb.cpp   ****     printString("ID: ");
 275:src/tcb.cpp   ****     printInt(id);
 276:src/tcb.cpp   ****     printString("\n");
GAS LISTING /tmp/ccg8jNLS.s 			page 6


 277:src/tcb.cpp   ****     empty->signal();
 278:src/tcb.cpp   ****     thread_dispatch();
 279:src/tcb.cpp   ****     mutexMen->wait();
 280:src/tcb.cpp   ****     printString("Muskarac izasao iz WC\n");
 281:src/tcb.cpp   ****     printString("ID: ");
 282:src/tcb.cpp   ****     printInt(id);
 283:src/tcb.cpp   ****     printString("\n");
 284:src/tcb.cpp   ****     numOfMan--;
 285:src/tcb.cpp   ****     if(numOfMan ==0){
 286:src/tcb.cpp   ****         toilet->signal();
 287:src/tcb.cpp   ****         thread_dispatch();
 288:src/tcb.cpp   ****     }
 289:src/tcb.cpp   ****     mutexMen->signal();
 290:src/tcb.cpp   ****     thread_dispatch();
 291:src/tcb.cpp   **** 
 292:src/tcb.cpp   **** 
 293:src/tcb.cpp   **** }
 294:src/tcb.cpp   **** 
 295:src/tcb.cpp   **** 
 296:src/tcb.cpp   **** 
 297:src/tcb.cpp   **** void TCB::woman(unsigned int id) {
 298:src/tcb.cpp   ****     if(!firstSet){
 299:src/tcb.cpp   ****         setUnisexBatrroom();
 300:src/tcb.cpp   ****         firstSet=true;
 301:src/tcb.cpp   ****     }
 302:src/tcb.cpp   ****     entry->wait();
 303:src/tcb.cpp   ****     mutexWomen->wait();
 304:src/tcb.cpp   ****     printString("Usla nova zena,al ne koristi jos,  ");
 305:src/tcb.cpp   ****     printString("ID: ");
 306:src/tcb.cpp   ****     printInt(id);
 307:src/tcb.cpp   ****     printString("\n");
 308:src/tcb.cpp   ****     numOfWoman++;
 309:src/tcb.cpp   ****     if(numOfWoman==1){
 310:src/tcb.cpp   ****         toilet->wait();
 311:src/tcb.cpp   ****         printString("Usla jedna zena, muskarci ne mogu sad ulaziti\n");
 312:src/tcb.cpp   ****         printString("ID: ");
 313:src/tcb.cpp   ****         printInt(id);
 314:src/tcb.cpp   ****         printString("\n");
 315:src/tcb.cpp   ****     }
 316:src/tcb.cpp   ****     mutexWomen->signal();
 317:src/tcb.cpp   ****     thread_dispatch();
 318:src/tcb.cpp   **** 
 319:src/tcb.cpp   ****     entry->signal();
 320:src/tcb.cpp   ****     thread_dispatch();
 321:src/tcb.cpp   ****     empty->wait();
 322:src/tcb.cpp   ****     printString("Zena koristi WC\n");
 323:src/tcb.cpp   ****     printString("ID: ");
 324:src/tcb.cpp   ****     printInt(id);
 325:src/tcb.cpp   ****     printString("\n");
 326:src/tcb.cpp   ****     empty->signal();
 327:src/tcb.cpp   ****     thread_dispatch();
 328:src/tcb.cpp   ****     mutexWomen->wait();
 329:src/tcb.cpp   ****     printString("Zena izasla iz WC\n");
 330:src/tcb.cpp   ****     printString("ID: ");
 331:src/tcb.cpp   ****     printInt(id);
 332:src/tcb.cpp   ****     printString("\n");
 333:src/tcb.cpp   ****     numOfWoman--;
GAS LISTING /tmp/ccg8jNLS.s 			page 7


 334:src/tcb.cpp   ****     if(numOfWoman ==0){
 335:src/tcb.cpp   ****         toilet->signal();
 336:src/tcb.cpp   ****         thread_dispatch();
 337:src/tcb.cpp   ****     }
 338:src/tcb.cpp   ****     mutexWomen->signal();
 339:src/tcb.cpp   ****     thread_dispatch();
 340:src/tcb.cpp   **** 
 341:src/tcb.cpp   **** 
 342:src/tcb.cpp   **** }
 343:src/tcb.cpp   **** 
 344:src/tcb.cpp   **** void TCB::barrier() {
 345:src/tcb.cpp   ****     if(!fsBarrier){
 346:src/tcb.cpp   ****         fsBarrier = true;
 347:src/tcb.cpp   ****         numOFthreads++;
 348:src/tcb.cpp   ****     }
 349:src/tcb.cpp   ****     numCalls++;
 350:src/tcb.cpp   **** 
 351:src/tcb.cpp   ****     if(numCalls==numOFthreads){
 352:src/tcb.cpp   ****         numCalls=0;
 353:src/tcb.cpp   ****         numOFthreads=0;
 354:src/tcb.cpp   ****         fsBarrier=false;
 355:src/tcb.cpp   ****         while(ListBarier.peekFirst()){
 356:src/tcb.cpp   ****             TCB* t =ListBarier.removeFirst();
 357:src/tcb.cpp   ****             t->setBlocked(false);
 358:src/tcb.cpp   ****             Scheduler::put(t);
 359:src/tcb.cpp   **** 
 360:src/tcb.cpp   ****         }
 361:src/tcb.cpp   ****     }
 362:src/tcb.cpp   ****     else{
 363:src/tcb.cpp   ****         running->setBlocked(true);
 364:src/tcb.cpp   ****         ListBarier.addLast(running);
 365:src/tcb.cpp   **** 
 366:src/tcb.cpp   ****     }
 367:src/tcb.cpp   **** 
 368:src/tcb.cpp   **** }
 369:src/tcb.cpp   **** 
 370:src/tcb.cpp   **** 
 371:src/tcb.cpp   **** 
 372:src/tcb.cpp   **** 
 373:src/tcb.cpp   **** char const *TCB::receive() {
 374:src/tcb.cpp   ****     running->setSem();
 375:src/tcb.cpp   ****     printString("Receive cekam...\n");
 376:src/tcb.cpp   ****     running->msgA->wait();
 377:src/tcb.cpp   ****     printString("Poruka primljena uspesno\n");
 378:src/tcb.cpp   ****     char const* msg = running->message;
 379:src/tcb.cpp   ****     running->msgE->signal();
 380:src/tcb.cpp   ****     return msg;
 381:src/tcb.cpp   **** 
 382:src/tcb.cpp   **** }
 383:src/tcb.cpp   **** void TCB::send(const char *msg) {
 384:src/tcb.cpp   ****     setSem();
 385:src/tcb.cpp   ****     printString("Send cekam...\n");
 386:src/tcb.cpp   ****     msgE->wait();
 387:src/tcb.cpp   ****     printString("Poruka poslata uspesno...\n");
 388:src/tcb.cpp   ****     message = msg;
 389:src/tcb.cpp   ****     msgA->signal();
 390:src/tcb.cpp   **** 
GAS LISTING /tmp/ccg8jNLS.s 			page 8


 391:src/tcb.cpp   **** }
 392:src/tcb.cpp   **** 
 393:src/tcb.cpp   **** void TCB::setSem() {
 394:src/tcb.cpp   ****     if(!fsSemaphores){
 395:src/tcb.cpp   ****         fsSemaphores=true;
 396:src/tcb.cpp   ****         msgA=new Semaphore_k(0);
 397:src/tcb.cpp   ****         msgE=new Semaphore_k(1);
 398:src/tcb.cpp   ****     }
 399:src/tcb.cpp   **** 
 400:src/tcb.cpp   **** }
 401:src/tcb.cpp   **** 
 402:src/tcb.cpp   **** void TCB::joinAll() {
 403:src/tcb.cpp   **** 
 404:src/tcb.cpp   ****     if(!joinALL){
 405:src/tcb.cpp   ****         joinALL=true;
 406:src/tcb.cpp   ****         joinAllsem= new Semaphore_k(0);
 407:src/tcb.cpp   ****         waitingForChildren=true;
 408:src/tcb.cpp   ****     }
 409:src/tcb.cpp   ****     for(int i=0;i<numberOfChildren;i++){
 410:src/tcb.cpp   ****         joinAllsem->wait();
 411:src/tcb.cpp   ****     }
 412:src/tcb.cpp   ****     joinALL=false;
 413:src/tcb.cpp   ****     numberOfChildren=0;
 414:src/tcb.cpp   **** }
 415:src/tcb.cpp   **** 
 416:src/tcb.cpp   **** void TCB::setMaxThreads(unsigned int num) {
 417:src/tcb.cpp   ****     if(!setMaxTh){
 418:src/tcb.cpp   ****         setMaxTh=true;
 419:src/tcb.cpp   ****         currThr = num;
 420:src/tcb.cpp   ****         semMaxThreads = new Semaphore_k(num);
 421:src/tcb.cpp   ****     }
 422:src/tcb.cpp   **** }
 423:src/tcb.cpp   **** 
 424:src/tcb.cpp   **** void TCB::barrier_2() {
 425:src/tcb.cpp   ****     setBarrier_2();
 426:src/tcb.cpp   **** 
 427:src/tcb.cpp   ****     firstDoor->wait();
 428:src/tcb.cpp   ****     calls++;
 429:src/tcb.cpp   ****     if(calls==threadCount){
 430:src/tcb.cpp   ****         secondDoor->signal();
 431:src/tcb.cpp   ****     }else{
 432:src/tcb.cpp   ****         firstDoor->signal();
 433:src/tcb.cpp   ****     }
 434:src/tcb.cpp   ****     secondDoor->wait();
 435:src/tcb.cpp   ****     calls--;
 436:src/tcb.cpp   ****     if(calls==0){
 437:src/tcb.cpp   ****         threadCount=1;
 438:src/tcb.cpp   ****         firstDoor->signal();
 439:src/tcb.cpp   ****     }else{
 440:src/tcb.cpp   ****         secondDoor->signal();
 441:src/tcb.cpp   ****     }
 442:src/tcb.cpp   **** 
 443:src/tcb.cpp   **** }
 444:src/tcb.cpp   **** 
 445:src/tcb.cpp   **** void TCB::setBarrier_2() {
 446:src/tcb.cpp   ****     if(!setBarrier2){
 447:src/tcb.cpp   ****         setBarrier2=true;
GAS LISTING /tmp/ccg8jNLS.s 			page 9


 448:src/tcb.cpp   ****         firstDoor = new Semaphore_k(1);
 449:src/tcb.cpp   ****         secondDoor = new Semaphore_k(0);
 450:src/tcb.cpp   ****         numCalls=0;
 451:src/tcb.cpp   ****         threadCount++;
 452:src/tcb.cpp   ****     }
 453:src/tcb.cpp   **** }
 454:src/tcb.cpp   **** 
 455:src/tcb.cpp   **** 
 456:src/tcb.cpp   **** //atomic broadcast
 457:src/tcb.cpp   **** 
 458:src/tcb.cpp   **** int writeIndex=0;
 459:src/tcb.cpp   **** 
 460:src/tcb.cpp   **** void TCB::producer(int id) {
 461:src/tcb.cpp   ****     if(!prodConsum){
 462:src/tcb.cpp   ****         setAtomicBroadcast();
 463:src/tcb.cpp   ****         prodConsum=true;
 464:src/tcb.cpp   ****     }
 465:src/tcb.cpp   ****     //int writeIndex=0;
 466:src/tcb.cpp   ****     for(int k=0;k<10;k++){
 467:src/tcb.cpp   ****         newItem +=100;
 468:src/tcb.cpp   ****         emptyy->wait();
 469:src/tcb.cpp   ****         buffer[writeIndex]=newItem;
 470:src/tcb.cpp   ****         printString("buffer[");
 471:src/tcb.cpp   ****         printInt(writeIndex);
 472:src/tcb.cpp   ****         printString("] - producer id = ");
 473:src/tcb.cpp   ****         printInt(id);
 474:src/tcb.cpp   ****         printString("\n");
 475:src/tcb.cpp   ****         writeIndex = (writeIndex+1)%CAPACITY;
 476:src/tcb.cpp   ****         for(int i=0;i<M;i++){
 477:src/tcb.cpp   ****             full[i]->signal();
 478:src/tcb.cpp   ****             thread_dispatch();
 479:src/tcb.cpp   ****         }
 480:src/tcb.cpp   **** 
 481:src/tcb.cpp   ****     }
 482:src/tcb.cpp   **** 
 483:src/tcb.cpp   **** 
 484:src/tcb.cpp   **** }
 485:src/tcb.cpp   **** 
 486:src/tcb.cpp   **** void TCB::consumer(int id) {
 487:src/tcb.cpp   ****     if(!prodConsum){
 488:src/tcb.cpp   ****         setAtomicBroadcast();
 489:src/tcb.cpp   ****         prodConsum=true;
 490:src/tcb.cpp   ****     }
 491:src/tcb.cpp   ****     int newI;
 492:src/tcb.cpp   ****     int readIndex=0;
 493:src/tcb.cpp   ****     for(int k=0;k<10;k++){
 494:src/tcb.cpp   ****         full[id]->wait();
 495:src/tcb.cpp   ****         newI=buffer[readIndex];
 496:src/tcb.cpp   ****         mutexC[readIndex]->wait();
 497:src/tcb.cpp   ****         consumerCnt[readIndex]++;
 498:src/tcb.cpp   **** 
 499:src/tcb.cpp   ****         printString("New item consumed: ");
 500:src/tcb.cpp   ****         printInt(newI);
 501:src/tcb.cpp   ****         printString(". Nit id = ");
 502:src/tcb.cpp   ****         printInt(id);
 503:src/tcb.cpp   ****         printString("\n");
 504:src/tcb.cpp   ****         if(consumerCnt[readIndex]==M){
GAS LISTING /tmp/ccg8jNLS.s 			page 10


 505:src/tcb.cpp   ****             consumerCnt[readIndex]=0;
 506:src/tcb.cpp   ****             emptyy->signal();
 507:src/tcb.cpp   ****             thread_dispatch();
 508:src/tcb.cpp   ****         }
 509:src/tcb.cpp   ****         mutexC[readIndex]->signal();
 510:src/tcb.cpp   ****         thread_dispatch();
 511:src/tcb.cpp   ****         readIndex=(readIndex+1)%CAPACITY;
 512:src/tcb.cpp   **** 
 513:src/tcb.cpp   **** 
 514:src/tcb.cpp   ****     }
 515:src/tcb.cpp   **** }
 516:src/tcb.cpp   **** 
 517:src/tcb.cpp   **** void TCB::setAtomicBroadcast() {
 518:src/tcb.cpp   ****     emptyy = new Semaphore_k(CAPACITY);
 519:src/tcb.cpp   ****     for(int i=0;i<M;i++){
 520:src/tcb.cpp   ****         full[i]=new Semaphore_k(0);
 521:src/tcb.cpp   **** 
 522:src/tcb.cpp   ****     }
 523:src/tcb.cpp   ****     for(int i=0;i<CAPACITY;i++){
 524:src/tcb.cpp   ****         mutexC[i]=new Semaphore_k(1);
 525:src/tcb.cpp   **** 
 526:src/tcb.cpp   ****     }
 527:src/tcb.cpp   **** }
 528:src/tcb.cpp   **** 
 529:src/tcb.cpp   **** //H2O problem
 530:src/tcb.cpp   **** void TCB::oxygen(unsigned int id) {
 531:src/tcb.cpp   ****     if(!fsH20){
 532:src/tcb.cpp   ****         setAtomH20();
 533:src/tcb.cpp   ****         fsH20=true;
 534:src/tcb.cpp   ****     }
 535:src/tcb.cpp   ****     oxySem->wait();
 536:src/tcb.cpp   ****     auto * molekul= new Molecule ;
 537:src/tcb.cpp   ****     barrier(id,&molekul,"O");
 538:src/tcb.cpp   ****     printInt(molekul->ids[0]);
 539:src/tcb.cpp   ****     printString("-");
 540:src/tcb.cpp   ****     printInt(molekul->ids[1]);
 541:src/tcb.cpp   ****     printString("-");
 542:src/tcb.cpp   ****     printInt(molekul->ids[2]);
 543:src/tcb.cpp   ****     printString("\n");
 544:src/tcb.cpp   ****     printString(molekul->type[0]);
 545:src/tcb.cpp   ****     printString("-");
 546:src/tcb.cpp   ****     printString(molekul->type[1]);
 547:src/tcb.cpp   ****     printString("-");
 548:src/tcb.cpp   ****     printString(molekul->type[2]);
 549:src/tcb.cpp   ****     printString("\n");
 550:src/tcb.cpp   **** 
 551:src/tcb.cpp   **** }
 552:src/tcb.cpp   **** 
 553:src/tcb.cpp   **** void TCB::hydrogen(unsigned int id) {
 554:src/tcb.cpp   ****     if(!fsH20){
 555:src/tcb.cpp   ****         setAtomH20();
 556:src/tcb.cpp   ****         fsH20=true;
 557:src/tcb.cpp   ****     }
 558:src/tcb.cpp   ****     hydroSem->wait();
 559:src/tcb.cpp   **** 
 560:src/tcb.cpp   ****     auto * molekul= new Molecule ;
 561:src/tcb.cpp   ****     barrier(id,&molekul,"H");
GAS LISTING /tmp/ccg8jNLS.s 			page 11


 562:src/tcb.cpp   ****     printInt(molekul->ids[0]);
 563:src/tcb.cpp   ****     printString("-");
 564:src/tcb.cpp   ****     printInt(molekul->ids[1]);
 565:src/tcb.cpp   ****     printString("-");
 566:src/tcb.cpp   ****     printInt(molekul->ids[2]);
 567:src/tcb.cpp   ****     printString("\n");
 568:src/tcb.cpp   ****     printString(molekul->type[0]);
 569:src/tcb.cpp   ****     printString("-");
 570:src/tcb.cpp   ****     printString(molekul->type[1]);
 571:src/tcb.cpp   ****     printString("-");
 572:src/tcb.cpp   ****     printString(molekul->type[2]);
 573:src/tcb.cpp   ****     printString("\n");
 574:src/tcb.cpp   **** 
 575:src/tcb.cpp   **** }
 576:src/tcb.cpp   **** void TCB::barrier(unsigned int id, Molecule** molekul,const char* element) {
 577:src/tcb.cpp   ****     door1->wait();
 578:src/tcb.cpp   ****     molecule->ids[count] = id;
 579:src/tcb.cpp   ****     molecule->type[count] = element;
 580:src/tcb.cpp   ****     count++;
 581:src/tcb.cpp   ****     if (count == 3) {
 582:src/tcb.cpp   ****         door2->signal();
 583:src/tcb.cpp   ****     } else {
 584:src/tcb.cpp   ****         door1->signal();
 585:src/tcb.cpp   ****     }
 586:src/tcb.cpp   ****     door2->wait();
 587:src/tcb.cpp   ****     *molekul = molecule;
 588:src/tcb.cpp   ****     count--;
 589:src/tcb.cpp   ****     if (count == 0) {
 590:src/tcb.cpp   ****         hydroSem->signal();
 591:src/tcb.cpp   ****         oxySem->signal();
 592:src/tcb.cpp   ****         hydroSem->signal();
 593:src/tcb.cpp   ****         door1->signal();
 594:src/tcb.cpp   **** 
 595:src/tcb.cpp   ****     } else {
 596:src/tcb.cpp   ****         door2->signal();
 597:src/tcb.cpp   ****     }
 598:src/tcb.cpp   **** }
 599:src/tcb.cpp   **** void TCB::setAtomH20() {
 600:src/tcb.cpp   ****     hydroSem = new Semaphore_k(2);
 601:src/tcb.cpp   ****     oxySem = new Semaphore_k(1);
 602:src/tcb.cpp   ****     door1 = new Semaphore_k(1);
 603:src/tcb.cpp   ****     door2 = new Semaphore_k(0);
 604:src/tcb.cpp   ****     molecule = new Molecule;
 605:src/tcb.cpp   ****     molecule->ids = new int[3];
 606:src/tcb.cpp   ****     molecule->type = new const char * [3];
 607:src/tcb.cpp   **** }
 608:src/tcb.cpp   **** 
 609:src/tcb.cpp   **** void TCB::savage(int id) {
 610:src/tcb.cpp   ****     setDiningSavages();
 611:src/tcb.cpp   ****     mutex->wait();
 612:src/tcb.cpp   ****     if(pot==0){
 613:src/tcb.cpp   ****         semCook->signal();
 614:src/tcb.cpp   ****         // thread_dispatch();
 615:src/tcb.cpp   ****         semSavage->wait();
 616:src/tcb.cpp   ****     }
 617:src/tcb.cpp   ****     pot--;
 618:src/tcb.cpp   ****     mutex->signal();
GAS LISTING /tmp/ccg8jNLS.s 			page 12


 619:src/tcb.cpp   ****     //thread_dispatch();
 620:src/tcb.cpp   ****     printString("Div jede\n");
 621:src/tcb.cpp   **** 
 622:src/tcb.cpp   **** }
 623:src/tcb.cpp   **** 
 624:src/tcb.cpp   **** void TCB::cook() {
 625:src/tcb.cpp   ****     setDiningSavages();
 626:src/tcb.cpp   ****     semCook->wait();
 627:src/tcb.cpp   ****     printString("Kuvar priprema hranu\n");
 628:src/tcb.cpp   ****     pot=S;
 629:src/tcb.cpp   ****     semSavage->signal();
 630:src/tcb.cpp   ****     //thread_dispatch();
 631:src/tcb.cpp   **** 
 632:src/tcb.cpp   **** }
 633:src/tcb.cpp   **** 
 634:src/tcb.cpp   **** void TCB::setDiningSavages() {
 635:src/tcb.cpp   ****     if(!fsDiningSavage){
 636:src/tcb.cpp   ****         fsDiningSavage=true;
 637:src/tcb.cpp   ****         mutex = new Semaphore_k(1);
 638:src/tcb.cpp   ****         semSavage = new Semaphore_k(0);
 639:src/tcb.cpp   ****         semCook = new Semaphore_k(0);
 640:src/tcb.cpp   ****     }
 641:src/tcb.cpp   **** 
 642:src/tcb.cpp   **** }
 643:src/tcb.cpp   **** 
 644:src/tcb.cpp   **** 
 645:src/tcb.cpp   **** void TCB::birdChild(unsigned int id) {
 646:src/tcb.cpp   ****     setHungryBirds();
 647:src/tcb.cpp   ****     mutexChild->wait();
 648:src/tcb.cpp   ****     pot1--;
 649:src/tcb.cpp   ****     printString("DETE PTICA JEDE -id: ");
 650:src/tcb.cpp   ****     printInt(id);
 651:src/tcb.cpp   ****     printString("\n");
 652:src/tcb.cpp   ****     if(pot1==0){
 653:src/tcb.cpp   ****         printString("Deca sve izjela - signal roditeljima\n");
 654:src/tcb.cpp   ****         parentt->signal();
 655:src/tcb.cpp   **** 
 656:src/tcb.cpp   ****     }else{
 657:src/tcb.cpp   ****         mutexChild->signal();
 658:src/tcb.cpp   ****     }
 659:src/tcb.cpp   ****     //printString("DETE PTICA JEDE\n");
 660:src/tcb.cpp   **** 
 661:src/tcb.cpp   **** }
 662:src/tcb.cpp   **** 
 663:src/tcb.cpp   **** void TCB::birdParent(unsigned int id) {
 664:src/tcb.cpp   ****     setHungryBirds();
 665:src/tcb.cpp   ****     parentHuntForChildren(id);
 666:src/tcb.cpp   ****     parentForHuntForHimself(id);
 667:src/tcb.cpp   **** 
 668:src/tcb.cpp   **** }
 669:src/tcb.cpp   **** 
 670:src/tcb.cpp   **** void TCB::parentHuntForChildren(unsigned int id) {
 671:src/tcb.cpp   ****     parentt->wait();
 672:src/tcb.cpp   ****     mutexParent->wait();
 673:src/tcb.cpp   ****     printString("Roditelj lovi za decu - id: ");
 674:src/tcb.cpp   ****     printInt(id);
 675:src/tcb.cpp   ****     printString("\n");
GAS LISTING /tmp/ccg8jNLS.s 			page 13


 676:src/tcb.cpp   ****     for(int i=0;i<10000;i++){
 677:src/tcb.cpp   ****         for(int j=0;j<10000;j++);
 678:src/tcb.cpp   ****         thread_dispatch();
 679:src/tcb.cpp   ****     };
 680:src/tcb.cpp   ****     printString("Roditelj napunio ciniju\n");
 681:src/tcb.cpp   ****     pot1 = F;
 682:src/tcb.cpp   ****     mutexParent->signal();
 683:src/tcb.cpp   ****     mutexChild->signal();
 684:src/tcb.cpp   **** 
 685:src/tcb.cpp   **** }
 686:src/tcb.cpp   **** 
 687:src/tcb.cpp   **** void TCB::parentForHuntForHimself(unsigned int id) {
 688:src/tcb.cpp   ****     mutexParent->wait();
 689:src/tcb.cpp   ****     printString("Roditelj lovi za sebe - id: ");
 690:src/tcb.cpp   ****     printInt(id);
 691:src/tcb.cpp   ****     printString("\n");
 692:src/tcb.cpp   ****     for(int i=0;i<10000;i++){
 693:src/tcb.cpp   ****         for(int j=0;j<10000;j++);
 694:src/tcb.cpp   ****         thread_dispatch();
 695:src/tcb.cpp   ****     };
 696:src/tcb.cpp   ****     printString("Roditelj jeo - id: ");
 697:src/tcb.cpp   ****     printInt(id);
 698:src/tcb.cpp   ****     printString("\n");
 699:src/tcb.cpp   ****     mutexParent->signal();
 700:src/tcb.cpp   **** 
 701:src/tcb.cpp   **** }
 702:src/tcb.cpp   **** 
 703:src/tcb.cpp   **** void TCB::setHungryBirds() {
 704:src/tcb.cpp   ****     if(!setHngryBird){
 705:src/tcb.cpp   ****         parentt = new Semaphore_k(1);
 706:src/tcb.cpp   ****         mutexParent = new Semaphore_k(1);
 707:src/tcb.cpp   ****         mutexChild = new Semaphore_k(0);
 708:src/tcb.cpp   ****         setHngryBird= true;
 709:src/tcb.cpp   ****     }
 710:src/tcb.cpp   **** 
 711:src/tcb.cpp   **** }
 712:src/tcb.cpp   **** //HONEY BEE PROBLEM
 713:src/tcb.cpp   **** void TCB::honeybe(unsigned int id) {
 714:src/tcb.cpp   ****     setPceleMed();
 715:src/tcb.cpp   ****     printString("Pcela skuplja med id - ");
 716:src/tcb.cpp   ****     printInt(id);
 717:src/tcb.cpp   ****     printString("\n");
 718:src/tcb.cpp   ****     for(int i=0;i<1000;i++){
 719:src/tcb.cpp   ****         for(int j=0;j<1000;j++);
 720:src/tcb.cpp   ****         thread_dispatch();
 721:src/tcb.cpp   ****     }
 722:src/tcb.cpp   ****     mtx->wait();
 723:src/tcb.cpp   ****     printString("Pcela donela med u kosnicu -id: ");
 724:src/tcb.cpp   ****     printInt(id);
 725:src/tcb.cpp   ****     printString("\n");
 726:src/tcb.cpp   ****     kosnica++;
 727:src/tcb.cpp   ****     if(kosnica==49){
 728:src/tcb.cpp   ****         printString("Pcele napunile kosnicu budi medveda\n");
 729:src/tcb.cpp   ****         bear->signal();
 730:src/tcb.cpp   ****     }else{
 731:src/tcb.cpp   ****         mtx->signal();
 732:src/tcb.cpp   ****     }
GAS LISTING /tmp/ccg8jNLS.s 			page 14


 733:src/tcb.cpp   **** 
 734:src/tcb.cpp   **** }
 735:src/tcb.cpp   **** 
 736:src/tcb.cpp   **** void TCB::meda() {
 737:src/tcb.cpp   ****     setPceleMed();
 738:src/tcb.cpp   ****     printString("Meda ceka\n");
 739:src/tcb.cpp   ****     bear->wait();
 740:src/tcb.cpp   ****     printString("Meda jede med...");
 741:src/tcb.cpp   ****     printString("\n");
 742:src/tcb.cpp   ****     for(int i=0;i<100000;i++){
 743:src/tcb.cpp   ****         for(int j=0;j<1000;j++);
 744:src/tcb.cpp   ****         //thread_dispatch();
 745:src/tcb.cpp   ****     }
 746:src/tcb.cpp   ****     printString("Meda sve izjeo signal pcelama\n");
 747:src/tcb.cpp   ****     kosnica=0;
 748:src/tcb.cpp   ****     mtx->signal();
 749:src/tcb.cpp   **** 
 750:src/tcb.cpp   **** }
 751:src/tcb.cpp   **** 
 752:src/tcb.cpp   **** void TCB::setPceleMed() {
 753:src/tcb.cpp   ****     if(!fsMedaPcele){
 754:src/tcb.cpp   ****         fsMedaPcele=true;
 755:src/tcb.cpp   ****         mtx=new Semaphore_k(1);
 756:src/tcb.cpp   ****         bear = new Semaphore_k(0);
 757:src/tcb.cpp   ****     }
 758:src/tcb.cpp   **** 
 759:src/tcb.cpp   **** }
  11              		.loc 1 759 1
  12              		.cfi_startproc
  13              	.LVL0:
  14 0000 130101FF 		addi	sp,sp,-16
  15              		.cfi_def_cfa_offset 16
  16 0004 23348100 		sd	s0,8(sp)
  17              		.cfi_offset 8, -8
  18 0008 13040101 		addi	s0,sp,16
  19              		.cfi_def_cfa 8, 0
  20              		.loc 1 759 1 is_stmt 0
  21 000c 93071000 		li	a5,1
  22 0010 6308F500 		beq	a0,a5,.L4
  23              	.L1:
  24 0014 03348100 		ld	s0,8(sp)
  25              		.cfi_remember_state
  26              		.cfi_restore 8
  27              		.cfi_def_cfa 2, 16
  28 0018 13010101 		addi	sp,sp,16
  29              		.cfi_def_cfa_offset 0
  30 001c 67800000 		jr	ra
  31              	.L4:
  32              		.cfi_restore_state
  33              		.loc 1 759 1 discriminator 1
  34 0020 B7070100 		li	a5,65536
  35 0024 9387F7FF 		addi	a5,a5,-1
  36 0028 E396F5FE 		bne	a1,a5,.L1
  37              	.LVL1:
  38              	.LBB283:
  39              	.LBB284:
  40              	.LBB285:
GAS LISTING /tmp/ccg8jNLS.s 			page 15


  41              		.file 2 "src/../h/List.hpp"
   1:src/../h/List.hpp **** //
   2:src/../h/List.hpp **** // Created by marko on 20.4.22..
   3:src/../h/List.hpp **** //
   4:src/../h/List.hpp **** 
   5:src/../h/List.hpp **** #ifndef OS1_VEZBE07_RISCV_CONTEXT_SWITCH_2_INTERRUPT_LIST_HPP
   6:src/../h/List.hpp **** #define OS1_VEZBE07_RISCV_CONTEXT_SWITCH_2_INTERRUPT_LIST_HPP
   7:src/../h/List.hpp **** 
   8:src/../h/List.hpp **** #include "memoryAllocator.hpp"
   9:src/../h/List.hpp **** 
  10:src/../h/List.hpp **** template<typename T>
  11:src/../h/List.hpp **** class Lista
  12:src/../h/List.hpp **** {
  13:src/../h/List.hpp **** private:
  14:src/../h/List.hpp ****     struct Elem
  15:src/../h/List.hpp ****     {
  16:src/../h/List.hpp ****         T *data;
  17:src/../h/List.hpp ****         Elem *next;
  18:src/../h/List.hpp **** 
  19:src/../h/List.hpp ****         Elem(T *data, Elem *next) : data(data), next(next) {}
  20:src/../h/List.hpp **** 
  21:src/../h/List.hpp ****     };
  22:src/../h/List.hpp **** 
  23:src/../h/List.hpp ****     Elem *head, *tail;
  24:src/../h/List.hpp **** 
  25:src/../h/List.hpp **** public:
  26:src/../h/List.hpp ****     Lista() : head(0), tail(0) {}
  42              		.loc 2 26 30
  43 002c 97070000 		lla	a5,.LANCHOR0
  43      93870700 
  44 0034 23B00700 		sd	zero,0(a5)
  45 0038 23B40700 		sd	zero,8(a5)
  46              	.LVL2:
  47              	.LBE285:
  48              	.LBE284:
  49              	.LBE283:
  50              		.loc 1 759 1
  51 003c 6FF09FFD 		j	.L1
  52              		.cfi_endproc
  53              	.LFE104:
  55              		.align	2
  56              		.globl	_ZN3TCB13threadWrapperEv
  58              	_ZN3TCB13threadWrapperEv:
  59              	.LFB59:
 138:src/tcb.cpp   **** 
  60              		.loc 1 138 1 is_stmt 1
  61              		.cfi_startproc
  62 0040 130101FE 		addi	sp,sp,-32
  63              		.cfi_def_cfa_offset 32
  64 0044 233C1100 		sd	ra,24(sp)
  65 0048 23388100 		sd	s0,16(sp)
  66 004c 23349100 		sd	s1,8(sp)
  67              		.cfi_offset 1, -8
  68              		.cfi_offset 8, -16
  69              		.cfi_offset 9, -24
  70 0050 13040102 		addi	s0,sp,32
  71              		.cfi_def_cfa 8, 0
GAS LISTING /tmp/ccg8jNLS.s 			page 16


 141:src/tcb.cpp   ****     //ovde sam u korisnickom rezimu
  72              		.loc 1 141 5
 141:src/tcb.cpp   ****     //ovde sam u korisnickom rezimu
  73              		.loc 1 141 22 is_stmt 0
  74 0054 97000000 		call	_ZN5Riscv10popSppSpieEv@plt
  74      E7800000 
  75              	.LVL3:
 143:src/tcb.cpp   **** 
  76              		.loc 1 143 5 is_stmt 1
 143:src/tcb.cpp   **** 
  77              		.loc 1 143 14 is_stmt 0
  78 005c 97040000 		lla	s1,.LANCHOR0
  78      93840400 
  79 0064 83B70401 		ld	a5,16(s1)
  80 0068 03B70700 		ld	a4,0(a5)
 143:src/tcb.cpp   **** 
  81              		.loc 1 143 18
  82 006c 03B58702 		ld	a0,40(a5)
  83 0070 E7000700 		jalr	a4
  84              	.LVL4:
 145:src/tcb.cpp   ****         running->parent->joinAllsem->signal();
  85              		.loc 1 145 5 is_stmt 1
 145:src/tcb.cpp   ****         running->parent->joinAllsem->signal();
  86              		.loc 1 145 17 is_stmt 0
  87 0074 83B70401 		ld	a5,16(s1)
  88 0078 83B78706 		ld	a5,104(a5)
 145:src/tcb.cpp   ****         running->parent->joinAllsem->signal();
  89              		.loc 1 145 5
  90 007c 63860700 		beqz	a5,.L6
 145:src/tcb.cpp   ****         running->parent->joinAllsem->signal();
  91              		.loc 1 145 44 discriminator 1
  92 0080 03C70707 		lbu	a4,112(a5)
 145:src/tcb.cpp   ****         running->parent->joinAllsem->signal();
  93              		.loc 1 145 24 discriminator 1
  94 0084 631C0702 		bnez	a4,.L9
  95              	.L6:
 151:src/tcb.cpp   ****         currThr--;
  96              		.loc 1 151 5 is_stmt 1
  97 0088 97070000 		lbu	a5,.LANCHOR0+24
  97      83C70700 
  98 0090 63880700 		beqz	a5,.L7
 151:src/tcb.cpp   ****         currThr--;
  99              		.loc 1 151 27 is_stmt 0 discriminator 1
 100 0094 97070000 		lw	a5,.LANCHOR0+28
 100      83A70700 
 151:src/tcb.cpp   ****         currThr--;
 101              		.loc 1 151 17 discriminator 1
 102 009c 6344F004 		bgtz	a5,.L10
 103              	.L7:
 159:src/tcb.cpp   **** 
 104              		.loc 1 159 5 is_stmt 1
 159:src/tcb.cpp   **** 
 105              		.loc 1 159 16 is_stmt 0
 106 00a0 97000000 		call	_Z11thread_exitv@plt
 106      E7800000 
 107              	.LVL5:
 167:src/tcb.cpp   **** 
GAS LISTING /tmp/ccg8jNLS.s 			page 17


 108              		.loc 1 167 1
 109 00a8 83308101 		ld	ra,24(sp)
 110              		.cfi_remember_state
 111              		.cfi_restore 1
 112 00ac 03340101 		ld	s0,16(sp)
 113              		.cfi_restore 8
 114              		.cfi_def_cfa 2, 32
 115 00b0 83348100 		ld	s1,8(sp)
 116              		.cfi_restore 9
 117 00b4 13010102 		addi	sp,sp,32
 118              		.cfi_def_cfa_offset 0
 119 00b8 67800000 		jr	ra
 120              	.L9:
 121              		.cfi_restore_state
 146:src/tcb.cpp   ****         running->parent->numberOfChildren--;
 122              		.loc 1 146 9 is_stmt 1
 146:src/tcb.cpp   ****         running->parent->numberOfChildren--;
 123              		.loc 1 146 44 is_stmt 0
 124 00bc 03B58707 		ld	a0,120(a5)
 125 00c0 97000000 		call	_ZN11Semaphore_k6signalEv@plt
 125      E7800000 
 126              	.LVL6:
 147:src/tcb.cpp   ****     }
 127              		.loc 1 147 9 is_stmt 1
 147:src/tcb.cpp   ****     }
 128              		.loc 1 147 18 is_stmt 0
 129 00c8 97070000 		ld	a5,.LANCHOR0+16
 129      83B70700 
 130 00d0 03B78706 		ld	a4,104(a5)
 147:src/tcb.cpp   ****     }
 131              		.loc 1 147 26
 132 00d4 83274707 		lw	a5,116(a4)
 147:src/tcb.cpp   ****     }
 133              		.loc 1 147 42
 134 00d8 9B87F7FF 		addiw	a5,a5,-1
 135 00dc 232AF706 		sw	a5,116(a4)
 136 00e0 6FF09FFA 		j	.L6
 137              	.L10:
 152:src/tcb.cpp   ****         semMaxThreads->signal();
 138              		.loc 1 152 9 is_stmt 1
 152:src/tcb.cpp   ****         semMaxThreads->signal();
 139              		.loc 1 152 16 is_stmt 0
 140 00e4 17070000 		lla	a4,.LANCHOR0
 140      13070700 
 141 00ec 9B87F7FF 		addiw	a5,a5,-1
 142 00f0 232EF700 		sw	a5,28(a4)
 153:src/tcb.cpp   ****     }
 143              		.loc 1 153 9 is_stmt 1
 153:src/tcb.cpp   ****     }
 144              		.loc 1 153 30 is_stmt 0
 145 00f4 03350702 		ld	a0,32(a4)
 146 00f8 97000000 		call	_ZN11Semaphore_k6signalEv@plt
 146      E7800000 
 147              	.LVL7:
 148 0100 6FF01FFA 		j	.L7
 149              		.cfi_endproc
 150              	.LFE59:
GAS LISTING /tmp/ccg8jNLS.s 			page 18


 152              		.align	2
 153              		.globl	_ZN3TCB5yieldEv
 155              	_ZN3TCB5yieldEv:
 156              	.LFB57:
  96:src/tcb.cpp   ****     Riscv::w_a0(0x13);
 157              		.loc 1 96 1 is_stmt 1
 158              		.cfi_startproc
 159 0104 130101FF 		addi	sp,sp,-16
 160              		.cfi_def_cfa_offset 16
 161 0108 23348100 		sd	s0,8(sp)
 162              		.cfi_offset 8, -8
 163 010c 13040101 		addi	s0,sp,16
 164              		.cfi_def_cfa 8, 0
  97:src/tcb.cpp   ****     __asm__ volatile ("ecall");
 165              		.loc 1 97 5
 166              	.LVL8:
 167              	.LBB286:
 168              	.LBB287:
 169              		.file 3 "src/../h/riscv.hpp"
   1:src/../h/riscv.hpp **** //
   2:src/../h/riscv.hpp **** // Created by os on 5/17/24.
   3:src/../h/riscv.hpp **** //
   4:src/../h/riscv.hpp **** 
   5:src/../h/riscv.hpp **** 
   6:src/../h/riscv.hpp **** #ifndef RISCV_HPP
   7:src/../h/riscv.hpp **** #define RISCV_HPP
   8:src/../h/riscv.hpp **** #include "../lib/hw.h"
   9:src/../h/riscv.hpp **** 
  10:src/../h/riscv.hpp **** class Riscv
  11:src/../h/riscv.hpp **** {
  12:src/../h/riscv.hpp **** public:
  13:src/../h/riscv.hpp **** 
  14:src/../h/riscv.hpp ****     // pop sstatus.spp and sstatus.spie bits (has to be a non inline function)
  15:src/../h/riscv.hpp ****     static void popSppSpie();
  16:src/../h/riscv.hpp **** 
  17:src/../h/riscv.hpp ****     // read register scause
  18:src/../h/riscv.hpp ****     static uint64 r_scause();
  19:src/../h/riscv.hpp **** 
  20:src/../h/riscv.hpp ****     // write register scause
  21:src/../h/riscv.hpp ****     static void w_scause(uint64 scause);
  22:src/../h/riscv.hpp **** 
  23:src/../h/riscv.hpp ****     // read register sepc
  24:src/../h/riscv.hpp ****     static uint64 r_sepc();
  25:src/../h/riscv.hpp **** 
  26:src/../h/riscv.hpp ****     // write register sepc
  27:src/../h/riscv.hpp ****     static void w_sepc(uint64 sepc);
  28:src/../h/riscv.hpp **** 
  29:src/../h/riscv.hpp ****     // read register stvec
  30:src/../h/riscv.hpp ****     static uint64 r_stvec();
  31:src/../h/riscv.hpp **** 
  32:src/../h/riscv.hpp ****     // write register stvec
  33:src/../h/riscv.hpp ****     static void w_stvec(uint64 stvec);
  34:src/../h/riscv.hpp **** 
  35:src/../h/riscv.hpp ****     // read register stval
  36:src/../h/riscv.hpp ****     static uint64 r_stval();
  37:src/../h/riscv.hpp **** 
  38:src/../h/riscv.hpp ****     // write register stval
GAS LISTING /tmp/ccg8jNLS.s 			page 19


  39:src/../h/riscv.hpp ****     static void w_stval(uint64 stval);
  40:src/../h/riscv.hpp **** 
  41:src/../h/riscv.hpp ****     enum BitMaskSip
  42:src/../h/riscv.hpp ****     {
  43:src/../h/riscv.hpp ****         SIP_SSIP = (1 << 1),
  44:src/../h/riscv.hpp ****         SIP_STIP = (1 << 5),
  45:src/../h/riscv.hpp ****         SIP_SEIP = (1 << 9),
  46:src/../h/riscv.hpp ****     };
  47:src/../h/riscv.hpp **** 
  48:src/../h/riscv.hpp ****     // mask set register sip
  49:src/../h/riscv.hpp ****     static void ms_sip(uint64 mask);
  50:src/../h/riscv.hpp **** 
  51:src/../h/riscv.hpp ****     // mask clear register sip
  52:src/../h/riscv.hpp ****     static void mc_sip(uint64 mask);
  53:src/../h/riscv.hpp **** 
  54:src/../h/riscv.hpp ****     // read register sip
  55:src/../h/riscv.hpp ****     static uint64 r_sip();
  56:src/../h/riscv.hpp **** 
  57:src/../h/riscv.hpp ****     // write register sip
  58:src/../h/riscv.hpp ****     static void w_sip(uint64 sip);
  59:src/../h/riscv.hpp **** 
  60:src/../h/riscv.hpp ****     enum BitMaskSstatus
  61:src/../h/riscv.hpp ****     {
  62:src/../h/riscv.hpp ****         SSTATUS_SIE = (1 << 1),
  63:src/../h/riscv.hpp ****         SSTATUS_SPIE = (1 << 5),
  64:src/../h/riscv.hpp ****         SSTATUS_SPP = (1 << 8),
  65:src/../h/riscv.hpp ****     };
  66:src/../h/riscv.hpp **** 
  67:src/../h/riscv.hpp ****     // mask set register sstatus
  68:src/../h/riscv.hpp ****     static void ms_sstatus(uint64 mask);
  69:src/../h/riscv.hpp **** 
  70:src/../h/riscv.hpp ****     // mask clear register sstatus
  71:src/../h/riscv.hpp ****     static void mc_sstatus(uint64 mask);
  72:src/../h/riscv.hpp **** 
  73:src/../h/riscv.hpp ****     // read register sstatus
  74:src/../h/riscv.hpp ****     static uint64 r_sstatus();
  75:src/../h/riscv.hpp **** 
  76:src/../h/riscv.hpp ****     // write register sstatus
  77:src/../h/riscv.hpp ****     static void w_sstatus(uint64 sstatus);
  78:src/../h/riscv.hpp **** 
  79:src/../h/riscv.hpp ****     // supervisor trap
  80:src/../h/riscv.hpp ****     static void supervisorTrap();
  81:src/../h/riscv.hpp **** 
  82:src/../h/riscv.hpp **** 
  83:src/../h/riscv.hpp **** 
  84:src/../h/riscv.hpp **** 
  85:src/../h/riscv.hpp ****     //read a0 register
  86:src/../h/riscv.hpp ****     static uint64 r_a0();
  87:src/../h/riscv.hpp **** 
  88:src/../h/riscv.hpp ****     //write to a0 register
  89:src/../h/riscv.hpp ****     static void w_a0(uint64 writeValue);
  90:src/../h/riscv.hpp **** 
  91:src/../h/riscv.hpp **** 
  92:src/../h/riscv.hpp ****     //promeni rezim fja
  93:src/../h/riscv.hpp ****     static void promeniRezim(bool value);
  94:src/../h/riscv.hpp **** private:
  95:src/../h/riscv.hpp **** 
GAS LISTING /tmp/ccg8jNLS.s 			page 20


  96:src/../h/riscv.hpp ****     // supervisor trap handler
  97:src/../h/riscv.hpp ****     static void handleSupervisorTrap();
  98:src/../h/riscv.hpp **** 
  99:src/../h/riscv.hpp **** 
 100:src/../h/riscv.hpp **** 
 101:src/../h/riscv.hpp **** };
 102:src/../h/riscv.hpp **** 
 103:src/../h/riscv.hpp **** 
 104:src/../h/riscv.hpp **** inline uint64 Riscv::r_scause()
 105:src/../h/riscv.hpp **** {
 106:src/../h/riscv.hpp ****     uint64 volatile scause;
 107:src/../h/riscv.hpp ****     __asm__ volatile ("csrr %[scause], scause" : [scause] "=r"(scause));
 108:src/../h/riscv.hpp ****     return scause;
 109:src/../h/riscv.hpp **** }
 110:src/../h/riscv.hpp **** 
 111:src/../h/riscv.hpp **** inline void Riscv::w_scause(uint64 scause)
 112:src/../h/riscv.hpp **** {
 113:src/../h/riscv.hpp ****     __asm__ volatile ("csrw scause, %[scause]" : : [scause] "r"(scause));
 114:src/../h/riscv.hpp **** }
 115:src/../h/riscv.hpp **** 
 116:src/../h/riscv.hpp **** inline uint64 Riscv::r_sepc()
 117:src/../h/riscv.hpp **** {
 118:src/../h/riscv.hpp ****     uint64 volatile sepc;
 119:src/../h/riscv.hpp ****     __asm__ volatile ("csrr %[sepc], sepc" : [sepc] "=r"(sepc));
 120:src/../h/riscv.hpp ****     return sepc;
 121:src/../h/riscv.hpp **** }
 122:src/../h/riscv.hpp **** 
 123:src/../h/riscv.hpp **** inline void Riscv::w_sepc(uint64 sepc)
 124:src/../h/riscv.hpp **** {
 125:src/../h/riscv.hpp ****     __asm__ volatile ("csrw sepc, %[sepc]" : : [sepc] "r"(sepc));
 126:src/../h/riscv.hpp **** }
 127:src/../h/riscv.hpp **** 
 128:src/../h/riscv.hpp **** inline uint64 Riscv::r_stvec()
 129:src/../h/riscv.hpp **** {
 130:src/../h/riscv.hpp ****     uint64 volatile stvec;
 131:src/../h/riscv.hpp ****     __asm__ volatile ("csrr %[stvec], stvec" : [stvec] "=r"(stvec));
 132:src/../h/riscv.hpp ****     return stvec;
 133:src/../h/riscv.hpp **** }
 134:src/../h/riscv.hpp **** 
 135:src/../h/riscv.hpp **** inline void Riscv::w_stvec(uint64 stvec)
 136:src/../h/riscv.hpp **** {
 137:src/../h/riscv.hpp ****     __asm__ volatile ("csrw stvec, %[stvec]" : : [stvec] "r"(stvec));
 138:src/../h/riscv.hpp **** }
 139:src/../h/riscv.hpp **** 
 140:src/../h/riscv.hpp **** inline uint64 Riscv::r_stval()
 141:src/../h/riscv.hpp **** {
 142:src/../h/riscv.hpp ****     uint64 volatile stval;
 143:src/../h/riscv.hpp ****     __asm__ volatile ("csrr %[stval], stval" : [stval] "=r"(stval));
 144:src/../h/riscv.hpp ****     return stval;
 145:src/../h/riscv.hpp **** }
 146:src/../h/riscv.hpp **** 
 147:src/../h/riscv.hpp **** inline void Riscv::w_stval(uint64 stval)
 148:src/../h/riscv.hpp **** {
 149:src/../h/riscv.hpp ****     __asm__ volatile ("csrw stval, %[stval]" : : [stval] "r"(stval));
 150:src/../h/riscv.hpp **** }
 151:src/../h/riscv.hpp **** 
 152:src/../h/riscv.hpp **** inline void Riscv::ms_sip(uint64 mask)
GAS LISTING /tmp/ccg8jNLS.s 			page 21


 153:src/../h/riscv.hpp **** {
 154:src/../h/riscv.hpp ****     __asm__ volatile ("csrs sip, %[mask]" : : [mask] "r"(mask));
 155:src/../h/riscv.hpp **** }
 156:src/../h/riscv.hpp **** 
 157:src/../h/riscv.hpp **** inline void Riscv::mc_sip(uint64 mask)
 158:src/../h/riscv.hpp **** {
 159:src/../h/riscv.hpp ****     __asm__ volatile ("csrc sip, %[mask]" : : [mask] "r"(mask));
 160:src/../h/riscv.hpp **** }
 161:src/../h/riscv.hpp **** 
 162:src/../h/riscv.hpp **** inline uint64 Riscv::r_sip()
 163:src/../h/riscv.hpp **** {
 164:src/../h/riscv.hpp ****     uint64 volatile sip;
 165:src/../h/riscv.hpp ****     __asm__ volatile ("csrr %[sip], sip" : [sip] "=r"(sip));
 166:src/../h/riscv.hpp ****     return sip;
 167:src/../h/riscv.hpp **** }
 168:src/../h/riscv.hpp **** 
 169:src/../h/riscv.hpp **** inline void Riscv::w_sip(uint64 sip)
 170:src/../h/riscv.hpp **** {
 171:src/../h/riscv.hpp ****     __asm__ volatile ("csrw sip, %[sip]" : : [sip] "r"(sip));
 172:src/../h/riscv.hpp **** }
 173:src/../h/riscv.hpp **** 
 174:src/../h/riscv.hpp **** inline void Riscv::ms_sstatus(uint64 mask)
 175:src/../h/riscv.hpp **** {
 176:src/../h/riscv.hpp ****     __asm__ volatile ("csrs sstatus, %[mask]" : : [mask] "r"(mask));
 177:src/../h/riscv.hpp **** }
 178:src/../h/riscv.hpp **** 
 179:src/../h/riscv.hpp **** inline void Riscv::mc_sstatus(uint64 mask)
 180:src/../h/riscv.hpp **** {
 181:src/../h/riscv.hpp ****     __asm__ volatile ("csrc sstatus, %[mask]" : : [mask] "r"(mask));
 182:src/../h/riscv.hpp **** }
 183:src/../h/riscv.hpp **** 
 184:src/../h/riscv.hpp **** inline uint64 Riscv::r_sstatus()
 185:src/../h/riscv.hpp **** {
 186:src/../h/riscv.hpp ****     uint64 volatile sstatus;
 187:src/../h/riscv.hpp ****     __asm__ volatile ("csrr %[sstatus], sstatus" : [sstatus] "=r"(sstatus));
 188:src/../h/riscv.hpp ****     return sstatus;
 189:src/../h/riscv.hpp **** }
 190:src/../h/riscv.hpp **** 
 191:src/../h/riscv.hpp **** inline void Riscv::w_sstatus(uint64 sstatus)
 192:src/../h/riscv.hpp **** {
 193:src/../h/riscv.hpp ****     __asm__ volatile ("csrw sstatus, %[sstatus]" : : [sstatus] "r"(sstatus));
 194:src/../h/riscv.hpp **** }
 195:src/../h/riscv.hpp **** 
 196:src/../h/riscv.hpp **** //a0
 197:src/../h/riscv.hpp **** inline uint64 Riscv::r_a0()
 198:src/../h/riscv.hpp **** {
 199:src/../h/riscv.hpp ****     uint64 volatile a0;
 200:src/../h/riscv.hpp ****     __asm__ volatile ("mv %0, a0" : "=r"(a0));
 201:src/../h/riscv.hpp ****     return a0;
 202:src/../h/riscv.hpp **** }
 203:src/../h/riscv.hpp **** 
 204:src/../h/riscv.hpp **** 
 205:src/../h/riscv.hpp **** inline void Riscv::w_a0(uint64 writeValue) {
 206:src/../h/riscv.hpp ****     __asm__ volatile ("mv a0, %0" : : "r"(writeValue));
 170              		.loc 3 206 5
 171              		.loc 3 206 55 is_stmt 0
 172 0110 93073001 		li	a5,19
GAS LISTING /tmp/ccg8jNLS.s 			page 22


 173              	#APP
 174              	# 206 "src/../h/riscv.hpp" 1
 207              	}
 175              		mv a0, a5
 176              	# 0 "" 2
 177              	.LVL9:
 178              	#NO_APP
 179              	.LBE287:
 180              	.LBE286:
  98:src/tcb.cpp   **** }
 181              		.loc 1 98 5 is_stmt 1
  98:src/tcb.cpp   **** }
 182              		.loc 1 98 31 is_stmt 0
 183              	#APP
 184              	# 98 "src/tcb.cpp" 1
  99:src/tcb.cpp   **** 
 185              		ecall
 186              	# 0 "" 2
 187              		.loc 1 99 1
 188              	#NO_APP
 189 011c 03348100 		ld	s0,8(sp)
 190              		.cfi_restore 8
 191              		.cfi_def_cfa 2, 16
 192 0120 13010101 		addi	sp,sp,16
 193              		.cfi_def_cfa_offset 0
 194 0124 67800000 		jr	ra
 195              		.cfi_endproc
 196              	.LFE57:
 198              		.section	.rodata.str1.8,"aMS",@progbits,1
 199              		.align	3
 200              	.LC0:
 201 0000 416C6F63 		.string	"Alocirani blokovi do pingovanja: "
 201      6972616E 
 201      6920626C 
 201      6F6B6F76 
 201      6920646F 
 202 0022 00000000 		.align	3
 202      0000
 203              	.LC1:
 204 0028 0A00     		.string	"\n"
 205 002a 00000000 		.align	3
 205      0000
 206              	.LC2:
 207 0030 5672656D 		.string	"Vreme:"
 207      653A00
 208              		.text
 209              		.align	2
 210              		.globl	_ZN3TCB8dispatchEv
 212              	_ZN3TCB8dispatchEv:
 213              	.LFB58:
 102:src/tcb.cpp   ****     TCB *old = running;
 214              		.loc 1 102 1 is_stmt 1
 215              		.cfi_startproc
 216 0128 130101FE 		addi	sp,sp,-32
 217              		.cfi_def_cfa_offset 32
 218 012c 233C1100 		sd	ra,24(sp)
 219 0130 23388100 		sd	s0,16(sp)
GAS LISTING /tmp/ccg8jNLS.s 			page 23


 220 0134 23349100 		sd	s1,8(sp)
 221              		.cfi_offset 1, -8
 222              		.cfi_offset 8, -16
 223              		.cfi_offset 9, -24
 224 0138 13040102 		addi	s0,sp,32
 225              		.cfi_def_cfa 8, 0
 103:src/tcb.cpp   ****     if (!old->isFinished() && !old->isBlocked()) { Scheduler::put(old); }
 226              		.loc 1 103 5
 103:src/tcb.cpp   ****     if (!old->isFinished() && !old->isBlocked()) { Scheduler::put(old); }
 227              		.loc 1 103 10 is_stmt 0
 228 013c 97040000 		ld	s1,.LANCHOR0+16
 228      83B40400 
 229              	.LVL10:
 104:src/tcb.cpp   ****     else if(old->isFinished()){
 230              		.loc 1 104 5 is_stmt 1
 231              	.LBB288:
 232              	.LBB289:
 233              		.file 4 "src/../h/tcb.hpp"
   1:src/../h/tcb.hpp **** 
   2:src/../h/tcb.hpp **** #ifndef TCB_HPP
   3:src/../h/tcb.hpp **** #define TCB_HPP
   4:src/../h/tcb.hpp **** 
   5:src/../h/tcb.hpp **** #include "../lib/hw.h"
   6:src/../h/tcb.hpp **** #include "scheduler.hpp"
   7:src/../h/tcb.hpp **** 
   8:src/../h/tcb.hpp **** 
   9:src/../h/tcb.hpp **** 
  10:src/../h/tcb.hpp **** int main();
  11:src/../h/tcb.hpp **** typedef struct Molecule{
  12:src/../h/tcb.hpp ****     int* ids;
  13:src/../h/tcb.hpp ****     char const **type;
  14:src/../h/tcb.hpp **** }Molecule;
  15:src/../h/tcb.hpp **** 
  16:src/../h/tcb.hpp **** 
  17:src/../h/tcb.hpp **** class Semaphore_k;
  18:src/../h/tcb.hpp **** //Thread Control Block
  19:src/../h/tcb.hpp **** 
  20:src/../h/tcb.hpp **** class TCB
  21:src/../h/tcb.hpp **** {
  22:src/../h/tcb.hpp **** public:
  23:src/../h/tcb.hpp **** 
  24:src/../h/tcb.hpp ****     using Body = void (*)(void*);
  25:src/../h/tcb.hpp ****     void* operator new(size_t size) {
  26:src/../h/tcb.hpp ****         return memoryAllocator::mem_alloc(size);
  27:src/../h/tcb.hpp ****     }
  28:src/../h/tcb.hpp ****     void* operator new[](size_t size) {
  29:src/../h/tcb.hpp ****         return memoryAllocator::mem_alloc(size);
  30:src/../h/tcb.hpp ****     }
  31:src/../h/tcb.hpp **** 
  32:src/../h/tcb.hpp ****     void operator delete(void *ptr) {
  33:src/../h/tcb.hpp ****         memoryAllocator::mem_free(ptr);
  34:src/../h/tcb.hpp ****     }
  35:src/../h/tcb.hpp ****     void operator delete[](void *ptr) {
  36:src/../h/tcb.hpp ****         memoryAllocator::mem_free(ptr);
  37:src/../h/tcb.hpp ****     }
  38:src/../h/tcb.hpp **** 
  39:src/../h/tcb.hpp ****     static TCB* kreiraj_thread(TCB** handle, TCB::Body body, void* arg, char * stek);
GAS LISTING /tmp/ccg8jNLS.s 			page 24


  40:src/../h/tcb.hpp **** 
  41:src/../h/tcb.hpp ****     static TCB *running;
  42:src/../h/tcb.hpp **** 
  43:src/../h/tcb.hpp ****     ~TCB() { delete[] stack;
  44:src/../h/tcb.hpp **** 
  45:src/../h/tcb.hpp ****     }
  46:src/../h/tcb.hpp **** 
  47:src/../h/tcb.hpp ****     bool isFinished() const { return finished; }
 234              		.loc 4 47 31
 235              		.loc 4 47 38 is_stmt 0
 236 0144 83C70402 		lbu	a5,32(s1)
 237              	.LVL11:
 238              	.LBE289:
 239              	.LBE288:
 104:src/tcb.cpp   ****     else if(old->isFinished()){
 240              		.loc 1 104 28
 241 0148 63960700 		bnez	a5,.L14
 242              	.LVL12:
 243              	.LBB290:
 244              	.LBB291:
  48:src/../h/tcb.hpp **** 
  49:src/../h/tcb.hpp ****     void setFinished(bool value) { finished = value; }
  50:src/../h/tcb.hpp **** 
  51:src/../h/tcb.hpp ****     bool isBlocked() const { return this->blocked; }
 245              		.loc 4 51 30 is_stmt 1
 246              		.loc 4 51 43 is_stmt 0
 247 014c 03C71402 		lbu	a4,33(s1)
 248              	.LVL13:
 249              	.LBE291:
 250              	.LBE290:
 104:src/tcb.cpp   ****     else if(old->isFinished()){
 251              		.loc 1 104 28
 252 0150 630A0706 		beqz	a4,.L21
 253              	.L14:
 105:src/tcb.cpp   ****         delete old->stack;
 254              		.loc 1 105 10 is_stmt 1 discriminator 4
 255              	.LVL14:
  47:src/../h/tcb.hpp **** 
 256              		.loc 4 47 31 discriminator 4
 105:src/tcb.cpp   ****         delete old->stack;
 257              		.loc 1 105 10 is_stmt 0 discriminator 4
 258 0154 638C0700 		beqz	a5,.L15
 106:src/tcb.cpp   ****         old->stack = nullptr;
 259              		.loc 1 106 9 is_stmt 1
 106:src/tcb.cpp   ****         old->stack = nullptr;
 260              		.loc 1 106 21 is_stmt 0
 261 0158 03B58400 		ld	a0,8(s1)
 106:src/tcb.cpp   ****         old->stack = nullptr;
 262              		.loc 1 106 26
 263 015c 63060500 		beqz	a0,.L16
 106:src/tcb.cpp   ****         old->stack = nullptr;
 264              		.loc 1 106 21 discriminator 1
 265 0160 97000000 		call	_ZdlPv@plt
 265      E7800000 
 266              	.LVL15:
 267              	.L16:
 107:src/tcb.cpp   ****     }
GAS LISTING /tmp/ccg8jNLS.s 			page 25


 268              		.loc 1 107 9 is_stmt 1
 107:src/tcb.cpp   ****     }
 269              		.loc 1 107 20 is_stmt 0
 270 0168 23B40400 		sd	zero,8(s1)
 271              	.L15:
 109:src/tcb.cpp   **** 
 272              		.loc 1 109 5 is_stmt 1
 109:src/tcb.cpp   **** 
 273              		.loc 1 109 29 is_stmt 0
 274 016c 97000000 		call	_ZN9Scheduler3getEv@plt
 274      E7800000 
 275              	.LVL16:
 109:src/tcb.cpp   **** 
 276              		.loc 1 109 13
 277 0174 97070000 		sd	a0,.LANCHOR0+16,a5
 277      23B0A700 
 111:src/tcb.cpp   ****         Riscv::ms_sstatus(Riscv::SSTATUS_SPP);
 278              		.loc 1 111 5 is_stmt 1
 279              	.LVL17:
 280              	.LBB292:
 281              	.LBB293:
  52:src/../h/tcb.hpp **** 
  53:src/../h/tcb.hpp ****     void setBlocked(bool value) { this->blocked = value; }
  54:src/../h/tcb.hpp **** 
  55:src/../h/tcb.hpp ****     bool isMain() const { return this->main; }
 282              		.loc 4 55 27
 283              		.loc 4 55 40 is_stmt 0
 284 017c 83472502 		lbu	a5,34(a0)
 285              	.LVL18:
 286              	.LBE293:
 287              	.LBE292:
 111:src/tcb.cpp   ****         Riscv::ms_sstatus(Riscv::SSTATUS_SPP);
 288              		.loc 1 111 5
 289 0180 638A0704 		beqz	a5,.L17
 112:src/tcb.cpp   ****         //setujem previous privilege na 1 -> privilegovan rezim
 290              		.loc 1 112 9 is_stmt 1
 291              	.LVL19:
 292              	.LBB294:
 293              	.LBB295:
 176:src/../h/riscv.hpp **** }
 294              		.loc 3 176 5
 176:src/../h/riscv.hpp **** }
 295              		.loc 3 176 68 is_stmt 0
 296 0184 93070010 		li	a5,256
 297              	#APP
 298              	# 176 "src/../h/riscv.hpp" 1
 299              		csrs sstatus, a5
 300              	# 0 "" 2
 301              	.LVL20:
 302              	#NO_APP
 303              	.L18:
 304              	.LBE295:
 305              	.LBE294:
 122:src/tcb.cpp   ****         TCB::contextSwitch(&old->context, &running->context);
 306              		.loc 1 122 5 is_stmt 1
 307 018c 6382A402 		beq	s1,a0,.L13
 123:src/tcb.cpp   ****         if(running->pinged){
GAS LISTING /tmp/ccg8jNLS.s 			page 26


 308              		.loc 1 123 9
 123:src/tcb.cpp   ****         if(running->pinged){
 309              		.loc 1 123 27 is_stmt 0
 310 0190 93050501 		addi	a1,a0,16
 311 0194 13850401 		addi	a0,s1,16
 312 0198 97000000 		call	_ZN3TCB13contextSwitchEPNS_7ContextES1_@plt
 312      E7800000 
 313              	.LVL21:
 124:src/tcb.cpp   ****             printString("Alocirani blokovi do pingovanja: ");
 314              		.loc 1 124 9 is_stmt 1
 124:src/tcb.cpp   ****             printString("Alocirani blokovi do pingovanja: ");
 315              		.loc 1 124 21 is_stmt 0
 316 01a0 97070000 		ld	a5,.LANCHOR0+16
 316      83B70700 
 317 01a8 83C74708 		lbu	a5,132(a5)
 124:src/tcb.cpp   ****             printString("Alocirani blokovi do pingovanja: ");
 318              		.loc 1 124 9
 319 01ac 639A0702 		bnez	a5,.L22
 320              	.LVL22:
 321              	.L13:
 135:src/tcb.cpp   **** 
 322              		.loc 1 135 1
 323 01b0 83308101 		ld	ra,24(sp)
 324              		.cfi_remember_state
 325              		.cfi_restore 1
 326 01b4 03340101 		ld	s0,16(sp)
 327              		.cfi_restore 8
 328              		.cfi_def_cfa 2, 32
 329 01b8 83348100 		ld	s1,8(sp)
 330              		.cfi_restore 9
 331 01bc 13010102 		addi	sp,sp,32
 332              		.cfi_def_cfa_offset 0
 333 01c0 67800000 		jr	ra
 334              	.LVL23:
 335              	.L21:
 336              		.cfi_restore_state
 104:src/tcb.cpp   ****     else if(old->isFinished()){
 337              		.loc 1 104 52 is_stmt 1
 104:src/tcb.cpp   ****     else if(old->isFinished()){
 338              		.loc 1 104 66 is_stmt 0
 339 01c4 13850400 		mv	a0,s1
 340 01c8 97000000 		call	_ZN9Scheduler3putEP3TCB@plt
 340      E7800000 
 341              	.LVL24:
 342 01d0 6FF0DFF9 		j	.L15
 343              	.L17:
 116:src/tcb.cpp   ****         //klirujem previous privilege na 0 -> korisnicki rezim
 344              		.loc 1 116 9 is_stmt 1
 345              	.LVL25:
 346              	.LBB296:
 347              	.LBB297:
 181:src/../h/riscv.hpp **** }
 348              		.loc 3 181 5
 181:src/../h/riscv.hpp **** }
 349              		.loc 3 181 68 is_stmt 0
 350 01d4 93070010 		li	a5,256
 351              	#APP
GAS LISTING /tmp/ccg8jNLS.s 			page 27


 352              	# 181 "src/../h/riscv.hpp" 1
 182:src/../h/riscv.hpp **** 
 353              		csrc sstatus, a5
 354              	# 0 "" 2
 355              		.loc 3 182 1
 356              	#NO_APP
 357 01dc 6FF01FFB 		j	.L18
 358              	.LVL26:
 359              	.L22:
 360              	.LBE297:
 361              	.LBE296:
 125:src/tcb.cpp   ****             printInt(running->getAllocatedBlocks());
 362              		.loc 1 125 13 is_stmt 1
 125:src/tcb.cpp   ****             printInt(running->getAllocatedBlocks());
 363              		.loc 1 125 24 is_stmt 0
 364 01e0 17050000 		lla	a0,.LC0
 364      13050500 
 365 01e8 97000000 		call	_Z11printStringPKc@plt
 365      E7800000 
 366              	.LVL27:
 126:src/tcb.cpp   ****             printString("\n");
 367              		.loc 1 126 13 is_stmt 1
 126:src/tcb.cpp   ****             printString("\n");
 368              		.loc 1 126 21 is_stmt 0
 369 01f0 97040000 		lla	s1,.LANCHOR0
 369      93840400 
 370              	.LVL28:
 371 01f8 83B70401 		ld	a5,16(s1)
 372              	.LVL29:
 373              	.LBB298:
 374              	.LBB299:
  56:src/../h/tcb.hpp **** 
  57:src/../h/tcb.hpp ****     //modifikacija PING thread
  58:src/../h/tcb.hpp ****     void incrementMemory(int increment){
  59:src/../h/tcb.hpp ****         this->allocatedBlocks+=increment;
  60:src/../h/tcb.hpp ****     }
  61:src/../h/tcb.hpp ****     void pingThread(){
  62:src/../h/tcb.hpp ****         this->pinged = true;
  63:src/../h/tcb.hpp ****     }
  64:src/../h/tcb.hpp ****     void setPinged(bool value){
  65:src/../h/tcb.hpp ****         this->pinged = value;
  66:src/../h/tcb.hpp ****     }
  67:src/../h/tcb.hpp ****     int getAllocatedBlocks() const{
  68:src/../h/tcb.hpp ****         return this->allocatedBlocks;
 375              		.loc 4 68 9 is_stmt 1
 376              	.LBE299:
 377              	.LBE298:
 126:src/tcb.cpp   ****             printString("\n");
 378              		.loc 1 126 21 is_stmt 0
 379 01fc 13060000 		li	a2,0
 380 0200 9305A000 		li	a1,10
 381 0204 03A50708 		lw	a0,128(a5)
 382 0208 97000000 		call	_Z8printIntiii@plt
 382      E7800000 
 383              	.LVL30:
 127:src/tcb.cpp   ****             printString("Vreme:");
 384              		.loc 1 127 13 is_stmt 1
GAS LISTING /tmp/ccg8jNLS.s 			page 28


 127:src/tcb.cpp   ****             printString("Vreme:");
 385              		.loc 1 127 24 is_stmt 0
 386 0210 17050000 		lla	a0,.LC1
 386      13050500 
 387 0218 97000000 		call	_Z11printStringPKc@plt
 387      E7800000 
 388              	.LVL31:
 128:src/tcb.cpp   ****             printInt(running->getRunTime());
 389              		.loc 1 128 13 is_stmt 1
 128:src/tcb.cpp   ****             printInt(running->getRunTime());
 390              		.loc 1 128 24 is_stmt 0
 391 0220 17050000 		lla	a0,.LC2
 391      13050500 
 392 0228 97000000 		call	_Z11printStringPKc@plt
 392      E7800000 
 393              	.LVL32:
 129:src/tcb.cpp   ****             printString("\n");
 394              		.loc 1 129 13 is_stmt 1
 129:src/tcb.cpp   ****             printString("\n");
 395              		.loc 1 129 21 is_stmt 0
 396 0230 83B70401 		ld	a5,16(s1)
 397              	.LVL33:
 398              	.LBB300:
 399              	.LBB301:
  69:src/../h/tcb.hpp ****     }
  70:src/../h/tcb.hpp ****     int getRunTime() const{
  71:src/../h/tcb.hpp ****         return this->runTime;
 400              		.loc 4 71 9 is_stmt 1
 401              	.LBE301:
 402              	.LBE300:
 129:src/tcb.cpp   ****             printString("\n");
 403              		.loc 1 129 21 is_stmt 0
 404 0234 13060000 		li	a2,0
 405 0238 9305A000 		li	a1,10
 406 023c 03A58708 		lw	a0,136(a5)
 407 0240 97000000 		call	_Z8printIntiii@plt
 407      E7800000 
 408              	.LVL34:
 130:src/tcb.cpp   ****             running->setPinged(false);
 409              		.loc 1 130 13 is_stmt 1
 130:src/tcb.cpp   ****             running->setPinged(false);
 410              		.loc 1 130 24 is_stmt 0
 411 0248 17050000 		lla	a0,.LC1
 411      13050500 
 412 0250 97000000 		call	_Z11printStringPKc@plt
 412      E7800000 
 413              	.LVL35:
 131:src/tcb.cpp   ****         }
 414              		.loc 1 131 13 is_stmt 1
 131:src/tcb.cpp   ****         }
 415              		.loc 1 131 31 is_stmt 0
 416 0258 83B70401 		ld	a5,16(s1)
 417              	.LVL36:
 418              	.LBB302:
 419              	.LBB303:
  65:src/../h/tcb.hpp ****     }
 420              		.loc 4 65 9 is_stmt 1
GAS LISTING /tmp/ccg8jNLS.s 			page 29


  65:src/../h/tcb.hpp ****     }
 421              		.loc 4 65 22 is_stmt 0
 422 025c 23820708 		sb	zero,132(a5)
 423              	.LVL37:
 424              	.LBE303:
 425              	.LBE302:
 135:src/tcb.cpp   **** 
 426              		.loc 1 135 1
 427 0260 6FF01FF5 		j	.L13
 428              		.cfi_endproc
 429              	.LFE58:
 431              		.align	2
 432              		.globl	_ZN3TCB4joinEPS_
 434              	_ZN3TCB4joinEPS_:
 435              	.LFB60:
 169:src/tcb.cpp   ****     if(!handle->isFinished()){
 436              		.loc 1 169 29 is_stmt 1
 437              		.cfi_startproc
 438              	.LVL38:
 170:src/tcb.cpp   ****         running->setBlocked(true);
 439              		.loc 1 170 5
 440              	.LBB304:
 441              	.LBB305:
  47:src/../h/tcb.hpp **** 
 442              		.loc 4 47 31
  47:src/../h/tcb.hpp **** 
 443              		.loc 4 47 38 is_stmt 0
 444 0264 83470502 		lbu	a5,32(a0)
 445              	.LVL39:
 446              	.LBE305:
 447              	.LBE304:
 170:src/tcb.cpp   ****         running->setBlocked(true);
 448              		.loc 1 170 5
 449 0268 63840700 		beqz	a5,.L30
 450 026c 67800000 		ret
 451              	.L30:
 169:src/tcb.cpp   ****     if(!handle->isFinished()){
 452              		.loc 1 169 29
 453 0270 130101FE 		addi	sp,sp,-32
 454              		.cfi_def_cfa_offset 32
 455 0274 233C1100 		sd	ra,24(sp)
 456 0278 23388100 		sd	s0,16(sp)
 457 027c 23349100 		sd	s1,8(sp)
 458 0280 23302101 		sd	s2,0(sp)
 459              		.cfi_offset 1, -8
 460              		.cfi_offset 8, -16
 461              		.cfi_offset 9, -24
 462              		.cfi_offset 18, -32
 463 0284 13040102 		addi	s0,sp,32
 464              		.cfi_def_cfa 8, 0
 465 0288 93040500 		mv	s1,a0
 171:src/tcb.cpp   ****         handle->joined.addLast(running);
 466              		.loc 1 171 9 is_stmt 1
 171:src/tcb.cpp   ****         handle->joined.addLast(running);
 467              		.loc 1 171 28 is_stmt 0
 468 028c 17090000 		ld	s2,.LANCHOR0+16
 468      03390900 
GAS LISTING /tmp/ccg8jNLS.s 			page 30


 469              	.LVL40:
 470              	.LBB306:
 471              	.LBB307:
  53:src/../h/tcb.hpp **** 
 472              		.loc 4 53 35 is_stmt 1
  53:src/../h/tcb.hpp **** 
 473              		.loc 4 53 49 is_stmt 0
 474 0294 93071000 		li	a5,1
 475 0298 A300F902 		sb	a5,33(s2)
 476              	.LVL41:
 477              	.LBE307:
 478              	.LBE306:
 172:src/tcb.cpp   ****     }
 479              		.loc 1 172 9 is_stmt 1
 480              	.LBB308:
 481              	.LBB309:
  27:src/../h/List.hpp **** 
  28:src/../h/List.hpp ****     Lista(const Lista<T> &) = delete;
  29:src/../h/List.hpp **** 
  30:src/../h/List.hpp ****     Lista<T> &operator=(const Lista<T> &) = delete;
  31:src/../h/List.hpp **** 
  32:src/../h/List.hpp ****     void addFirst(T *data)
  33:src/../h/List.hpp ****     {
  34:src/../h/List.hpp ****         Elem *elem = new Elem(data, head);
  35:src/../h/List.hpp ****         head = elem;
  36:src/../h/List.hpp ****         if (!tail) { tail = head; }
  37:src/../h/List.hpp ****     }
  38:src/../h/List.hpp **** 
  39:src/../h/List.hpp ****     void addLast(T *data)
  40:src/../h/List.hpp ****     {
  41:src/../h/List.hpp ****         Elem *elem = new Elem(data, 0);
 482              		.loc 2 41 22 is_stmt 0
 483 029c 13050001 		li	a0,16
 484              	.LVL42:
 485 02a0 97000000 		call	_Znwm@plt
 485      E7800000 
 486              	.LVL43:
 487              	.LBB310:
 488              	.LBB311:
  19:src/../h/List.hpp **** 
 489              		.loc 2 19 58
 490 02a8 23302501 		sd	s2,0(a0)
 491 02ac 23340500 		sd	zero,8(a0)
 492              	.LVL44:
 493              	.LBE311:
 494              	.LBE310:
  42:src/../h/List.hpp ****         if (tail)
 495              		.loc 2 42 13
 496 02b0 83B78403 		ld	a5,56(s1)
 497              		.loc 2 42 9
 498 02b4 63820702 		beqz	a5,.L25
  43:src/../h/List.hpp ****         {
  44:src/../h/List.hpp ****             tail->next = elem;
 499              		.loc 2 44 13
 500 02b8 23B4A700 		sd	a0,8(a5)
  45:src/../h/List.hpp ****             tail = elem;
 501              		.loc 2 45 13
GAS LISTING /tmp/ccg8jNLS.s 			page 31


 502 02bc 23BCA402 		sd	a0,56(s1)
 503              	.LVL45:
 504              	.L23:
 505              	.LBE309:
 506              	.LBE308:
 174:src/tcb.cpp   **** 
 507              		.loc 1 174 1
 508 02c0 83308101 		ld	ra,24(sp)
 509              		.cfi_remember_state
 510              		.cfi_restore 1
 511 02c4 03340101 		ld	s0,16(sp)
 512              		.cfi_restore 8
 513              		.cfi_def_cfa 2, 32
 514 02c8 83348100 		ld	s1,8(sp)
 515              		.cfi_restore 9
 516              	.LVL46:
 517 02cc 03390100 		ld	s2,0(sp)
 518              		.cfi_restore 18
 519 02d0 13010102 		addi	sp,sp,32
 520              		.cfi_def_cfa_offset 0
 521 02d4 67800000 		jr	ra
 522              	.LVL47:
 523              	.L25:
 524              		.cfi_restore_state
 525              	.LBB313:
 526              	.LBB312:
  46:src/../h/List.hpp ****         } else
  47:src/../h/List.hpp ****         {
  48:src/../h/List.hpp ****             head = tail = elem;
 527              		.loc 2 48 13
 528 02d8 23BCA402 		sd	a0,56(s1)
 529 02dc 23B8A402 		sd	a0,48(s1)
 530              	.LVL48:
 531              	.LBE312:
 532              	.LBE313:
 174:src/tcb.cpp   **** 
 533              		.loc 1 174 1
 534 02e0 6FF01FFE 		j	.L23
 535              		.cfi_endproc
 536              	.LFE60:
 538              		.align	2
 539              		.globl	_ZN3TCB12pustiSveNitiEv
 541              	_ZN3TCB12pustiSveNitiEv:
 542              	.LFB61:
 177:src/tcb.cpp   ****     while(this->joined.peekFirst()){
 543              		.loc 1 177 26 is_stmt 1
 544              		.cfi_startproc
 545              	.LVL49:
 546 02e4 130101FE 		addi	sp,sp,-32
 547              		.cfi_def_cfa_offset 32
 548 02e8 233C1100 		sd	ra,24(sp)
 549 02ec 23388100 		sd	s0,16(sp)
 550 02f0 23349100 		sd	s1,8(sp)
 551 02f4 23302101 		sd	s2,0(sp)
 552              		.cfi_offset 1, -8
 553              		.cfi_offset 8, -16
 554              		.cfi_offset 9, -24
GAS LISTING /tmp/ccg8jNLS.s 			page 32


 555              		.cfi_offset 18, -32
 556 02f8 13040102 		addi	s0,sp,32
 557              		.cfi_def_cfa 8, 0
 558 02fc 13090500 		mv	s2,a0
 559 0300 6F004002 		j	.L34
 560              	.LVL50:
 561              	.L36:
 562              	.LBB314:
 563              	.LBB315:
 564              	.LBB316:
  49:src/../h/List.hpp ****         }
  50:src/../h/List.hpp ****     }
  51:src/../h/List.hpp **** 
  52:src/../h/List.hpp ****     T *removeFirst()
  53:src/../h/List.hpp ****     {
  54:src/../h/List.hpp ****         if (!head) { return 0; }
  55:src/../h/List.hpp **** 
  56:src/../h/List.hpp ****         Elem *elem = head;
  57:src/../h/List.hpp ****         head = head->next;
  58:src/../h/List.hpp ****         if (!head) { tail = 0; }
 565              		.loc 2 58 22 is_stmt 0
 566 0304 233C0902 		sd	zero,56(s2)
 567              	.L33:
  59:src/../h/List.hpp **** 
  60:src/../h/List.hpp ****         T *ret = elem->data;
 568              		.loc 2 60 12
 569 0308 83340500 		ld	s1,0(a0)
 570              	.LVL51:
  61:src/../h/List.hpp ****         delete elem;
 571              		.loc 2 61 9
 572 030c 97000000 		call	_ZdlPv@plt
 572      E7800000 
 573              	.LVL52:
 574              	.LBE316:
 575              	.LBE315:
 180:src/tcb.cpp   ****         Scheduler::put(tcb);
 576              		.loc 1 180 9 is_stmt 1
 577              	.LBB318:
 578              	.LBB319:
  53:src/../h/tcb.hpp **** 
 579              		.loc 4 53 35
  53:src/../h/tcb.hpp **** 
 580              		.loc 4 53 49 is_stmt 0
 581 0314 A3800402 		sb	zero,33(s1)
 582              	.LVL53:
 583              	.LBE319:
 584              	.LBE318:
 181:src/tcb.cpp   ****     }
 585              		.loc 1 181 9 is_stmt 1
 181:src/tcb.cpp   ****     }
 586              		.loc 1 181 23 is_stmt 0
 587 0318 13850400 		mv	a0,s1
 588 031c 97000000 		call	_ZN9Scheduler3putEP3TCB@plt
 588      E7800000 
 589              	.LVL54:
 590              	.L34:
 591              	.LBE314:
GAS LISTING /tmp/ccg8jNLS.s 			page 33


 178:src/tcb.cpp   ****         TCB* tcb=this->joined.removeFirst();
 592              		.loc 1 178 5 is_stmt 1
 178:src/tcb.cpp   ****         TCB* tcb=this->joined.removeFirst();
 593              		.loc 1 178 34
 594              	.LBB321:
 595              	.LBB322:
  62:src/../h/List.hpp ****         return ret;
  63:src/../h/List.hpp ****     }
  64:src/../h/List.hpp **** 
  65:src/../h/List.hpp ****     T *peekFirst()
  66:src/../h/List.hpp ****     {
  67:src/../h/List.hpp ****         if (!head) { return 0; }
 596              		.loc 2 67 14 is_stmt 0
 597 0324 03350903 		ld	a0,48(s2)
 598              		.loc 2 67 9
 599 0328 630E0500 		beqz	a0,.L31
  68:src/../h/List.hpp ****         return head->data;
 600              		.loc 2 68 22
 601 032c 83370500 		ld	a5,0(a0)
 602              	.LVL55:
 603              	.LBE322:
 604              	.LBE321:
 178:src/tcb.cpp   ****         TCB* tcb=this->joined.removeFirst();
 605              		.loc 1 178 34
 606 0330 638A0700 		beqz	a5,.L31
 607              	.LBB323:
 179:src/tcb.cpp   ****         tcb->setBlocked(false);
 608              		.loc 1 179 9 is_stmt 1
 609              	.LVL56:
 610              	.LBB320:
 611              	.LBB317:
  57:src/../h/List.hpp ****         if (!head) { tail = 0; }
 612              		.loc 2 57 22 is_stmt 0
 613 0334 83378500 		ld	a5,8(a0)
  57:src/../h/List.hpp ****         if (!head) { tail = 0; }
 614              		.loc 2 57 9
 615 0338 2338F902 		sd	a5,48(s2)
  58:src/../h/List.hpp **** 
 616              		.loc 2 58 9
 617 033c E39607FC 		bnez	a5,.L33
 618 0340 6FF05FFC 		j	.L36
 619              	.LVL57:
 620              	.L31:
 621              	.LBE317:
 622              	.LBE320:
 623              	.LBE323:
 183:src/tcb.cpp   **** 
 624              		.loc 1 183 1
 625 0344 83308101 		ld	ra,24(sp)
 626              		.cfi_restore 1
 627 0348 03340101 		ld	s0,16(sp)
 628              		.cfi_restore 8
 629              		.cfi_def_cfa 2, 32
 630 034c 83348100 		ld	s1,8(sp)
 631              		.cfi_restore 9
 632 0350 03390100 		ld	s2,0(sp)
 633              		.cfi_restore 18
GAS LISTING /tmp/ccg8jNLS.s 			page 34


 634              	.LVL58:
 635 0354 13010102 		addi	sp,sp,32
 636              		.cfi_def_cfa_offset 0
 637 0358 67800000 		jr	ra
 638              		.cfi_endproc
 639              	.LFE61:
 641              		.align	2
 642              		.globl	_ZN3TCBC2EPFvPvES0_Pc
 644              	_ZN3TCBC2EPFvPvES0_Pc:
 645              	.LFB63:
 189:src/tcb.cpp   ****         body(body),
 646              		.loc 1 189 1 is_stmt 1
 647              		.cfi_startproc
 648              	.LVL59:
 649 035c 130101FE 		addi	sp,sp,-32
 650              		.cfi_def_cfa_offset 32
 651 0360 233C1100 		sd	ra,24(sp)
 652 0364 23388100 		sd	s0,16(sp)
 653 0368 23349100 		sd	s1,8(sp)
 654 036c 23302101 		sd	s2,0(sp)
 655              		.cfi_offset 1, -8
 656              		.cfi_offset 8, -16
 657              		.cfi_offset 9, -24
 658              		.cfi_offset 18, -32
 659 0370 13040102 		addi	s0,sp,32
 660              		.cfi_def_cfa 8, 0
 661 0374 93040500 		mv	s1,a0
 662              	.LBB324:
 193:src/tcb.cpp   **** 
 663              		.loc 1 193 157 is_stmt 0
 664 0378 2330B500 		sd	a1,0(a0)
 191:src/tcb.cpp   ****         blocked(false),main(body==nullptr),arg(arg),id(ID++),msgE(nullptr),msgA(nullptr),fsSemaphor
 665              		.loc 1 191 29
 666 037c 638C0510 		beqz	a1,.L45
 191:src/tcb.cpp   ****         blocked(false),main(body==nullptr),arg(arg),id(ID++),msgE(nullptr),msgA(nullptr),fsSemaphor
 667              		.loc 1 191 50 discriminator 1
 668 0380 B7F7FFFF 		li	a5,-4096
 669 0384 B387F600 		add	a5,a3,a5
 670              	.L38:
 193:src/tcb.cpp   **** 
 671              		.loc 1 193 157 discriminator 4
 672 0388 23B4F400 		sd	a5,8(s1)
 673 038c 17070000 		lla	a4,_ZN3TCB13threadWrapperEv
 673      13070700 
 674 0394 23B8E400 		sd	a4,16(s1)
 191:src/tcb.cpp   ****         blocked(false),main(body==nullptr),arg(arg),id(ID++),msgE(nullptr),msgA(nullptr),fsSemaphor
 675              		.loc 1 191 132 discriminator 4
 676 0398 63820710 		beqz	a5,.L48
 677              	.LVL60:
 678              	.L39:
 193:src/tcb.cpp   **** 
 679              		.loc 1 193 157
 680 039c 23BCD400 		sd	a3,24(s1)
 681 03a0 23800402 		sb	zero,32(s1)
 682 03a4 A3800402 		sb	zero,33(s1)
 192:src/tcb.cpp   ****         nullptr),parent(nullptr),waitingForChildren(false),joinALL(false),numberOfChildren(0),joinA
 683              		.loc 1 192 33
GAS LISTING /tmp/ccg8jNLS.s 			page 35


 684 03a8 93B71500 		seqz	a5,a1
 193:src/tcb.cpp   **** 
 685              		.loc 1 193 157
 686 03ac 2381F402 		sb	a5,34(s1)
 687 03b0 23B4C402 		sd	a2,40(s1)
 688              	.LVL61:
 689              	.LBB325:
 690              	.LBB326:
  26:src/../h/List.hpp **** 
 691              		.loc 2 26 30
 692 03b4 23B80402 		sd	zero,48(s1)
 693 03b8 23BC0402 		sd	zero,56(s1)
 694              	.LVL62:
 695              	.LBE326:
 696              	.LBE325:
 192:src/tcb.cpp   ****         nullptr),parent(nullptr),waitingForChildren(false),joinALL(false),numberOfChildren(0),joinA
 697              		.loc 1 192 58
 698 03bc 17070000 		lla	a4,.LANCHOR0
 698      13070700 
 699 03c4 83278702 		lw	a5,40(a4)
 700 03c8 9B861700 		addiw	a3,a5,1
 701 03cc 2324D702 		sw	a3,40(a4)
 193:src/tcb.cpp   **** 
 702              		.loc 1 193 157
 703 03d0 23A0F404 		sw	a5,64(s1)
 704 03d4 23B40404 		sd	zero,72(s1)
 705 03d8 23B80404 		sd	zero,80(s1)
 706 03dc 238C0404 		sb	zero,88(s1)
 707 03e0 23B00406 		sd	zero,96(s1)
 708 03e4 23B40406 		sd	zero,104(s1)
 709 03e8 23880406 		sb	zero,112(s1)
 710 03ec A3880406 		sb	zero,113(s1)
 711 03f0 23AA0406 		sw	zero,116(s1)
 712 03f4 23BC0406 		sd	zero,120(s1)
 713 03f8 23A00408 		sw	zero,128(s1)
 714 03fc 23820408 		sb	zero,132(s1)
 715 0400 23A40408 		sw	zero,136(s1)
 196:src/tcb.cpp   **** 
 716              		.loc 1 196 5 is_stmt 1
 717 0404 638C0506 		beqz	a1,.L37
 198:src/tcb.cpp   ****         if(parent){
 718              		.loc 1 198 9
 198:src/tcb.cpp   ****         if(parent){
 719              		.loc 1 198 15 is_stmt 0
 720 0408 97070000 		ld	a5,.LANCHOR0+16
 720      83B70700 
 721 0410 23B4F406 		sd	a5,104(s1)
 199:src/tcb.cpp   ****             parent->numberOfChildren++;
 722              		.loc 1 199 9 is_stmt 1
 723 0414 63880700 		beqz	a5,.L41
 200:src/tcb.cpp   ****         }
 724              		.loc 1 200 13
 200:src/tcb.cpp   ****         }
 725              		.loc 1 200 21 is_stmt 0
 726 0418 03A74707 		lw	a4,116(a5)
 200:src/tcb.cpp   ****         }
 727              		.loc 1 200 37
GAS LISTING /tmp/ccg8jNLS.s 			page 36


 728 041c 1B071700 		addiw	a4,a4,1
 729 0420 23AAE706 		sw	a4,116(a5)
 730              	.L41:
 202:src/tcb.cpp   ****             numOFthreads++;
 731              		.loc 1 202 9 is_stmt 1
 732 0424 97070000 		lbu	a5,.LANCHOR0+44
 732      83C70700 
 733 042c 638C0700 		beqz	a5,.L42
 203:src/tcb.cpp   ****         }
 734              		.loc 1 203 13
 203:src/tcb.cpp   ****         }
 735              		.loc 1 203 25 is_stmt 0
 736 0430 17070000 		lla	a4,.LANCHOR0
 736      13070700 
 737 0438 83270703 		lw	a5,48(a4)
 738 043c 9B871700 		addiw	a5,a5,1
 739 0440 2328F702 		sw	a5,48(a4)
 740              	.L42:
 205:src/tcb.cpp   ****             semMaxThreads->wait();
 741              		.loc 1 205 9 is_stmt 1
 742 0444 97070000 		lbu	a5,.LANCHOR0+24
 742      83C70700 
 743 044c 639C0704 		bnez	a5,.L49
 744              	.LVL63:
 745              	.L43:
 209:src/tcb.cpp   ****             threadCount++;
 746              		.loc 1 209 9
 747 0450 97070000 		lbu	a5,.LANCHOR0+52
 747      83C70700 
 748 0458 638C0700 		beqz	a5,.L44
 210:src/tcb.cpp   ****         }
 749              		.loc 1 210 13
 210:src/tcb.cpp   ****         }
 750              		.loc 1 210 24 is_stmt 0
 751 045c 17070000 		lla	a4,.LANCHOR0
 751      13070700 
 752 0464 83278703 		lw	a5,56(a4)
 753 0468 9B871700 		addiw	a5,a5,1
 754 046c 232CF702 		sw	a5,56(a4)
 755              	.L44:
 213:src/tcb.cpp   **** 
 756              		.loc 1 213 9 is_stmt 1
 213:src/tcb.cpp   **** 
 757              		.loc 1 213 23 is_stmt 0
 758 0470 13850400 		mv	a0,s1
 759 0474 97000000 		call	_ZN9Scheduler3putEP3TCB@plt
 759      E7800000 
 760              	.LVL64:
 761              	.L37:
 762              	.LBE324:
 218:src/tcb.cpp   **** 
 763              		.loc 1 218 1
 764 047c 83308101 		ld	ra,24(sp)
 765              		.cfi_remember_state
 766              		.cfi_restore 1
 767 0480 03340101 		ld	s0,16(sp)
 768              		.cfi_restore 8
GAS LISTING /tmp/ccg8jNLS.s 			page 37


 769              		.cfi_def_cfa 2, 32
 770 0484 83348100 		ld	s1,8(sp)
 771              		.cfi_restore 9
 772              	.LVL65:
 773 0488 03390100 		ld	s2,0(sp)
 774              		.cfi_restore 18
 775 048c 13010102 		addi	sp,sp,32
 776              		.cfi_def_cfa_offset 0
 777 0490 67800000 		jr	ra
 778              	.LVL66:
 779              	.L45:
 780              		.cfi_restore_state
 781              	.LBB327:
 191:src/tcb.cpp   ****         blocked(false),main(body==nullptr),arg(arg),id(ID++),msgE(nullptr),msgA(nullptr),fsSemaphor
 782              		.loc 1 191 29
 783 0494 93070000 		li	a5,0
 784 0498 6FF01FEF 		j	.L38
 785              	.L48:
 191:src/tcb.cpp   ****         blocked(false),main(body==nullptr),arg(arg),id(ID++),msgE(nullptr),msgA(nullptr),fsSemaphor
 786              		.loc 1 191 132
 787 049c 93060000 		li	a3,0
 788              	.LVL67:
 789 04a0 6FF0DFEF 		j	.L39
 790              	.L49:
 206:src/tcb.cpp   ****             currThr++;
 791              		.loc 1 206 13 is_stmt 1
 206:src/tcb.cpp   ****             currThr++;
 792              		.loc 1 206 32 is_stmt 0
 793 04a4 17090000 		lla	s2,.LANCHOR0
 793      13090900 
 794 04ac 03350902 		ld	a0,32(s2)
 795 04b0 97000000 		call	_ZN11Semaphore_k4waitEv@plt
 795      E7800000 
 796              	.LVL68:
 207:src/tcb.cpp   ****         }
 797              		.loc 1 207 13 is_stmt 1
 207:src/tcb.cpp   ****         }
 798              		.loc 1 207 20 is_stmt 0
 799 04b8 8327C901 		lw	a5,28(s2)
 800 04bc 9B871700 		addiw	a5,a5,1
 801 04c0 232EF900 		sw	a5,28(s2)
 802 04c4 6FF0DFF8 		j	.L43
 803              	.LBE327:
 804              		.cfi_endproc
 805              	.LFE63:
 807              		.globl	_ZN3TCBC1EPFvPvES0_Pc
 808              		.set	_ZN3TCBC1EPFvPvES0_Pc,_ZN3TCBC2EPFvPvES0_Pc
 809              		.align	2
 810              		.globl	_ZN3TCB14kreiraj_threadEPPS_PFvPvES2_Pc
 812              	_ZN3TCB14kreiraj_threadEPPS_PFvPvES2_Pc:
 813              	.LFB56:
  88:src/tcb.cpp   ****     *handle = new TCB(body,arg,stek);
 814              		.loc 1 88 78 is_stmt 1
 815              		.cfi_startproc
 816              		.cfi_personality 0x9b,DW.ref.__gxx_personality_v0
 817              		.cfi_lsda 0x1b,.LLSDA56
 818              	.LVL69:
GAS LISTING /tmp/ccg8jNLS.s 			page 38


 819 04c8 130101FC 		addi	sp,sp,-64
 820              		.cfi_def_cfa_offset 64
 821 04cc 233C1102 		sd	ra,56(sp)
 822 04d0 23388102 		sd	s0,48(sp)
 823 04d4 23349102 		sd	s1,40(sp)
 824 04d8 23302103 		sd	s2,32(sp)
 825 04dc 233C3101 		sd	s3,24(sp)
 826 04e0 23384101 		sd	s4,16(sp)
 827 04e4 23345101 		sd	s5,8(sp)
 828              		.cfi_offset 1, -8
 829              		.cfi_offset 8, -16
 830              		.cfi_offset 9, -24
 831              		.cfi_offset 18, -32
 832              		.cfi_offset 19, -40
 833              		.cfi_offset 20, -48
 834              		.cfi_offset 21, -56
 835 04e8 13040104 		addi	s0,sp,64
 836              		.cfi_def_cfa 8, 0
 837 04ec 13090500 		mv	s2,a0
 838 04f0 93890500 		mv	s3,a1
 839 04f4 130A0600 		mv	s4,a2
 840 04f8 938A0600 		mv	s5,a3
  89:src/tcb.cpp   **** 
 841              		.loc 1 89 5
 842              	.LVL70:
 843              	.LBB328:
 844              	.LBB329:
  26:src/../h/tcb.hpp ****     }
 845              		.loc 4 26 9
  26:src/../h/tcb.hpp ****     }
 846              		.loc 4 26 42 is_stmt 0
 847 04fc 13050009 		li	a0,144
 848              	.LVL71:
 849              	.LEHB0:
 850 0500 97000000 		call	_ZN15memoryAllocator9mem_allocEm@plt
 850      E7800000 
 851              	.LVL72:
 852              	.LEHE0:
 853 0508 93040500 		mv	s1,a0
 854              	.LVL73:
 855              	.LBE329:
 856              	.LBE328:
  89:src/tcb.cpp   **** 
 857              		.loc 1 89 36
 858 050c 93860A00 		mv	a3,s5
 859 0510 13060A00 		mv	a2,s4
 860 0514 93850900 		mv	a1,s3
 861              	.LEHB1:
 862 0518 97000000 		call	_ZN3TCBC1EPFvPvES0_Pc
 862      E7800000 
 863              	.LVL74:
 864              	.LEHE1:
 865 0520 6F000002 		j	.L56
 866              	.L52:
 867 0524 13090500 		mv	s2,a0
 868              	.LVL75:
 869              	.LBB330:
GAS LISTING /tmp/ccg8jNLS.s 			page 39


 870              	.LBB331:
  33:src/../h/tcb.hpp ****     }
 871              		.loc 4 33 9 is_stmt 1
  33:src/../h/tcb.hpp ****     }
 872              		.loc 4 33 34 is_stmt 0
 873 0528 13850400 		mv	a0,s1
 874 052c 97000000 		call	_ZN15memoryAllocator8mem_freeEPv@plt
 874      E7800000 
 875              	.LVL76:
 876 0534 13050900 		mv	a0,s2
 877              	.LEHB2:
 878 0538 97000000 		call	_Unwind_Resume@plt
 878      E7800000 
 879              	.LVL77:
 880              	.LEHE2:
 881              	.L56:
 882              	.LBE331:
 883              	.LBE330:
  89:src/tcb.cpp   **** 
 884              		.loc 1 89 13 discriminator 2
 885 0540 23309900 		sd	s1,0(s2)
  91:src/tcb.cpp   **** }
 886              		.loc 1 91 5 is_stmt 1 discriminator 2
  92:src/tcb.cpp   **** 
 887              		.loc 1 92 1 is_stmt 0 discriminator 2
 888 0544 13850400 		mv	a0,s1
 889 0548 83308103 		ld	ra,56(sp)
 890              		.cfi_restore 1
 891 054c 03340103 		ld	s0,48(sp)
 892              		.cfi_restore 8
 893              		.cfi_def_cfa 2, 64
 894 0550 83348102 		ld	s1,40(sp)
 895              		.cfi_restore 9
 896 0554 03390102 		ld	s2,32(sp)
 897              		.cfi_restore 18
 898              	.LVL78:
 899 0558 83398101 		ld	s3,24(sp)
 900              		.cfi_restore 19
 901              	.LVL79:
 902 055c 033A0101 		ld	s4,16(sp)
 903              		.cfi_restore 20
 904              	.LVL80:
 905 0560 833A8100 		ld	s5,8(sp)
 906              		.cfi_restore 21
 907              	.LVL81:
 908 0564 13010104 		addi	sp,sp,64
 909              		.cfi_def_cfa_offset 0
 910 0568 67800000 		jr	ra
 911              		.cfi_endproc
 912              	.LFE56:
 913              		.globl	__gxx_personality_v0
 914              		.section	.gcc_except_table,"a",@progbits
 915              	.LLSDA56:
 916 0000 FF       		.byte	0xff
 917 0001 FF       		.byte	0xff
 918 0002 03       		.byte	0x3
 919 0003 27       		.byte	0x27
GAS LISTING /tmp/ccg8jNLS.s 			page 40


 920 0004 00000000 		.4byte	.LEHB0-.LFB56
 921 0008 00000000 		.4byte	.LEHE0-.LEHB0
 922 000c 00000000 		.4byte	0
 923 0010 00       		.byte	0
 924 0011 00000000 		.4byte	.LEHB1-.LFB56
 925 0015 00000000 		.4byte	.LEHE1-.LEHB1
 926 0019 00000000 		.4byte	.L52-.LFB56
 927 001d 00       		.byte	0
 928 001e 00000000 		.4byte	.LEHB2-.LFB56
 929 0022 00000000 		.4byte	.LEHE2-.LEHB2
 930 0026 00000000 		.4byte	0
 931 002a 00       		.byte	0
 932              		.text
 934              		.align	2
 935              		.globl	_ZN3TCB7getMyIDEv
 937              	_ZN3TCB7getMyIDEv:
 938              	.LFB65:
 233:src/tcb.cpp   ****     return  this->id;
 939              		.loc 1 233 20 is_stmt 1
 940              		.cfi_startproc
 941              	.LVL82:
 942 056c 130101FF 		addi	sp,sp,-16
 943              		.cfi_def_cfa_offset 16
 944 0570 23348100 		sd	s0,8(sp)
 945              		.cfi_offset 8, -8
 946 0574 13040101 		addi	s0,sp,16
 947              		.cfi_def_cfa 8, 0
 234:src/tcb.cpp   **** }
 948              		.loc 1 234 5
 235:src/tcb.cpp   **** 
 949              		.loc 1 235 1 is_stmt 0
 950 0578 03250504 		lw	a0,64(a0)
 951              	.LVL83:
 952 057c 03348100 		ld	s0,8(sp)
 953              		.cfi_restore 8
 954              		.cfi_def_cfa 2, 16
 955 0580 13010101 		addi	sp,sp,16
 956              		.cfi_def_cfa_offset 0
 957 0584 67800000 		jr	ra
 958              		.cfi_endproc
 959              	.LFE65:
 961              		.align	2
 962              		.globl	_ZN3TCB17setUnisexBatrroomEv
 964              	_ZN3TCB17setUnisexBatrroomEv:
 965              	.LFB66:
 239:src/tcb.cpp   ****     empty = new Semaphore_k(4);
 966              		.loc 1 239 31 is_stmt 1
 967              		.cfi_startproc
 968 0588 130101FE 		addi	sp,sp,-32
 969              		.cfi_def_cfa_offset 32
 970 058c 233C1100 		sd	ra,24(sp)
 971 0590 23388100 		sd	s0,16(sp)
 972 0594 23349100 		sd	s1,8(sp)
 973 0598 23302101 		sd	s2,0(sp)
 974              		.cfi_offset 1, -8
 975              		.cfi_offset 8, -16
 976              		.cfi_offset 9, -24
GAS LISTING /tmp/ccg8jNLS.s 			page 41


 977              		.cfi_offset 18, -32
 978 059c 13040102 		addi	s0,sp,32
 979              		.cfi_def_cfa 8, 0
 240:src/tcb.cpp   ****     toilet = new Semaphore_k(1);
 980              		.loc 1 240 5
 981              	.LVL84:
 982              	.LBB332:
 983              	.LBB333:
 984              		.file 5 "src/../h/Semaphore_k.hpp"
   1:src/../h/Semaphore_k.hpp **** //
   2:src/../h/Semaphore_k.hpp **** // Created by os on 5/17/24.
   3:src/../h/Semaphore_k.hpp **** //
   4:src/../h/Semaphore_k.hpp **** 
   5:src/../h/Semaphore_k.hpp **** #ifndef SEMAPHORE_K_HPP
   6:src/../h/Semaphore_k.hpp **** #define SEMAPHORE_K_HPP
   7:src/../h/Semaphore_k.hpp **** 
   8:src/../h/Semaphore_k.hpp **** #include "List.hpp"
   9:src/../h/Semaphore_k.hpp **** #include "tcb.hpp"
  10:src/../h/Semaphore_k.hpp **** 
  11:src/../h/Semaphore_k.hpp **** 
  12:src/../h/Semaphore_k.hpp **** class Semaphore_k {
  13:src/../h/Semaphore_k.hpp **** private:
  14:src/../h/Semaphore_k.hpp ****     bool closed;
  15:src/../h/Semaphore_k.hpp ****     int value;
  16:src/../h/Semaphore_k.hpp ****     Lista<TCB> blocked;
  17:src/../h/Semaphore_k.hpp **** protected:
  18:src/../h/Semaphore_k.hpp ****     void block();
  19:src/../h/Semaphore_k.hpp **** 
  20:src/../h/Semaphore_k.hpp ****     void deblock();
  21:src/../h/Semaphore_k.hpp **** 
  22:src/../h/Semaphore_k.hpp **** 
  23:src/../h/Semaphore_k.hpp **** public:
  24:src/../h/Semaphore_k.hpp ****     using sem_t = Semaphore_k*;
  25:src/../h/Semaphore_k.hpp ****     void* operator new(size_t size) {
  26:src/../h/Semaphore_k.hpp ****         return memoryAllocator::mem_alloc(size);
 985              		.loc 5 26 9
 986              		.loc 5 26 42 is_stmt 0
 987 05a0 13058001 		li	a0,24
 988 05a4 97000000 		call	_ZN15memoryAllocator9mem_allocEm@plt
 988      E7800000 
 989              	.LVL85:
 990              	.LBE333:
 991              	.LBE332:
 992              	.LBB334:
 993              	.LBB335:
  27:src/../h/Semaphore_k.hpp ****     }
  28:src/../h/Semaphore_k.hpp ****     void* operator new[](size_t size) {
  29:src/../h/Semaphore_k.hpp ****         return memoryAllocator::mem_alloc(size);
  30:src/../h/Semaphore_k.hpp ****     }
  31:src/../h/Semaphore_k.hpp **** 
  32:src/../h/Semaphore_k.hpp ****     void operator delete(void *ptr) {
  33:src/../h/Semaphore_k.hpp ****         memoryAllocator::mem_free(ptr);
  34:src/../h/Semaphore_k.hpp ****     }
  35:src/../h/Semaphore_k.hpp ****     void operator delete[](void *ptr) {
  36:src/../h/Semaphore_k.hpp ****         memoryAllocator::mem_free(ptr);
  37:src/../h/Semaphore_k.hpp ****     }
  38:src/../h/Semaphore_k.hpp **** 
GAS LISTING /tmp/ccg8jNLS.s 			page 42


  39:src/../h/Semaphore_k.hpp ****     Semaphore_k(unsigned init = 0):closed(false),value(init){
 994              		.loc 5 39 60
 995 05ac 23000500 		sb	zero,0(a0)
 996 05b0 93074000 		li	a5,4
 997 05b4 2322F500 		sw	a5,4(a0)
 998              	.LVL86:
 999              	.LBB336:
 1000              	.LBB337:
  26:src/../h/List.hpp **** 
 1001              		.loc 2 26 30
 1002 05b8 23340500 		sd	zero,8(a0)
 1003 05bc 23380500 		sd	zero,16(a0)
 1004              	.LVL87:
 1005              	.LBE337:
 1006              	.LBE336:
 1007              	.LBE335:
 1008              	.LBE334:
 240:src/tcb.cpp   ****     toilet = new Semaphore_k(1);
 1009              		.loc 1 240 11
 1010 05c0 97040000 		lla	s1,.LANCHOR0
 1010      93840400 
 1011 05c8 23B0A404 		sd	a0,64(s1)
 241:src/tcb.cpp   ****     mutexMen = new Semaphore_k(1);
 1012              		.loc 1 241 5 is_stmt 1
 1013              	.LVL88:
 1014              	.LBB338:
 1015              	.LBB339:
  26:src/../h/Semaphore_k.hpp ****     }
 1016              		.loc 5 26 9
  26:src/../h/Semaphore_k.hpp ****     }
 1017              		.loc 5 26 42 is_stmt 0
 1018 05cc 13058001 		li	a0,24
 1019 05d0 97000000 		call	_ZN15memoryAllocator9mem_allocEm@plt
 1019      E7800000 
 1020              	.LVL89:
 1021              	.LBE339:
 1022              	.LBE338:
 1023              	.LBB340:
 1024              	.LBB341:
 1025              		.loc 5 39 60
 1026 05d8 23000500 		sb	zero,0(a0)
 1027 05dc 13091000 		li	s2,1
 1028 05e0 23222501 		sw	s2,4(a0)
 1029              	.LVL90:
 1030              	.LBB342:
 1031              	.LBB343:
  26:src/../h/List.hpp **** 
 1032              		.loc 2 26 30
 1033 05e4 23340500 		sd	zero,8(a0)
 1034 05e8 23380500 		sd	zero,16(a0)
 1035              	.LVL91:
 1036              	.LBE343:
 1037              	.LBE342:
 1038              	.LBE341:
 1039              	.LBE340:
 241:src/tcb.cpp   ****     mutexMen = new Semaphore_k(1);
 1040              		.loc 1 241 12
GAS LISTING /tmp/ccg8jNLS.s 			page 43


 1041 05ec 23B4A404 		sd	a0,72(s1)
 242:src/tcb.cpp   ****     mutexWomen = new Semaphore_k(1);
 1042              		.loc 1 242 5 is_stmt 1
 1043              	.LVL92:
 1044              	.LBB344:
 1045              	.LBB345:
  26:src/../h/Semaphore_k.hpp ****     }
 1046              		.loc 5 26 9
  26:src/../h/Semaphore_k.hpp ****     }
 1047              		.loc 5 26 42 is_stmt 0
 1048 05f0 13058001 		li	a0,24
 1049 05f4 97000000 		call	_ZN15memoryAllocator9mem_allocEm@plt
 1049      E7800000 
 1050              	.LVL93:
 1051              	.LBE345:
 1052              	.LBE344:
 1053              	.LBB346:
 1054              	.LBB347:
 1055              		.loc 5 39 60
 1056 05fc 23000500 		sb	zero,0(a0)
 1057 0600 23222501 		sw	s2,4(a0)
 1058              	.LVL94:
 1059              	.LBB348:
 1060              	.LBB349:
  26:src/../h/List.hpp **** 
 1061              		.loc 2 26 30
 1062 0604 23340500 		sd	zero,8(a0)
 1063 0608 23380500 		sd	zero,16(a0)
 1064              	.LVL95:
 1065              	.LBE349:
 1066              	.LBE348:
 1067              	.LBE347:
 1068              	.LBE346:
 242:src/tcb.cpp   ****     mutexWomen = new Semaphore_k(1);
 1069              		.loc 1 242 14
 1070 060c 23B8A404 		sd	a0,80(s1)
 243:src/tcb.cpp   ****     entry = new Semaphore_k(1);
 1071              		.loc 1 243 5 is_stmt 1
 1072              	.LVL96:
 1073              	.LBB350:
 1074              	.LBB351:
  26:src/../h/Semaphore_k.hpp ****     }
 1075              		.loc 5 26 9
  26:src/../h/Semaphore_k.hpp ****     }
 1076              		.loc 5 26 42 is_stmt 0
 1077 0610 13058001 		li	a0,24
 1078 0614 97000000 		call	_ZN15memoryAllocator9mem_allocEm@plt
 1078      E7800000 
 1079              	.LVL97:
 1080              	.LBE351:
 1081              	.LBE350:
 1082              	.LBB352:
 1083              	.LBB353:
 1084              		.loc 5 39 60
 1085 061c 23000500 		sb	zero,0(a0)
 1086 0620 23222501 		sw	s2,4(a0)
 1087              	.LVL98:
GAS LISTING /tmp/ccg8jNLS.s 			page 44


 1088              	.LBB354:
 1089              	.LBB355:
  26:src/../h/List.hpp **** 
 1090              		.loc 2 26 30
 1091 0624 23340500 		sd	zero,8(a0)
 1092 0628 23380500 		sd	zero,16(a0)
 1093              	.LVL99:
 1094              	.LBE355:
 1095              	.LBE354:
 1096              	.LBE353:
 1097              	.LBE352:
 243:src/tcb.cpp   ****     entry = new Semaphore_k(1);
 1098              		.loc 1 243 16
 1099 062c 23BCA404 		sd	a0,88(s1)
 244:src/tcb.cpp   **** }
 1100              		.loc 1 244 5 is_stmt 1
 1101              	.LVL100:
 1102              	.LBB356:
 1103              	.LBB357:
  26:src/../h/Semaphore_k.hpp ****     }
 1104              		.loc 5 26 9
  26:src/../h/Semaphore_k.hpp ****     }
 1105              		.loc 5 26 42 is_stmt 0
 1106 0630 13058001 		li	a0,24
 1107 0634 97000000 		call	_ZN15memoryAllocator9mem_allocEm@plt
 1107      E7800000 
 1108              	.LVL101:
 1109              	.LBE357:
 1110              	.LBE356:
 1111              	.LBB358:
 1112              	.LBB359:
 1113              		.loc 5 39 60
 1114 063c 23000500 		sb	zero,0(a0)
 1115 0640 23222501 		sw	s2,4(a0)
 1116              	.LVL102:
 1117              	.LBB360:
 1118              	.LBB361:
  26:src/../h/List.hpp **** 
 1119              		.loc 2 26 30
 1120 0644 23340500 		sd	zero,8(a0)
 1121 0648 23380500 		sd	zero,16(a0)
 1122              	.LVL103:
 1123              	.LBE361:
 1124              	.LBE360:
 1125              	.LBE359:
 1126              	.LBE358:
 244:src/tcb.cpp   **** }
 1127              		.loc 1 244 11
 1128 064c 23B0A406 		sd	a0,96(s1)
 245:src/tcb.cpp   **** 
 1129              		.loc 1 245 1
 1130 0650 83308101 		ld	ra,24(sp)
 1131              		.cfi_restore 1
 1132 0654 03340101 		ld	s0,16(sp)
 1133              		.cfi_restore 8
 1134              		.cfi_def_cfa 2, 32
 1135 0658 83348100 		ld	s1,8(sp)
GAS LISTING /tmp/ccg8jNLS.s 			page 45


 1136              		.cfi_restore 9
 1137 065c 03390100 		ld	s2,0(sp)
 1138              		.cfi_restore 18
 1139 0660 13010102 		addi	sp,sp,32
 1140              		.cfi_def_cfa_offset 0
 1141 0664 67800000 		jr	ra
 1142              		.cfi_endproc
 1143              	.LFE66:
 1145              		.section	.rodata.str1.8
 1146 0037 00       		.align	3
 1147              	.LC3:
 1148 0038 5573616F 		.string	"Usao novi muskarac, al ne koristi jos "
 1148      206E6F76 
 1148      69206D75 
 1148      736B6172 
 1148      61632C20 
 1149 005f 00       		.align	3
 1150              	.LC4:
 1151 0060 49443A20 		.string	"ID: "
 1151      00
 1152 0065 000000   		.align	3
 1153              	.LC5:
 1154 0068 5573616F 		.string	"Usao jedan muskarac, zene ne mogu sad ulaziti\n"
 1154      206A6564 
 1154      616E206D 
 1154      75736B61 
 1154      7261632C 
 1155 0097 00       		.align	3
 1156              	.LC6:
 1157 0098 4D75736B 		.string	"Muskarac koristi WC\n"
 1157      61726163 
 1157      206B6F72 
 1157      69737469 
 1157      2057430A 
 1158 00ad 000000   		.align	3
 1159              	.LC7:
 1160 00b0 4D75736B 		.string	"Muskarac izasao iz WC\n"
 1160      61726163 
 1160      20697A61 
 1160      73616F20 
 1160      697A2057 
 1161              		.text
 1162              		.align	2
 1163              		.globl	_ZN3TCB3manEj
 1165              	_ZN3TCB3manEj:
 1166              	.LFB67:
 247:src/tcb.cpp   ****     if(!firstSet){
 1167              		.loc 1 247 32 is_stmt 1
 1168              		.cfi_startproc
 1169              	.LVL104:
 1170 0668 130101FE 		addi	sp,sp,-32
 1171              		.cfi_def_cfa_offset 32
 1172 066c 233C1100 		sd	ra,24(sp)
 1173 0670 23388100 		sd	s0,16(sp)
 1174 0674 23349100 		sd	s1,8(sp)
 1175 0678 23302101 		sd	s2,0(sp)
 1176              		.cfi_offset 1, -8
GAS LISTING /tmp/ccg8jNLS.s 			page 46


 1177              		.cfi_offset 8, -16
 1178              		.cfi_offset 9, -24
 1179              		.cfi_offset 18, -32
 1180 067c 13040102 		addi	s0,sp,32
 1181              		.cfi_def_cfa 8, 0
 1182 0680 93040500 		mv	s1,a0
 248:src/tcb.cpp   ****         setUnisexBatrroom();
 1183              		.loc 1 248 5
 248:src/tcb.cpp   ****         setUnisexBatrroom();
 1184              		.loc 1 248 8 is_stmt 0
 1185 0684 97070000 		lbu	a5,.LANCHOR0+104
 1185      83C70700 
 248:src/tcb.cpp   ****         setUnisexBatrroom();
 1186              		.loc 1 248 5
 1187 068c 6386071A 		beqz	a5,.L66
 1188              	.LVL105:
 1189              	.L62:
 253:src/tcb.cpp   ****     mutexMen->wait();
 1190              		.loc 1 253 5 is_stmt 1
 253:src/tcb.cpp   ****     mutexMen->wait();
 1191              		.loc 1 253 16 is_stmt 0
 1192 0690 17090000 		lla	s2,.LANCHOR0
 1192      13090900 
 1193 0698 03350906 		ld	a0,96(s2)
 1194 069c 97000000 		call	_ZN11Semaphore_k4waitEv@plt
 1194      E7800000 
 1195              	.LVL106:
 254:src/tcb.cpp   ****     printString("Usao novi muskarac, al ne koristi jos ");
 1196              		.loc 1 254 5 is_stmt 1
 254:src/tcb.cpp   ****     printString("Usao novi muskarac, al ne koristi jos ");
 1197              		.loc 1 254 19 is_stmt 0
 1198 06a4 03350905 		ld	a0,80(s2)
 1199 06a8 97000000 		call	_ZN11Semaphore_k4waitEv@plt
 1199      E7800000 
 1200              	.LVL107:
 255:src/tcb.cpp   ****     printString("ID: ");
 1201              		.loc 1 255 5 is_stmt 1
 255:src/tcb.cpp   ****     printString("ID: ");
 1202              		.loc 1 255 16 is_stmt 0
 1203 06b0 17050000 		lla	a0,.LC3
 1203      13050500 
 1204 06b8 97000000 		call	_Z11printStringPKc@plt
 1204      E7800000 
 1205              	.LVL108:
 256:src/tcb.cpp   ****     printInt(id);
 1206              		.loc 1 256 5 is_stmt 1
 256:src/tcb.cpp   ****     printInt(id);
 1207              		.loc 1 256 16 is_stmt 0
 1208 06c0 17050000 		lla	a0,.LC4
 1208      13050500 
 1209 06c8 97000000 		call	_Z11printStringPKc@plt
 1209      E7800000 
 1210              	.LVL109:
 257:src/tcb.cpp   ****     printString("\n");
 1211              		.loc 1 257 5 is_stmt 1
 257:src/tcb.cpp   ****     printString("\n");
 1212              		.loc 1 257 13 is_stmt 0
GAS LISTING /tmp/ccg8jNLS.s 			page 47


 1213 06d0 9B840400 		sext.w	s1,s1
 1214 06d4 13060000 		li	a2,0
 1215 06d8 9305A000 		li	a1,10
 1216 06dc 13850400 		mv	a0,s1
 1217 06e0 97000000 		call	_Z8printIntiii@plt
 1217      E7800000 
 1218              	.LVL110:
 258:src/tcb.cpp   ****     numOfMan++;
 1219              		.loc 1 258 5 is_stmt 1
 258:src/tcb.cpp   ****     numOfMan++;
 1220              		.loc 1 258 16 is_stmt 0
 1221 06e8 17050000 		lla	a0,.LC1
 1221      13050500 
 1222 06f0 97000000 		call	_Z11printStringPKc@plt
 1222      E7800000 
 1223              	.LVL111:
 259:src/tcb.cpp   ****     if(numOfMan==1){
 1224              		.loc 1 259 5 is_stmt 1
 259:src/tcb.cpp   ****     if(numOfMan==1){
 1225              		.loc 1 259 13 is_stmt 0
 1226 06f8 8327C906 		lw	a5,108(s2)
 1227 06fc 9B871700 		addiw	a5,a5,1
 1228 0700 1B870700 		sext.w	a4,a5
 1229 0704 2326F906 		sw	a5,108(s2)
 260:src/tcb.cpp   ****         toilet->wait();
 1230              		.loc 1 260 5 is_stmt 1
 1231 0708 93071000 		li	a5,1
 1232 070c 6302F714 		beq	a4,a5,.L67
 1233              	.L63:
 267:src/tcb.cpp   ****     thread_dispatch();
 1234              		.loc 1 267 5
 267:src/tcb.cpp   ****     thread_dispatch();
 1235              		.loc 1 267 21 is_stmt 0
 1236 0710 17090000 		lla	s2,.LANCHOR0
 1236      13090900 
 1237 0718 03350905 		ld	a0,80(s2)
 1238 071c 97000000 		call	_ZN11Semaphore_k6signalEv@plt
 1238      E7800000 
 1239              	.LVL112:
 268:src/tcb.cpp   **** 
 1240              		.loc 1 268 5 is_stmt 1
 268:src/tcb.cpp   **** 
 1241              		.loc 1 268 20 is_stmt 0
 1242 0724 97000000 		call	_Z15thread_dispatchv@plt
 1242      E7800000 
 1243              	.LVL113:
 270:src/tcb.cpp   ****     thread_dispatch();
 1244              		.loc 1 270 5 is_stmt 1
 270:src/tcb.cpp   ****     thread_dispatch();
 1245              		.loc 1 270 18 is_stmt 0
 1246 072c 03350906 		ld	a0,96(s2)
 1247 0730 97000000 		call	_ZN11Semaphore_k6signalEv@plt
 1247      E7800000 
 1248              	.LVL114:
 271:src/tcb.cpp   ****     empty->wait();
 1249              		.loc 1 271 5 is_stmt 1
 271:src/tcb.cpp   ****     empty->wait();
GAS LISTING /tmp/ccg8jNLS.s 			page 48


 1250              		.loc 1 271 20 is_stmt 0
 1251 0738 97000000 		call	_Z15thread_dispatchv@plt
 1251      E7800000 
 1252              	.LVL115:
 272:src/tcb.cpp   ****     printString("Muskarac koristi WC\n");
 1253              		.loc 1 272 5 is_stmt 1
 272:src/tcb.cpp   ****     printString("Muskarac koristi WC\n");
 1254              		.loc 1 272 16 is_stmt 0
 1255 0740 03350904 		ld	a0,64(s2)
 1256 0744 97000000 		call	_ZN11Semaphore_k4waitEv@plt
 1256      E7800000 
 1257              	.LVL116:
 273:src/tcb.cpp   ****     printString("ID: ");
 1258              		.loc 1 273 5 is_stmt 1
 273:src/tcb.cpp   ****     printString("ID: ");
 1259              		.loc 1 273 16 is_stmt 0
 1260 074c 17050000 		lla	a0,.LC6
 1260      13050500 
 1261 0754 97000000 		call	_Z11printStringPKc@plt
 1261      E7800000 
 1262              	.LVL117:
 274:src/tcb.cpp   ****     printInt(id);
 1263              		.loc 1 274 5 is_stmt 1
 274:src/tcb.cpp   ****     printInt(id);
 1264              		.loc 1 274 16 is_stmt 0
 1265 075c 17050000 		lla	a0,.LC4
 1265      13050500 
 1266 0764 97000000 		call	_Z11printStringPKc@plt
 1266      E7800000 
 1267              	.LVL118:
 275:src/tcb.cpp   ****     printString("\n");
 1268              		.loc 1 275 5 is_stmt 1
 275:src/tcb.cpp   ****     printString("\n");
 1269              		.loc 1 275 13 is_stmt 0
 1270 076c 13060000 		li	a2,0
 1271 0770 9305A000 		li	a1,10
 1272 0774 13850400 		mv	a0,s1
 1273 0778 97000000 		call	_Z8printIntiii@plt
 1273      E7800000 
 1274              	.LVL119:
 276:src/tcb.cpp   ****     empty->signal();
 1275              		.loc 1 276 5 is_stmt 1
 276:src/tcb.cpp   ****     empty->signal();
 1276              		.loc 1 276 16 is_stmt 0
 1277 0780 17050000 		lla	a0,.LC1
 1277      13050500 
 1278 0788 97000000 		call	_Z11printStringPKc@plt
 1278      E7800000 
 1279              	.LVL120:
 277:src/tcb.cpp   ****     thread_dispatch();
 1280              		.loc 1 277 5 is_stmt 1
 277:src/tcb.cpp   ****     thread_dispatch();
 1281              		.loc 1 277 18 is_stmt 0
 1282 0790 03350904 		ld	a0,64(s2)
 1283 0794 97000000 		call	_ZN11Semaphore_k6signalEv@plt
 1283      E7800000 
 1284              	.LVL121:
GAS LISTING /tmp/ccg8jNLS.s 			page 49


 278:src/tcb.cpp   ****     mutexMen->wait();
 1285              		.loc 1 278 5 is_stmt 1
 278:src/tcb.cpp   ****     mutexMen->wait();
 1286              		.loc 1 278 20 is_stmt 0
 1287 079c 97000000 		call	_Z15thread_dispatchv@plt
 1287      E7800000 
 1288              	.LVL122:
 279:src/tcb.cpp   ****     printString("Muskarac izasao iz WC\n");
 1289              		.loc 1 279 5 is_stmt 1
 279:src/tcb.cpp   ****     printString("Muskarac izasao iz WC\n");
 1290              		.loc 1 279 19 is_stmt 0
 1291 07a4 03350905 		ld	a0,80(s2)
 1292 07a8 97000000 		call	_ZN11Semaphore_k4waitEv@plt
 1292      E7800000 
 1293              	.LVL123:
 280:src/tcb.cpp   ****     printString("ID: ");
 1294              		.loc 1 280 5 is_stmt 1
 280:src/tcb.cpp   ****     printString("ID: ");
 1295              		.loc 1 280 16 is_stmt 0
 1296 07b0 17050000 		lla	a0,.LC7
 1296      13050500 
 1297 07b8 97000000 		call	_Z11printStringPKc@plt
 1297      E7800000 
 1298              	.LVL124:
 281:src/tcb.cpp   ****     printInt(id);
 1299              		.loc 1 281 5 is_stmt 1
 281:src/tcb.cpp   ****     printInt(id);
 1300              		.loc 1 281 16 is_stmt 0
 1301 07c0 17050000 		lla	a0,.LC4
 1301      13050500 
 1302 07c8 97000000 		call	_Z11printStringPKc@plt
 1302      E7800000 
 1303              	.LVL125:
 282:src/tcb.cpp   ****     printString("\n");
 1304              		.loc 1 282 5 is_stmt 1
 282:src/tcb.cpp   ****     printString("\n");
 1305              		.loc 1 282 13 is_stmt 0
 1306 07d0 13060000 		li	a2,0
 1307 07d4 9305A000 		li	a1,10
 1308 07d8 13850400 		mv	a0,s1
 1309 07dc 97000000 		call	_Z8printIntiii@plt
 1309      E7800000 
 1310              	.LVL126:
 283:src/tcb.cpp   ****     numOfMan--;
 1311              		.loc 1 283 5 is_stmt 1
 283:src/tcb.cpp   ****     numOfMan--;
 1312              		.loc 1 283 16 is_stmt 0
 1313 07e4 17050000 		lla	a0,.LC1
 1313      13050500 
 1314 07ec 97000000 		call	_Z11printStringPKc@plt
 1314      E7800000 
 1315              	.LVL127:
 284:src/tcb.cpp   ****     if(numOfMan ==0){
 1316              		.loc 1 284 5 is_stmt 1
 284:src/tcb.cpp   ****     if(numOfMan ==0){
 1317              		.loc 1 284 13 is_stmt 0
 1318 07f4 8327C906 		lw	a5,108(s2)
GAS LISTING /tmp/ccg8jNLS.s 			page 50


 1319 07f8 9B87F7FF 		addiw	a5,a5,-1
 1320 07fc 1B870700 		sext.w	a4,a5
 1321 0800 2326F906 		sw	a5,108(s2)
 285:src/tcb.cpp   ****         toilet->signal();
 1322              		.loc 1 285 5 is_stmt 1
 1323 0804 6302070A 		beqz	a4,.L68
 1324              	.L64:
 289:src/tcb.cpp   ****     thread_dispatch();
 1325              		.loc 1 289 5
 289:src/tcb.cpp   ****     thread_dispatch();
 1326              		.loc 1 289 21 is_stmt 0
 1327 0808 17050000 		ld	a0,.LANCHOR0+80
 1327      03350500 
 1328 0810 97000000 		call	_ZN11Semaphore_k6signalEv@plt
 1328      E7800000 
 1329              	.LVL128:
 290:src/tcb.cpp   **** 
 1330              		.loc 1 290 5 is_stmt 1
 290:src/tcb.cpp   **** 
 1331              		.loc 1 290 20 is_stmt 0
 1332 0818 97000000 		call	_Z15thread_dispatchv@plt
 1332      E7800000 
 1333              	.LVL129:
 293:src/tcb.cpp   **** 
 1334              		.loc 1 293 1
 1335 0820 83308101 		ld	ra,24(sp)
 1336              		.cfi_remember_state
 1337              		.cfi_restore 1
 1338 0824 03340101 		ld	s0,16(sp)
 1339              		.cfi_restore 8
 1340              		.cfi_def_cfa 2, 32
 1341 0828 83348100 		ld	s1,8(sp)
 1342              		.cfi_restore 9
 1343 082c 03390100 		ld	s2,0(sp)
 1344              		.cfi_restore 18
 1345 0830 13010102 		addi	sp,sp,32
 1346              		.cfi_def_cfa_offset 0
 1347 0834 67800000 		jr	ra
 1348              	.LVL130:
 1349              	.L66:
 1350              		.cfi_restore_state
 249:src/tcb.cpp   ****         firstSet=true;
 1351              		.loc 1 249 9 is_stmt 1
 249:src/tcb.cpp   ****         firstSet=true;
 1352              		.loc 1 249 26 is_stmt 0
 1353 0838 97000000 		call	_ZN3TCB17setUnisexBatrroomEv
 1353      E7800000 
 1354              	.LVL131:
 250:src/tcb.cpp   ****     }
 1355              		.loc 1 250 9 is_stmt 1
 250:src/tcb.cpp   ****     }
 1356              		.loc 1 250 17 is_stmt 0
 1357 0840 93071000 		li	a5,1
 1358 0844 17070000 		sb	a5,.LANCHOR0+104,a4
 1358      2300F700 
 1359 084c 6FF05FE4 		j	.L62
 1360              	.L67:
GAS LISTING /tmp/ccg8jNLS.s 			page 51


 261:src/tcb.cpp   ****         printString("Usao jedan muskarac, zene ne mogu sad ulaziti\n");
 1361              		.loc 1 261 9 is_stmt 1
 261:src/tcb.cpp   ****         printString("Usao jedan muskarac, zene ne mogu sad ulaziti\n");
 1362              		.loc 1 261 21 is_stmt 0
 1363 0850 17050000 		ld	a0,.LANCHOR0+72
 1363      03350500 
 1364 0858 97000000 		call	_ZN11Semaphore_k4waitEv@plt
 1364      E7800000 
 1365              	.LVL132:
 262:src/tcb.cpp   ****         printString("ID: ");
 1366              		.loc 1 262 9 is_stmt 1
 262:src/tcb.cpp   ****         printString("ID: ");
 1367              		.loc 1 262 20 is_stmt 0
 1368 0860 17050000 		lla	a0,.LC5
 1368      13050500 
 1369 0868 97000000 		call	_Z11printStringPKc@plt
 1369      E7800000 
 1370              	.LVL133:
 263:src/tcb.cpp   ****         printInt(id);
 1371              		.loc 1 263 9 is_stmt 1
 263:src/tcb.cpp   ****         printInt(id);
 1372              		.loc 1 263 20 is_stmt 0
 1373 0870 17050000 		lla	a0,.LC4
 1373      13050500 
 1374 0878 97000000 		call	_Z11printStringPKc@plt
 1374      E7800000 
 1375              	.LVL134:
 264:src/tcb.cpp   ****         printString("\n");
 1376              		.loc 1 264 9 is_stmt 1
 264:src/tcb.cpp   ****         printString("\n");
 1377              		.loc 1 264 17 is_stmt 0
 1378 0880 13060000 		li	a2,0
 1379 0884 9305A000 		li	a1,10
 1380 0888 13850400 		mv	a0,s1
 1381 088c 97000000 		call	_Z8printIntiii@plt
 1381      E7800000 
 1382              	.LVL135:
 265:src/tcb.cpp   ****     }
 1383              		.loc 1 265 9 is_stmt 1
 265:src/tcb.cpp   ****     }
 1384              		.loc 1 265 20 is_stmt 0
 1385 0894 17050000 		lla	a0,.LC1
 1385      13050500 
 1386 089c 97000000 		call	_Z11printStringPKc@plt
 1386      E7800000 
 1387              	.LVL136:
 1388 08a4 6FF0DFE6 		j	.L63
 1389              	.L68:
 286:src/tcb.cpp   ****         thread_dispatch();
 1390              		.loc 1 286 9 is_stmt 1
 286:src/tcb.cpp   ****         thread_dispatch();
 1391              		.loc 1 286 23 is_stmt 0
 1392 08a8 17050000 		ld	a0,.LANCHOR0+72
 1392      03350500 
 1393 08b0 97000000 		call	_ZN11Semaphore_k6signalEv@plt
 1393      E7800000 
 1394              	.LVL137:
GAS LISTING /tmp/ccg8jNLS.s 			page 52


 287:src/tcb.cpp   ****     }
 1395              		.loc 1 287 9 is_stmt 1
 287:src/tcb.cpp   ****     }
 1396              		.loc 1 287 24 is_stmt 0
 1397 08b8 97000000 		call	_Z15thread_dispatchv@plt
 1397      E7800000 
 1398              	.LVL138:
 1399 08c0 6FF09FF4 		j	.L64
 1400              		.cfi_endproc
 1401              	.LFE67:
 1403              		.section	.rodata.str1.8
 1404 00c7 00       		.align	3
 1405              	.LC8:
 1406 00c8 55736C61 		.string	"Usla nova zena,al ne koristi jos,  "
 1406      206E6F76 
 1406      61207A65 
 1406      6E612C61 
 1406      6C206E65 
 1407 00ec 00000000 		.align	3
 1408              	.LC9:
 1409 00f0 55736C61 		.string	"Usla jedna zena, muskarci ne mogu sad ulaziti\n"
 1409      206A6564 
 1409      6E61207A 
 1409      656E612C 
 1409      206D7573 
 1410 011f 00       		.align	3
 1411              	.LC10:
 1412 0120 5A656E61 		.string	"Zena koristi WC\n"
 1412      206B6F72 
 1412      69737469 
 1412      2057430A 
 1412      00
 1413 0131 00000000 		.align	3
 1413      000000
 1414              	.LC11:
 1415 0138 5A656E61 		.string	"Zena izasla iz WC\n"
 1415      20697A61 
 1415      736C6120 
 1415      697A2057 
 1415      430A00
 1416              		.text
 1417              		.align	2
 1418              		.globl	_ZN3TCB5womanEj
 1420              	_ZN3TCB5womanEj:
 1421              	.LFB68:
 297:src/tcb.cpp   ****     if(!firstSet){
 1422              		.loc 1 297 34 is_stmt 1
 1423              		.cfi_startproc
 1424              	.LVL139:
 1425 08c4 130101FE 		addi	sp,sp,-32
 1426              		.cfi_def_cfa_offset 32
 1427 08c8 233C1100 		sd	ra,24(sp)
 1428 08cc 23388100 		sd	s0,16(sp)
 1429 08d0 23349100 		sd	s1,8(sp)
 1430 08d4 23302101 		sd	s2,0(sp)
 1431              		.cfi_offset 1, -8
 1432              		.cfi_offset 8, -16
GAS LISTING /tmp/ccg8jNLS.s 			page 53


 1433              		.cfi_offset 9, -24
 1434              		.cfi_offset 18, -32
 1435 08d8 13040102 		addi	s0,sp,32
 1436              		.cfi_def_cfa 8, 0
 1437 08dc 93040500 		mv	s1,a0
 298:src/tcb.cpp   ****         setUnisexBatrroom();
 1438              		.loc 1 298 5
 298:src/tcb.cpp   ****         setUnisexBatrroom();
 1439              		.loc 1 298 8 is_stmt 0
 1440 08e0 97070000 		lbu	a5,.LANCHOR0+104
 1440      83C70700 
 298:src/tcb.cpp   ****         setUnisexBatrroom();
 1441              		.loc 1 298 5
 1442 08e8 6386071A 		beqz	a5,.L74
 1443              	.LVL140:
 1444              	.L70:
 302:src/tcb.cpp   ****     mutexWomen->wait();
 1445              		.loc 1 302 5 is_stmt 1
 302:src/tcb.cpp   ****     mutexWomen->wait();
 1446              		.loc 1 302 16 is_stmt 0
 1447 08ec 17090000 		lla	s2,.LANCHOR0
 1447      13090900 
 1448 08f4 03350906 		ld	a0,96(s2)
 1449 08f8 97000000 		call	_ZN11Semaphore_k4waitEv@plt
 1449      E7800000 
 1450              	.LVL141:
 303:src/tcb.cpp   ****     printString("Usla nova zena,al ne koristi jos,  ");
 1451              		.loc 1 303 5 is_stmt 1
 303:src/tcb.cpp   ****     printString("Usla nova zena,al ne koristi jos,  ");
 1452              		.loc 1 303 21 is_stmt 0
 1453 0900 03358905 		ld	a0,88(s2)
 1454 0904 97000000 		call	_ZN11Semaphore_k4waitEv@plt
 1454      E7800000 
 1455              	.LVL142:
 304:src/tcb.cpp   ****     printString("ID: ");
 1456              		.loc 1 304 5 is_stmt 1
 304:src/tcb.cpp   ****     printString("ID: ");
 1457              		.loc 1 304 16 is_stmt 0
 1458 090c 17050000 		lla	a0,.LC8
 1458      13050500 
 1459 0914 97000000 		call	_Z11printStringPKc@plt
 1459      E7800000 
 1460              	.LVL143:
 305:src/tcb.cpp   ****     printInt(id);
 1461              		.loc 1 305 5 is_stmt 1
 305:src/tcb.cpp   ****     printInt(id);
 1462              		.loc 1 305 16 is_stmt 0
 1463 091c 17050000 		lla	a0,.LC4
 1463      13050500 
 1464 0924 97000000 		call	_Z11printStringPKc@plt
 1464      E7800000 
 1465              	.LVL144:
 306:src/tcb.cpp   ****     printString("\n");
 1466              		.loc 1 306 5 is_stmt 1
 306:src/tcb.cpp   ****     printString("\n");
 1467              		.loc 1 306 13 is_stmt 0
 1468 092c 9B840400 		sext.w	s1,s1
GAS LISTING /tmp/ccg8jNLS.s 			page 54


 1469 0930 13060000 		li	a2,0
 1470 0934 9305A000 		li	a1,10
 1471 0938 13850400 		mv	a0,s1
 1472 093c 97000000 		call	_Z8printIntiii@plt
 1472      E7800000 
 1473              	.LVL145:
 307:src/tcb.cpp   ****     numOfWoman++;
 1474              		.loc 1 307 5 is_stmt 1
 307:src/tcb.cpp   ****     numOfWoman++;
 1475              		.loc 1 307 16 is_stmt 0
 1476 0944 17050000 		lla	a0,.LC1
 1476      13050500 
 1477 094c 97000000 		call	_Z11printStringPKc@plt
 1477      E7800000 
 1478              	.LVL146:
 308:src/tcb.cpp   ****     if(numOfWoman==1){
 1479              		.loc 1 308 5 is_stmt 1
 308:src/tcb.cpp   ****     if(numOfWoman==1){
 1480              		.loc 1 308 15 is_stmt 0
 1481 0954 83270907 		lw	a5,112(s2)
 1482 0958 9B871700 		addiw	a5,a5,1
 1483 095c 1B870700 		sext.w	a4,a5
 1484 0960 2328F906 		sw	a5,112(s2)
 309:src/tcb.cpp   ****         toilet->wait();
 1485              		.loc 1 309 5 is_stmt 1
 1486 0964 93071000 		li	a5,1
 1487 0968 6302F714 		beq	a4,a5,.L75
 1488              	.L71:
 316:src/tcb.cpp   ****     thread_dispatch();
 1489              		.loc 1 316 5
 316:src/tcb.cpp   ****     thread_dispatch();
 1490              		.loc 1 316 23 is_stmt 0
 1491 096c 17090000 		lla	s2,.LANCHOR0
 1491      13090900 
 1492 0974 03358905 		ld	a0,88(s2)
 1493 0978 97000000 		call	_ZN11Semaphore_k6signalEv@plt
 1493      E7800000 
 1494              	.LVL147:
 317:src/tcb.cpp   **** 
 1495              		.loc 1 317 5 is_stmt 1
 317:src/tcb.cpp   **** 
 1496              		.loc 1 317 20 is_stmt 0
 1497 0980 97000000 		call	_Z15thread_dispatchv@plt
 1497      E7800000 
 1498              	.LVL148:
 319:src/tcb.cpp   ****     thread_dispatch();
 1499              		.loc 1 319 5 is_stmt 1
 319:src/tcb.cpp   ****     thread_dispatch();
 1500              		.loc 1 319 18 is_stmt 0
 1501 0988 03350906 		ld	a0,96(s2)
 1502 098c 97000000 		call	_ZN11Semaphore_k6signalEv@plt
 1502      E7800000 
 1503              	.LVL149:
 320:src/tcb.cpp   ****     empty->wait();
 1504              		.loc 1 320 5 is_stmt 1
 320:src/tcb.cpp   ****     empty->wait();
 1505              		.loc 1 320 20 is_stmt 0
GAS LISTING /tmp/ccg8jNLS.s 			page 55


 1506 0994 97000000 		call	_Z15thread_dispatchv@plt
 1506      E7800000 
 1507              	.LVL150:
 321:src/tcb.cpp   ****     printString("Zena koristi WC\n");
 1508              		.loc 1 321 5 is_stmt 1
 321:src/tcb.cpp   ****     printString("Zena koristi WC\n");
 1509              		.loc 1 321 16 is_stmt 0
 1510 099c 03350904 		ld	a0,64(s2)
 1511 09a0 97000000 		call	_ZN11Semaphore_k4waitEv@plt
 1511      E7800000 
 1512              	.LVL151:
 322:src/tcb.cpp   ****     printString("ID: ");
 1513              		.loc 1 322 5 is_stmt 1
 322:src/tcb.cpp   ****     printString("ID: ");
 1514              		.loc 1 322 16 is_stmt 0
 1515 09a8 17050000 		lla	a0,.LC10
 1515      13050500 
 1516 09b0 97000000 		call	_Z11printStringPKc@plt
 1516      E7800000 
 1517              	.LVL152:
 323:src/tcb.cpp   ****     printInt(id);
 1518              		.loc 1 323 5 is_stmt 1
 323:src/tcb.cpp   ****     printInt(id);
 1519              		.loc 1 323 16 is_stmt 0
 1520 09b8 17050000 		lla	a0,.LC4
 1520      13050500 
 1521 09c0 97000000 		call	_Z11printStringPKc@plt
 1521      E7800000 
 1522              	.LVL153:
 324:src/tcb.cpp   ****     printString("\n");
 1523              		.loc 1 324 5 is_stmt 1
 324:src/tcb.cpp   ****     printString("\n");
 1524              		.loc 1 324 13 is_stmt 0
 1525 09c8 13060000 		li	a2,0
 1526 09cc 9305A000 		li	a1,10
 1527 09d0 13850400 		mv	a0,s1
 1528 09d4 97000000 		call	_Z8printIntiii@plt
 1528      E7800000 
 1529              	.LVL154:
 325:src/tcb.cpp   ****     empty->signal();
 1530              		.loc 1 325 5 is_stmt 1
 325:src/tcb.cpp   ****     empty->signal();
 1531              		.loc 1 325 16 is_stmt 0
 1532 09dc 17050000 		lla	a0,.LC1
 1532      13050500 
 1533 09e4 97000000 		call	_Z11printStringPKc@plt
 1533      E7800000 
 1534              	.LVL155:
 326:src/tcb.cpp   ****     thread_dispatch();
 1535              		.loc 1 326 5 is_stmt 1
 326:src/tcb.cpp   ****     thread_dispatch();
 1536              		.loc 1 326 18 is_stmt 0
 1537 09ec 03350904 		ld	a0,64(s2)
 1538 09f0 97000000 		call	_ZN11Semaphore_k6signalEv@plt
 1538      E7800000 
 1539              	.LVL156:
 327:src/tcb.cpp   ****     mutexWomen->wait();
GAS LISTING /tmp/ccg8jNLS.s 			page 56


 1540              		.loc 1 327 5 is_stmt 1
 327:src/tcb.cpp   ****     mutexWomen->wait();
 1541              		.loc 1 327 20 is_stmt 0
 1542 09f8 97000000 		call	_Z15thread_dispatchv@plt
 1542      E7800000 
 1543              	.LVL157:
 328:src/tcb.cpp   ****     printString("Zena izasla iz WC\n");
 1544              		.loc 1 328 5 is_stmt 1
 328:src/tcb.cpp   ****     printString("Zena izasla iz WC\n");
 1545              		.loc 1 328 21 is_stmt 0
 1546 0a00 03358905 		ld	a0,88(s2)
 1547 0a04 97000000 		call	_ZN11Semaphore_k4waitEv@plt
 1547      E7800000 
 1548              	.LVL158:
 329:src/tcb.cpp   ****     printString("ID: ");
 1549              		.loc 1 329 5 is_stmt 1
 329:src/tcb.cpp   ****     printString("ID: ");
 1550              		.loc 1 329 16 is_stmt 0
 1551 0a0c 17050000 		lla	a0,.LC11
 1551      13050500 
 1552 0a14 97000000 		call	_Z11printStringPKc@plt
 1552      E7800000 
 1553              	.LVL159:
 330:src/tcb.cpp   ****     printInt(id);
 1554              		.loc 1 330 5 is_stmt 1
 330:src/tcb.cpp   ****     printInt(id);
 1555              		.loc 1 330 16 is_stmt 0
 1556 0a1c 17050000 		lla	a0,.LC4
 1556      13050500 
 1557 0a24 97000000 		call	_Z11printStringPKc@plt
 1557      E7800000 
 1558              	.LVL160:
 331:src/tcb.cpp   ****     printString("\n");
 1559              		.loc 1 331 5 is_stmt 1
 331:src/tcb.cpp   ****     printString("\n");
 1560              		.loc 1 331 13 is_stmt 0
 1561 0a2c 13060000 		li	a2,0
 1562 0a30 9305A000 		li	a1,10
 1563 0a34 13850400 		mv	a0,s1
 1564 0a38 97000000 		call	_Z8printIntiii@plt
 1564      E7800000 
 1565              	.LVL161:
 332:src/tcb.cpp   ****     numOfWoman--;
 1566              		.loc 1 332 5 is_stmt 1
 332:src/tcb.cpp   ****     numOfWoman--;
 1567              		.loc 1 332 16 is_stmt 0
 1568 0a40 17050000 		lla	a0,.LC1
 1568      13050500 
 1569 0a48 97000000 		call	_Z11printStringPKc@plt
 1569      E7800000 
 1570              	.LVL162:
 333:src/tcb.cpp   ****     if(numOfWoman ==0){
 1571              		.loc 1 333 5 is_stmt 1
 333:src/tcb.cpp   ****     if(numOfWoman ==0){
 1572              		.loc 1 333 15 is_stmt 0
 1573 0a50 83270907 		lw	a5,112(s2)
 1574 0a54 9B87F7FF 		addiw	a5,a5,-1
GAS LISTING /tmp/ccg8jNLS.s 			page 57


 1575 0a58 1B870700 		sext.w	a4,a5
 1576 0a5c 2328F906 		sw	a5,112(s2)
 334:src/tcb.cpp   ****         toilet->signal();
 1577              		.loc 1 334 5 is_stmt 1
 1578 0a60 6302070A 		beqz	a4,.L76
 1579              	.L72:
 338:src/tcb.cpp   ****     thread_dispatch();
 1580              		.loc 1 338 5
 338:src/tcb.cpp   ****     thread_dispatch();
 1581              		.loc 1 338 23 is_stmt 0
 1582 0a64 17050000 		ld	a0,.LANCHOR0+88
 1582      03350500 
 1583 0a6c 97000000 		call	_ZN11Semaphore_k6signalEv@plt
 1583      E7800000 
 1584              	.LVL163:
 339:src/tcb.cpp   **** 
 1585              		.loc 1 339 5 is_stmt 1
 339:src/tcb.cpp   **** 
 1586              		.loc 1 339 20 is_stmt 0
 1587 0a74 97000000 		call	_Z15thread_dispatchv@plt
 1587      E7800000 
 1588              	.LVL164:
 342:src/tcb.cpp   **** 
 1589              		.loc 1 342 1
 1590 0a7c 83308101 		ld	ra,24(sp)
 1591              		.cfi_remember_state
 1592              		.cfi_restore 1
 1593 0a80 03340101 		ld	s0,16(sp)
 1594              		.cfi_restore 8
 1595              		.cfi_def_cfa 2, 32
 1596 0a84 83348100 		ld	s1,8(sp)
 1597              		.cfi_restore 9
 1598 0a88 03390100 		ld	s2,0(sp)
 1599              		.cfi_restore 18
 1600 0a8c 13010102 		addi	sp,sp,32
 1601              		.cfi_def_cfa_offset 0
 1602 0a90 67800000 		jr	ra
 1603              	.LVL165:
 1604              	.L74:
 1605              		.cfi_restore_state
 299:src/tcb.cpp   ****         firstSet=true;
 1606              		.loc 1 299 9 is_stmt 1
 299:src/tcb.cpp   ****         firstSet=true;
 1607              		.loc 1 299 26 is_stmt 0
 1608 0a94 97000000 		call	_ZN3TCB17setUnisexBatrroomEv
 1608      E7800000 
 1609              	.LVL166:
 300:src/tcb.cpp   ****     }
 1610              		.loc 1 300 9 is_stmt 1
 300:src/tcb.cpp   ****     }
 1611              		.loc 1 300 17 is_stmt 0
 1612 0a9c 93071000 		li	a5,1
 1613 0aa0 17070000 		sb	a5,.LANCHOR0+104,a4
 1613      2300F700 
 1614 0aa8 6FF05FE4 		j	.L70
 1615              	.L75:
 310:src/tcb.cpp   ****         printString("Usla jedna zena, muskarci ne mogu sad ulaziti\n");
GAS LISTING /tmp/ccg8jNLS.s 			page 58


 1616              		.loc 1 310 9 is_stmt 1
 310:src/tcb.cpp   ****         printString("Usla jedna zena, muskarci ne mogu sad ulaziti\n");
 1617              		.loc 1 310 21 is_stmt 0
 1618 0aac 17050000 		ld	a0,.LANCHOR0+72
 1618      03350500 
 1619 0ab4 97000000 		call	_ZN11Semaphore_k4waitEv@plt
 1619      E7800000 
 1620              	.LVL167:
 311:src/tcb.cpp   ****         printString("ID: ");
 1621              		.loc 1 311 9 is_stmt 1
 311:src/tcb.cpp   ****         printString("ID: ");
 1622              		.loc 1 311 20 is_stmt 0
 1623 0abc 17050000 		lla	a0,.LC9
 1623      13050500 
 1624 0ac4 97000000 		call	_Z11printStringPKc@plt
 1624      E7800000 
 1625              	.LVL168:
 312:src/tcb.cpp   ****         printInt(id);
 1626              		.loc 1 312 9 is_stmt 1
 312:src/tcb.cpp   ****         printInt(id);
 1627              		.loc 1 312 20 is_stmt 0
 1628 0acc 17050000 		lla	a0,.LC4
 1628      13050500 
 1629 0ad4 97000000 		call	_Z11printStringPKc@plt
 1629      E7800000 
 1630              	.LVL169:
 313:src/tcb.cpp   ****         printString("\n");
 1631              		.loc 1 313 9 is_stmt 1
 313:src/tcb.cpp   ****         printString("\n");
 1632              		.loc 1 313 17 is_stmt 0
 1633 0adc 13060000 		li	a2,0
 1634 0ae0 9305A000 		li	a1,10
 1635 0ae4 13850400 		mv	a0,s1
 1636 0ae8 97000000 		call	_Z8printIntiii@plt
 1636      E7800000 
 1637              	.LVL170:
 314:src/tcb.cpp   ****     }
 1638              		.loc 1 314 9 is_stmt 1
 314:src/tcb.cpp   ****     }
 1639              		.loc 1 314 20 is_stmt 0
 1640 0af0 17050000 		lla	a0,.LC1
 1640      13050500 
 1641 0af8 97000000 		call	_Z11printStringPKc@plt
 1641      E7800000 
 1642              	.LVL171:
 1643 0b00 6FF0DFE6 		j	.L71
 1644              	.L76:
 335:src/tcb.cpp   ****         thread_dispatch();
 1645              		.loc 1 335 9 is_stmt 1
 335:src/tcb.cpp   ****         thread_dispatch();
 1646              		.loc 1 335 23 is_stmt 0
 1647 0b04 17050000 		ld	a0,.LANCHOR0+72
 1647      03350500 
 1648 0b0c 97000000 		call	_ZN11Semaphore_k6signalEv@plt
 1648      E7800000 
 1649              	.LVL172:
 336:src/tcb.cpp   ****     }
GAS LISTING /tmp/ccg8jNLS.s 			page 59


 1650              		.loc 1 336 9 is_stmt 1
 336:src/tcb.cpp   ****     }
 1651              		.loc 1 336 24 is_stmt 0
 1652 0b14 97000000 		call	_Z15thread_dispatchv@plt
 1652      E7800000 
 1653              	.LVL173:
 1654 0b1c 6FF09FF4 		j	.L72
 1655              		.cfi_endproc
 1656              	.LFE68:
 1658              		.align	2
 1659              		.globl	_ZN3TCB7barrierEv
 1661              	_ZN3TCB7barrierEv:
 1662              	.LFB69:
 344:src/tcb.cpp   ****     if(!fsBarrier){
 1663              		.loc 1 344 21 is_stmt 1
 1664              		.cfi_startproc
 1665 0b20 130101FE 		addi	sp,sp,-32
 1666              		.cfi_def_cfa_offset 32
 1667 0b24 233C1100 		sd	ra,24(sp)
 1668 0b28 23388100 		sd	s0,16(sp)
 1669 0b2c 23349100 		sd	s1,8(sp)
 1670 0b30 23302101 		sd	s2,0(sp)
 1671              		.cfi_offset 1, -8
 1672              		.cfi_offset 8, -16
 1673              		.cfi_offset 9, -24
 1674              		.cfi_offset 18, -32
 1675 0b34 13040102 		addi	s0,sp,32
 1676              		.cfi_def_cfa 8, 0
 345:src/tcb.cpp   ****         fsBarrier = true;
 1677              		.loc 1 345 5
 345:src/tcb.cpp   ****         fsBarrier = true;
 1678              		.loc 1 345 8 is_stmt 0
 1679 0b38 97070000 		lbu	a5,.LANCHOR0+44
 1679      83C70700 
 345:src/tcb.cpp   ****         fsBarrier = true;
 1680              		.loc 1 345 5
 1681 0b40 63900702 		bnez	a5,.L78
 346:src/tcb.cpp   ****         numOFthreads++;
 1682              		.loc 1 346 9 is_stmt 1
 346:src/tcb.cpp   ****         numOFthreads++;
 1683              		.loc 1 346 19 is_stmt 0
 1684 0b44 97070000 		lla	a5,.LANCHOR0
 1684      93870700 
 1685 0b4c 13071000 		li	a4,1
 1686 0b50 2386E702 		sb	a4,44(a5)
 347:src/tcb.cpp   ****     }
 1687              		.loc 1 347 9 is_stmt 1
 347:src/tcb.cpp   ****     }
 1688              		.loc 1 347 21 is_stmt 0
 1689 0b54 03A70703 		lw	a4,48(a5)
 1690 0b58 1B071700 		addiw	a4,a4,1
 1691 0b5c 23A8E702 		sw	a4,48(a5)
 1692              	.L78:
 349:src/tcb.cpp   **** 
 1693              		.loc 1 349 5 is_stmt 1
 349:src/tcb.cpp   **** 
 1694              		.loc 1 349 13 is_stmt 0
GAS LISTING /tmp/ccg8jNLS.s 			page 60


 1695 0b60 17070000 		lla	a4,.LANCHOR0
 1695      13070700 
 1696 0b68 83274707 		lw	a5,116(a4)
 1697 0b6c 9B871700 		addiw	a5,a5,1
 1698 0b70 9B860700 		sext.w	a3,a5
 1699 0b74 232AF706 		sw	a5,116(a4)
 351:src/tcb.cpp   ****         numCalls=0;
 1700              		.loc 1 351 5 is_stmt 1
 1701              	.LBB362:
 351:src/tcb.cpp   ****         numCalls=0;
 1702              		.loc 1 351 16 is_stmt 0
 1703 0b78 83270703 		lw	a5,48(a4)
 351:src/tcb.cpp   ****         numCalls=0;
 1704              		.loc 1 351 5
 1705 0b7c 6390F606 		bne	a3,a5,.L79
 1706              	.LBB363:
 352:src/tcb.cpp   ****         numOFthreads=0;
 1707              		.loc 1 352 9 is_stmt 1
 352:src/tcb.cpp   ****         numOFthreads=0;
 1708              		.loc 1 352 17 is_stmt 0
 1709 0b80 232A0706 		sw	zero,116(a4)
 353:src/tcb.cpp   ****         fsBarrier=false;
 1710              		.loc 1 353 9 is_stmt 1
 353:src/tcb.cpp   ****         fsBarrier=false;
 1711              		.loc 1 353 21 is_stmt 0
 1712 0b84 23280702 		sw	zero,48(a4)
 354:src/tcb.cpp   ****         while(ListBarier.peekFirst()){
 1713              		.loc 1 354 9 is_stmt 1
 354:src/tcb.cpp   ****         while(ListBarier.peekFirst()){
 1714              		.loc 1 354 18 is_stmt 0
 1715 0b88 23060702 		sb	zero,44(a4)
 1716 0b8c 6F008002 		j	.L82
 1717              	.LVL174:
 1718              	.L85:
 1719              	.LBB364:
 1720              	.LBB365:
 1721              	.LBB366:
  58:src/../h/List.hpp **** 
 1722              		.loc 2 58 22
 1723 0b90 97070000 		sd	zero,.LANCHOR0+8,a5
 1723      23B00700 
 1724              	.L81:
  60:src/../h/List.hpp ****         delete elem;
 1725              		.loc 2 60 12
 1726 0b98 83340500 		ld	s1,0(a0)
 1727              	.LVL175:
  61:src/../h/List.hpp ****         return ret;
 1728              		.loc 2 61 9
 1729 0b9c 97000000 		call	_ZdlPv@plt
 1729      E7800000 
 1730              	.LVL176:
 1731              	.LBE366:
 1732              	.LBE365:
 357:src/tcb.cpp   ****             Scheduler::put(t);
 1733              		.loc 1 357 13 is_stmt 1
 1734              	.LBB368:
 1735              	.LBB369:
GAS LISTING /tmp/ccg8jNLS.s 			page 61


  53:src/../h/tcb.hpp **** 
 1736              		.loc 4 53 35
  53:src/../h/tcb.hpp **** 
 1737              		.loc 4 53 49 is_stmt 0
 1738 0ba4 A3800402 		sb	zero,33(s1)
 1739              	.LVL177:
 1740              	.LBE369:
 1741              	.LBE368:
 358:src/tcb.cpp   **** 
 1742              		.loc 1 358 13 is_stmt 1
 358:src/tcb.cpp   **** 
 1743              		.loc 1 358 27 is_stmt 0
 1744 0ba8 13850400 		mv	a0,s1
 1745 0bac 97000000 		call	_ZN9Scheduler3putEP3TCB@plt
 1745      E7800000 
 1746              	.LVL178:
 1747              	.L82:
 1748              	.LBE364:
 355:src/tcb.cpp   ****             TCB* t =ListBarier.removeFirst();
 1749              		.loc 1 355 9 is_stmt 1
 355:src/tcb.cpp   ****             TCB* t =ListBarier.removeFirst();
 1750              		.loc 1 355 36
 1751              	.LBB371:
 1752              	.LBB372:
  67:src/../h/List.hpp ****         return head->data;
 1753              		.loc 2 67 14 is_stmt 0
 1754 0bb4 17050000 		ld	a0,.LANCHOR0
 1754      03350500 
  67:src/../h/List.hpp ****         return head->data;
 1755              		.loc 2 67 9
 1756 0bbc 630E0504 		beqz	a0,.L77
 1757              		.loc 2 68 22
 1758 0bc0 83370500 		ld	a5,0(a0)
 1759              	.LVL179:
 1760              	.LBE372:
 1761              	.LBE371:
 355:src/tcb.cpp   ****             TCB* t =ListBarier.removeFirst();
 1762              		.loc 1 355 36
 1763 0bc4 638A0704 		beqz	a5,.L77
 1764              	.LBB373:
 356:src/tcb.cpp   ****             t->setBlocked(false);
 1765              		.loc 1 356 13 is_stmt 1
 1766              	.LVL180:
 1767              	.LBB370:
 1768              	.LBB367:
  57:src/../h/List.hpp ****         if (!head) { tail = 0; }
 1769              		.loc 2 57 22 is_stmt 0
 1770 0bc8 83378500 		ld	a5,8(a0)
  57:src/../h/List.hpp ****         if (!head) { tail = 0; }
 1771              		.loc 2 57 9
 1772 0bcc 17070000 		sd	a5,.LANCHOR0,a4
 1772      2330F700 
  58:src/../h/List.hpp **** 
 1773              		.loc 2 58 9
 1774 0bd4 E39207FC 		bnez	a5,.L81
 1775 0bd8 6FF09FFB 		j	.L85
 1776              	.LVL181:
GAS LISTING /tmp/ccg8jNLS.s 			page 62


 1777              	.L79:
 1778              	.LBE367:
 1779              	.LBE370:
 1780              	.LBE373:
 1781              	.LBE363:
 363:src/tcb.cpp   ****         ListBarier.addLast(running);
 1782              		.loc 1 363 9 is_stmt 1
 363:src/tcb.cpp   ****         ListBarier.addLast(running);
 1783              		.loc 1 363 28 is_stmt 0
 1784 0bdc 97040000 		lla	s1,.LANCHOR0
 1784      93840400 
 1785 0be4 03B90401 		ld	s2,16(s1)
 1786              	.LVL182:
 1787              	.LBB374:
 1788              	.LBB375:
  53:src/../h/tcb.hpp **** 
 1789              		.loc 4 53 35 is_stmt 1
  53:src/../h/tcb.hpp **** 
 1790              		.loc 4 53 49 is_stmt 0
 1791 0be8 93071000 		li	a5,1
 1792 0bec A300F902 		sb	a5,33(s2)
 1793              	.LVL183:
 1794              	.LBE375:
 1795              	.LBE374:
 364:src/tcb.cpp   **** 
 1796              		.loc 1 364 9 is_stmt 1
 1797              	.LBB376:
 1798              	.LBB377:
  41:src/../h/List.hpp ****         if (tail)
 1799              		.loc 2 41 22 is_stmt 0
 1800 0bf0 13050001 		li	a0,16
 1801 0bf4 97000000 		call	_Znwm@plt
 1801      E7800000 
 1802              	.LVL184:
 1803              	.LBB378:
 1804              	.LBB379:
  19:src/../h/List.hpp **** 
 1805              		.loc 2 19 58
 1806 0bfc 23302501 		sd	s2,0(a0)
 1807 0c00 23340500 		sd	zero,8(a0)
 1808              	.LVL185:
 1809              	.LBE379:
 1810              	.LBE378:
  42:src/../h/List.hpp ****         {
 1811              		.loc 2 42 13
 1812 0c04 83B78400 		ld	a5,8(s1)
  42:src/../h/List.hpp ****         {
 1813              		.loc 2 42 9
 1814 0c08 63840702 		beqz	a5,.L83
  44:src/../h/List.hpp ****             tail = elem;
 1815              		.loc 2 44 13
 1816 0c0c 23B4A700 		sd	a0,8(a5)
  45:src/../h/List.hpp ****         } else
 1817              		.loc 2 45 13
 1818 0c10 97070000 		sd	a0,.LANCHOR0+8,a5
 1818      23B0A700 
 1819              	.LVL186:
GAS LISTING /tmp/ccg8jNLS.s 			page 63


 1820              	.L77:
 1821              	.LBE377:
 1822              	.LBE376:
 1823              	.LBE362:
 368:src/tcb.cpp   **** 
 1824              		.loc 1 368 1
 1825 0c18 83308101 		ld	ra,24(sp)
 1826              		.cfi_remember_state
 1827              		.cfi_restore 1
 1828 0c1c 03340101 		ld	s0,16(sp)
 1829              		.cfi_restore 8
 1830              		.cfi_def_cfa 2, 32
 1831 0c20 83348100 		ld	s1,8(sp)
 1832              		.cfi_restore 9
 1833 0c24 03390100 		ld	s2,0(sp)
 1834              		.cfi_restore 18
 1835 0c28 13010102 		addi	sp,sp,32
 1836              		.cfi_def_cfa_offset 0
 1837 0c2c 67800000 		jr	ra
 1838              	.LVL187:
 1839              	.L83:
 1840              		.cfi_restore_state
 1841              	.LBB382:
 1842              	.LBB381:
 1843              	.LBB380:
  48:src/../h/List.hpp ****         }
 1844              		.loc 2 48 13
 1845 0c30 97070000 		lla	a5,.LANCHOR0
 1845      93870700 
 1846 0c38 23B4A700 		sd	a0,8(a5)
 1847 0c3c 23B0A700 		sd	a0,0(a5)
 1848              	.LVL188:
 1849              	.LBE380:
 1850              	.LBE381:
 1851              	.LBE382:
 368:src/tcb.cpp   **** 
 1852              		.loc 1 368 1
 1853 0c40 6FF09FFD 		j	.L77
 1854              		.cfi_endproc
 1855              	.LFE69:
 1857              		.align	2
 1858              		.globl	_ZN3TCB6setSemEv
 1860              	_ZN3TCB6setSemEv:
 1861              	.LFB72:
 393:src/tcb.cpp   ****     if(!fsSemaphores){
 1862              		.loc 1 393 20 is_stmt 1
 1863              		.cfi_startproc
 1864              	.LVL189:
 394:src/tcb.cpp   ****         fsSemaphores=true;
 1865              		.loc 1 394 5
 394:src/tcb.cpp   ****         fsSemaphores=true;
 1866              		.loc 1 394 9 is_stmt 0
 1867 0c44 83478505 		lbu	a5,88(a0)
 394:src/tcb.cpp   ****         fsSemaphores=true;
 1868              		.loc 1 394 5
 1869 0c48 63840700 		beqz	a5,.L92
 1870 0c4c 67800000 		ret
GAS LISTING /tmp/ccg8jNLS.s 			page 64


 1871              	.L92:
 393:src/tcb.cpp   ****     if(!fsSemaphores){
 1872              		.loc 1 393 20
 1873 0c50 130101FE 		addi	sp,sp,-32
 1874              		.cfi_def_cfa_offset 32
 1875 0c54 233C1100 		sd	ra,24(sp)
 1876 0c58 23388100 		sd	s0,16(sp)
 1877 0c5c 23349100 		sd	s1,8(sp)
 1878              		.cfi_offset 1, -8
 1879              		.cfi_offset 8, -16
 1880              		.cfi_offset 9, -24
 1881 0c60 13040102 		addi	s0,sp,32
 1882              		.cfi_def_cfa 8, 0
 1883 0c64 93040500 		mv	s1,a0
 395:src/tcb.cpp   ****         msgA=new Semaphore_k(0);
 1884              		.loc 1 395 9 is_stmt 1
 395:src/tcb.cpp   ****         msgA=new Semaphore_k(0);
 1885              		.loc 1 395 21 is_stmt 0
 1886 0c68 93071000 		li	a5,1
 1887 0c6c 230CF504 		sb	a5,88(a0)
 396:src/tcb.cpp   ****         msgE=new Semaphore_k(1);
 1888              		.loc 1 396 9 is_stmt 1
 1889              	.LVL190:
 1890              	.LBB383:
 1891              	.LBB384:
  26:src/../h/Semaphore_k.hpp ****     }
 1892              		.loc 5 26 9
  26:src/../h/Semaphore_k.hpp ****     }
 1893              		.loc 5 26 42 is_stmt 0
 1894 0c70 13058001 		li	a0,24
 1895              	.LVL191:
 1896 0c74 97000000 		call	_ZN15memoryAllocator9mem_allocEm@plt
 1896      E7800000 
 1897              	.LVL192:
 1898              	.LBE384:
 1899              	.LBE383:
 1900              	.LBB385:
 1901              	.LBB386:
 1902              		.loc 5 39 60
 1903 0c7c 23000500 		sb	zero,0(a0)
 1904 0c80 23220500 		sw	zero,4(a0)
 1905              	.LVL193:
 1906              	.LBB387:
 1907              	.LBB388:
  26:src/../h/List.hpp **** 
 1908              		.loc 2 26 30
 1909 0c84 23340500 		sd	zero,8(a0)
 1910 0c88 23380500 		sd	zero,16(a0)
 1911              	.LVL194:
 1912              	.LBE388:
 1913              	.LBE387:
 1914              	.LBE386:
 1915              	.LBE385:
 396:src/tcb.cpp   ****         msgE=new Semaphore_k(1);
 1916              		.loc 1 396 13
 1917 0c8c 23B8A404 		sd	a0,80(s1)
 397:src/tcb.cpp   ****     }
GAS LISTING /tmp/ccg8jNLS.s 			page 65


 1918              		.loc 1 397 9 is_stmt 1
 1919              	.LVL195:
 1920              	.LBB389:
 1921              	.LBB390:
  26:src/../h/Semaphore_k.hpp ****     }
 1922              		.loc 5 26 9
  26:src/../h/Semaphore_k.hpp ****     }
 1923              		.loc 5 26 42 is_stmt 0
 1924 0c90 13058001 		li	a0,24
 1925 0c94 97000000 		call	_ZN15memoryAllocator9mem_allocEm@plt
 1925      E7800000 
 1926              	.LVL196:
 1927              	.LBE390:
 1928              	.LBE389:
 1929              	.LBB391:
 1930              	.LBB392:
 1931              		.loc 5 39 60
 1932 0c9c 23000500 		sb	zero,0(a0)
 1933 0ca0 93071000 		li	a5,1
 1934 0ca4 2322F500 		sw	a5,4(a0)
 1935              	.LVL197:
 1936              	.LBB393:
 1937              	.LBB394:
  26:src/../h/List.hpp **** 
 1938              		.loc 2 26 30
 1939 0ca8 23340500 		sd	zero,8(a0)
 1940 0cac 23380500 		sd	zero,16(a0)
 1941              	.LVL198:
 1942              	.LBE394:
 1943              	.LBE393:
 1944              	.LBE392:
 1945              	.LBE391:
 397:src/tcb.cpp   ****     }
 1946              		.loc 1 397 13
 1947 0cb0 23B4A404 		sd	a0,72(s1)
 400:src/tcb.cpp   **** 
 1948              		.loc 1 400 1
 1949 0cb4 83308101 		ld	ra,24(sp)
 1950              		.cfi_restore 1
 1951 0cb8 03340101 		ld	s0,16(sp)
 1952              		.cfi_restore 8
 1953              		.cfi_def_cfa 2, 32
 1954 0cbc 83348100 		ld	s1,8(sp)
 1955              		.cfi_restore 9
 1956              	.LVL199:
 1957 0cc0 13010102 		addi	sp,sp,32
 1958              		.cfi_def_cfa_offset 0
 1959 0cc4 67800000 		jr	ra
 1960              		.cfi_endproc
 1961              	.LFE72:
 1963              		.section	.rodata.str1.8
 1964 014b 00000000 		.align	3
 1964      00
 1965              	.LC12:
 1966 0150 52656365 		.string	"Receive cekam...\n"
 1966      69766520 
 1966      63656B61 
GAS LISTING /tmp/ccg8jNLS.s 			page 66


 1966      6D2E2E2E 
 1966      0A00
 1967 0162 00000000 		.align	3
 1967      0000
 1968              	.LC13:
 1969 0168 506F7275 		.string	"Poruka primljena uspesno\n"
 1969      6B612070 
 1969      72696D6C 
 1969      6A656E61 
 1969      20757370 
 1970              		.text
 1971              		.align	2
 1972              		.globl	_ZN3TCB7receiveEv
 1974              	_ZN3TCB7receiveEv:
 1975              	.LFB70:
 373:src/tcb.cpp   ****     running->setSem();
 1976              		.loc 1 373 28 is_stmt 1
 1977              		.cfi_startproc
 1978 0cc8 130101FE 		addi	sp,sp,-32
 1979              		.cfi_def_cfa_offset 32
 1980 0ccc 233C1100 		sd	ra,24(sp)
 1981 0cd0 23388100 		sd	s0,16(sp)
 1982 0cd4 23349100 		sd	s1,8(sp)
 1983              		.cfi_offset 1, -8
 1984              		.cfi_offset 8, -16
 1985              		.cfi_offset 9, -24
 1986 0cd8 13040102 		addi	s0,sp,32
 1987              		.cfi_def_cfa 8, 0
 374:src/tcb.cpp   ****     printString("Receive cekam...\n");
 1988              		.loc 1 374 5
 374:src/tcb.cpp   ****     printString("Receive cekam...\n");
 1989              		.loc 1 374 20 is_stmt 0
 1990 0cdc 97040000 		lla	s1,.LANCHOR0
 1990      93840400 
 1991 0ce4 03B50401 		ld	a0,16(s1)
 1992 0ce8 97000000 		call	_ZN3TCB6setSemEv
 1992      E7800000 
 1993              	.LVL200:
 375:src/tcb.cpp   ****     running->msgA->wait();
 1994              		.loc 1 375 5 is_stmt 1
 375:src/tcb.cpp   ****     running->msgA->wait();
 1995              		.loc 1 375 16 is_stmt 0
 1996 0cf0 17050000 		lla	a0,.LC12
 1996      13050500 
 1997 0cf8 97000000 		call	_Z11printStringPKc@plt
 1997      E7800000 
 1998              	.LVL201:
 376:src/tcb.cpp   ****     printString("Poruka primljena uspesno\n");
 1999              		.loc 1 376 5 is_stmt 1
 376:src/tcb.cpp   ****     printString("Poruka primljena uspesno\n");
 2000              		.loc 1 376 24 is_stmt 0
 2001 0d00 83B70401 		ld	a5,16(s1)
 2002 0d04 03B50705 		ld	a0,80(a5)
 2003 0d08 97000000 		call	_ZN11Semaphore_k4waitEv@plt
 2003      E7800000 
 2004              	.LVL202:
 377:src/tcb.cpp   ****     char const* msg = running->message;
GAS LISTING /tmp/ccg8jNLS.s 			page 67


 2005              		.loc 1 377 5 is_stmt 1
 377:src/tcb.cpp   ****     char const* msg = running->message;
 2006              		.loc 1 377 16 is_stmt 0
 2007 0d10 17050000 		lla	a0,.LC13
 2007      13050500 
 2008 0d18 97000000 		call	_Z11printStringPKc@plt
 2008      E7800000 
 2009              	.LVL203:
 378:src/tcb.cpp   ****     running->msgE->signal();
 2010              		.loc 1 378 5 is_stmt 1
 378:src/tcb.cpp   ****     running->msgE->signal();
 2011              		.loc 1 378 32 is_stmt 0
 2012 0d20 83B70401 		ld	a5,16(s1)
 378:src/tcb.cpp   ****     running->msgE->signal();
 2013              		.loc 1 378 17
 2014 0d24 83B40706 		ld	s1,96(a5)
 2015              	.LVL204:
 379:src/tcb.cpp   ****     return msg;
 2016              		.loc 1 379 5 is_stmt 1
 379:src/tcb.cpp   ****     return msg;
 2017              		.loc 1 379 26 is_stmt 0
 2018 0d28 03B58704 		ld	a0,72(a5)
 2019 0d2c 97000000 		call	_ZN11Semaphore_k6signalEv@plt
 2019      E7800000 
 2020              	.LVL205:
 380:src/tcb.cpp   **** 
 2021              		.loc 1 380 5 is_stmt 1
 382:src/tcb.cpp   **** void TCB::send(const char *msg) {
 2022              		.loc 1 382 1 is_stmt 0
 2023 0d34 13850400 		mv	a0,s1
 2024 0d38 83308101 		ld	ra,24(sp)
 2025              		.cfi_restore 1
 2026 0d3c 03340101 		ld	s0,16(sp)
 2027              		.cfi_restore 8
 2028              		.cfi_def_cfa 2, 32
 2029 0d40 83348100 		ld	s1,8(sp)
 2030              		.cfi_restore 9
 2031              	.LVL206:
 2032 0d44 13010102 		addi	sp,sp,32
 2033              		.cfi_def_cfa_offset 0
 2034 0d48 67800000 		jr	ra
 2035              		.cfi_endproc
 2036              	.LFE70:
 2038              		.section	.rodata.str1.8
 2039 0182 00000000 		.align	3
 2039      0000
 2040              	.LC14:
 2041 0188 53656E64 		.string	"Send cekam...\n"
 2041      2063656B 
 2041      616D2E2E 
 2041      2E0A00
 2042 0197 00       		.align	3
 2043              	.LC15:
 2044 0198 506F7275 		.string	"Poruka poslata uspesno...\n"
 2044      6B612070 
 2044      6F736C61 
 2044      74612075 
GAS LISTING /tmp/ccg8jNLS.s 			page 68


 2044      73706573 
 2045              		.text
 2046              		.align	2
 2047              		.globl	_ZN3TCB4sendEPKc
 2049              	_ZN3TCB4sendEPKc:
 2050              	.LFB71:
 383:src/tcb.cpp   ****     setSem();
 2051              		.loc 1 383 33 is_stmt 1
 2052              		.cfi_startproc
 2053              	.LVL207:
 2054 0d4c 130101FE 		addi	sp,sp,-32
 2055              		.cfi_def_cfa_offset 32
 2056 0d50 233C1100 		sd	ra,24(sp)
 2057 0d54 23388100 		sd	s0,16(sp)
 2058 0d58 23349100 		sd	s1,8(sp)
 2059 0d5c 23302101 		sd	s2,0(sp)
 2060              		.cfi_offset 1, -8
 2061              		.cfi_offset 8, -16
 2062              		.cfi_offset 9, -24
 2063              		.cfi_offset 18, -32
 2064 0d60 13040102 		addi	s0,sp,32
 2065              		.cfi_def_cfa 8, 0
 2066 0d64 93040500 		mv	s1,a0
 2067 0d68 13890500 		mv	s2,a1
 384:src/tcb.cpp   ****     printString("Send cekam...\n");
 2068              		.loc 1 384 5
 384:src/tcb.cpp   ****     printString("Send cekam...\n");
 2069              		.loc 1 384 11 is_stmt 0
 2070 0d6c 97000000 		call	_ZN3TCB6setSemEv
 2070      E7800000 
 2071              	.LVL208:
 385:src/tcb.cpp   ****     msgE->wait();
 2072              		.loc 1 385 5 is_stmt 1
 385:src/tcb.cpp   ****     msgE->wait();
 2073              		.loc 1 385 16 is_stmt 0
 2074 0d74 17050000 		lla	a0,.LC14
 2074      13050500 
 2075 0d7c 97000000 		call	_Z11printStringPKc@plt
 2075      E7800000 
 2076              	.LVL209:
 386:src/tcb.cpp   ****     printString("Poruka poslata uspesno...\n");
 2077              		.loc 1 386 5 is_stmt 1
 386:src/tcb.cpp   ****     printString("Poruka poslata uspesno...\n");
 2078              		.loc 1 386 15 is_stmt 0
 2079 0d84 03B58404 		ld	a0,72(s1)
 2080 0d88 97000000 		call	_ZN11Semaphore_k4waitEv@plt
 2080      E7800000 
 2081              	.LVL210:
 387:src/tcb.cpp   ****     message = msg;
 2082              		.loc 1 387 5 is_stmt 1
 387:src/tcb.cpp   ****     message = msg;
 2083              		.loc 1 387 16 is_stmt 0
 2084 0d90 17050000 		lla	a0,.LC15
 2084      13050500 
 2085 0d98 97000000 		call	_Z11printStringPKc@plt
 2085      E7800000 
 2086              	.LVL211:
GAS LISTING /tmp/ccg8jNLS.s 			page 69


 388:src/tcb.cpp   ****     msgA->signal();
 2087              		.loc 1 388 5 is_stmt 1
 388:src/tcb.cpp   ****     msgA->signal();
 2088              		.loc 1 388 13 is_stmt 0
 2089 0da0 23B02407 		sd	s2,96(s1)
 389:src/tcb.cpp   **** 
 2090              		.loc 1 389 5 is_stmt 1
 389:src/tcb.cpp   **** 
 2091              		.loc 1 389 17 is_stmt 0
 2092 0da4 03B50405 		ld	a0,80(s1)
 2093 0da8 97000000 		call	_ZN11Semaphore_k6signalEv@plt
 2093      E7800000 
 2094              	.LVL212:
 391:src/tcb.cpp   **** 
 2095              		.loc 1 391 1
 2096 0db0 83308101 		ld	ra,24(sp)
 2097              		.cfi_restore 1
 2098 0db4 03340101 		ld	s0,16(sp)
 2099              		.cfi_restore 8
 2100              		.cfi_def_cfa 2, 32
 2101 0db8 83348100 		ld	s1,8(sp)
 2102              		.cfi_restore 9
 2103              	.LVL213:
 2104 0dbc 03390100 		ld	s2,0(sp)
 2105              		.cfi_restore 18
 2106              	.LVL214:
 2107 0dc0 13010102 		addi	sp,sp,32
 2108              		.cfi_def_cfa_offset 0
 2109 0dc4 67800000 		jr	ra
 2110              		.cfi_endproc
 2111              	.LFE71:
 2113              		.align	2
 2114              		.globl	_ZN3TCB7joinAllEv
 2116              	_ZN3TCB7joinAllEv:
 2117              	.LFB73:
 402:src/tcb.cpp   **** 
 2118              		.loc 1 402 21 is_stmt 1
 2119              		.cfi_startproc
 2120              	.LVL215:
 2121 0dc8 130101FE 		addi	sp,sp,-32
 2122              		.cfi_def_cfa_offset 32
 2123 0dcc 233C1100 		sd	ra,24(sp)
 2124 0dd0 23388100 		sd	s0,16(sp)
 2125 0dd4 23349100 		sd	s1,8(sp)
 2126 0dd8 23302101 		sd	s2,0(sp)
 2127              		.cfi_offset 1, -8
 2128              		.cfi_offset 8, -16
 2129              		.cfi_offset 9, -24
 2130              		.cfi_offset 18, -32
 2131 0ddc 13040102 		addi	s0,sp,32
 2132              		.cfi_def_cfa 8, 0
 2133 0de0 13090500 		mv	s2,a0
 404:src/tcb.cpp   ****         joinALL=true;
 2134              		.loc 1 404 5
 404:src/tcb.cpp   ****         joinALL=true;
 2135              		.loc 1 404 9 is_stmt 0
 2136 0de4 83471507 		lbu	a5,113(a0)
GAS LISTING /tmp/ccg8jNLS.s 			page 70


 404:src/tcb.cpp   ****         joinALL=true;
 2137              		.loc 1 404 5
 2138 0de8 63820702 		beqz	a5,.L102
 2139              	.LVL216:
 2140              	.L98:
 402:src/tcb.cpp   **** 
 2141              		.loc 1 402 21 discriminator 3
 2142 0dec 93040000 		li	s1,0
 2143              	.L100:
 2144              	.LVL217:
 2145              	.LBB395:
 409:src/tcb.cpp   ****         joinAllsem->wait();
 2146              		.loc 1 409 18 is_stmt 1 discriminator 3
 409:src/tcb.cpp   ****         joinAllsem->wait();
 2147              		.loc 1 409 19 is_stmt 0 discriminator 3
 2148 0df0 83274907 		lw	a5,116(s2)
 409:src/tcb.cpp   ****         joinAllsem->wait();
 2149              		.loc 1 409 18 discriminator 3
 2150 0df4 63D4F404 		ble	a5,s1,.L99
 410:src/tcb.cpp   ****     }
 2151              		.loc 1 410 9 is_stmt 1 discriminator 2
 410:src/tcb.cpp   ****     }
 2152              		.loc 1 410 25 is_stmt 0 discriminator 2
 2153 0df8 03358907 		ld	a0,120(s2)
 2154 0dfc 97000000 		call	_ZN11Semaphore_k4waitEv@plt
 2154      E7800000 
 2155              	.LVL218:
 409:src/tcb.cpp   ****         joinAllsem->wait();
 2156              		.loc 1 409 5 is_stmt 1 discriminator 2
 2157 0e04 9B841400 		addiw	s1,s1,1
 2158              	.LVL219:
 2159 0e08 6FF09FFE 		j	.L100
 2160              	.LVL220:
 2161              	.L102:
 2162              	.LBE395:
 405:src/tcb.cpp   ****         joinAllsem= new Semaphore_k(0);
 2163              		.loc 1 405 9
 405:src/tcb.cpp   ****         joinAllsem= new Semaphore_k(0);
 2164              		.loc 1 405 16 is_stmt 0
 2165 0e0c 93041000 		li	s1,1
 2166 0e10 A3089506 		sb	s1,113(a0)
 406:src/tcb.cpp   ****         waitingForChildren=true;
 2167              		.loc 1 406 9 is_stmt 1
 2168              	.LVL221:
 2169              	.LBB396:
 2170              	.LBB397:
  26:src/../h/Semaphore_k.hpp ****     }
 2171              		.loc 5 26 9
  26:src/../h/Semaphore_k.hpp ****     }
 2172              		.loc 5 26 42 is_stmt 0
 2173 0e14 13058001 		li	a0,24
 2174              	.LVL222:
 2175 0e18 97000000 		call	_ZN15memoryAllocator9mem_allocEm@plt
 2175      E7800000 
 2176              	.LVL223:
 2177              	.LBE397:
 2178              	.LBE396:
GAS LISTING /tmp/ccg8jNLS.s 			page 71


 2179              	.LBB398:
 2180              	.LBB399:
 2181              		.loc 5 39 60
 2182 0e20 23000500 		sb	zero,0(a0)
 2183 0e24 23220500 		sw	zero,4(a0)
 2184              	.LVL224:
 2185              	.LBB400:
 2186              	.LBB401:
  26:src/../h/List.hpp **** 
 2187              		.loc 2 26 30
 2188 0e28 23340500 		sd	zero,8(a0)
 2189 0e2c 23380500 		sd	zero,16(a0)
 2190              	.LVL225:
 2191              	.LBE401:
 2192              	.LBE400:
 2193              	.LBE399:
 2194              	.LBE398:
 406:src/tcb.cpp   ****         waitingForChildren=true;
 2195              		.loc 1 406 19
 2196 0e30 233CA906 		sd	a0,120(s2)
 407:src/tcb.cpp   ****     }
 2197              		.loc 1 407 9 is_stmt 1
 407:src/tcb.cpp   ****     }
 2198              		.loc 1 407 27 is_stmt 0
 2199 0e34 23089906 		sb	s1,112(s2)
 2200 0e38 6FF05FFB 		j	.L98
 2201              	.LVL226:
 2202              	.L99:
 412:src/tcb.cpp   ****     numberOfChildren=0;
 2203              		.loc 1 412 5 is_stmt 1
 412:src/tcb.cpp   ****     numberOfChildren=0;
 2204              		.loc 1 412 12 is_stmt 0
 2205 0e3c A3080906 		sb	zero,113(s2)
 413:src/tcb.cpp   **** }
 2206              		.loc 1 413 5 is_stmt 1
 413:src/tcb.cpp   **** }
 2207              		.loc 1 413 21 is_stmt 0
 2208 0e40 232A0906 		sw	zero,116(s2)
 414:src/tcb.cpp   **** 
 2209              		.loc 1 414 1
 2210 0e44 83308101 		ld	ra,24(sp)
 2211              		.cfi_restore 1
 2212 0e48 03340101 		ld	s0,16(sp)
 2213              		.cfi_restore 8
 2214              		.cfi_def_cfa 2, 32
 2215 0e4c 83348100 		ld	s1,8(sp)
 2216              		.cfi_restore 9
 2217              	.LVL227:
 2218 0e50 03390100 		ld	s2,0(sp)
 2219              		.cfi_restore 18
 2220              	.LVL228:
 2221 0e54 13010102 		addi	sp,sp,32
 2222              		.cfi_def_cfa_offset 0
 2223 0e58 67800000 		jr	ra
 2224              		.cfi_endproc
 2225              	.LFE73:
 2227              		.align	2
GAS LISTING /tmp/ccg8jNLS.s 			page 72


 2228              		.globl	_ZN3TCB13setMaxThreadsEj
 2230              	_ZN3TCB13setMaxThreadsEj:
 2231              	.LFB74:
 416:src/tcb.cpp   ****     if(!setMaxTh){
 2232              		.loc 1 416 43 is_stmt 1
 2233              		.cfi_startproc
 2234              	.LVL229:
 417:src/tcb.cpp   ****         setMaxTh=true;
 2235              		.loc 1 417 5
 417:src/tcb.cpp   ****         setMaxTh=true;
 2236              		.loc 1 417 8 is_stmt 0
 2237 0e5c 97070000 		lbu	a5,.LANCHOR0+24
 2237      83C70700 
 417:src/tcb.cpp   ****         setMaxTh=true;
 2238              		.loc 1 417 5
 2239 0e64 63840700 		beqz	a5,.L109
 2240 0e68 67800000 		ret
 2241              	.L109:
 416:src/tcb.cpp   ****     if(!setMaxTh){
 2242              		.loc 1 416 43
 2243 0e6c 130101FE 		addi	sp,sp,-32
 2244              		.cfi_def_cfa_offset 32
 2245 0e70 233C1100 		sd	ra,24(sp)
 2246 0e74 23388100 		sd	s0,16(sp)
 2247 0e78 23349100 		sd	s1,8(sp)
 2248 0e7c 23302101 		sd	s2,0(sp)
 2249              		.cfi_offset 1, -8
 2250              		.cfi_offset 8, -16
 2251              		.cfi_offset 9, -24
 2252              		.cfi_offset 18, -32
 2253 0e80 13040102 		addi	s0,sp,32
 2254              		.cfi_def_cfa 8, 0
 418:src/tcb.cpp   ****         currThr = num;
 2255              		.loc 1 418 9 is_stmt 1
 418:src/tcb.cpp   ****         currThr = num;
 2256              		.loc 1 418 17 is_stmt 0
 2257 0e84 17090000 		lla	s2,.LANCHOR0
 2257      13090900 
 2258 0e8c 93071000 		li	a5,1
 2259 0e90 230CF900 		sb	a5,24(s2)
 419:src/tcb.cpp   ****         semMaxThreads = new Semaphore_k(num);
 2260              		.loc 1 419 9 is_stmt 1
 419:src/tcb.cpp   ****         semMaxThreads = new Semaphore_k(num);
 2261              		.loc 1 419 19 is_stmt 0
 2262 0e94 9B040500 		sext.w	s1,a0
 419:src/tcb.cpp   ****         semMaxThreads = new Semaphore_k(num);
 2263              		.loc 1 419 17
 2264 0e98 232E9900 		sw	s1,28(s2)
 420:src/tcb.cpp   ****     }
 2265              		.loc 1 420 9 is_stmt 1
 2266              	.LVL230:
 2267              	.LBB402:
 2268              	.LBB403:
  26:src/../h/Semaphore_k.hpp ****     }
 2269              		.loc 5 26 9
  26:src/../h/Semaphore_k.hpp ****     }
 2270              		.loc 5 26 42 is_stmt 0
GAS LISTING /tmp/ccg8jNLS.s 			page 73


 2271 0e9c 13058001 		li	a0,24
 2272              	.LVL231:
 2273 0ea0 97000000 		call	_ZN15memoryAllocator9mem_allocEm@plt
 2273      E7800000 
 2274              	.LVL232:
 2275              	.LBE403:
 2276              	.LBE402:
 2277              	.LBB404:
 2278              	.LBB405:
 2279              		.loc 5 39 60
 2280 0ea8 23000500 		sb	zero,0(a0)
 2281 0eac 23229500 		sw	s1,4(a0)
 2282              	.LVL233:
 2283              	.LBB406:
 2284              	.LBB407:
  26:src/../h/List.hpp **** 
 2285              		.loc 2 26 30
 2286 0eb0 23340500 		sd	zero,8(a0)
 2287 0eb4 23380500 		sd	zero,16(a0)
 2288              	.LVL234:
 2289              	.LBE407:
 2290              	.LBE406:
 2291              	.LBE405:
 2292              	.LBE404:
 420:src/tcb.cpp   ****     }
 2293              		.loc 1 420 23
 2294 0eb8 2330A902 		sd	a0,32(s2)
 422:src/tcb.cpp   **** 
 2295              		.loc 1 422 1
 2296 0ebc 83308101 		ld	ra,24(sp)
 2297              		.cfi_restore 1
 2298 0ec0 03340101 		ld	s0,16(sp)
 2299              		.cfi_restore 8
 2300              		.cfi_def_cfa 2, 32
 2301 0ec4 83348100 		ld	s1,8(sp)
 2302              		.cfi_restore 9
 2303              	.LVL235:
 2304 0ec8 03390100 		ld	s2,0(sp)
 2305              		.cfi_restore 18
 2306 0ecc 13010102 		addi	sp,sp,32
 2307              		.cfi_def_cfa_offset 0
 2308 0ed0 67800000 		jr	ra
 2309              		.cfi_endproc
 2310              	.LFE74:
 2312              		.align	2
 2313              		.globl	_ZN3TCB12setBarrier_2Ev
 2315              	_ZN3TCB12setBarrier_2Ev:
 2316              	.LFB76:
 445:src/tcb.cpp   ****     if(!setBarrier2){
 2317              		.loc 1 445 26 is_stmt 1
 2318              		.cfi_startproc
 446:src/tcb.cpp   ****         setBarrier2=true;
 2319              		.loc 1 446 5
 446:src/tcb.cpp   ****         setBarrier2=true;
 2320              		.loc 1 446 8 is_stmt 0
 2321 0ed4 97070000 		lbu	a5,.LANCHOR0+52
 2321      83C70700 
GAS LISTING /tmp/ccg8jNLS.s 			page 74


 446:src/tcb.cpp   ****         setBarrier2=true;
 2322              		.loc 1 446 5
 2323 0edc 63840700 		beqz	a5,.L116
 2324 0ee0 67800000 		ret
 2325              	.L116:
 445:src/tcb.cpp   ****     if(!setBarrier2){
 2326              		.loc 1 445 26
 2327 0ee4 130101FE 		addi	sp,sp,-32
 2328              		.cfi_def_cfa_offset 32
 2329 0ee8 233C1100 		sd	ra,24(sp)
 2330 0eec 23388100 		sd	s0,16(sp)
 2331 0ef0 23349100 		sd	s1,8(sp)
 2332              		.cfi_offset 1, -8
 2333              		.cfi_offset 8, -16
 2334              		.cfi_offset 9, -24
 2335 0ef4 13040102 		addi	s0,sp,32
 2336              		.cfi_def_cfa 8, 0
 447:src/tcb.cpp   ****         firstDoor = new Semaphore_k(1);
 2337              		.loc 1 447 9 is_stmt 1
 447:src/tcb.cpp   ****         firstDoor = new Semaphore_k(1);
 2338              		.loc 1 447 20 is_stmt 0
 2339 0ef8 97040000 		lla	s1,.LANCHOR0
 2339      93840400 
 2340 0f00 93071000 		li	a5,1
 2341 0f04 238AF402 		sb	a5,52(s1)
 448:src/tcb.cpp   ****         secondDoor = new Semaphore_k(0);
 2342              		.loc 1 448 9 is_stmt 1
 2343              	.LVL236:
 2344              	.LBB408:
 2345              	.LBB409:
  26:src/../h/Semaphore_k.hpp ****     }
 2346              		.loc 5 26 9
  26:src/../h/Semaphore_k.hpp ****     }
 2347              		.loc 5 26 42 is_stmt 0
 2348 0f08 13058001 		li	a0,24
 2349 0f0c 97000000 		call	_ZN15memoryAllocator9mem_allocEm@plt
 2349      E7800000 
 2350              	.LVL237:
 2351              	.LBE409:
 2352              	.LBE408:
 2353              	.LBB410:
 2354              	.LBB411:
 2355              		.loc 5 39 60
 2356 0f14 23000500 		sb	zero,0(a0)
 2357 0f18 93071000 		li	a5,1
 2358 0f1c 2322F500 		sw	a5,4(a0)
 2359              	.LVL238:
 2360              	.LBB412:
 2361              	.LBB413:
  26:src/../h/List.hpp **** 
 2362              		.loc 2 26 30
 2363 0f20 23340500 		sd	zero,8(a0)
 2364 0f24 23380500 		sd	zero,16(a0)
 2365              	.LVL239:
 2366              	.LBE413:
 2367              	.LBE412:
 2368              	.LBE411:
GAS LISTING /tmp/ccg8jNLS.s 			page 75


 2369              	.LBE410:
 448:src/tcb.cpp   ****         secondDoor = new Semaphore_k(0);
 2370              		.loc 1 448 19
 2371 0f28 23BCA406 		sd	a0,120(s1)
 449:src/tcb.cpp   ****         numCalls=0;
 2372              		.loc 1 449 9 is_stmt 1
 2373              	.LVL240:
 2374              	.LBB414:
 2375              	.LBB415:
  26:src/../h/Semaphore_k.hpp ****     }
 2376              		.loc 5 26 9
  26:src/../h/Semaphore_k.hpp ****     }
 2377              		.loc 5 26 42 is_stmt 0
 2378 0f2c 13058001 		li	a0,24
 2379 0f30 97000000 		call	_ZN15memoryAllocator9mem_allocEm@plt
 2379      E7800000 
 2380              	.LVL241:
 2381              	.LBE415:
 2382              	.LBE414:
 2383              	.LBB416:
 2384              	.LBB417:
 2385              		.loc 5 39 60
 2386 0f38 23000500 		sb	zero,0(a0)
 2387 0f3c 23220500 		sw	zero,4(a0)
 2388              	.LVL242:
 2389              	.LBB418:
 2390              	.LBB419:
  26:src/../h/List.hpp **** 
 2391              		.loc 2 26 30
 2392 0f40 23340500 		sd	zero,8(a0)
 2393 0f44 23380500 		sd	zero,16(a0)
 2394              	.LVL243:
 2395              	.LBE419:
 2396              	.LBE418:
 2397              	.LBE417:
 2398              	.LBE416:
 449:src/tcb.cpp   ****         numCalls=0;
 2399              		.loc 1 449 20
 2400 0f48 23B0A408 		sd	a0,128(s1)
 450:src/tcb.cpp   ****         threadCount++;
 2401              		.loc 1 450 9 is_stmt 1
 450:src/tcb.cpp   ****         threadCount++;
 2402              		.loc 1 450 17 is_stmt 0
 2403 0f4c 23AA0406 		sw	zero,116(s1)
 451:src/tcb.cpp   ****     }
 2404              		.loc 1 451 9 is_stmt 1
 451:src/tcb.cpp   ****     }
 2405              		.loc 1 451 20 is_stmt 0
 2406 0f50 83A78403 		lw	a5,56(s1)
 2407 0f54 9B871700 		addiw	a5,a5,1
 2408 0f58 23ACF402 		sw	a5,56(s1)
 453:src/tcb.cpp   **** 
 2409              		.loc 1 453 1
 2410 0f5c 83308101 		ld	ra,24(sp)
 2411              		.cfi_restore 1
 2412 0f60 03340101 		ld	s0,16(sp)
 2413              		.cfi_restore 8
GAS LISTING /tmp/ccg8jNLS.s 			page 76


 2414              		.cfi_def_cfa 2, 32
 2415 0f64 83348100 		ld	s1,8(sp)
 2416              		.cfi_restore 9
 2417 0f68 13010102 		addi	sp,sp,32
 2418              		.cfi_def_cfa_offset 0
 2419 0f6c 67800000 		jr	ra
 2420              		.cfi_endproc
 2421              	.LFE76:
 2423              		.align	2
 2424              		.globl	_ZN3TCB9barrier_2Ev
 2426              	_ZN3TCB9barrier_2Ev:
 2427              	.LFB75:
 424:src/tcb.cpp   ****     setBarrier_2();
 2428              		.loc 1 424 23 is_stmt 1
 2429              		.cfi_startproc
 2430 0f70 130101FE 		addi	sp,sp,-32
 2431              		.cfi_def_cfa_offset 32
 2432 0f74 233C1100 		sd	ra,24(sp)
 2433 0f78 23388100 		sd	s0,16(sp)
 2434 0f7c 23349100 		sd	s1,8(sp)
 2435              		.cfi_offset 1, -8
 2436              		.cfi_offset 8, -16
 2437              		.cfi_offset 9, -24
 2438 0f80 13040102 		addi	s0,sp,32
 2439              		.cfi_def_cfa 8, 0
 425:src/tcb.cpp   **** 
 2440              		.loc 1 425 5
 425:src/tcb.cpp   **** 
 2441              		.loc 1 425 17 is_stmt 0
 2442 0f84 97000000 		call	_ZN3TCB12setBarrier_2Ev
 2442      E7800000 
 2443              	.LVL244:
 427:src/tcb.cpp   ****     calls++;
 2444              		.loc 1 427 5 is_stmt 1
 427:src/tcb.cpp   ****     calls++;
 2445              		.loc 1 427 20 is_stmt 0
 2446 0f8c 97040000 		lla	s1,.LANCHOR0
 2446      93840400 
 2447 0f94 03B58407 		ld	a0,120(s1)
 2448 0f98 97000000 		call	_ZN11Semaphore_k4waitEv@plt
 2448      E7800000 
 2449              	.LVL245:
 428:src/tcb.cpp   ****     if(calls==threadCount){
 2450              		.loc 1 428 5 is_stmt 1
 428:src/tcb.cpp   ****     if(calls==threadCount){
 2451              		.loc 1 428 10 is_stmt 0
 2452 0fa0 83A78408 		lw	a5,136(s1)
 2453 0fa4 9B871700 		addiw	a5,a5,1
 2454 0fa8 1B870700 		sext.w	a4,a5
 2455 0fac 23A4F408 		sw	a5,136(s1)
 429:src/tcb.cpp   ****         secondDoor->signal();
 2456              		.loc 1 429 5 is_stmt 1
 429:src/tcb.cpp   ****         secondDoor->signal();
 2457              		.loc 1 429 13 is_stmt 0
 2458 0fb0 83A78403 		lw	a5,56(s1)
 429:src/tcb.cpp   ****         secondDoor->signal();
 2459              		.loc 1 429 5
GAS LISTING /tmp/ccg8jNLS.s 			page 77


 2460 0fb4 6302F706 		beq	a4,a5,.L123
 432:src/tcb.cpp   ****     }
 2461              		.loc 1 432 9 is_stmt 1
 432:src/tcb.cpp   ****     }
 2462              		.loc 1 432 26 is_stmt 0
 2463 0fb8 17050000 		ld	a0,.LANCHOR0+120
 2463      03350500 
 2464 0fc0 97000000 		call	_ZN11Semaphore_k6signalEv@plt
 2464      E7800000 
 2465              	.LVL246:
 2466              	.L119:
 434:src/tcb.cpp   ****     calls--;
 2467              		.loc 1 434 5 is_stmt 1
 434:src/tcb.cpp   ****     calls--;
 2468              		.loc 1 434 21 is_stmt 0
 2469 0fc8 97040000 		lla	s1,.LANCHOR0
 2469      93840400 
 2470 0fd0 03B50408 		ld	a0,128(s1)
 2471 0fd4 97000000 		call	_ZN11Semaphore_k4waitEv@plt
 2471      E7800000 
 2472              	.LVL247:
 435:src/tcb.cpp   ****     if(calls==0){
 2473              		.loc 1 435 5 is_stmt 1
 435:src/tcb.cpp   ****     if(calls==0){
 2474              		.loc 1 435 10 is_stmt 0
 2475 0fdc 83A78408 		lw	a5,136(s1)
 2476 0fe0 9B87F7FF 		addiw	a5,a5,-1
 2477 0fe4 1B870700 		sext.w	a4,a5
 2478 0fe8 23A4F408 		sw	a5,136(s1)
 436:src/tcb.cpp   ****         threadCount=1;
 2479              		.loc 1 436 5 is_stmt 1
 2480 0fec 63100704 		bnez	a4,.L120
 437:src/tcb.cpp   ****         firstDoor->signal();
 2481              		.loc 1 437 9
 437:src/tcb.cpp   ****         firstDoor->signal();
 2482              		.loc 1 437 20 is_stmt 0
 2483 0ff0 13071000 		li	a4,1
 2484 0ff4 23ACE402 		sw	a4,56(s1)
 438:src/tcb.cpp   ****     }else{
 2485              		.loc 1 438 9 is_stmt 1
 438:src/tcb.cpp   ****     }else{
 2486              		.loc 1 438 26 is_stmt 0
 2487 0ff8 03B58407 		ld	a0,120(s1)
 2488 0ffc 97000000 		call	_ZN11Semaphore_k6signalEv@plt
 2488      E7800000 
 2489              	.LVL248:
 2490              	.L117:
 443:src/tcb.cpp   **** 
 2491              		.loc 1 443 1
 2492 1004 83308101 		ld	ra,24(sp)
 2493              		.cfi_remember_state
 2494              		.cfi_restore 1
 2495 1008 03340101 		ld	s0,16(sp)
 2496              		.cfi_restore 8
 2497              		.cfi_def_cfa 2, 32
 2498 100c 83348100 		ld	s1,8(sp)
 2499              		.cfi_restore 9
GAS LISTING /tmp/ccg8jNLS.s 			page 78


 2500 1010 13010102 		addi	sp,sp,32
 2501              		.cfi_def_cfa_offset 0
 2502 1014 67800000 		jr	ra
 2503              	.L123:
 2504              		.cfi_restore_state
 430:src/tcb.cpp   ****     }else{
 2505              		.loc 1 430 9 is_stmt 1
 430:src/tcb.cpp   ****     }else{
 2506              		.loc 1 430 27 is_stmt 0
 2507 1018 17050000 		ld	a0,.LANCHOR0+128
 2507      03350500 
 2508 1020 97000000 		call	_ZN11Semaphore_k6signalEv@plt
 2508      E7800000 
 2509              	.LVL249:
 2510 1028 6FF01FFA 		j	.L119
 2511              	.L120:
 440:src/tcb.cpp   ****     }
 2512              		.loc 1 440 9 is_stmt 1
 440:src/tcb.cpp   ****     }
 2513              		.loc 1 440 27 is_stmt 0
 2514 102c 17050000 		ld	a0,.LANCHOR0+128
 2514      03350500 
 2515 1034 97000000 		call	_ZN11Semaphore_k6signalEv@plt
 2515      E7800000 
 2516              	.LVL250:
 443:src/tcb.cpp   **** 
 2517              		.loc 1 443 1
 2518 103c 6FF09FFC 		j	.L117
 2519              		.cfi_endproc
 2520              	.LFE75:
 2522              		.align	2
 2523              		.globl	_ZN3TCB18setAtomicBroadcastEv
 2525              	_ZN3TCB18setAtomicBroadcastEv:
 2526              	.LFB79:
 517:src/tcb.cpp   ****     emptyy = new Semaphore_k(CAPACITY);
 2527              		.loc 1 517 32 is_stmt 1
 2528              		.cfi_startproc
 2529              	.LVL251:
 2530 1040 130101FE 		addi	sp,sp,-32
 2531              		.cfi_def_cfa_offset 32
 2532 1044 233C1100 		sd	ra,24(sp)
 2533 1048 23388100 		sd	s0,16(sp)
 2534 104c 23349100 		sd	s1,8(sp)
 2535              		.cfi_offset 1, -8
 2536              		.cfi_offset 8, -16
 2537              		.cfi_offset 9, -24
 2538 1050 13040102 		addi	s0,sp,32
 2539              		.cfi_def_cfa 8, 0
 518:src/tcb.cpp   ****     for(int i=0;i<M;i++){
 2540              		.loc 1 518 5
 2541              	.LVL252:
 2542              	.LBB420:
 2543              	.LBB421:
  26:src/../h/Semaphore_k.hpp ****     }
 2544              		.loc 5 26 9
  26:src/../h/Semaphore_k.hpp ****     }
 2545              		.loc 5 26 42 is_stmt 0
GAS LISTING /tmp/ccg8jNLS.s 			page 79


 2546 1054 13058001 		li	a0,24
 2547              	.LVL253:
 2548 1058 97000000 		call	_ZN15memoryAllocator9mem_allocEm@plt
 2548      E7800000 
 2549              	.LVL254:
 2550              	.LBE421:
 2551              	.LBE420:
 2552              	.LBB422:
 2553              	.LBB423:
 2554              		.loc 5 39 60
 2555 1060 23000500 		sb	zero,0(a0)
 2556 1064 9307A000 		li	a5,10
 2557 1068 2322F500 		sw	a5,4(a0)
 2558              	.LVL255:
 2559              	.LBB424:
 2560              	.LBB425:
  26:src/../h/List.hpp **** 
 2561              		.loc 2 26 30
 2562 106c 23340500 		sd	zero,8(a0)
 2563 1070 23380500 		sd	zero,16(a0)
 2564              	.LVL256:
 2565              	.LBE425:
 2566              	.LBE424:
 2567              	.LBE423:
 2568              	.LBE422:
 518:src/tcb.cpp   ****     for(int i=0;i<M;i++){
 2569              		.loc 1 518 12
 2570 1074 97070000 		sd	a0,.LANCHOR0+144,a5
 2570      23B0A700 
 519:src/tcb.cpp   ****         full[i]=new Semaphore_k(0);
 2571              		.loc 1 519 5 is_stmt 1
 2572              	.LVL257:
 2573              	.LBB426:
 519:src/tcb.cpp   ****         full[i]=new Semaphore_k(0);
 2574              		.loc 1 519 13 is_stmt 0
 2575 107c 93040000 		li	s1,0
 2576 1080 6F008003 		j	.L126
 2577              	.LVL258:
 2578              	.L130:
 520:src/tcb.cpp   **** 
 2579              		.loc 1 520 9 is_stmt 1
 2580              	.LBB427:
 2581              	.LBB428:
  26:src/../h/Semaphore_k.hpp ****     }
 2582              		.loc 5 26 9
  26:src/../h/Semaphore_k.hpp ****     }
 2583              		.loc 5 26 42 is_stmt 0
 2584 1084 13058001 		li	a0,24
 2585 1088 97000000 		call	_ZN15memoryAllocator9mem_allocEm@plt
 2585      E7800000 
 2586              	.LVL259:
 2587              	.LBE428:
 2588              	.LBE427:
 2589              	.LBB429:
 2590              	.LBB430:
 2591              		.loc 5 39 60
 2592 1090 23000500 		sb	zero,0(a0)
GAS LISTING /tmp/ccg8jNLS.s 			page 80


 2593 1094 23220500 		sw	zero,4(a0)
 2594              	.LVL260:
 2595              	.LBB431:
 2596              	.LBB432:
  26:src/../h/List.hpp **** 
 2597              		.loc 2 26 30
 2598 1098 23340500 		sd	zero,8(a0)
 2599 109c 23380500 		sd	zero,16(a0)
 2600              	.LVL261:
 2601              	.LBE432:
 2602              	.LBE431:
 2603              	.LBE430:
 2604              	.LBE429:
 520:src/tcb.cpp   **** 
 2605              		.loc 1 520 16
 2606 10a0 13973400 		slli	a4,s1,3
 2607 10a4 97070000 		lla	a5,.LANCHOR0
 2607      93870700 
 2608 10ac B387E700 		add	a5,a5,a4
 2609 10b0 23BCA708 		sd	a0,152(a5)
 519:src/tcb.cpp   ****         full[i]=new Semaphore_k(0);
 2610              		.loc 1 519 5 is_stmt 1
 2611 10b4 9B841400 		addiw	s1,s1,1
 2612              	.LVL262:
 2613              	.L126:
 519:src/tcb.cpp   ****         full[i]=new Semaphore_k(0);
 2614              		.loc 1 519 18 discriminator 2
 2615 10b8 93077000 		li	a5,7
 2616 10bc E3D497FC 		ble	s1,a5,.L130
 2617              	.LBE426:
 2618              	.LBB433:
 523:src/tcb.cpp   ****         mutexC[i]=new Semaphore_k(1);
 2619              		.loc 1 523 13 is_stmt 0
 2620 10c0 93040000 		li	s1,0
 2621              	.LVL263:
 2622              	.L125:
 523:src/tcb.cpp   ****         mutexC[i]=new Semaphore_k(1);
 2623              		.loc 1 523 18 is_stmt 1 discriminator 2
 2624 10c4 93079000 		li	a5,9
 2625 10c8 63C09704 		bgt	s1,a5,.L124
 524:src/tcb.cpp   **** 
 2626              		.loc 1 524 9
 2627              	.LVL264:
 2628              	.LBB434:
 2629              	.LBB435:
  26:src/../h/Semaphore_k.hpp ****     }
 2630              		.loc 5 26 9
  26:src/../h/Semaphore_k.hpp ****     }
 2631              		.loc 5 26 42 is_stmt 0
 2632 10cc 13058001 		li	a0,24
 2633 10d0 97000000 		call	_ZN15memoryAllocator9mem_allocEm@plt
 2633      E7800000 
 2634              	.LVL265:
 2635              	.LBE435:
 2636              	.LBE434:
 2637              	.LBB436:
 2638              	.LBB437:
GAS LISTING /tmp/ccg8jNLS.s 			page 81


 2639              		.loc 5 39 60
 2640 10d8 23000500 		sb	zero,0(a0)
 2641 10dc 93071000 		li	a5,1
 2642 10e0 2322F500 		sw	a5,4(a0)
 2643              	.LVL266:
 2644              	.LBB438:
 2645              	.LBB439:
  26:src/../h/List.hpp **** 
 2646              		.loc 2 26 30
 2647 10e4 23340500 		sd	zero,8(a0)
 2648 10e8 23380500 		sd	zero,16(a0)
 2649              	.LVL267:
 2650              	.LBE439:
 2651              	.LBE438:
 2652              	.LBE437:
 2653              	.LBE436:
 524:src/tcb.cpp   **** 
 2654              		.loc 1 524 18
 2655 10ec 13973400 		slli	a4,s1,3
 2656 10f0 97070000 		lla	a5,.LANCHOR0
 2656      93870700 
 2657 10f8 B387E700 		add	a5,a5,a4
 2658 10fc 23BCA70C 		sd	a0,216(a5)
 523:src/tcb.cpp   ****         mutexC[i]=new Semaphore_k(1);
 2659              		.loc 1 523 5 is_stmt 1
 2660 1100 9B841400 		addiw	s1,s1,1
 2661              	.LVL268:
 2662 1104 6FF01FFC 		j	.L125
 2663              	.LVL269:
 2664              	.L124:
 2665              	.LBE433:
 527:src/tcb.cpp   **** 
 2666              		.loc 1 527 1 is_stmt 0
 2667 1108 83308101 		ld	ra,24(sp)
 2668              		.cfi_restore 1
 2669 110c 03340101 		ld	s0,16(sp)
 2670              		.cfi_restore 8
 2671              		.cfi_def_cfa 2, 32
 2672 1110 83348100 		ld	s1,8(sp)
 2673              		.cfi_restore 9
 2674              	.LVL270:
 2675 1114 13010102 		addi	sp,sp,32
 2676              		.cfi_def_cfa_offset 0
 2677 1118 67800000 		jr	ra
 2678              		.cfi_endproc
 2679              	.LFE79:
 2681              		.section	.rodata.str1.8
 2682 01b3 00000000 		.align	3
 2682      00
 2683              	.LC16:
 2684 01b8 62756666 		.string	"buffer["
 2684      65725B00 
 2685              		.align	3
 2686              	.LC17:
 2687 01c0 5D202D20 		.string	"] - producer id = "
 2687      70726F64 
 2687      75636572 
GAS LISTING /tmp/ccg8jNLS.s 			page 82


 2687      20696420 
 2687      3D2000
 2688              		.text
 2689              		.align	2
 2690              		.globl	_ZN3TCB8producerEi
 2692              	_ZN3TCB8producerEi:
 2693              	.LFB77:
 460:src/tcb.cpp   ****     if(!prodConsum){
 2694              		.loc 1 460 28 is_stmt 1
 2695              		.cfi_startproc
 2696              	.LVL271:
 2697 111c 130101FD 		addi	sp,sp,-48
 2698              		.cfi_def_cfa_offset 48
 2699 1120 23341102 		sd	ra,40(sp)
 2700 1124 23308102 		sd	s0,32(sp)
 2701 1128 233C9100 		sd	s1,24(sp)
 2702 112c 23382101 		sd	s2,16(sp)
 2703 1130 23343101 		sd	s3,8(sp)
 2704              		.cfi_offset 1, -8
 2705              		.cfi_offset 8, -16
 2706              		.cfi_offset 9, -24
 2707              		.cfi_offset 18, -32
 2708              		.cfi_offset 19, -40
 2709 1134 13040103 		addi	s0,sp,48
 2710              		.cfi_def_cfa 8, 0
 2711 1138 93890500 		mv	s3,a1
 461:src/tcb.cpp   ****         setAtomicBroadcast();
 2712              		.loc 1 461 5
 461:src/tcb.cpp   ****         setAtomicBroadcast();
 2713              		.loc 1 461 8 is_stmt 0
 2714 113c 97070000 		lbu	a5,.LANCHOR0+296
 2714      83C70700 
 461:src/tcb.cpp   ****         setAtomicBroadcast();
 2715              		.loc 1 461 5
 2716 1144 63860700 		beqz	a5,.L138
 2717              	.LVL272:
 2718              	.L132:
 460:src/tcb.cpp   ****     if(!prodConsum){
 2719              		.loc 1 460 28 discriminator 1
 2720 1148 13090000 		li	s2,0
 2721 114c 6F000005 		j	.L136
 2722              	.LVL273:
 2723              	.L138:
 462:src/tcb.cpp   ****         prodConsum=true;
 2724              		.loc 1 462 9 is_stmt 1
 462:src/tcb.cpp   ****         prodConsum=true;
 2725              		.loc 1 462 27 is_stmt 0
 2726 1150 97000000 		call	_ZN3TCB18setAtomicBroadcastEv
 2726      E7800000 
 2727              	.LVL274:
 463:src/tcb.cpp   ****     }
 2728              		.loc 1 463 9 is_stmt 1
 463:src/tcb.cpp   ****     }
 2729              		.loc 1 463 19 is_stmt 0
 2730 1158 93071000 		li	a5,1
 2731 115c 17070000 		sb	a5,.LANCHOR0+296,a4
 2731      2300F700 
GAS LISTING /tmp/ccg8jNLS.s 			page 83


 2732 1164 6FF05FFE 		j	.L132
 2733              	.LVL275:
 2734              	.L139:
 2735              	.LBB440:
 2736              	.LBB441:
 2737              	.LBB442:
 477:src/tcb.cpp   ****             thread_dispatch();
 2738              		.loc 1 477 13 is_stmt 1 discriminator 2
 477:src/tcb.cpp   ****             thread_dispatch();
 2739              		.loc 1 477 19 is_stmt 0 discriminator 2
 2740 1168 13973400 		slli	a4,s1,3
 2741 116c 97070000 		lla	a5,.LANCHOR0
 2741      93870700 
 2742 1174 B387E700 		add	a5,a5,a4
 477:src/tcb.cpp   ****             thread_dispatch();
 2743              		.loc 1 477 28 discriminator 2
 2744 1178 03B58709 		ld	a0,152(a5)
 2745 117c 97000000 		call	_ZN11Semaphore_k6signalEv@plt
 2745      E7800000 
 2746              	.LVL276:
 478:src/tcb.cpp   ****         }
 2747              		.loc 1 478 13 is_stmt 1 discriminator 2
 478:src/tcb.cpp   ****         }
 2748              		.loc 1 478 28 is_stmt 0 discriminator 2
 2749 1184 97000000 		call	_Z15thread_dispatchv@plt
 2749      E7800000 
 2750              	.LVL277:
 476:src/tcb.cpp   ****             full[i]->signal();
 2751              		.loc 1 476 9 is_stmt 1 discriminator 2
 2752 118c 9B841400 		addiw	s1,s1,1
 2753              	.LVL278:
 2754              	.L135:
 476:src/tcb.cpp   ****             full[i]->signal();
 2755              		.loc 1 476 22 discriminator 3
 2756 1190 93077000 		li	a5,7
 2757 1194 E3DA97FC 		ble	s1,a5,.L139
 2758              	.LBE442:
 2759              	.LBE441:
 466:src/tcb.cpp   ****         newItem +=100;
 2760              		.loc 1 466 5 discriminator 2
 2761 1198 1B091900 		addiw	s2,s2,1
 2762              	.LVL279:
 2763              	.L136:
 466:src/tcb.cpp   ****         newItem +=100;
 2764              		.loc 1 466 18 discriminator 1
 2765 119c 93079000 		li	a5,9
 2766 11a0 63C6270B 		bgt	s2,a5,.L131
 2767              	.LBB444:
 467:src/tcb.cpp   ****         emptyy->wait();
 2768              		.loc 1 467 9
 467:src/tcb.cpp   ****         emptyy->wait();
 2769              		.loc 1 467 17 is_stmt 0
 2770 11a4 97040000 		lla	s1,.LANCHOR0
 2770      93840400 
 2771 11ac 83A7C412 		lw	a5,300(s1)
 2772 11b0 9B874706 		addiw	a5,a5,100
 2773 11b4 23A6F412 		sw	a5,300(s1)
GAS LISTING /tmp/ccg8jNLS.s 			page 84


 468:src/tcb.cpp   ****         buffer[writeIndex]=newItem;
 2774              		.loc 1 468 9 is_stmt 1
 468:src/tcb.cpp   ****         buffer[writeIndex]=newItem;
 2775              		.loc 1 468 21 is_stmt 0
 2776 11b8 03B50409 		ld	a0,144(s1)
 2777 11bc 97000000 		call	_ZN11Semaphore_k4waitEv@plt
 2777      E7800000 
 2778              	.LVL280:
 469:src/tcb.cpp   ****         printString("buffer[");
 2779              		.loc 1 469 9 is_stmt 1
 469:src/tcb.cpp   ****         printString("buffer[");
 2780              		.loc 1 469 26 is_stmt 0
 2781 11c4 83A70413 		lw	a5,304(s1)
 469:src/tcb.cpp   ****         printString("buffer[");
 2782              		.loc 1 469 27
 2783 11c8 93972700 		slli	a5,a5,2
 2784 11cc B387F400 		add	a5,s1,a5
 2785 11d0 03A7C412 		lw	a4,300(s1)
 2786 11d4 23ACE712 		sw	a4,312(a5)
 470:src/tcb.cpp   ****         printInt(writeIndex);
 2787              		.loc 1 470 9 is_stmt 1
 470:src/tcb.cpp   ****         printInt(writeIndex);
 2788              		.loc 1 470 20 is_stmt 0
 2789 11d8 17050000 		lla	a0,.LC16
 2789      13050500 
 2790 11e0 97000000 		call	_Z11printStringPKc@plt
 2790      E7800000 
 2791              	.LVL281:
 471:src/tcb.cpp   ****         printString("] - producer id = ");
 2792              		.loc 1 471 9 is_stmt 1
 471:src/tcb.cpp   ****         printString("] - producer id = ");
 2793              		.loc 1 471 17 is_stmt 0
 2794 11e8 13060000 		li	a2,0
 2795 11ec 9305A000 		li	a1,10
 2796 11f0 03A50413 		lw	a0,304(s1)
 2797 11f4 97000000 		call	_Z8printIntiii@plt
 2797      E7800000 
 2798              	.LVL282:
 472:src/tcb.cpp   ****         printInt(id);
 2799              		.loc 1 472 9 is_stmt 1
 472:src/tcb.cpp   ****         printInt(id);
 2800              		.loc 1 472 20 is_stmt 0
 2801 11fc 17050000 		lla	a0,.LC17
 2801      13050500 
 2802 1204 97000000 		call	_Z11printStringPKc@plt
 2802      E7800000 
 2803              	.LVL283:
 473:src/tcb.cpp   ****         printString("\n");
 2804              		.loc 1 473 9 is_stmt 1
 473:src/tcb.cpp   ****         printString("\n");
 2805              		.loc 1 473 17 is_stmt 0
 2806 120c 13060000 		li	a2,0
 2807 1210 9305A000 		li	a1,10
 2808 1214 13850900 		mv	a0,s3
 2809 1218 97000000 		call	_Z8printIntiii@plt
 2809      E7800000 
 2810              	.LVL284:
GAS LISTING /tmp/ccg8jNLS.s 			page 85


 474:src/tcb.cpp   ****         writeIndex = (writeIndex+1)%CAPACITY;
 2811              		.loc 1 474 9 is_stmt 1
 474:src/tcb.cpp   ****         writeIndex = (writeIndex+1)%CAPACITY;
 2812              		.loc 1 474 20 is_stmt 0
 2813 1220 17050000 		lla	a0,.LC1
 2813      13050500 
 2814 1228 97000000 		call	_Z11printStringPKc@plt
 2814      E7800000 
 2815              	.LVL285:
 475:src/tcb.cpp   ****         for(int i=0;i<M;i++){
 2816              		.loc 1 475 9 is_stmt 1
 475:src/tcb.cpp   ****         for(int i=0;i<M;i++){
 2817              		.loc 1 475 33 is_stmt 0
 2818 1230 83A70413 		lw	a5,304(s1)
 2819 1234 9B871700 		addiw	a5,a5,1
 475:src/tcb.cpp   ****         for(int i=0;i<M;i++){
 2820              		.loc 1 475 36
 2821 1238 1307A000 		li	a4,10
 2822 123c BBE7E702 		remw	a5,a5,a4
 475:src/tcb.cpp   ****         for(int i=0;i<M;i++){
 2823              		.loc 1 475 20
 2824 1240 23A8F412 		sw	a5,304(s1)
 476:src/tcb.cpp   ****             full[i]->signal();
 2825              		.loc 1 476 9 is_stmt 1
 2826              	.LVL286:
 2827              	.LBB443:
 476:src/tcb.cpp   ****             full[i]->signal();
 2828              		.loc 1 476 17 is_stmt 0
 2829 1244 93040000 		li	s1,0
 2830 1248 6FF09FF4 		j	.L135
 2831              	.LVL287:
 2832              	.L131:
 2833              	.LBE443:
 2834              	.LBE444:
 2835              	.LBE440:
 484:src/tcb.cpp   **** 
 2836              		.loc 1 484 1
 2837 124c 83308102 		ld	ra,40(sp)
 2838              		.cfi_restore 1
 2839 1250 03340102 		ld	s0,32(sp)
 2840              		.cfi_restore 8
 2841              		.cfi_def_cfa 2, 48
 2842 1254 83348101 		ld	s1,24(sp)
 2843              		.cfi_restore 9
 2844 1258 03390101 		ld	s2,16(sp)
 2845              		.cfi_restore 18
 2846              	.LVL288:
 2847 125c 83398100 		ld	s3,8(sp)
 2848              		.cfi_restore 19
 2849 1260 13010103 		addi	sp,sp,48
 2850              		.cfi_def_cfa_offset 0
 2851 1264 67800000 		jr	ra
 2852              		.cfi_endproc
 2853              	.LFE77:
 2855              		.section	.rodata.str1.8
 2856 01d3 00000000 		.align	3
 2856      00
GAS LISTING /tmp/ccg8jNLS.s 			page 86


 2857              	.LC18:
 2858 01d8 4E657720 		.string	"New item consumed: "
 2858      6974656D 
 2858      20636F6E 
 2858      73756D65 
 2858      643A2000 
 2859 01ec 00000000 		.align	3
 2860              	.LC19:
 2861 01f0 2E204E69 		.string	". Nit id = "
 2861      74206964 
 2861      203D2000 
 2862              		.text
 2863              		.align	2
 2864              		.globl	_ZN3TCB8consumerEi
 2866              	_ZN3TCB8consumerEi:
 2867              	.LFB78:
 486:src/tcb.cpp   ****     if(!prodConsum){
 2868              		.loc 1 486 28 is_stmt 1
 2869              		.cfi_startproc
 2870              	.LVL289:
 2871 1268 130101FC 		addi	sp,sp,-64
 2872              		.cfi_def_cfa_offset 64
 2873 126c 233C1102 		sd	ra,56(sp)
 2874 1270 23388102 		sd	s0,48(sp)
 2875 1274 23349102 		sd	s1,40(sp)
 2876 1278 23302103 		sd	s2,32(sp)
 2877 127c 233C3101 		sd	s3,24(sp)
 2878 1280 23384101 		sd	s4,16(sp)
 2879 1284 23345101 		sd	s5,8(sp)
 2880 1288 23306101 		sd	s6,0(sp)
 2881              		.cfi_offset 1, -8
 2882              		.cfi_offset 8, -16
 2883              		.cfi_offset 9, -24
 2884              		.cfi_offset 18, -32
 2885              		.cfi_offset 19, -40
 2886              		.cfi_offset 20, -48
 2887              		.cfi_offset 21, -56
 2888              		.cfi_offset 22, -64
 2889 128c 13040104 		addi	s0,sp,64
 2890              		.cfi_def_cfa 8, 0
 2891 1290 938A0500 		mv	s5,a1
 487:src/tcb.cpp   ****         setAtomicBroadcast();
 2892              		.loc 1 487 5
 487:src/tcb.cpp   ****         setAtomicBroadcast();
 2893              		.loc 1 487 8 is_stmt 0
 2894 1294 97070000 		lbu	a5,.LANCHOR0+296
 2894      83C70700 
 487:src/tcb.cpp   ****         setAtomicBroadcast();
 2895              		.loc 1 487 5
 2896 129c 63880700 		beqz	a5,.L146
 2897              	.LVL290:
 2898              	.L141:
 486:src/tcb.cpp   ****     if(!prodConsum){
 2899              		.loc 1 486 28 discriminator 1
 2900 12a0 130A0000 		li	s4,0
 2901 12a4 93040000 		li	s1,0
 2902 12a8 6F000007 		j	.L144
GAS LISTING /tmp/ccg8jNLS.s 			page 87


 2903              	.LVL291:
 2904              	.L146:
 488:src/tcb.cpp   ****         prodConsum=true;
 2905              		.loc 1 488 9 is_stmt 1
 488:src/tcb.cpp   ****         prodConsum=true;
 2906              		.loc 1 488 27 is_stmt 0
 2907 12ac 97000000 		call	_ZN3TCB18setAtomicBroadcastEv
 2907      E7800000 
 2908              	.LVL292:
 489:src/tcb.cpp   ****     }
 2909              		.loc 1 489 9 is_stmt 1
 489:src/tcb.cpp   ****     }
 2910              		.loc 1 489 19 is_stmt 0
 2911 12b4 93071000 		li	a5,1
 2912 12b8 17070000 		sb	a5,.LANCHOR0+296,a4
 2912      2300F700 
 2913 12c0 6FF01FFE 		j	.L141
 2914              	.LVL293:
 2915              	.L147:
 2916              	.LBB445:
 505:src/tcb.cpp   ****             emptyy->signal();
 2917              		.loc 1 505 13 is_stmt 1
 505:src/tcb.cpp   ****             emptyy->signal();
 2918              		.loc 1 505 35 is_stmt 0
 2919 12c4 17070000 		lla	a4,.LANCHOR0
 2919      13070700 
 2920 12cc 23200916 		sw	zero,352(s2)
 506:src/tcb.cpp   ****             thread_dispatch();
 2921              		.loc 1 506 13 is_stmt 1
 506:src/tcb.cpp   ****             thread_dispatch();
 2922              		.loc 1 506 27 is_stmt 0
 2923 12d0 03350709 		ld	a0,144(a4)
 2924 12d4 97000000 		call	_ZN11Semaphore_k6signalEv@plt
 2924      E7800000 
 2925              	.LVL294:
 507:src/tcb.cpp   ****         }
 2926              		.loc 1 507 13 is_stmt 1
 507:src/tcb.cpp   ****         }
 2927              		.loc 1 507 28 is_stmt 0
 2928 12dc 97000000 		call	_Z15thread_dispatchv@plt
 2928      E7800000 
 2929              	.LVL295:
 2930              	.L143:
 509:src/tcb.cpp   ****         thread_dispatch();
 2931              		.loc 1 509 9 is_stmt 1 discriminator 2
 509:src/tcb.cpp   ****         thread_dispatch();
 2932              		.loc 1 509 25 is_stmt 0 discriminator 2
 2933 12e4 13973400 		slli	a4,s1,3
 2934 12e8 97070000 		lla	a5,.LANCHOR0
 2934      93870700 
 2935 12f0 B387E700 		add	a5,a5,a4
 509:src/tcb.cpp   ****         thread_dispatch();
 2936              		.loc 1 509 34 discriminator 2
 2937 12f4 03B5870D 		ld	a0,216(a5)
 2938 12f8 97000000 		call	_ZN11Semaphore_k6signalEv@plt
 2938      E7800000 
 2939              	.LVL296:
GAS LISTING /tmp/ccg8jNLS.s 			page 88


 510:src/tcb.cpp   ****         readIndex=(readIndex+1)%CAPACITY;
 2940              		.loc 1 510 9 is_stmt 1 discriminator 2
 510:src/tcb.cpp   ****         readIndex=(readIndex+1)%CAPACITY;
 2941              		.loc 1 510 24 is_stmt 0 discriminator 2
 2942 1300 97000000 		call	_Z15thread_dispatchv@plt
 2942      E7800000 
 2943              	.LVL297:
 511:src/tcb.cpp   **** 
 2944              		.loc 1 511 9 is_stmt 1 discriminator 2
 511:src/tcb.cpp   **** 
 2945              		.loc 1 511 29 is_stmt 0 discriminator 2
 2946 1308 9B841400 		addiw	s1,s1,1
 2947              	.LVL298:
 511:src/tcb.cpp   **** 
 2948              		.loc 1 511 18 discriminator 2
 2949 130c 9307A000 		li	a5,10
 2950 1310 BBE4F402 		remw	s1,s1,a5
 2951              	.LVL299:
 493:src/tcb.cpp   ****         full[id]->wait();
 2952              		.loc 1 493 5 is_stmt 1 discriminator 2
 2953 1314 1B0A1A00 		addiw	s4,s4,1
 2954              	.LVL300:
 2955              	.L144:
 493:src/tcb.cpp   ****         full[id]->wait();
 2956              		.loc 1 493 18 discriminator 1
 2957 1318 93079000 		li	a5,9
 2958 131c 63CA470B 		bgt	s4,a5,.L140
 494:src/tcb.cpp   ****         newI=buffer[readIndex];
 2959              		.loc 1 494 9
 494:src/tcb.cpp   ****         newI=buffer[readIndex];
 2960              		.loc 1 494 16 is_stmt 0
 2961 1320 97090000 		lla	s3,.LANCHOR0
 2961      93890900 
 2962 1328 93973A00 		slli	a5,s5,3
 2963 132c B387F900 		add	a5,s3,a5
 494:src/tcb.cpp   ****         newI=buffer[readIndex];
 2964              		.loc 1 494 23
 2965 1330 03B58709 		ld	a0,152(a5)
 2966 1334 97000000 		call	_ZN11Semaphore_k4waitEv@plt
 2966      E7800000 
 2967              	.LVL301:
 495:src/tcb.cpp   ****         mutexC[readIndex]->wait();
 2968              		.loc 1 495 9 is_stmt 1
 495:src/tcb.cpp   ****         mutexC[readIndex]->wait();
 2969              		.loc 1 495 13 is_stmt 0
 2970 133c 13992400 		slli	s2,s1,2
 2971 1340 33892901 		add	s2,s3,s2
 2972 1344 032B8913 		lw	s6,312(s2)
 2973              	.LVL302:
 496:src/tcb.cpp   ****         consumerCnt[readIndex]++;
 2974              		.loc 1 496 9 is_stmt 1
 496:src/tcb.cpp   ****         consumerCnt[readIndex]++;
 2975              		.loc 1 496 25 is_stmt 0
 2976 1348 93973400 		slli	a5,s1,3
 2977 134c B389F900 		add	s3,s3,a5
 496:src/tcb.cpp   ****         consumerCnt[readIndex]++;
 2978              		.loc 1 496 32
GAS LISTING /tmp/ccg8jNLS.s 			page 89


 2979 1350 03B5890D 		ld	a0,216(s3)
 2980 1354 97000000 		call	_ZN11Semaphore_k4waitEv@plt
 2980      E7800000 
 2981              	.LVL303:
 497:src/tcb.cpp   **** 
 2982              		.loc 1 497 9 is_stmt 1
 497:src/tcb.cpp   **** 
 2983              		.loc 1 497 30 is_stmt 0
 2984 135c 83270916 		lw	a5,352(s2)
 497:src/tcb.cpp   **** 
 2985              		.loc 1 497 31
 2986 1360 9B871700 		addiw	a5,a5,1
 2987 1364 2320F916 		sw	a5,352(s2)
 499:src/tcb.cpp   ****         printInt(newI);
 2988              		.loc 1 499 9 is_stmt 1
 499:src/tcb.cpp   ****         printInt(newI);
 2989              		.loc 1 499 20 is_stmt 0
 2990 1368 17050000 		lla	a0,.LC18
 2990      13050500 
 2991 1370 97000000 		call	_Z11printStringPKc@plt
 2991      E7800000 
 2992              	.LVL304:
 500:src/tcb.cpp   ****         printString(". Nit id = ");
 2993              		.loc 1 500 9 is_stmt 1
 500:src/tcb.cpp   ****         printString(". Nit id = ");
 2994              		.loc 1 500 17 is_stmt 0
 2995 1378 13060000 		li	a2,0
 2996 137c 9305A000 		li	a1,10
 2997 1380 13050B00 		mv	a0,s6
 2998 1384 97000000 		call	_Z8printIntiii@plt
 2998      E7800000 
 2999              	.LVL305:
 501:src/tcb.cpp   ****         printInt(id);
 3000              		.loc 1 501 9 is_stmt 1
 501:src/tcb.cpp   ****         printInt(id);
 3001              		.loc 1 501 20 is_stmt 0
 3002 138c 17050000 		lla	a0,.LC19
 3002      13050500 
 3003 1394 97000000 		call	_Z11printStringPKc@plt
 3003      E7800000 
 3004              	.LVL306:
 502:src/tcb.cpp   ****         printString("\n");
 3005              		.loc 1 502 9 is_stmt 1
 502:src/tcb.cpp   ****         printString("\n");
 3006              		.loc 1 502 17 is_stmt 0
 3007 139c 13060000 		li	a2,0
 3008 13a0 9305A000 		li	a1,10
 3009 13a4 13850A00 		mv	a0,s5
 3010 13a8 97000000 		call	_Z8printIntiii@plt
 3010      E7800000 
 3011              	.LVL307:
 503:src/tcb.cpp   ****         if(consumerCnt[readIndex]==M){
 3012              		.loc 1 503 9 is_stmt 1
 503:src/tcb.cpp   ****         if(consumerCnt[readIndex]==M){
 3013              		.loc 1 503 20 is_stmt 0
 3014 13b0 17050000 		lla	a0,.LC1
 3014      13050500 
GAS LISTING /tmp/ccg8jNLS.s 			page 90


 3015 13b8 97000000 		call	_Z11printStringPKc@plt
 3015      E7800000 
 3016              	.LVL308:
 504:src/tcb.cpp   ****             consumerCnt[readIndex]=0;
 3017              		.loc 1 504 9 is_stmt 1
 504:src/tcb.cpp   ****             consumerCnt[readIndex]=0;
 3018              		.loc 1 504 33 is_stmt 0
 3019 13c0 03270916 		lw	a4,352(s2)
 504:src/tcb.cpp   ****             consumerCnt[readIndex]=0;
 3020              		.loc 1 504 9
 3021 13c4 93078000 		li	a5,8
 3022 13c8 E31EF7F0 		bne	a4,a5,.L143
 3023 13cc 6FF09FEF 		j	.L147
 3024              	.LVL309:
 3025              	.L140:
 3026              	.LBE445:
 515:src/tcb.cpp   **** 
 3027              		.loc 1 515 1
 3028 13d0 83308103 		ld	ra,56(sp)
 3029              		.cfi_restore 1
 3030 13d4 03340103 		ld	s0,48(sp)
 3031              		.cfi_restore 8
 3032              		.cfi_def_cfa 2, 64
 3033 13d8 83348102 		ld	s1,40(sp)
 3034              		.cfi_restore 9
 3035              	.LVL310:
 3036 13dc 03390102 		ld	s2,32(sp)
 3037              		.cfi_restore 18
 3038 13e0 83398101 		ld	s3,24(sp)
 3039              		.cfi_restore 19
 3040 13e4 033A0101 		ld	s4,16(sp)
 3041              		.cfi_restore 20
 3042              	.LVL311:
 3043 13e8 833A8100 		ld	s5,8(sp)
 3044              		.cfi_restore 21
 3045 13ec 033B0100 		ld	s6,0(sp)
 3046              		.cfi_restore 22
 3047 13f0 13010104 		addi	sp,sp,64
 3048              		.cfi_def_cfa_offset 0
 3049 13f4 67800000 		jr	ra
 3050              		.cfi_endproc
 3051              	.LFE78:
 3053              		.align	2
 3054              		.globl	_ZN3TCB7barrierEjPP8MoleculePKc
 3056              	_ZN3TCB7barrierEjPP8MoleculePKc:
 3057              	.LFB82:
 576:src/tcb.cpp   ****     door1->wait();
 3058              		.loc 1 576 76 is_stmt 1
 3059              		.cfi_startproc
 3060              	.LVL312:
 3061 13f8 130101FD 		addi	sp,sp,-48
 3062              		.cfi_def_cfa_offset 48
 3063 13fc 23341102 		sd	ra,40(sp)
 3064 1400 23308102 		sd	s0,32(sp)
 3065 1404 233C9100 		sd	s1,24(sp)
 3066 1408 23382101 		sd	s2,16(sp)
 3067 140c 23343101 		sd	s3,8(sp)
GAS LISTING /tmp/ccg8jNLS.s 			page 91


 3068 1410 23304101 		sd	s4,0(sp)
 3069              		.cfi_offset 1, -8
 3070              		.cfi_offset 8, -16
 3071              		.cfi_offset 9, -24
 3072              		.cfi_offset 18, -32
 3073              		.cfi_offset 19, -40
 3074              		.cfi_offset 20, -48
 3075 1414 13040103 		addi	s0,sp,48
 3076              		.cfi_def_cfa 8, 0
 3077 1418 130A0500 		mv	s4,a0
 3078 141c 13890500 		mv	s2,a1
 3079 1420 93090600 		mv	s3,a2
 577:src/tcb.cpp   ****     molecule->ids[count] = id;
 3080              		.loc 1 577 5
 577:src/tcb.cpp   ****     molecule->ids[count] = id;
 3081              		.loc 1 577 16 is_stmt 0
 3082 1424 97040000 		lla	s1,.LANCHOR0
 3082      93840400 
 3083 142c 03B58418 		ld	a0,392(s1)
 3084              	.LVL313:
 3085 1430 97000000 		call	_ZN11Semaphore_k4waitEv@plt
 3085      E7800000 
 3086              	.LVL314:
 578:src/tcb.cpp   ****     molecule->type[count] = element;
 3087              		.loc 1 578 5 is_stmt 1
 578:src/tcb.cpp   ****     molecule->type[count] = element;
 3088              		.loc 1 578 15 is_stmt 0
 3089 1438 83B70419 		ld	a5,400(s1)
 3090 143c 83B70700 		ld	a5,0(a5)
 578:src/tcb.cpp   ****     molecule->type[count] = element;
 3091              		.loc 1 578 19
 3092 1440 03A78419 		lw	a4,408(s1)
 578:src/tcb.cpp   ****     molecule->type[count] = element;
 3093              		.loc 1 578 24
 3094 1444 13172700 		slli	a4,a4,2
 3095 1448 B387E700 		add	a5,a5,a4
 578:src/tcb.cpp   ****     molecule->type[count] = element;
 3096              		.loc 1 578 26
 3097 144c 23A04701 		sw	s4,0(a5)
 579:src/tcb.cpp   ****     count++;
 3098              		.loc 1 579 5 is_stmt 1
 579:src/tcb.cpp   ****     count++;
 3099              		.loc 1 579 15 is_stmt 0
 3100 1450 83B70419 		ld	a5,400(s1)
 3101 1454 83B78700 		ld	a5,8(a5)
 579:src/tcb.cpp   ****     count++;
 3102              		.loc 1 579 20
 3103 1458 03A78419 		lw	a4,408(s1)
 579:src/tcb.cpp   ****     count++;
 3104              		.loc 1 579 25
 3105 145c 13173700 		slli	a4,a4,3
 3106 1460 B387E700 		add	a5,a5,a4
 579:src/tcb.cpp   ****     count++;
 3107              		.loc 1 579 27
 3108 1464 23B03701 		sd	s3,0(a5)
 580:src/tcb.cpp   ****     if (count == 3) {
 3109              		.loc 1 580 5 is_stmt 1
GAS LISTING /tmp/ccg8jNLS.s 			page 92


 580:src/tcb.cpp   ****     if (count == 3) {
 3110              		.loc 1 580 10 is_stmt 0
 3111 1468 83A78419 		lw	a5,408(s1)
 3112 146c 9B871700 		addiw	a5,a5,1
 3113 1470 1B870700 		sext.w	a4,a5
 3114 1474 23ACF418 		sw	a5,408(s1)
 581:src/tcb.cpp   ****         door2->signal();
 3115              		.loc 1 581 5 is_stmt 1
 3116 1478 93073000 		li	a5,3
 3117 147c 630AF708 		beq	a4,a5,.L154
 584:src/tcb.cpp   ****     }
 3118              		.loc 1 584 9
 584:src/tcb.cpp   ****     }
 3119              		.loc 1 584 22 is_stmt 0
 3120 1480 17050000 		ld	a0,.LANCHOR0+392
 3120      03350500 
 3121 1488 97000000 		call	_ZN11Semaphore_k6signalEv@plt
 3121      E7800000 
 3122              	.LVL315:
 3123              	.L150:
 586:src/tcb.cpp   ****     *molekul = molecule;
 3124              		.loc 1 586 5 is_stmt 1
 586:src/tcb.cpp   ****     *molekul = molecule;
 3125              		.loc 1 586 16 is_stmt 0
 3126 1490 97040000 		lla	s1,.LANCHOR0
 3126      93840400 
 3127 1498 03B5041A 		ld	a0,416(s1)
 3128 149c 97000000 		call	_ZN11Semaphore_k4waitEv@plt
 3128      E7800000 
 3129              	.LVL316:
 587:src/tcb.cpp   ****     count--;
 3130              		.loc 1 587 5 is_stmt 1
 587:src/tcb.cpp   ****     count--;
 3131              		.loc 1 587 14 is_stmt 0
 3132 14a4 83B70419 		ld	a5,400(s1)
 3133 14a8 2330F900 		sd	a5,0(s2)
 588:src/tcb.cpp   ****     if (count == 0) {
 3134              		.loc 1 588 5 is_stmt 1
 588:src/tcb.cpp   ****     if (count == 0) {
 3135              		.loc 1 588 10 is_stmt 0
 3136 14ac 83A78419 		lw	a5,408(s1)
 3137 14b0 9B87F7FF 		addiw	a5,a5,-1
 3138 14b4 1B870700 		sext.w	a4,a5
 3139 14b8 23ACF418 		sw	a5,408(s1)
 589:src/tcb.cpp   ****         hydroSem->signal();
 3140              		.loc 1 589 5 is_stmt 1
 3141 14bc 63140706 		bnez	a4,.L151
 590:src/tcb.cpp   ****         oxySem->signal();
 3142              		.loc 1 590 9
 590:src/tcb.cpp   ****         oxySem->signal();
 3143              		.loc 1 590 25 is_stmt 0
 3144 14c0 03B5841A 		ld	a0,424(s1)
 3145 14c4 97000000 		call	_ZN11Semaphore_k6signalEv@plt
 3145      E7800000 
 3146              	.LVL317:
 591:src/tcb.cpp   ****         hydroSem->signal();
 3147              		.loc 1 591 9 is_stmt 1
GAS LISTING /tmp/ccg8jNLS.s 			page 93


 591:src/tcb.cpp   ****         hydroSem->signal();
 3148              		.loc 1 591 23 is_stmt 0
 3149 14cc 03B5041B 		ld	a0,432(s1)
 3150 14d0 97000000 		call	_ZN11Semaphore_k6signalEv@plt
 3150      E7800000 
 3151              	.LVL318:
 592:src/tcb.cpp   ****         door1->signal();
 3152              		.loc 1 592 9 is_stmt 1
 592:src/tcb.cpp   ****         door1->signal();
 3153              		.loc 1 592 25 is_stmt 0
 3154 14d8 03B5841A 		ld	a0,424(s1)
 3155 14dc 97000000 		call	_ZN11Semaphore_k6signalEv@plt
 3155      E7800000 
 3156              	.LVL319:
 593:src/tcb.cpp   **** 
 3157              		.loc 1 593 9 is_stmt 1
 593:src/tcb.cpp   **** 
 3158              		.loc 1 593 22 is_stmt 0
 3159 14e4 03B58418 		ld	a0,392(s1)
 3160 14e8 97000000 		call	_ZN11Semaphore_k6signalEv@plt
 3160      E7800000 
 3161              	.LVL320:
 3162              	.L148:
 598:src/tcb.cpp   **** void TCB::setAtomH20() {
 3163              		.loc 1 598 1
 3164 14f0 83308102 		ld	ra,40(sp)
 3165              		.cfi_remember_state
 3166              		.cfi_restore 1
 3167 14f4 03340102 		ld	s0,32(sp)
 3168              		.cfi_restore 8
 3169              		.cfi_def_cfa 2, 48
 3170 14f8 83348101 		ld	s1,24(sp)
 3171              		.cfi_restore 9
 3172 14fc 03390101 		ld	s2,16(sp)
 3173              		.cfi_restore 18
 3174              	.LVL321:
 3175 1500 83398100 		ld	s3,8(sp)
 3176              		.cfi_restore 19
 3177              	.LVL322:
 3178 1504 033A0100 		ld	s4,0(sp)
 3179              		.cfi_restore 20
 3180 1508 13010103 		addi	sp,sp,48
 3181              		.cfi_def_cfa_offset 0
 3182 150c 67800000 		jr	ra
 3183              	.LVL323:
 3184              	.L154:
 3185              		.cfi_restore_state
 582:src/tcb.cpp   ****     } else {
 3186              		.loc 1 582 9 is_stmt 1
 582:src/tcb.cpp   ****     } else {
 3187              		.loc 1 582 22 is_stmt 0
 3188 1510 17050000 		ld	a0,.LANCHOR0+416
 3188      03350500 
 3189 1518 97000000 		call	_ZN11Semaphore_k6signalEv@plt
 3189      E7800000 
 3190              	.LVL324:
 3191 1520 6FF01FF7 		j	.L150
GAS LISTING /tmp/ccg8jNLS.s 			page 94


 3192              	.L151:
 596:src/tcb.cpp   ****     }
 3193              		.loc 1 596 9 is_stmt 1
 596:src/tcb.cpp   ****     }
 3194              		.loc 1 596 22 is_stmt 0
 3195 1524 17050000 		ld	a0,.LANCHOR0+416
 3195      03350500 
 3196 152c 97000000 		call	_ZN11Semaphore_k6signalEv@plt
 3196      E7800000 
 3197              	.LVL325:
 598:src/tcb.cpp   **** void TCB::setAtomH20() {
 3198              		.loc 1 598 1
 3199 1534 6FF0DFFB 		j	.L148
 3200              		.cfi_endproc
 3201              	.LFE82:
 3203              		.align	2
 3204              		.globl	_ZN3TCB10setAtomH20Ev
 3206              	_ZN3TCB10setAtomH20Ev:
 3207              	.LFB83:
 599:src/tcb.cpp   ****     hydroSem = new Semaphore_k(2);
 3208              		.loc 1 599 24 is_stmt 1
 3209              		.cfi_startproc
 3210 1538 130101FE 		addi	sp,sp,-32
 3211              		.cfi_def_cfa_offset 32
 3212 153c 233C1100 		sd	ra,24(sp)
 3213 1540 23388100 		sd	s0,16(sp)
 3214 1544 23349100 		sd	s1,8(sp)
 3215 1548 23302101 		sd	s2,0(sp)
 3216              		.cfi_offset 1, -8
 3217              		.cfi_offset 8, -16
 3218              		.cfi_offset 9, -24
 3219              		.cfi_offset 18, -32
 3220 154c 13040102 		addi	s0,sp,32
 3221              		.cfi_def_cfa 8, 0
 600:src/tcb.cpp   ****     oxySem = new Semaphore_k(1);
 3222              		.loc 1 600 5
 3223              	.LVL326:
 3224              	.LBB446:
 3225              	.LBB447:
  26:src/../h/Semaphore_k.hpp ****     }
 3226              		.loc 5 26 9
  26:src/../h/Semaphore_k.hpp ****     }
 3227              		.loc 5 26 42 is_stmt 0
 3228 1550 13058001 		li	a0,24
 3229 1554 97000000 		call	_ZN15memoryAllocator9mem_allocEm@plt
 3229      E7800000 
 3230              	.LVL327:
 3231              	.LBE447:
 3232              	.LBE446:
 3233              	.LBB448:
 3234              	.LBB449:
 3235              		.loc 5 39 60
 3236 155c 23000500 		sb	zero,0(a0)
 3237 1560 93072000 		li	a5,2
 3238 1564 2322F500 		sw	a5,4(a0)
 3239              	.LVL328:
 3240              	.LBB450:
GAS LISTING /tmp/ccg8jNLS.s 			page 95


 3241              	.LBB451:
  26:src/../h/List.hpp **** 
 3242              		.loc 2 26 30
 3243 1568 23340500 		sd	zero,8(a0)
 3244 156c 23380500 		sd	zero,16(a0)
 3245              	.LVL329:
 3246              	.LBE451:
 3247              	.LBE450:
 3248              	.LBE449:
 3249              	.LBE448:
 600:src/tcb.cpp   ****     oxySem = new Semaphore_k(1);
 3250              		.loc 1 600 14
 3251 1570 97040000 		lla	s1,.LANCHOR0
 3251      93840400 
 3252 1578 23B4A41A 		sd	a0,424(s1)
 601:src/tcb.cpp   ****     door1 = new Semaphore_k(1);
 3253              		.loc 1 601 5 is_stmt 1
 3254              	.LVL330:
 3255              	.LBB452:
 3256              	.LBB453:
  26:src/../h/Semaphore_k.hpp ****     }
 3257              		.loc 5 26 9
  26:src/../h/Semaphore_k.hpp ****     }
 3258              		.loc 5 26 42 is_stmt 0
 3259 157c 13058001 		li	a0,24
 3260 1580 97000000 		call	_ZN15memoryAllocator9mem_allocEm@plt
 3260      E7800000 
 3261              	.LVL331:
 3262              	.LBE453:
 3263              	.LBE452:
 3264              	.LBB454:
 3265              	.LBB455:
 3266              		.loc 5 39 60
 3267 1588 23000500 		sb	zero,0(a0)
 3268 158c 13091000 		li	s2,1
 3269 1590 23222501 		sw	s2,4(a0)
 3270              	.LVL332:
 3271              	.LBB456:
 3272              	.LBB457:
  26:src/../h/List.hpp **** 
 3273              		.loc 2 26 30
 3274 1594 23340500 		sd	zero,8(a0)
 3275 1598 23380500 		sd	zero,16(a0)
 3276              	.LVL333:
 3277              	.LBE457:
 3278              	.LBE456:
 3279              	.LBE455:
 3280              	.LBE454:
 601:src/tcb.cpp   ****     door1 = new Semaphore_k(1);
 3281              		.loc 1 601 12
 3282 159c 23B8A41A 		sd	a0,432(s1)
 602:src/tcb.cpp   ****     door2 = new Semaphore_k(0);
 3283              		.loc 1 602 5 is_stmt 1
 3284              	.LVL334:
 3285              	.LBB458:
 3286              	.LBB459:
  26:src/../h/Semaphore_k.hpp ****     }
GAS LISTING /tmp/ccg8jNLS.s 			page 96


 3287              		.loc 5 26 9
  26:src/../h/Semaphore_k.hpp ****     }
 3288              		.loc 5 26 42 is_stmt 0
 3289 15a0 13058001 		li	a0,24
 3290 15a4 97000000 		call	_ZN15memoryAllocator9mem_allocEm@plt
 3290      E7800000 
 3291              	.LVL335:
 3292              	.LBE459:
 3293              	.LBE458:
 3294              	.LBB460:
 3295              	.LBB461:
 3296              		.loc 5 39 60
 3297 15ac 23000500 		sb	zero,0(a0)
 3298 15b0 23222501 		sw	s2,4(a0)
 3299              	.LVL336:
 3300              	.LBB462:
 3301              	.LBB463:
  26:src/../h/List.hpp **** 
 3302              		.loc 2 26 30
 3303 15b4 23340500 		sd	zero,8(a0)
 3304 15b8 23380500 		sd	zero,16(a0)
 3305              	.LVL337:
 3306              	.LBE463:
 3307              	.LBE462:
 3308              	.LBE461:
 3309              	.LBE460:
 602:src/tcb.cpp   ****     door2 = new Semaphore_k(0);
 3310              		.loc 1 602 11
 3311 15bc 23B4A418 		sd	a0,392(s1)
 603:src/tcb.cpp   ****     molecule = new Molecule;
 3312              		.loc 1 603 5 is_stmt 1
 3313              	.LVL338:
 3314              	.LBB464:
 3315              	.LBB465:
  26:src/../h/Semaphore_k.hpp ****     }
 3316              		.loc 5 26 9
  26:src/../h/Semaphore_k.hpp ****     }
 3317              		.loc 5 26 42 is_stmt 0
 3318 15c0 13058001 		li	a0,24
 3319 15c4 97000000 		call	_ZN15memoryAllocator9mem_allocEm@plt
 3319      E7800000 
 3320              	.LVL339:
 3321              	.LBE465:
 3322              	.LBE464:
 3323              	.LBB466:
 3324              	.LBB467:
 3325              		.loc 5 39 60
 3326 15cc 23000500 		sb	zero,0(a0)
 3327 15d0 23220500 		sw	zero,4(a0)
 3328              	.LVL340:
 3329              	.LBB468:
 3330              	.LBB469:
  26:src/../h/List.hpp **** 
 3331              		.loc 2 26 30
 3332 15d4 23340500 		sd	zero,8(a0)
 3333 15d8 23380500 		sd	zero,16(a0)
 3334              	.LVL341:
GAS LISTING /tmp/ccg8jNLS.s 			page 97


 3335              	.LBE469:
 3336              	.LBE468:
 3337              	.LBE467:
 3338              	.LBE466:
 603:src/tcb.cpp   ****     molecule = new Molecule;
 3339              		.loc 1 603 11
 3340 15dc 23B0A41A 		sd	a0,416(s1)
 604:src/tcb.cpp   ****     molecule->ids = new int[3];
 3341              		.loc 1 604 5 is_stmt 1
 604:src/tcb.cpp   ****     molecule->ids = new int[3];
 3342              		.loc 1 604 20 is_stmt 0
 3343 15e0 13050001 		li	a0,16
 3344 15e4 97000000 		call	_Znwm@plt
 3344      E7800000 
 3345              	.LVL342:
 3346 15ec 13090500 		mv	s2,a0
 604:src/tcb.cpp   ****     molecule->ids = new int[3];
 3347              		.loc 1 604 14
 3348 15f0 23B8A418 		sd	a0,400(s1)
 605:src/tcb.cpp   ****     molecule->type = new const char * [3];
 3349              		.loc 1 605 5 is_stmt 1
 605:src/tcb.cpp   ****     molecule->type = new const char * [3];
 3350              		.loc 1 605 30 is_stmt 0
 3351 15f4 1305C000 		li	a0,12
 3352 15f8 97000000 		call	_Znam@plt
 3352      E7800000 
 3353              	.LVL343:
 605:src/tcb.cpp   ****     molecule->type = new const char * [3];
 3354              		.loc 1 605 19
 3355 1600 2330A900 		sd	a0,0(s2)
 606:src/tcb.cpp   **** }
 3356              		.loc 1 606 5 is_stmt 1
 606:src/tcb.cpp   **** }
 3357              		.loc 1 606 15 is_stmt 0
 3358 1604 83B40419 		ld	s1,400(s1)
 606:src/tcb.cpp   **** }
 3359              		.loc 1 606 41
 3360 1608 13058001 		li	a0,24
 3361 160c 97000000 		call	_Znam@plt
 3361      E7800000 
 3362              	.LVL344:
 606:src/tcb.cpp   **** }
 3363              		.loc 1 606 20
 3364 1614 23B4A400 		sd	a0,8(s1)
 607:src/tcb.cpp   **** 
 3365              		.loc 1 607 1
 3366 1618 83308101 		ld	ra,24(sp)
 3367              		.cfi_restore 1
 3368 161c 03340101 		ld	s0,16(sp)
 3369              		.cfi_restore 8
 3370              		.cfi_def_cfa 2, 32
 3371 1620 83348100 		ld	s1,8(sp)
 3372              		.cfi_restore 9
 3373 1624 03390100 		ld	s2,0(sp)
 3374              		.cfi_restore 18
 3375 1628 13010102 		addi	sp,sp,32
 3376              		.cfi_def_cfa_offset 0
GAS LISTING /tmp/ccg8jNLS.s 			page 98


 3377 162c 67800000 		jr	ra
 3378              		.cfi_endproc
 3379              	.LFE83:
 3381              		.section	.rodata.str1.8
 3382 01fc 00000000 		.align	3
 3383              	.LC20:
 3384 0200 4F00     		.string	"O"
 3385 0202 00000000 		.align	3
 3385      0000
 3386              	.LC21:
 3387 0208 2D00     		.string	"-"
 3388              		.text
 3389              		.align	2
 3390              		.globl	_ZN3TCB6oxygenEj
 3392              	_ZN3TCB6oxygenEj:
 3393              	.LFB80:
 530:src/tcb.cpp   ****     if(!fsH20){
 3394              		.loc 1 530 35 is_stmt 1
 3395              		.cfi_startproc
 3396              	.LVL345:
 3397 1630 130101FD 		addi	sp,sp,-48
 3398              		.cfi_def_cfa_offset 48
 3399 1634 23341102 		sd	ra,40(sp)
 3400 1638 23308102 		sd	s0,32(sp)
 3401 163c 233C9100 		sd	s1,24(sp)
 3402              		.cfi_offset 1, -8
 3403              		.cfi_offset 8, -16
 3404              		.cfi_offset 9, -24
 3405 1640 13040103 		addi	s0,sp,48
 3406              		.cfi_def_cfa 8, 0
 3407 1644 93040500 		mv	s1,a0
 531:src/tcb.cpp   ****         setAtomH20();
 3408              		.loc 1 531 5
 531:src/tcb.cpp   ****         setAtomH20();
 3409              		.loc 1 531 8 is_stmt 0
 3410 1648 97070000 		lbu	a5,.LANCHOR0+440
 3410      83C70700 
 531:src/tcb.cpp   ****         setAtomH20();
 3411              		.loc 1 531 5
 3412 1650 63800714 		beqz	a5,.L160
 3413              	.LVL346:
 3414              	.L158:
 535:src/tcb.cpp   ****     auto * molekul= new Molecule ;
 3415              		.loc 1 535 5 is_stmt 1
 535:src/tcb.cpp   ****     auto * molekul= new Molecule ;
 3416              		.loc 1 535 17 is_stmt 0
 3417 1654 17050000 		ld	a0,.LANCHOR0+432
 3417      03350500 
 3418 165c 97000000 		call	_ZN11Semaphore_k4waitEv@plt
 3418      E7800000 
 3419              	.LVL347:
 536:src/tcb.cpp   ****     barrier(id,&molekul,"O");
 3420              		.loc 1 536 5 is_stmt 1
 536:src/tcb.cpp   ****     barrier(id,&molekul,"O");
 3421              		.loc 1 536 25 is_stmt 0
 3422 1664 13050001 		li	a0,16
 3423 1668 97000000 		call	_Znwm@plt
GAS LISTING /tmp/ccg8jNLS.s 			page 99


 3423      E7800000 
 3424              	.LVL348:
 3425 1670 233CA4FC 		sd	a0,-40(s0)
 537:src/tcb.cpp   ****     printInt(molekul->ids[0]);
 3426              		.loc 1 537 5 is_stmt 1
 537:src/tcb.cpp   ****     printInt(molekul->ids[0]);
 3427              		.loc 1 537 12 is_stmt 0
 3428 1674 17060000 		lla	a2,.LC20
 3428      13060600 
 3429 167c 930584FD 		addi	a1,s0,-40
 3430 1680 13850400 		mv	a0,s1
 3431 1684 97000000 		call	_ZN3TCB7barrierEjPP8MoleculePKc
 3431      E7800000 
 3432              	.LVL349:
 538:src/tcb.cpp   ****     printString("-");
 3433              		.loc 1 538 5 is_stmt 1
 538:src/tcb.cpp   ****     printString("-");
 3434              		.loc 1 538 28 is_stmt 0
 3435 168c 833784FD 		ld	a5,-40(s0)
 538:src/tcb.cpp   ****     printString("-");
 3436              		.loc 1 538 23
 3437 1690 83B70700 		ld	a5,0(a5)
 538:src/tcb.cpp   ****     printString("-");
 3438              		.loc 1 538 13
 3439 1694 13060000 		li	a2,0
 3440 1698 9305A000 		li	a1,10
 3441 169c 03A50700 		lw	a0,0(a5)
 3442 16a0 97000000 		call	_Z8printIntiii@plt
 3442      E7800000 
 3443              	.LVL350:
 539:src/tcb.cpp   ****     printInt(molekul->ids[1]);
 3444              		.loc 1 539 5 is_stmt 1
 539:src/tcb.cpp   ****     printInt(molekul->ids[1]);
 3445              		.loc 1 539 16 is_stmt 0
 3446 16a8 17050000 		lla	a0,.LC21
 3446      13050500 
 3447 16b0 97000000 		call	_Z11printStringPKc@plt
 3447      E7800000 
 3448              	.LVL351:
 540:src/tcb.cpp   ****     printString("-");
 3449              		.loc 1 540 5 is_stmt 1
 540:src/tcb.cpp   ****     printString("-");
 3450              		.loc 1 540 23 is_stmt 0
 3451 16b8 833784FD 		ld	a5,-40(s0)
 3452 16bc 83B70700 		ld	a5,0(a5)
 540:src/tcb.cpp   ****     printString("-");
 3453              		.loc 1 540 13
 3454 16c0 13060000 		li	a2,0
 3455 16c4 9305A000 		li	a1,10
 3456 16c8 03A54700 		lw	a0,4(a5)
 3457 16cc 97000000 		call	_Z8printIntiii@plt
 3457      E7800000 
 3458              	.LVL352:
 541:src/tcb.cpp   ****     printInt(molekul->ids[2]);
 3459              		.loc 1 541 5 is_stmt 1
 541:src/tcb.cpp   ****     printInt(molekul->ids[2]);
 3460              		.loc 1 541 16 is_stmt 0
GAS LISTING /tmp/ccg8jNLS.s 			page 100


 3461 16d4 17050000 		lla	a0,.LC21
 3461      13050500 
 3462 16dc 97000000 		call	_Z11printStringPKc@plt
 3462      E7800000 
 3463              	.LVL353:
 542:src/tcb.cpp   ****     printString("\n");
 3464              		.loc 1 542 5 is_stmt 1
 542:src/tcb.cpp   ****     printString("\n");
 3465              		.loc 1 542 23 is_stmt 0
 3466 16e4 833784FD 		ld	a5,-40(s0)
 3467 16e8 83B70700 		ld	a5,0(a5)
 542:src/tcb.cpp   ****     printString("\n");
 3468              		.loc 1 542 13
 3469 16ec 13060000 		li	a2,0
 3470 16f0 9305A000 		li	a1,10
 3471 16f4 03A58700 		lw	a0,8(a5)
 3472 16f8 97000000 		call	_Z8printIntiii@plt
 3472      E7800000 
 3473              	.LVL354:
 543:src/tcb.cpp   ****     printString(molekul->type[0]);
 3474              		.loc 1 543 5 is_stmt 1
 543:src/tcb.cpp   ****     printString(molekul->type[0]);
 3475              		.loc 1 543 16 is_stmt 0
 3476 1700 17050000 		lla	a0,.LC1
 3476      13050500 
 3477 1708 97000000 		call	_Z11printStringPKc@plt
 3477      E7800000 
 3478              	.LVL355:
 544:src/tcb.cpp   ****     printString("-");
 3479              		.loc 1 544 5 is_stmt 1
 544:src/tcb.cpp   ****     printString("-");
 3480              		.loc 1 544 32 is_stmt 0
 3481 1710 833784FD 		ld	a5,-40(s0)
 544:src/tcb.cpp   ****     printString("-");
 3482              		.loc 1 544 26
 3483 1714 83B78700 		ld	a5,8(a5)
 544:src/tcb.cpp   ****     printString("-");
 3484              		.loc 1 544 16
 3485 1718 03B50700 		ld	a0,0(a5)
 3486 171c 97000000 		call	_Z11printStringPKc@plt
 3486      E7800000 
 3487              	.LVL356:
 545:src/tcb.cpp   ****     printString(molekul->type[1]);
 3488              		.loc 1 545 5 is_stmt 1
 545:src/tcb.cpp   ****     printString(molekul->type[1]);
 3489              		.loc 1 545 16 is_stmt 0
 3490 1724 17050000 		lla	a0,.LC21
 3490      13050500 
 3491 172c 97000000 		call	_Z11printStringPKc@plt
 3491      E7800000 
 3492              	.LVL357:
 546:src/tcb.cpp   ****     printString("-");
 3493              		.loc 1 546 5 is_stmt 1
 546:src/tcb.cpp   ****     printString("-");
 3494              		.loc 1 546 26 is_stmt 0
 3495 1734 833784FD 		ld	a5,-40(s0)
 3496 1738 83B78700 		ld	a5,8(a5)
GAS LISTING /tmp/ccg8jNLS.s 			page 101


 546:src/tcb.cpp   ****     printString("-");
 3497              		.loc 1 546 16
 3498 173c 03B58700 		ld	a0,8(a5)
 3499 1740 97000000 		call	_Z11printStringPKc@plt
 3499      E7800000 
 3500              	.LVL358:
 547:src/tcb.cpp   ****     printString(molekul->type[2]);
 3501              		.loc 1 547 5 is_stmt 1
 547:src/tcb.cpp   ****     printString(molekul->type[2]);
 3502              		.loc 1 547 16 is_stmt 0
 3503 1748 17050000 		lla	a0,.LC21
 3503      13050500 
 3504 1750 97000000 		call	_Z11printStringPKc@plt
 3504      E7800000 
 3505              	.LVL359:
 548:src/tcb.cpp   ****     printString("\n");
 3506              		.loc 1 548 5 is_stmt 1
 548:src/tcb.cpp   ****     printString("\n");
 3507              		.loc 1 548 26 is_stmt 0
 3508 1758 833784FD 		ld	a5,-40(s0)
 3509 175c 83B78700 		ld	a5,8(a5)
 548:src/tcb.cpp   ****     printString("\n");
 3510              		.loc 1 548 16
 3511 1760 03B50701 		ld	a0,16(a5)
 3512 1764 97000000 		call	_Z11printStringPKc@plt
 3512      E7800000 
 3513              	.LVL360:
 549:src/tcb.cpp   **** 
 3514              		.loc 1 549 5 is_stmt 1
 549:src/tcb.cpp   **** 
 3515              		.loc 1 549 16 is_stmt 0
 3516 176c 17050000 		lla	a0,.LC1
 3516      13050500 
 3517 1774 97000000 		call	_Z11printStringPKc@plt
 3517      E7800000 
 3518              	.LVL361:
 551:src/tcb.cpp   **** 
 3519              		.loc 1 551 1
 3520 177c 83308102 		ld	ra,40(sp)
 3521              		.cfi_remember_state
 3522              		.cfi_restore 1
 3523 1780 03340102 		ld	s0,32(sp)
 3524              		.cfi_restore 8
 3525              		.cfi_def_cfa 2, 48
 3526 1784 83348101 		ld	s1,24(sp)
 3527              		.cfi_restore 9
 3528 1788 13010103 		addi	sp,sp,48
 3529              		.cfi_def_cfa_offset 0
 3530 178c 67800000 		jr	ra
 3531              	.LVL362:
 3532              	.L160:
 3533              		.cfi_restore_state
 532:src/tcb.cpp   ****         fsH20=true;
 3534              		.loc 1 532 9 is_stmt 1
 532:src/tcb.cpp   ****         fsH20=true;
 3535              		.loc 1 532 19 is_stmt 0
 3536 1790 97000000 		call	_ZN3TCB10setAtomH20Ev
GAS LISTING /tmp/ccg8jNLS.s 			page 102


 3536      E7800000 
 3537              	.LVL363:
 533:src/tcb.cpp   ****     }
 3538              		.loc 1 533 9 is_stmt 1
 533:src/tcb.cpp   ****     }
 3539              		.loc 1 533 14 is_stmt 0
 3540 1798 93071000 		li	a5,1
 3541 179c 17070000 		sb	a5,.LANCHOR0+440,a4
 3541      2300F700 
 3542 17a4 6FF01FEB 		j	.L158
 3543              		.cfi_endproc
 3544              	.LFE80:
 3546              		.section	.rodata.str1.8
 3547 020a 00000000 		.align	3
 3547      0000
 3548              	.LC22:
 3549 0210 4800     		.string	"H"
 3550              		.text
 3551              		.align	2
 3552              		.globl	_ZN3TCB8hydrogenEj
 3554              	_ZN3TCB8hydrogenEj:
 3555              	.LFB81:
 553:src/tcb.cpp   ****     if(!fsH20){
 3556              		.loc 1 553 37 is_stmt 1
 3557              		.cfi_startproc
 3558              	.LVL364:
 3559 17a8 130101FD 		addi	sp,sp,-48
 3560              		.cfi_def_cfa_offset 48
 3561 17ac 23341102 		sd	ra,40(sp)
 3562 17b0 23308102 		sd	s0,32(sp)
 3563 17b4 233C9100 		sd	s1,24(sp)
 3564              		.cfi_offset 1, -8
 3565              		.cfi_offset 8, -16
 3566              		.cfi_offset 9, -24
 3567 17b8 13040103 		addi	s0,sp,48
 3568              		.cfi_def_cfa 8, 0
 3569 17bc 93040500 		mv	s1,a0
 554:src/tcb.cpp   ****         setAtomH20();
 3570              		.loc 1 554 5
 554:src/tcb.cpp   ****         setAtomH20();
 3571              		.loc 1 554 8 is_stmt 0
 3572 17c0 97070000 		lbu	a5,.LANCHOR0+440
 3572      83C70700 
 554:src/tcb.cpp   ****         setAtomH20();
 3573              		.loc 1 554 5
 3574 17c8 63800714 		beqz	a5,.L164
 3575              	.LVL365:
 3576              	.L162:
 558:src/tcb.cpp   **** 
 3577              		.loc 1 558 5 is_stmt 1
 558:src/tcb.cpp   **** 
 3578              		.loc 1 558 19 is_stmt 0
 3579 17cc 17050000 		ld	a0,.LANCHOR0+424
 3579      03350500 
 3580 17d4 97000000 		call	_ZN11Semaphore_k4waitEv@plt
 3580      E7800000 
 3581              	.LVL366:
GAS LISTING /tmp/ccg8jNLS.s 			page 103


 560:src/tcb.cpp   ****     barrier(id,&molekul,"H");
 3582              		.loc 1 560 5 is_stmt 1
 560:src/tcb.cpp   ****     barrier(id,&molekul,"H");
 3583              		.loc 1 560 25 is_stmt 0
 3584 17dc 13050001 		li	a0,16
 3585 17e0 97000000 		call	_Znwm@plt
 3585      E7800000 
 3586              	.LVL367:
 3587 17e8 233CA4FC 		sd	a0,-40(s0)
 561:src/tcb.cpp   ****     printInt(molekul->ids[0]);
 3588              		.loc 1 561 5 is_stmt 1
 561:src/tcb.cpp   ****     printInt(molekul->ids[0]);
 3589              		.loc 1 561 12 is_stmt 0
 3590 17ec 17060000 		lla	a2,.LC22
 3590      13060600 
 3591 17f4 930584FD 		addi	a1,s0,-40
 3592 17f8 13850400 		mv	a0,s1
 3593 17fc 97000000 		call	_ZN3TCB7barrierEjPP8MoleculePKc
 3593      E7800000 
 3594              	.LVL368:
 562:src/tcb.cpp   ****     printString("-");
 3595              		.loc 1 562 5 is_stmt 1
 562:src/tcb.cpp   ****     printString("-");
 3596              		.loc 1 562 28 is_stmt 0
 3597 1804 833784FD 		ld	a5,-40(s0)
 562:src/tcb.cpp   ****     printString("-");
 3598              		.loc 1 562 23
 3599 1808 83B70700 		ld	a5,0(a5)
 562:src/tcb.cpp   ****     printString("-");
 3600              		.loc 1 562 13
 3601 180c 13060000 		li	a2,0
 3602 1810 9305A000 		li	a1,10
 3603 1814 03A50700 		lw	a0,0(a5)
 3604 1818 97000000 		call	_Z8printIntiii@plt
 3604      E7800000 
 3605              	.LVL369:
 563:src/tcb.cpp   ****     printInt(molekul->ids[1]);
 3606              		.loc 1 563 5 is_stmt 1
 563:src/tcb.cpp   ****     printInt(molekul->ids[1]);
 3607              		.loc 1 563 16 is_stmt 0
 3608 1820 17050000 		lla	a0,.LC21
 3608      13050500 
 3609 1828 97000000 		call	_Z11printStringPKc@plt
 3609      E7800000 
 3610              	.LVL370:
 564:src/tcb.cpp   ****     printString("-");
 3611              		.loc 1 564 5 is_stmt 1
 564:src/tcb.cpp   ****     printString("-");
 3612              		.loc 1 564 23 is_stmt 0
 3613 1830 833784FD 		ld	a5,-40(s0)
 3614 1834 83B70700 		ld	a5,0(a5)
 564:src/tcb.cpp   ****     printString("-");
 3615              		.loc 1 564 13
 3616 1838 13060000 		li	a2,0
 3617 183c 9305A000 		li	a1,10
 3618 1840 03A54700 		lw	a0,4(a5)
 3619 1844 97000000 		call	_Z8printIntiii@plt
GAS LISTING /tmp/ccg8jNLS.s 			page 104


 3619      E7800000 
 3620              	.LVL371:
 565:src/tcb.cpp   ****     printInt(molekul->ids[2]);
 3621              		.loc 1 565 5 is_stmt 1
 565:src/tcb.cpp   ****     printInt(molekul->ids[2]);
 3622              		.loc 1 565 16 is_stmt 0
 3623 184c 17050000 		lla	a0,.LC21
 3623      13050500 
 3624 1854 97000000 		call	_Z11printStringPKc@plt
 3624      E7800000 
 3625              	.LVL372:
 566:src/tcb.cpp   ****     printString("\n");
 3626              		.loc 1 566 5 is_stmt 1
 566:src/tcb.cpp   ****     printString("\n");
 3627              		.loc 1 566 23 is_stmt 0
 3628 185c 833784FD 		ld	a5,-40(s0)
 3629 1860 83B70700 		ld	a5,0(a5)
 566:src/tcb.cpp   ****     printString("\n");
 3630              		.loc 1 566 13
 3631 1864 13060000 		li	a2,0
 3632 1868 9305A000 		li	a1,10
 3633 186c 03A58700 		lw	a0,8(a5)
 3634 1870 97000000 		call	_Z8printIntiii@plt
 3634      E7800000 
 3635              	.LVL373:
 567:src/tcb.cpp   ****     printString(molekul->type[0]);
 3636              		.loc 1 567 5 is_stmt 1
 567:src/tcb.cpp   ****     printString(molekul->type[0]);
 3637              		.loc 1 567 16 is_stmt 0
 3638 1878 17050000 		lla	a0,.LC1
 3638      13050500 
 3639 1880 97000000 		call	_Z11printStringPKc@plt
 3639      E7800000 
 3640              	.LVL374:
 568:src/tcb.cpp   ****     printString("-");
 3641              		.loc 1 568 5 is_stmt 1
 568:src/tcb.cpp   ****     printString("-");
 3642              		.loc 1 568 32 is_stmt 0
 3643 1888 833784FD 		ld	a5,-40(s0)
 568:src/tcb.cpp   ****     printString("-");
 3644              		.loc 1 568 26
 3645 188c 83B78700 		ld	a5,8(a5)
 568:src/tcb.cpp   ****     printString("-");
 3646              		.loc 1 568 16
 3647 1890 03B50700 		ld	a0,0(a5)
 3648 1894 97000000 		call	_Z11printStringPKc@plt
 3648      E7800000 
 3649              	.LVL375:
 569:src/tcb.cpp   ****     printString(molekul->type[1]);
 3650              		.loc 1 569 5 is_stmt 1
 569:src/tcb.cpp   ****     printString(molekul->type[1]);
 3651              		.loc 1 569 16 is_stmt 0
 3652 189c 17050000 		lla	a0,.LC21
 3652      13050500 
 3653 18a4 97000000 		call	_Z11printStringPKc@plt
 3653      E7800000 
 3654              	.LVL376:
GAS LISTING /tmp/ccg8jNLS.s 			page 105


 570:src/tcb.cpp   ****     printString("-");
 3655              		.loc 1 570 5 is_stmt 1
 570:src/tcb.cpp   ****     printString("-");
 3656              		.loc 1 570 26 is_stmt 0
 3657 18ac 833784FD 		ld	a5,-40(s0)
 3658 18b0 83B78700 		ld	a5,8(a5)
 570:src/tcb.cpp   ****     printString("-");
 3659              		.loc 1 570 16
 3660 18b4 03B58700 		ld	a0,8(a5)
 3661 18b8 97000000 		call	_Z11printStringPKc@plt
 3661      E7800000 
 3662              	.LVL377:
 571:src/tcb.cpp   ****     printString(molekul->type[2]);
 3663              		.loc 1 571 5 is_stmt 1
 571:src/tcb.cpp   ****     printString(molekul->type[2]);
 3664              		.loc 1 571 16 is_stmt 0
 3665 18c0 17050000 		lla	a0,.LC21
 3665      13050500 
 3666 18c8 97000000 		call	_Z11printStringPKc@plt
 3666      E7800000 
 3667              	.LVL378:
 572:src/tcb.cpp   ****     printString("\n");
 3668              		.loc 1 572 5 is_stmt 1
 572:src/tcb.cpp   ****     printString("\n");
 3669              		.loc 1 572 26 is_stmt 0
 3670 18d0 833784FD 		ld	a5,-40(s0)
 3671 18d4 83B78700 		ld	a5,8(a5)
 572:src/tcb.cpp   ****     printString("\n");
 3672              		.loc 1 572 16
 3673 18d8 03B50701 		ld	a0,16(a5)
 3674 18dc 97000000 		call	_Z11printStringPKc@plt
 3674      E7800000 
 3675              	.LVL379:
 573:src/tcb.cpp   **** 
 3676              		.loc 1 573 5 is_stmt 1
 573:src/tcb.cpp   **** 
 3677              		.loc 1 573 16 is_stmt 0
 3678 18e4 17050000 		lla	a0,.LC1
 3678      13050500 
 3679 18ec 97000000 		call	_Z11printStringPKc@plt
 3679      E7800000 
 3680              	.LVL380:
 575:src/tcb.cpp   **** void TCB::barrier(unsigned int id, Molecule** molekul,const char* element) {
 3681              		.loc 1 575 1
 3682 18f4 83308102 		ld	ra,40(sp)
 3683              		.cfi_remember_state
 3684              		.cfi_restore 1
 3685 18f8 03340102 		ld	s0,32(sp)
 3686              		.cfi_restore 8
 3687              		.cfi_def_cfa 2, 48
 3688 18fc 83348101 		ld	s1,24(sp)
 3689              		.cfi_restore 9
 3690 1900 13010103 		addi	sp,sp,48
 3691              		.cfi_def_cfa_offset 0
 3692 1904 67800000 		jr	ra
 3693              	.LVL381:
 3694              	.L164:
GAS LISTING /tmp/ccg8jNLS.s 			page 106


 3695              		.cfi_restore_state
 555:src/tcb.cpp   ****         fsH20=true;
 3696              		.loc 1 555 9 is_stmt 1
 555:src/tcb.cpp   ****         fsH20=true;
 3697              		.loc 1 555 19 is_stmt 0
 3698 1908 97000000 		call	_ZN3TCB10setAtomH20Ev
 3698      E7800000 
 3699              	.LVL382:
 556:src/tcb.cpp   ****     }
 3700              		.loc 1 556 9 is_stmt 1
 556:src/tcb.cpp   ****     }
 3701              		.loc 1 556 14 is_stmt 0
 3702 1910 93071000 		li	a5,1
 3703 1914 17070000 		sb	a5,.LANCHOR0+440,a4
 3703      2300F700 
 3704 191c 6FF01FEB 		j	.L162
 3705              		.cfi_endproc
 3706              	.LFE81:
 3708              		.align	2
 3709              		.globl	_ZN3TCB16setDiningSavagesEv
 3711              	_ZN3TCB16setDiningSavagesEv:
 3712              	.LFB86:
 634:src/tcb.cpp   ****     if(!fsDiningSavage){
 3713              		.loc 1 634 30 is_stmt 1
 3714              		.cfi_startproc
 635:src/tcb.cpp   ****         fsDiningSavage=true;
 3715              		.loc 1 635 5
 635:src/tcb.cpp   ****         fsDiningSavage=true;
 3716              		.loc 1 635 8 is_stmt 0
 3717 1920 97070000 		lbu	a5,.LANCHOR0+441
 3717      83C70700 
 635:src/tcb.cpp   ****         fsDiningSavage=true;
 3718              		.loc 1 635 5
 3719 1928 63840700 		beqz	a5,.L171
 3720 192c 67800000 		ret
 3721              	.L171:
 634:src/tcb.cpp   ****     if(!fsDiningSavage){
 3722              		.loc 1 634 30
 3723 1930 130101FE 		addi	sp,sp,-32
 3724              		.cfi_def_cfa_offset 32
 3725 1934 233C1100 		sd	ra,24(sp)
 3726 1938 23388100 		sd	s0,16(sp)
 3727 193c 23349100 		sd	s1,8(sp)
 3728              		.cfi_offset 1, -8
 3729              		.cfi_offset 8, -16
 3730              		.cfi_offset 9, -24
 3731 1940 13040102 		addi	s0,sp,32
 3732              		.cfi_def_cfa 8, 0
 636:src/tcb.cpp   ****         mutex = new Semaphore_k(1);
 3733              		.loc 1 636 9 is_stmt 1
 636:src/tcb.cpp   ****         mutex = new Semaphore_k(1);
 3734              		.loc 1 636 23 is_stmt 0
 3735 1944 97040000 		lla	s1,.LANCHOR0
 3735      93840400 
 3736 194c 93071000 		li	a5,1
 3737 1950 A38CF41A 		sb	a5,441(s1)
 637:src/tcb.cpp   ****         semSavage = new Semaphore_k(0);
GAS LISTING /tmp/ccg8jNLS.s 			page 107


 3738              		.loc 1 637 9 is_stmt 1
 3739              	.LVL383:
 3740              	.LBB470:
 3741              	.LBB471:
  26:src/../h/Semaphore_k.hpp ****     }
 3742              		.loc 5 26 9
  26:src/../h/Semaphore_k.hpp ****     }
 3743              		.loc 5 26 42 is_stmt 0
 3744 1954 13058001 		li	a0,24
 3745 1958 97000000 		call	_ZN15memoryAllocator9mem_allocEm@plt
 3745      E7800000 
 3746              	.LVL384:
 3747              	.LBE471:
 3748              	.LBE470:
 3749              	.LBB472:
 3750              	.LBB473:
 3751              		.loc 5 39 60
 3752 1960 23000500 		sb	zero,0(a0)
 3753 1964 93071000 		li	a5,1
 3754 1968 2322F500 		sw	a5,4(a0)
 3755              	.LVL385:
 3756              	.LBB474:
 3757              	.LBB475:
  26:src/../h/List.hpp **** 
 3758              		.loc 2 26 30
 3759 196c 23340500 		sd	zero,8(a0)
 3760 1970 23380500 		sd	zero,16(a0)
 3761              	.LVL386:
 3762              	.LBE475:
 3763              	.LBE474:
 3764              	.LBE473:
 3765              	.LBE472:
 637:src/tcb.cpp   ****         semSavage = new Semaphore_k(0);
 3766              		.loc 1 637 15
 3767 1974 23B0A41C 		sd	a0,448(s1)
 638:src/tcb.cpp   ****         semCook = new Semaphore_k(0);
 3768              		.loc 1 638 9 is_stmt 1
 3769              	.LVL387:
 3770              	.LBB476:
 3771              	.LBB477:
  26:src/../h/Semaphore_k.hpp ****     }
 3772              		.loc 5 26 9
  26:src/../h/Semaphore_k.hpp ****     }
 3773              		.loc 5 26 42 is_stmt 0
 3774 1978 13058001 		li	a0,24
 3775 197c 97000000 		call	_ZN15memoryAllocator9mem_allocEm@plt
 3775      E7800000 
 3776              	.LVL388:
 3777              	.LBE477:
 3778              	.LBE476:
 3779              	.LBB478:
 3780              	.LBB479:
 3781              		.loc 5 39 60
 3782 1984 23000500 		sb	zero,0(a0)
 3783 1988 23220500 		sw	zero,4(a0)
 3784              	.LVL389:
 3785              	.LBB480:
GAS LISTING /tmp/ccg8jNLS.s 			page 108


 3786              	.LBB481:
  26:src/../h/List.hpp **** 
 3787              		.loc 2 26 30
 3788 198c 23340500 		sd	zero,8(a0)
 3789 1990 23380500 		sd	zero,16(a0)
 3790              	.LVL390:
 3791              	.LBE481:
 3792              	.LBE480:
 3793              	.LBE479:
 3794              	.LBE478:
 638:src/tcb.cpp   ****         semCook = new Semaphore_k(0);
 3795              		.loc 1 638 19
 3796 1994 23B4A41C 		sd	a0,456(s1)
 639:src/tcb.cpp   ****     }
 3797              		.loc 1 639 9 is_stmt 1
 3798              	.LVL391:
 3799              	.LBB482:
 3800              	.LBB483:
  26:src/../h/Semaphore_k.hpp ****     }
 3801              		.loc 5 26 9
  26:src/../h/Semaphore_k.hpp ****     }
 3802              		.loc 5 26 42 is_stmt 0
 3803 1998 13058001 		li	a0,24
 3804 199c 97000000 		call	_ZN15memoryAllocator9mem_allocEm@plt
 3804      E7800000 
 3805              	.LVL392:
 3806              	.LBE483:
 3807              	.LBE482:
 3808              	.LBB484:
 3809              	.LBB485:
 3810              		.loc 5 39 60
 3811 19a4 23000500 		sb	zero,0(a0)
 3812 19a8 23220500 		sw	zero,4(a0)
 3813              	.LVL393:
 3814              	.LBB486:
 3815              	.LBB487:
  26:src/../h/List.hpp **** 
 3816              		.loc 2 26 30
 3817 19ac 23340500 		sd	zero,8(a0)
 3818 19b0 23380500 		sd	zero,16(a0)
 3819              	.LVL394:
 3820              	.LBE487:
 3821              	.LBE486:
 3822              	.LBE485:
 3823              	.LBE484:
 639:src/tcb.cpp   ****     }
 3824              		.loc 1 639 17
 3825 19b4 23B8A41C 		sd	a0,464(s1)
 642:src/tcb.cpp   **** 
 3826              		.loc 1 642 1
 3827 19b8 83308101 		ld	ra,24(sp)
 3828              		.cfi_restore 1
 3829 19bc 03340101 		ld	s0,16(sp)
 3830              		.cfi_restore 8
 3831              		.cfi_def_cfa 2, 32
 3832 19c0 83348100 		ld	s1,8(sp)
 3833              		.cfi_restore 9
GAS LISTING /tmp/ccg8jNLS.s 			page 109


 3834 19c4 13010102 		addi	sp,sp,32
 3835              		.cfi_def_cfa_offset 0
 3836 19c8 67800000 		jr	ra
 3837              		.cfi_endproc
 3838              	.LFE86:
 3840              		.section	.rodata.str1.8
 3841 0212 00000000 		.align	3
 3841      0000
 3842              	.LC23:
 3843 0218 44697620 		.string	"Div jede\n"
 3843      6A656465 
 3843      0A00
 3844              		.text
 3845              		.align	2
 3846              		.globl	_ZN3TCB6savageEi
 3848              	_ZN3TCB6savageEi:
 3849              	.LFB84:
 609:src/tcb.cpp   ****     setDiningSavages();
 3850              		.loc 1 609 26 is_stmt 1
 3851              		.cfi_startproc
 3852              	.LVL395:
 3853 19cc 130101FE 		addi	sp,sp,-32
 3854              		.cfi_def_cfa_offset 32
 3855 19d0 233C1100 		sd	ra,24(sp)
 3856 19d4 23388100 		sd	s0,16(sp)
 3857 19d8 23349100 		sd	s1,8(sp)
 3858              		.cfi_offset 1, -8
 3859              		.cfi_offset 8, -16
 3860              		.cfi_offset 9, -24
 3861 19dc 13040102 		addi	s0,sp,32
 3862              		.cfi_def_cfa 8, 0
 610:src/tcb.cpp   ****     mutex->wait();
 3863              		.loc 1 610 5
 610:src/tcb.cpp   ****     mutex->wait();
 3864              		.loc 1 610 21 is_stmt 0
 3865 19e0 97000000 		call	_ZN3TCB16setDiningSavagesEv
 3865      E7800000 
 3866              	.LVL396:
 611:src/tcb.cpp   ****     if(pot==0){
 3867              		.loc 1 611 5 is_stmt 1
 611:src/tcb.cpp   ****     if(pot==0){
 3868              		.loc 1 611 16 is_stmt 0
 3869 19e8 97040000 		lla	s1,.LANCHOR0
 3869      93840400 
 3870 19f0 03B5041C 		ld	a0,448(s1)
 3871 19f4 97000000 		call	_ZN11Semaphore_k4waitEv@plt
 3871      E7800000 
 3872              	.LVL397:
 612:src/tcb.cpp   ****         semCook->signal();
 3873              		.loc 1 612 5 is_stmt 1
 612:src/tcb.cpp   ****         semCook->signal();
 3874              		.loc 1 612 11 is_stmt 0
 3875 19fc 83A7841D 		lw	a5,472(s1)
 612:src/tcb.cpp   ****         semCook->signal();
 3876              		.loc 1 612 5
 3877 1a00 63840704 		beqz	a5,.L175
 3878              	.L173:
GAS LISTING /tmp/ccg8jNLS.s 			page 110


 617:src/tcb.cpp   ****     mutex->signal();
 3879              		.loc 1 617 5 is_stmt 1
 617:src/tcb.cpp   ****     mutex->signal();
 3880              		.loc 1 617 8 is_stmt 0
 3881 1a04 97070000 		lla	a5,.LANCHOR0
 3881      93870700 
 3882 1a0c 03A7871D 		lw	a4,472(a5)
 3883 1a10 1B07F7FF 		addiw	a4,a4,-1
 3884 1a14 23ACE71C 		sw	a4,472(a5)
 618:src/tcb.cpp   ****     //thread_dispatch();
 3885              		.loc 1 618 5 is_stmt 1
 618:src/tcb.cpp   ****     //thread_dispatch();
 3886              		.loc 1 618 18 is_stmt 0
 3887 1a18 03B5071C 		ld	a0,448(a5)
 3888 1a1c 97000000 		call	_ZN11Semaphore_k6signalEv@plt
 3888      E7800000 
 3889              	.LVL398:
 620:src/tcb.cpp   **** 
 3890              		.loc 1 620 5 is_stmt 1
 620:src/tcb.cpp   **** 
 3891              		.loc 1 620 16 is_stmt 0
 3892 1a24 17050000 		lla	a0,.LC23
 3892      13050500 
 3893 1a2c 97000000 		call	_Z11printStringPKc@plt
 3893      E7800000 
 3894              	.LVL399:
 622:src/tcb.cpp   **** 
 3895              		.loc 1 622 1
 3896 1a34 83308101 		ld	ra,24(sp)
 3897              		.cfi_remember_state
 3898              		.cfi_restore 1
 3899 1a38 03340101 		ld	s0,16(sp)
 3900              		.cfi_restore 8
 3901              		.cfi_def_cfa 2, 32
 3902 1a3c 83348100 		ld	s1,8(sp)
 3903              		.cfi_restore 9
 3904 1a40 13010102 		addi	sp,sp,32
 3905              		.cfi_def_cfa_offset 0
 3906 1a44 67800000 		jr	ra
 3907              	.L175:
 3908              		.cfi_restore_state
 613:src/tcb.cpp   ****         // thread_dispatch();
 3909              		.loc 1 613 9 is_stmt 1
 613:src/tcb.cpp   ****         // thread_dispatch();
 3910              		.loc 1 613 24 is_stmt 0
 3911 1a48 03B5041D 		ld	a0,464(s1)
 3912 1a4c 97000000 		call	_ZN11Semaphore_k6signalEv@plt
 3912      E7800000 
 3913              	.LVL400:
 615:src/tcb.cpp   ****     }
 3914              		.loc 1 615 9 is_stmt 1
 615:src/tcb.cpp   ****     }
 3915              		.loc 1 615 24 is_stmt 0
 3916 1a54 03B5841C 		ld	a0,456(s1)
 3917 1a58 97000000 		call	_ZN11Semaphore_k4waitEv@plt
 3917      E7800000 
 3918              	.LVL401:
GAS LISTING /tmp/ccg8jNLS.s 			page 111


 3919 1a60 6FF05FFA 		j	.L173
 3920              		.cfi_endproc
 3921              	.LFE84:
 3923              		.section	.rodata.str1.8
 3924 0222 00000000 		.align	3
 3924      0000
 3925              	.LC24:
 3926 0228 4B757661 		.string	"Kuvar priprema hranu\n"
 3926      72207072 
 3926      69707265 
 3926      6D612068 
 3926      72616E75 
 3927              		.text
 3928              		.align	2
 3929              		.globl	_ZN3TCB4cookEv
 3931              	_ZN3TCB4cookEv:
 3932              	.LFB85:
 624:src/tcb.cpp   ****     setDiningSavages();
 3933              		.loc 1 624 18 is_stmt 1
 3934              		.cfi_startproc
 3935 1a64 130101FE 		addi	sp,sp,-32
 3936              		.cfi_def_cfa_offset 32
 3937 1a68 233C1100 		sd	ra,24(sp)
 3938 1a6c 23388100 		sd	s0,16(sp)
 3939 1a70 23349100 		sd	s1,8(sp)
 3940              		.cfi_offset 1, -8
 3941              		.cfi_offset 8, -16
 3942              		.cfi_offset 9, -24
 3943 1a74 13040102 		addi	s0,sp,32
 3944              		.cfi_def_cfa 8, 0
 625:src/tcb.cpp   ****     semCook->wait();
 3945              		.loc 1 625 5
 625:src/tcb.cpp   ****     semCook->wait();
 3946              		.loc 1 625 21 is_stmt 0
 3947 1a78 97000000 		call	_ZN3TCB16setDiningSavagesEv
 3947      E7800000 
 3948              	.LVL402:
 626:src/tcb.cpp   ****     printString("Kuvar priprema hranu\n");
 3949              		.loc 1 626 5 is_stmt 1
 626:src/tcb.cpp   ****     printString("Kuvar priprema hranu\n");
 3950              		.loc 1 626 18 is_stmt 0
 3951 1a80 97040000 		lla	s1,.LANCHOR0
 3951      93840400 
 3952 1a88 03B5041D 		ld	a0,464(s1)
 3953 1a8c 97000000 		call	_ZN11Semaphore_k4waitEv@plt
 3953      E7800000 
 3954              	.LVL403:
 627:src/tcb.cpp   ****     pot=S;
 3955              		.loc 1 627 5 is_stmt 1
 627:src/tcb.cpp   ****     pot=S;
 3956              		.loc 1 627 16 is_stmt 0
 3957 1a94 17050000 		lla	a0,.LC24
 3957      13050500 
 3958 1a9c 97000000 		call	_Z11printStringPKc@plt
 3958      E7800000 
 3959              	.LVL404:
 628:src/tcb.cpp   ****     semSavage->signal();
GAS LISTING /tmp/ccg8jNLS.s 			page 112


 3960              		.loc 1 628 5 is_stmt 1
 628:src/tcb.cpp   ****     semSavage->signal();
 3961              		.loc 1 628 8 is_stmt 0
 3962 1aa4 93072003 		li	a5,50
 3963 1aa8 23ACF41C 		sw	a5,472(s1)
 629:src/tcb.cpp   ****     //thread_dispatch();
 3964              		.loc 1 629 5 is_stmt 1
 629:src/tcb.cpp   ****     //thread_dispatch();
 3965              		.loc 1 629 22 is_stmt 0
 3966 1aac 03B5841C 		ld	a0,456(s1)
 3967 1ab0 97000000 		call	_ZN11Semaphore_k6signalEv@plt
 3967      E7800000 
 3968              	.LVL405:
 632:src/tcb.cpp   **** 
 3969              		.loc 1 632 1
 3970 1ab8 83308101 		ld	ra,24(sp)
 3971              		.cfi_restore 1
 3972 1abc 03340101 		ld	s0,16(sp)
 3973              		.cfi_restore 8
 3974              		.cfi_def_cfa 2, 32
 3975 1ac0 83348100 		ld	s1,8(sp)
 3976              		.cfi_restore 9
 3977 1ac4 13010102 		addi	sp,sp,32
 3978              		.cfi_def_cfa_offset 0
 3979 1ac8 67800000 		jr	ra
 3980              		.cfi_endproc
 3981              	.LFE85:
 3983              		.section	.rodata.str1.8
 3984 023e 0000     		.align	3
 3985              	.LC25:
 3986 0240 526F6469 		.string	"Roditelj lovi za decu - id: "
 3986      74656C6A 
 3986      206C6F76 
 3986      69207A61 
 3986      20646563 
 3987 025d 000000   		.align	3
 3988              	.LC26:
 3989 0260 526F6469 		.string	"Roditelj napunio ciniju\n"
 3989      74656C6A 
 3989      206E6170 
 3989      756E696F 
 3989      2063696E 
 3990              		.text
 3991              		.align	2
 3992              		.globl	_ZN3TCB21parentHuntForChildrenEj
 3994              	_ZN3TCB21parentHuntForChildrenEj:
 3995              	.LFB89:
 670:src/tcb.cpp   ****     parentt->wait();
 3996              		.loc 1 670 50 is_stmt 1
 3997              		.cfi_startproc
 3998              	.LVL406:
 3999 1acc 130101FE 		addi	sp,sp,-32
 4000              		.cfi_def_cfa_offset 32
 4001 1ad0 233C1100 		sd	ra,24(sp)
 4002 1ad4 23388100 		sd	s0,16(sp)
 4003 1ad8 23349100 		sd	s1,8(sp)
 4004 1adc 23302101 		sd	s2,0(sp)
GAS LISTING /tmp/ccg8jNLS.s 			page 113


 4005              		.cfi_offset 1, -8
 4006              		.cfi_offset 8, -16
 4007              		.cfi_offset 9, -24
 4008              		.cfi_offset 18, -32
 4009 1ae0 13040102 		addi	s0,sp,32
 4010              		.cfi_def_cfa 8, 0
