GAS LISTING /tmp/ccg8jNLS.s 			page 1


   1              		.file	"tcb.cpp"
   2              		.option pic
   3              		.option norelax
   4              		.text
   5              	.Ltext0:
   6              		.align	2
   8              	_Z41__static_initialization_and_destruction_0ii:
   9              	.LFB104:
  10              		.file 1 "src/tcb.cpp"
   1:src/tcb.cpp   **** //
   2:src/tcb.cpp   **** // Created by os on 5/17/24.
   3:src/tcb.cpp   **** //
   4:src/tcb.cpp   **** 
   5:src/tcb.cpp   **** #include "../h/tcb.hpp"
   6:src/tcb.cpp   **** #include "../h/riscv.hpp"
   7:src/tcb.cpp   **** #include "../h/syscall_cpp.hpp"
   8:src/tcb.cpp   **** #include "../test/printing.hpp"
   9:src/tcb.cpp   **** #include "../h/Semaphore_k.hpp"
  10:src/tcb.cpp   **** 
  11:src/tcb.cpp   **** int TCB::waiting=0;
  12:src/tcb.cpp   **** 
  13:src/tcb.cpp   **** TCB *TCB::running = nullptr;
  14:src/tcb.cpp   **** int TCB::ID =0;
  15:src/tcb.cpp   **** 
  16:src/tcb.cpp   **** 
  17:src/tcb.cpp   **** int TCB::numOfWoman=0;
  18:src/tcb.cpp   **** int TCB::numOfMan=0;
  19:src/tcb.cpp   **** 
  20:src/tcb.cpp   **** Semaphore_k* TCB::empty= nullptr;
  21:src/tcb.cpp   **** Semaphore_k* TCB::toilet= nullptr;
  22:src/tcb.cpp   **** Semaphore_k* TCB::mutexMen = nullptr;
  23:src/tcb.cpp   **** Semaphore_k* TCB::mutexWomen = nullptr;
  24:src/tcb.cpp   **** Semaphore_k* TCB::entry = nullptr;
  25:src/tcb.cpp   **** bool TCB::firstSet = false;
  26:src/tcb.cpp   **** 
  27:src/tcb.cpp   **** Lista<TCB> TCB::ListBarier;
  28:src/tcb.cpp   **** bool TCB::fsBarrier =false;
  29:src/tcb.cpp   **** int TCB::numCalls=0;
  30:src/tcb.cpp   **** int TCB::numOFthreads=0;
  31:src/tcb.cpp   **** 
  32:src/tcb.cpp   **** //atomic broadcast
  33:src/tcb.cpp   **** const int CAPACITY=10;
  34:src/tcb.cpp   **** const int M=8;
  35:src/tcb.cpp   **** int buffer[CAPACITY];
  36:src/tcb.cpp   **** int consumerCnt[CAPACITY]={0};
  37:src/tcb.cpp   **** Semaphore_k* emptyy;
  38:src/tcb.cpp   **** Semaphore_k* full[M];
  39:src/tcb.cpp   **** Semaphore_k* mutexC[CAPACITY];
  40:src/tcb.cpp   **** bool TCB::prodConsum = false;
  41:src/tcb.cpp   **** int TCB::newItem =0;
  42:src/tcb.cpp   **** 
  43:src/tcb.cpp   **** 
  44:src/tcb.cpp   **** Semaphore_k* TCB::semMaxThreads = nullptr;
  45:src/tcb.cpp   **** bool TCB::setMaxTh = false;
  46:src/tcb.cpp   **** int TCB::currThr = 0;
  47:src/tcb.cpp   **** 
  48:src/tcb.cpp   **** int TCB::threadCount = 0;
GAS LISTING /tmp/ccg8jNLS.s 			page 2


  49:src/tcb.cpp   **** int TCB::calls = 0;
  50:src/tcb.cpp   **** bool TCB::setBarrier2=false;
  51:src/tcb.cpp   **** Semaphore_k* TCB::firstDoor = nullptr;
  52:src/tcb.cpp   **** Semaphore_k* TCB::secondDoor = nullptr;
  53:src/tcb.cpp   **** 
  54:src/tcb.cpp   **** //moelkul H20
  55:src/tcb.cpp   **** 
  56:src/tcb.cpp   **** bool TCB::fsH20= false;
  57:src/tcb.cpp   **** Molecule* TCB::molecule= nullptr;
  58:src/tcb.cpp   **** int TCB::count =0;
  59:src/tcb.cpp   **** Semaphore_k* TCB::hydroSem = nullptr;
  60:src/tcb.cpp   **** Semaphore_k* TCB::oxySem= nullptr;
  61:src/tcb.cpp   **** Semaphore_k* TCB::door1= nullptr;
  62:src/tcb.cpp   **** Semaphore_k* TCB::door2= nullptr;
  63:src/tcb.cpp   **** 
  64:src/tcb.cpp   **** //DINING SAVAGE
  65:src/tcb.cpp   **** const int S=50;
  66:src/tcb.cpp   **** 
  67:src/tcb.cpp   **** Semaphore_k* TCB::mutex = nullptr;
  68:src/tcb.cpp   **** Semaphore_k* TCB::semSavage = nullptr;
  69:src/tcb.cpp   **** Semaphore_k* TCB::semCook = nullptr;
  70:src/tcb.cpp   **** int TCB::pot = 0;
  71:src/tcb.cpp   **** bool TCB::fsDiningSavage=false;
  72:src/tcb.cpp   **** 
  73:src/tcb.cpp   **** //HUGRY BIRDS PROBLEM
  74:src/tcb.cpp   **** 
  75:src/tcb.cpp   **** bool TCB::setHngryBird=false;
  76:src/tcb.cpp   **** Semaphore_k* TCB::parentt = nullptr;
  77:src/tcb.cpp   **** Semaphore_k* TCB::mutexChild = nullptr;
  78:src/tcb.cpp   **** Semaphore_k* TCB::mutexParent = nullptr;
  79:src/tcb.cpp   **** const int F=24;//broj crva u posudi
  80:src/tcb.cpp   **** int TCB::pot1 = 0;
  81:src/tcb.cpp   **** 
  82:src/tcb.cpp   **** //HONEY BEE PROBLEM
  83:src/tcb.cpp   **** int TCB::kosnica=0;
  84:src/tcb.cpp   **** bool TCB::fsMedaPcele=false;
  85:src/tcb.cpp   **** Semaphore_k* TCB::mtx = nullptr;
  86:src/tcb.cpp   **** Semaphore_k* TCB::bear = nullptr;
  87:src/tcb.cpp   **** 
  88:src/tcb.cpp   **** TCB* TCB::kreiraj_thread(TCB** handle, TCB::Body body, void* arg, char* stek){
  89:src/tcb.cpp   ****     *handle = new TCB(body,arg,stek);
  90:src/tcb.cpp   **** 
  91:src/tcb.cpp   ****     return *handle;
  92:src/tcb.cpp   **** }
  93:src/tcb.cpp   **** 
  94:src/tcb.cpp   **** //TCB::TCB(TCB &parent):
  95:src/tcb.cpp   **** void TCB::yield()
  96:src/tcb.cpp   **** {
  97:src/tcb.cpp   ****     Riscv::w_a0(0x13);
  98:src/tcb.cpp   ****     __asm__ volatile ("ecall");
  99:src/tcb.cpp   **** }
 100:src/tcb.cpp   **** 
 101:src/tcb.cpp   **** void TCB::dispatch()
 102:src/tcb.cpp   **** {
 103:src/tcb.cpp   ****     TCB *old = running;
 104:src/tcb.cpp   ****     if (!old->isFinished() && !old->isBlocked()) { Scheduler::put(old); }
 105:src/tcb.cpp   ****     else if(old->isFinished()){
GAS LISTING /tmp/ccg8jNLS.s 			page 3


 106:src/tcb.cpp   ****         delete old->stack;
 107:src/tcb.cpp   ****         old->stack = nullptr;
 108:src/tcb.cpp   ****     }
 109:src/tcb.cpp   ****     running = Scheduler::get();
 110:src/tcb.cpp   **** 
 111:src/tcb.cpp   ****     if(running->isMain()) {
 112:src/tcb.cpp   ****         Riscv::ms_sstatus(Riscv::SSTATUS_SPP);
 113:src/tcb.cpp   ****         //setujem previous privilege na 1 -> privilegovan rezim
 114:src/tcb.cpp   ****     }
 115:src/tcb.cpp   ****     else{
 116:src/tcb.cpp   ****         Riscv::mc_sstatus(Riscv::SSTATUS_SPP);
 117:src/tcb.cpp   ****         //klirujem previous privilege na 0 -> korisnicki rezim
 118:src/tcb.cpp   ****         //sret me stavlja u rezim odredjen bitom spp automatski
 119:src/tcb.cpp   ****         //ako sam u prekidnu rutinu usla sa spp = 0
 120:src/tcb.cpp   ****         //vracam se u korisnicki
 121:src/tcb.cpp   ****     }
 122:src/tcb.cpp   ****     if(old!=running){
 123:src/tcb.cpp   ****         TCB::contextSwitch(&old->context, &running->context);
 124:src/tcb.cpp   ****         if(running->pinged){
 125:src/tcb.cpp   ****             printString("Alocirani blokovi do pingovanja: ");
 126:src/tcb.cpp   ****             printInt(running->getAllocatedBlocks());
 127:src/tcb.cpp   ****             printString("\n");
 128:src/tcb.cpp   ****             printString("Vreme:");
 129:src/tcb.cpp   ****             printInt(running->getRunTime());
 130:src/tcb.cpp   ****             printString("\n");
 131:src/tcb.cpp   ****             running->setPinged(false);
 132:src/tcb.cpp   ****         }
 133:src/tcb.cpp   ****     }
 134:src/tcb.cpp   **** 
 135:src/tcb.cpp   **** }
 136:src/tcb.cpp   **** 
 137:src/tcb.cpp   **** void TCB::threadWrapper()
 138:src/tcb.cpp   **** {
 139:src/tcb.cpp   **** 
 140:src/tcb.cpp   ****     //ovde sam u sistemskom rezimu
 141:src/tcb.cpp   ****     Riscv::popSppSpie();
 142:src/tcb.cpp   ****     //ovde sam u korisnickom rezimu
 143:src/tcb.cpp   ****     running->body(running->arg);
 144:src/tcb.cpp   **** 
 145:src/tcb.cpp   ****     if(running->parent && running->parent->waitingForChildren){
 146:src/tcb.cpp   ****         running->parent->joinAllsem->signal();
 147:src/tcb.cpp   ****         running->parent->numberOfChildren--;
 148:src/tcb.cpp   ****     }
 149:src/tcb.cpp   **** 
 150:src/tcb.cpp   ****     //set max threads
 151:src/tcb.cpp   ****     if(setMaxTh && currThr>0){
 152:src/tcb.cpp   ****         currThr--;
 153:src/tcb.cpp   ****         semMaxThreads->signal();
 154:src/tcb.cpp   ****     }
 155:src/tcb.cpp   **** 
 156:src/tcb.cpp   **** 
 157:src/tcb.cpp   **** 
 158:src/tcb.cpp   ****     //korisnicki rezim
 159:src/tcb.cpp   ****     thread_exit();//prebaci me u sistemski rezim
 160:src/tcb.cpp   **** 
 161:src/tcb.cpp   ****     //running->setFinished(true);
 162:src/tcb.cpp   **** 
GAS LISTING /tmp/ccg8jNLS.s 			page 4


 163:src/tcb.cpp   ****     //sistemski poziv thread dispatch/thread exit, nikako kao na vezbama TCB::dispatch() ili TCB::y
 164:src/tcb.cpp   ****     //jer cu ako zovem interni dispatch/yield zaglaviti u prekidnoj rutini u
 165:src/tcb.cpp   ****     //korisnickom rezimu i onda cim pokusam da upisem u sepc
 166:src/tcb.cpp   ****     //sve crkava zbog ilegalne instrukcije
 167:src/tcb.cpp   **** }
 168:src/tcb.cpp   **** 
 169:src/tcb.cpp   **** void TCB::join(TCB *handle) {
 170:src/tcb.cpp   ****     if(!handle->isFinished()){
 171:src/tcb.cpp   ****         running->setBlocked(true);
 172:src/tcb.cpp   ****         handle->joined.addLast(running);
 173:src/tcb.cpp   ****     }
 174:src/tcb.cpp   **** }
 175:src/tcb.cpp   **** 
 176:src/tcb.cpp   **** 
 177:src/tcb.cpp   **** void TCB::pustiSveNiti() {
 178:src/tcb.cpp   ****     while(this->joined.peekFirst()){
 179:src/tcb.cpp   ****         TCB* tcb=this->joined.removeFirst();
 180:src/tcb.cpp   ****         tcb->setBlocked(false);
 181:src/tcb.cpp   ****         Scheduler::put(tcb);
 182:src/tcb.cpp   ****     }
 183:src/tcb.cpp   **** }
 184:src/tcb.cpp   **** 
 185:src/tcb.cpp   **** 
 186:src/tcb.cpp   **** 
 187:src/tcb.cpp   **** 
 188:src/tcb.cpp   **** 
 189:src/tcb.cpp   **** TCB::TCB(Body body, void *arg, char *stek):
 190:src/tcb.cpp   ****         body(body),
 191:src/tcb.cpp   ****         stack(body!= nullptr?(char*)((uint64)stek-DEFAULT_STACK_SIZE): nullptr), context({(uint64)&
 192:src/tcb.cpp   ****         blocked(false),main(body==nullptr),arg(arg),id(ID++),msgE(nullptr),msgA(nullptr),fsSemaphor
 193:src/tcb.cpp   ****         nullptr),parent(nullptr),waitingForChildren(false),joinALL(false),numberOfChildren(0),joinA
 194:src/tcb.cpp   **** 
 195:src/tcb.cpp   **** 
 196:src/tcb.cpp   ****     if(body!=nullptr){
 197:src/tcb.cpp   **** 
 198:src/tcb.cpp   ****         parent=running;
 199:src/tcb.cpp   ****         if(parent){
 200:src/tcb.cpp   ****             parent->numberOfChildren++;
 201:src/tcb.cpp   ****         }
 202:src/tcb.cpp   ****         if(fsBarrier){
 203:src/tcb.cpp   ****             numOFthreads++;
 204:src/tcb.cpp   ****         }
 205:src/tcb.cpp   ****         if(setMaxTh){
 206:src/tcb.cpp   ****             semMaxThreads->wait();
 207:src/tcb.cpp   ****             currThr++;
 208:src/tcb.cpp   ****         }
 209:src/tcb.cpp   ****         if(setBarrier2){
 210:src/tcb.cpp   ****             threadCount++;
 211:src/tcb.cpp   ****         }
 212:src/tcb.cpp   **** 
 213:src/tcb.cpp   ****         Scheduler::put(this);
 214:src/tcb.cpp   **** 
 215:src/tcb.cpp   **** 
 216:src/tcb.cpp   ****     }
 217:src/tcb.cpp   **** 
 218:src/tcb.cpp   **** }
 219:src/tcb.cpp   **** 
GAS LISTING /tmp/ccg8jNLS.s 			page 5


 220:src/tcb.cpp   **** 
 221:src/tcb.cpp   **** 
 222:src/tcb.cpp   **** 
 223:src/tcb.cpp   **** 
 224:src/tcb.cpp   **** 
 225:src/tcb.cpp   **** 
 226:src/tcb.cpp   **** 
 227:src/tcb.cpp   **** 
 228:src/tcb.cpp   **** 
 229:src/tcb.cpp   **** 
 230:src/tcb.cpp   **** 
 231:src/tcb.cpp   **** 
 232:src/tcb.cpp   **** 
 233:src/tcb.cpp   **** int TCB::getMyID() {
 234:src/tcb.cpp   ****     return  this->id;
 235:src/tcb.cpp   **** }
 236:src/tcb.cpp   **** 
 237:src/tcb.cpp   **** 
 238:src/tcb.cpp   **** 
 239:src/tcb.cpp   **** void TCB::setUnisexBatrroom() {
 240:src/tcb.cpp   ****     empty = new Semaphore_k(4);
 241:src/tcb.cpp   ****     toilet = new Semaphore_k(1);
 242:src/tcb.cpp   ****     mutexMen = new Semaphore_k(1);
 243:src/tcb.cpp   ****     mutexWomen = new Semaphore_k(1);
 244:src/tcb.cpp   ****     entry = new Semaphore_k(1);
 245:src/tcb.cpp   **** }
 246:src/tcb.cpp   **** 
 247:src/tcb.cpp   **** void TCB::man(unsigned int id) {
 248:src/tcb.cpp   ****     if(!firstSet){
 249:src/tcb.cpp   ****         setUnisexBatrroom();
 250:src/tcb.cpp   ****         firstSet=true;
 251:src/tcb.cpp   ****     }
 252:src/tcb.cpp   **** 
 253:src/tcb.cpp   ****     entry->wait();
 254:src/tcb.cpp   ****     mutexMen->wait();
 255:src/tcb.cpp   ****     printString("Usao novi muskarac, al ne koristi jos ");
 256:src/tcb.cpp   ****     printString("ID: ");
 257:src/tcb.cpp   ****     printInt(id);
 258:src/tcb.cpp   ****     printString("\n");
 259:src/tcb.cpp   ****     numOfMan++;
 260:src/tcb.cpp   ****     if(numOfMan==1){
 261:src/tcb.cpp   ****         toilet->wait();
 262:src/tcb.cpp   ****         printString("Usao jedan muskarac, zene ne mogu sad ulaziti\n");
 263:src/tcb.cpp   ****         printString("ID: ");
 264:src/tcb.cpp   ****         printInt(id);
 265:src/tcb.cpp   ****         printString("\n");
 266:src/tcb.cpp   ****     }
 267:src/tcb.cpp   ****     mutexMen->signal();
 268:src/tcb.cpp   ****     thread_dispatch();
 269:src/tcb.cpp   **** 
 270:src/tcb.cpp   ****     entry->signal();
 271:src/tcb.cpp   ****     thread_dispatch();
 272:src/tcb.cpp   ****     empty->wait();
 273:src/tcb.cpp   ****     printString("Muskarac koristi WC\n");
 274:src/tcb.cpp   ****     printString("ID: ");
 275:src/tcb.cpp   ****     printInt(id);
 276:src/tcb.cpp   ****     printString("\n");
GAS LISTING /tmp/ccg8jNLS.s 			page 6


 277:src/tcb.cpp   ****     empty->signal();
 278:src/tcb.cpp   ****     thread_dispatch();
 279:src/tcb.cpp   ****     mutexMen->wait();
 280:src/tcb.cpp   ****     printString("Muskarac izasao iz WC\n");
 281:src/tcb.cpp   ****     printString("ID: ");
 282:src/tcb.cpp   ****     printInt(id);
 283:src/tcb.cpp   ****     printString("\n");
 284:src/tcb.cpp   ****     numOfMan--;
 285:src/tcb.cpp   ****     if(numOfMan ==0){
 286:src/tcb.cpp   ****         toilet->signal();
 287:src/tcb.cpp   ****         thread_dispatch();
 288:src/tcb.cpp   ****     }
 289:src/tcb.cpp   ****     mutexMen->signal();
 290:src/tcb.cpp   ****     thread_dispatch();
 291:src/tcb.cpp   **** 
 292:src/tcb.cpp   **** 
 293:src/tcb.cpp   **** }
 294:src/tcb.cpp   **** 
 295:src/tcb.cpp   **** 
 296:src/tcb.cpp   **** 
 297:src/tcb.cpp   **** void TCB::woman(unsigned int id) {
 298:src/tcb.cpp   ****     if(!firstSet){
 299:src/tcb.cpp   ****         setUnisexBatrroom();
 300:src/tcb.cpp   ****         firstSet=true;
 301:src/tcb.cpp   ****     }
 302:src/tcb.cpp   ****     entry->wait();
 303:src/tcb.cpp   ****     mutexWomen->wait();
 304:src/tcb.cpp   ****     printString("Usla nova zena,al ne koristi jos,  ");
 305:src/tcb.cpp   ****     printString("ID: ");
 306:src/tcb.cpp   ****     printInt(id);
 307:src/tcb.cpp   ****     printString("\n");
 308:src/tcb.cpp   ****     numOfWoman++;
 309:src/tcb.cpp   ****     if(numOfWoman==1){
 310:src/tcb.cpp   ****         toilet->wait();
 311:src/tcb.cpp   ****         printString("Usla jedna zena, muskarci ne mogu sad ulaziti\n");
 312:src/tcb.cpp   ****         printString("ID: ");
 313:src/tcb.cpp   ****         printInt(id);
 314:src/tcb.cpp   ****         printString("\n");
 315:src/tcb.cpp   ****     }
 316:src/tcb.cpp   ****     mutexWomen->signal();
 317:src/tcb.cpp   ****     thread_dispatch();
 318:src/tcb.cpp   **** 
 319:src/tcb.cpp   ****     entry->signal();
 320:src/tcb.cpp   ****     thread_dispatch();
 321:src/tcb.cpp   ****     empty->wait();
 322:src/tcb.cpp   ****     printString("Zena koristi WC\n");
 323:src/tcb.cpp   ****     printString("ID: ");
 324:src/tcb.cpp   ****     printInt(id);
 325:src/tcb.cpp   ****     printString("\n");
 326:src/tcb.cpp   ****     empty->signal();
 327:src/tcb.cpp   ****     thread_dispatch();
 328:src/tcb.cpp   ****     mutexWomen->wait();
 329:src/tcb.cpp   ****     printString("Zena izasla iz WC\n");
 330:src/tcb.cpp   ****     printString("ID: ");
 331:src/tcb.cpp   ****     printInt(id);
 332:src/tcb.cpp   ****     printString("\n");
 333:src/tcb.cpp   ****     numOfWoman--;
GAS LISTING /tmp/ccg8jNLS.s 			page 7


 334:src/tcb.cpp   ****     if(numOfWoman ==0){
 335:src/tcb.cpp   ****         toilet->signal();
 336:src/tcb.cpp   ****         thread_dispatch();
 337:src/tcb.cpp   ****     }
 338:src/tcb.cpp   ****     mutexWomen->signal();
 339:src/tcb.cpp   ****     thread_dispatch();
 340:src/tcb.cpp   **** 
 341:src/tcb.cpp   **** 
 342:src/tcb.cpp   **** }
 343:src/tcb.cpp   **** 
 344:src/tcb.cpp   **** void TCB::barrier() {
 345:src/tcb.cpp   ****     if(!fsBarrier){
 346:src/tcb.cpp   ****         fsBarrier = true;
 347:src/tcb.cpp   ****         numOFthreads++;
 348:src/tcb.cpp   ****     }
 349:src/tcb.cpp   ****     numCalls++;
 350:src/tcb.cpp   **** 
 351:src/tcb.cpp   ****     if(numCalls==numOFthreads){
 352:src/tcb.cpp   ****         numCalls=0;
 353:src/tcb.cpp   ****         numOFthreads=0;
 354:src/tcb.cpp   ****         fsBarrier=false;
 355:src/tcb.cpp   ****         while(ListBarier.peekFirst()){
 356:src/tcb.cpp   ****             TCB* t =ListBarier.removeFirst();
 357:src/tcb.cpp   ****             t->setBlocked(false);
 358:src/tcb.cpp   ****             Scheduler::put(t);
 359:src/tcb.cpp   **** 
 360:src/tcb.cpp   ****         }
 361:src/tcb.cpp   ****     }
 362:src/tcb.cpp   ****     else{
 363:src/tcb.cpp   ****         running->setBlocked(true);
 364:src/tcb.cpp   ****         ListBarier.addLast(running);
 365:src/tcb.cpp   **** 
 366:src/tcb.cpp   ****     }
 367:src/tcb.cpp   **** 
 368:src/tcb.cpp   **** }
 369:src/tcb.cpp   **** 
 370:src/tcb.cpp   **** 
 371:src/tcb.cpp   **** 
 372:src/tcb.cpp   **** 
 373:src/tcb.cpp   **** char const *TCB::receive() {
 374:src/tcb.cpp   ****     running->setSem();
 375:src/tcb.cpp   ****     printString("Receive cekam...\n");
 376:src/tcb.cpp   ****     running->msgA->wait();
 377:src/tcb.cpp   ****     printString("Poruka primljena uspesno\n");
 378:src/tcb.cpp   ****     char const* msg = running->message;
 379:src/tcb.cpp   ****     running->msgE->signal();
 380:src/tcb.cpp   ****     return msg;
 381:src/tcb.cpp   **** 
 382:src/tcb.cpp   **** }
 383:src/tcb.cpp   **** void TCB::send(const char *msg) {
 384:src/tcb.cpp   ****     setSem();
 385:src/tcb.cpp   ****     printString("Send cekam...\n");
 386:src/tcb.cpp   ****     msgE->wait();
 387:src/tcb.cpp   ****     printString("Poruka poslata uspesno...\n");
 388:src/tcb.cpp   ****     message = msg;
 389:src/tcb.cpp   ****     msgA->signal();
 390:src/tcb.cpp   **** 
GAS LISTING /tmp/ccg8jNLS.s 			page 8


 391:src/tcb.cpp   **** }
 392:src/tcb.cpp   **** 
 393:src/tcb.cpp   **** void TCB::setSem() {
 394:src/tcb.cpp   ****     if(!fsSemaphores){
 395:src/tcb.cpp   ****         fsSemaphores=true;
 396:src/tcb.cpp   ****         msgA=new Semaphore_k(0);
 397:src/tcb.cpp   ****         msgE=new Semaphore_k(1);
 398:src/tcb.cpp   ****     }
 399:src/tcb.cpp   **** 
 400:src/tcb.cpp   **** }
 401:src/tcb.cpp   **** 
 402:src/tcb.cpp   **** void TCB::joinAll() {
 403:src/tcb.cpp   **** 
 404:src/tcb.cpp   ****     if(!joinALL){
 405:src/tcb.cpp   ****         joinALL=true;
 406:src/tcb.cpp   ****         joinAllsem= new Semaphore_k(0);
 407:src/tcb.cpp   ****         waitingForChildren=true;
 408:src/tcb.cpp   ****     }
 409:src/tcb.cpp   ****     for(int i=0;i<numberOfChildren;i++){
 410:src/tcb.cpp   ****         joinAllsem->wait();
 411:src/tcb.cpp   ****     }
 412:src/tcb.cpp   ****     joinALL=false;
 413:src/tcb.cpp   ****     numberOfChildren=0;
 414:src/tcb.cpp   **** }
 415:src/tcb.cpp   **** 
 416:src/tcb.cpp   **** void TCB::setMaxThreads(unsigned int num) {
 417:src/tcb.cpp   ****     if(!setMaxTh){
 418:src/tcb.cpp   ****         setMaxTh=true;
 419:src/tcb.cpp   ****         currThr = num;
 420:src/tcb.cpp   ****         semMaxThreads = new Semaphore_k(num);
 421:src/tcb.cpp   ****     }
 422:src/tcb.cpp   **** }
 423:src/tcb.cpp   **** 
 424:src/tcb.cpp   **** void TCB::barrier_2() {
 425:src/tcb.cpp   ****     setBarrier_2();
 426:src/tcb.cpp   **** 
 427:src/tcb.cpp   ****     firstDoor->wait();
 428:src/tcb.cpp   ****     calls++;
 429:src/tcb.cpp   ****     if(calls==threadCount){
 430:src/tcb.cpp   ****         secondDoor->signal();
 431:src/tcb.cpp   ****     }else{
 432:src/tcb.cpp   ****         firstDoor->signal();
 433:src/tcb.cpp   ****     }
 434:src/tcb.cpp   ****     secondDoor->wait();
 435:src/tcb.cpp   ****     calls--;
 436:src/tcb.cpp   ****     if(calls==0){
 437:src/tcb.cpp   ****         threadCount=1;
 438:src/tcb.cpp   ****         firstDoor->signal();
 439:src/tcb.cpp   ****     }else{
 440:src/tcb.cpp   ****         secondDoor->signal();
 441:src/tcb.cpp   ****     }
 442:src/tcb.cpp   **** 
 443:src/tcb.cpp   **** }
 444:src/tcb.cpp   **** 
 445:src/tcb.cpp   **** void TCB::setBarrier_2() {
 446:src/tcb.cpp   ****     if(!setBarrier2){
 447:src/tcb.cpp   ****         setBarrier2=true;
GAS LISTING /tmp/ccg8jNLS.s 			page 9


 448:src/tcb.cpp   ****         firstDoor = new Semaphore_k(1);
 449:src/tcb.cpp   ****         secondDoor = new Semaphore_k(0);
 450:src/tcb.cpp   ****         numCalls=0;
 451:src/tcb.cpp   ****         threadCount++;
 452:src/tcb.cpp   ****     }
 453:src/tcb.cpp   **** }
 454:src/tcb.cpp   **** 
 455:src/tcb.cpp   **** 
 456:src/tcb.cpp   **** //atomic broadcast
 457:src/tcb.cpp   **** 
 458:src/tcb.cpp   **** int writeIndex=0;
 459:src/tcb.cpp   **** 
 460:src/tcb.cpp   **** void TCB::producer(int id) {
 461:src/tcb.cpp   ****     if(!prodConsum){
 462:src/tcb.cpp   ****         setAtomicBroadcast();
 463:src/tcb.cpp   ****         prodConsum=true;
 464:src/tcb.cpp   ****     }
 465:src/tcb.cpp   ****     //int writeIndex=0;
 466:src/tcb.cpp   ****     for(int k=0;k<10;k++){
 467:src/tcb.cpp   ****         newItem +=100;
 468:src/tcb.cpp   ****         emptyy->wait();
 469:src/tcb.cpp   ****         buffer[writeIndex]=newItem;
 470:src/tcb.cpp   ****         printString("buffer[");
 471:src/tcb.cpp   ****         printInt(writeIndex);
 472:src/tcb.cpp   ****         printString("] - producer id = ");
 473:src/tcb.cpp   ****         printInt(id);
 474:src/tcb.cpp   ****         printString("\n");
 475:src/tcb.cpp   ****         writeIndex = (writeIndex+1)%CAPACITY;
 476:src/tcb.cpp   ****         for(int i=0;i<M;i++){
 477:src/tcb.cpp   ****             full[i]->signal();
 478:src/tcb.cpp   ****             thread_dispatch();
 479:src/tcb.cpp   ****         }
 480:src/tcb.cpp   **** 
 481:src/tcb.cpp   ****     }
 482:src/tcb.cpp   **** 
 483:src/tcb.cpp   **** 
 484:src/tcb.cpp   **** }
 485:src/tcb.cpp   **** 
 486:src/tcb.cpp   **** void TCB::consumer(int id) {
 487:src/tcb.cpp   ****     if(!prodConsum){
 488:src/tcb.cpp   ****         setAtomicBroadcast();
 489:src/tcb.cpp   ****         prodConsum=true;
 490:src/tcb.cpp   ****     }
 491:src/tcb.cpp   ****     int newI;
 492:src/tcb.cpp   ****     int readIndex=0;
 493:src/tcb.cpp   ****     for(int k=0;k<10;k++){
 494:src/tcb.cpp   ****         full[id]->wait();
 495:src/tcb.cpp   ****         newI=buffer[readIndex];
 496:src/tcb.cpp   ****         mutexC[readIndex]->wait();
 497:src/tcb.cpp   ****         consumerCnt[readIndex]++;
 498:src/tcb.cpp   **** 
 499:src/tcb.cpp   ****         printString("New item consumed: ");
 500:src/tcb.cpp   ****         printInt(newI);
 501:src/tcb.cpp   ****         printString(". Nit id = ");
 502:src/tcb.cpp   ****         printInt(id);
 503:src/tcb.cpp   ****         printString("\n");
 504:src/tcb.cpp   ****         if(consumerCnt[readIndex]==M){
GAS LISTING /tmp/ccg8jNLS.s 			page 10


 505:src/tcb.cpp   ****             consumerCnt[readIndex]=0;
 506:src/tcb.cpp   ****             emptyy->signal();
 507:src/tcb.cpp   ****             thread_dispatch();
 508:src/tcb.cpp   ****         }
 509:src/tcb.cpp   ****         mutexC[readIndex]->signal();
 510:src/tcb.cpp   ****         thread_dispatch();
 511:src/tcb.cpp   ****         readIndex=(readIndex+1)%CAPACITY;
 512:src/tcb.cpp   **** 
 513:src/tcb.cpp   **** 
 514:src/tcb.cpp   ****     }
 515:src/tcb.cpp   **** }
 516:src/tcb.cpp   **** 
 517:src/tcb.cpp   **** void TCB::setAtomicBroadcast() {
 518:src/tcb.cpp   ****     emptyy = new Semaphore_k(CAPACITY);
 519:src/tcb.cpp   ****     for(int i=0;i<M;i++){
 520:src/tcb.cpp   ****         full[i]=new Semaphore_k(0);
 521:src/tcb.cpp   **** 
 522:src/tcb.cpp   ****     }
 523:src/tcb.cpp   ****     for(int i=0;i<CAPACITY;i++){
 524:src/tcb.cpp   ****         mutexC[i]=new Semaphore_k(1);
 525:src/tcb.cpp   **** 
 526:src/tcb.cpp   ****     }
 527:src/tcb.cpp   **** }
 528:src/tcb.cpp   **** 
 529:src/tcb.cpp   **** //H2O problem
 530:src/tcb.cpp   **** void TCB::oxygen(unsigned int id) {
 531:src/tcb.cpp   ****     if(!fsH20){
 532:src/tcb.cpp   ****         setAtomH20();
 533:src/tcb.cpp   ****         fsH20=true;
 534:src/tcb.cpp   ****     }
 535:src/tcb.cpp   ****     oxySem->wait();
 536:src/tcb.cpp   ****     auto * molekul= new Molecule ;
 537:src/tcb.cpp   ****     barrier(id,&molekul,"O");
 538:src/tcb.cpp   ****     printInt(molekul->ids[0]);
 539:src/tcb.cpp   ****     printString("-");
 540:src/tcb.cpp   ****     printInt(molekul->ids[1]);
 541:src/tcb.cpp   ****     printString("-");
 542:src/tcb.cpp   ****     printInt(molekul->ids[2]);
 543:src/tcb.cpp   ****     printString("\n");
 544:src/tcb.cpp   ****     printString(molekul->type[0]);
 545:src/tcb.cpp   ****     printString("-");
 546:src/tcb.cpp   ****     printString(molekul->type[1]);
 547:src/tcb.cpp   ****     printString("-");
 548:src/tcb.cpp   ****     printString(molekul->type[2]);
 549:src/tcb.cpp   ****     printString("\n");
 550:src/tcb.cpp   **** 
 551:src/tcb.cpp   **** }
 552:src/tcb.cpp   **** 
 553:src/tcb.cpp   **** void TCB::hydrogen(unsigned int id) {
 554:src/tcb.cpp   ****     if(!fsH20){
 555:src/tcb.cpp   ****         setAtomH20();
 556:src/tcb.cpp   ****         fsH20=true;
 557:src/tcb.cpp   ****     }
 558:src/tcb.cpp   ****     hydroSem->wait();
 559:src/tcb.cpp   **** 
 560:src/tcb.cpp   ****     auto * molekul= new Molecule ;
 561:src/tcb.cpp   ****     barrier(id,&molekul,"H");
GAS LISTING /tmp/ccg8jNLS.s 			page 11


 562:src/tcb.cpp   ****     printInt(molekul->ids[0]);
 563:src/tcb.cpp   ****     printString("-");
 564:src/tcb.cpp   ****     printInt(molekul->ids[1]);
 565:src/tcb.cpp   ****     printString("-");
 566:src/tcb.cpp   ****     printInt(molekul->ids[2]);
 567:src/tcb.cpp   ****     printString("\n");
 568:src/tcb.cpp   ****     printString(molekul->type[0]);
 569:src/tcb.cpp   ****     printString("-");
 570:src/tcb.cpp   ****     printString(molekul->type[1]);
 571:src/tcb.cpp   ****     printString("-");
 572:src/tcb.cpp   ****     printString(molekul->type[2]);
 573:src/tcb.cpp   ****     printString("\n");
 574:src/tcb.cpp   **** 
 575:src/tcb.cpp   **** }
 576:src/tcb.cpp   **** void TCB::barrier(unsigned int id, Molecule** molekul,const char* element) {
 577:src/tcb.cpp   ****     door1->wait();
 578:src/tcb.cpp   ****     molecule->ids[count] = id;
 579:src/tcb.cpp   ****     molecule->type[count] = element;
 580:src/tcb.cpp   ****     count++;
 581:src/tcb.cpp   ****     if (count == 3) {
 582:src/tcb.cpp   ****         door2->signal();
 583:src/tcb.cpp   ****     } else {
 584:src/tcb.cpp   ****         door1->signal();
 585:src/tcb.cpp   ****     }
 586:src/tcb.cpp   ****     door2->wait();
 587:src/tcb.cpp   ****     *molekul = molecule;
 588:src/tcb.cpp   ****     count--;
 589:src/tcb.cpp   ****     if (count == 0) {
 590:src/tcb.cpp   ****         hydroSem->signal();
 591:src/tcb.cpp   ****         oxySem->signal();
 592:src/tcb.cpp   ****         hydroSem->signal();
 593:src/tcb.cpp   ****         door1->signal();
 594:src/tcb.cpp   **** 
 595:src/tcb.cpp   ****     } else {
 596:src/tcb.cpp   ****         door2->signal();
 597:src/tcb.cpp   ****     }
 598:src/tcb.cpp   **** }
 599:src/tcb.cpp   **** void TCB::setAtomH20() {
 600:src/tcb.cpp   ****     hydroSem = new Semaphore_k(2);
 601:src/tcb.cpp   ****     oxySem = new Semaphore_k(1);
 602:src/tcb.cpp   ****     door1 = new Semaphore_k(1);
 603:src/tcb.cpp   ****     door2 = new Semaphore_k(0);
 604:src/tcb.cpp   ****     molecule = new Molecule;
 605:src/tcb.cpp   ****     molecule->ids = new int[3];
 606:src/tcb.cpp   ****     molecule->type = new const char * [3];
 607:src/tcb.cpp   **** }
 608:src/tcb.cpp   **** 
 609:src/tcb.cpp   **** void TCB::savage(int id) {
 610:src/tcb.cpp   ****     setDiningSavages();
 611:src/tcb.cpp   ****     mutex->wait();
 612:src/tcb.cpp   ****     if(pot==0){
 613:src/tcb.cpp   ****         semCook->signal();
 614:src/tcb.cpp   ****         // thread_dispatch();
 615:src/tcb.cpp   ****         semSavage->wait();
 616:src/tcb.cpp   ****     }
 617:src/tcb.cpp   ****     pot--;
 618:src/tcb.cpp   ****     mutex->signal();
GAS LISTING /tmp/ccg8jNLS.s 			page 12


 619:src/tcb.cpp   ****     //thread_dispatch();
 620:src/tcb.cpp   ****     printString("Div jede\n");
 621:src/tcb.cpp   **** 
 622:src/tcb.cpp   **** }
 623:src/tcb.cpp   **** 
 624:src/tcb.cpp   **** void TCB::cook() {
 625:src/tcb.cpp   ****     setDiningSavages();
 626:src/tcb.cpp   ****     semCook->wait();
 627:src/tcb.cpp   ****     printString("Kuvar priprema hranu\n");
 628:src/tcb.cpp   ****     pot=S;
 629:src/tcb.cpp   ****     semSavage->signal();
 630:src/tcb.cpp   ****     //thread_dispatch();
 631:src/tcb.cpp   **** 
 632:src/tcb.cpp   **** }
 633:src/tcb.cpp   **** 
 634:src/tcb.cpp   **** void TCB::setDiningSavages() {
 635:src/tcb.cpp   ****     if(!fsDiningSavage){
 636:src/tcb.cpp   ****         fsDiningSavage=true;
 637:src/tcb.cpp   ****         mutex = new Semaphore_k(1);
 638:src/tcb.cpp   ****         semSavage = new Semaphore_k(0);
 639:src/tcb.cpp   ****         semCook = new Semaphore_k(0);
 640:src/tcb.cpp   ****     }
 641:src/tcb.cpp   **** 
 642:src/tcb.cpp   **** }
 643:src/tcb.cpp   **** 
 644:src/tcb.cpp   **** 
 645:src/tcb.cpp   **** void TCB::birdChild(unsigned int id) {
 646:src/tcb.cpp   ****     setHungryBirds();
 647:src/tcb.cpp   ****     mutexChild->wait();
 648:src/tcb.cpp   ****     pot1--;
 649:src/tcb.cpp   ****     printString("DETE PTICA JEDE -id: ");
 650:src/tcb.cpp   ****     printInt(id);
 651:src/tcb.cpp   ****     printString("\n");
 652:src/tcb.cpp   ****     if(pot1==0){
 653:src/tcb.cpp   ****         printString("Deca sve izjela - signal roditeljima\n");
 654:src/tcb.cpp   ****         parentt->signal();
 655:src/tcb.cpp   **** 
 656:src/tcb.cpp   ****     }else{
 657:src/tcb.cpp   ****         mutexChild->signal();
 658:src/tcb.cpp   ****     }
 659:src/tcb.cpp   ****     //printString("DETE PTICA JEDE\n");
 660:src/tcb.cpp   **** 
 661:src/tcb.cpp   **** }
 662:src/tcb.cpp   **** 
 663:src/tcb.cpp   **** void TCB::birdParent(unsigned int id) {
 664:src/tcb.cpp   ****     setHungryBirds();
 665:src/tcb.cpp   ****     parentHuntForChildren(id);
 666:src/tcb.cpp   ****     parentForHuntForHimself(id);
 667:src/tcb.cpp   **** 
 668:src/tcb.cpp   **** }
 669:src/tcb.cpp   **** 
 670:src/tcb.cpp   **** void TCB::parentHuntForChildren(unsigned int id) {
 671:src/tcb.cpp   ****     parentt->wait();
 672:src/tcb.cpp   ****     mutexParent->wait();
 673:src/tcb.cpp   ****     printString("Roditelj lovi za decu - id: ");
 674:src/tcb.cpp   ****     printInt(id);
 675:src/tcb.cpp   ****     printString("\n");
GAS LISTING /tmp/ccg8jNLS.s 			page 13


 676:src/tcb.cpp   ****     for(int i=0;i<10000;i++){
 677:src/tcb.cpp   ****         for(int j=0;j<10000;j++);
 678:src/tcb.cpp   ****         thread_dispatch();
 679:src/tcb.cpp   ****     };
 680:src/tcb.cpp   ****     printString("Roditelj napunio ciniju\n");
 681:src/tcb.cpp   ****     pot1 = F;
 682:src/tcb.cpp   ****     mutexParent->signal();
 683:src/tcb.cpp   ****     mutexChild->signal();
 684:src/tcb.cpp   **** 
 685:src/tcb.cpp   **** }
 686:src/tcb.cpp   **** 
 687:src/tcb.cpp   **** void TCB::parentForHuntForHimself(unsigned int id) {
 688:src/tcb.cpp   ****     mutexParent->wait();
 689:src/tcb.cpp   ****     printString("Roditelj lovi za sebe - id: ");
 690:src/tcb.cpp   ****     printInt(id);
 691:src/tcb.cpp   ****     printString("\n");
 692:src/tcb.cpp   ****     for(int i=0;i<10000;i++){
 693:src/tcb.cpp   ****         for(int j=0;j<10000;j++);
 694:src/tcb.cpp   ****         thread_dispatch();
 695:src/tcb.cpp   ****     };
 696:src/tcb.cpp   ****     printString("Roditelj jeo - id: ");
 697:src/tcb.cpp   ****     printInt(id);
 698:src/tcb.cpp   ****     printString("\n");
 699:src/tcb.cpp   ****     mutexParent->signal();
 700:src/tcb.cpp   **** 
 701:src/tcb.cpp   **** }
 702:src/tcb.cpp   **** 
 703:src/tcb.cpp   **** void TCB::setHungryBirds() {
 704:src/tcb.cpp   ****     if(!setHngryBird){
 705:src/tcb.cpp   ****         parentt = new Semaphore_k(1);
 706:src/tcb.cpp   ****         mutexParent = new Semaphore_k(1);
 707:src/tcb.cpp   ****         mutexChild = new Semaphore_k(0);
 708:src/tcb.cpp   ****         setHngryBird= true;
 709:src/tcb.cpp   ****     }
 710:src/tcb.cpp   **** 
 711:src/tcb.cpp   **** }
 712:src/tcb.cpp   **** //HONEY BEE PROBLEM
 713:src/tcb.cpp   **** void TCB::honeybe(unsigned int id) {
 714:src/tcb.cpp   ****     setPceleMed();
 715:src/tcb.cpp   ****     printString("Pcela skuplja med id - ");
 716:src/tcb.cpp   ****     printInt(id);
 717:src/tcb.cpp   ****     printString("\n");
 718:src/tcb.cpp   ****     for(int i=0;i<1000;i++){
 719:src/tcb.cpp   ****         for(int j=0;j<1000;j++);
 720:src/tcb.cpp   ****         thread_dispatch();
 721:src/tcb.cpp   ****     }
 722:src/tcb.cpp   ****     mtx->wait();
 723:src/tcb.cpp   ****     printString("Pcela donela med u kosnicu -id: ");
 724:src/tcb.cpp   ****     printInt(id);
 725:src/tcb.cpp   ****     printString("\n");
 726:src/tcb.cpp   ****     kosnica++;
 727:src/tcb.cpp   ****     if(kosnica==49){
 728:src/tcb.cpp   ****         printString("Pcele napunile kosnicu budi medveda\n");
 729:src/tcb.cpp   ****         bear->signal();
 730:src/tcb.cpp   ****     }else{
 731:src/tcb.cpp   ****         mtx->signal();
 732:src/tcb.cpp   ****     }
GAS LISTING /tmp/ccg8jNLS.s 			page 14


 733:src/tcb.cpp   **** 
 734:src/tcb.cpp   **** }
 735:src/tcb.cpp   **** 
 736:src/tcb.cpp   **** void TCB::meda() {
 737:src/tcb.cpp   ****     setPceleMed();
 738:src/tcb.cpp   ****     printString("Meda ceka\n");
 739:src/tcb.cpp   ****     bear->wait();
 740:src/tcb.cpp   ****     printString("Meda jede med...");
 741:src/tcb.cpp   ****     printString("\n");
 742:src/tcb.cpp   ****     for(int i=0;i<100000;i++){
 743:src/tcb.cpp   ****         for(int j=0;j<1000;j++);
 744:src/tcb.cpp   ****         //thread_dispatch();
 745:src/tcb.cpp   ****     }
 746:src/tcb.cpp   ****     printString("Meda sve izjeo signal pcelama\n");
 747:src/tcb.cpp   ****     kosnica=0;
 748:src/tcb.cpp   ****     mtx->signal();
 749:src/tcb.cpp   **** 
 750:src/tcb.cpp   **** }
 751:src/tcb.cpp   **** 
 752:src/tcb.cpp   **** void TCB::setPceleMed() {
 753:src/tcb.cpp   ****     if(!fsMedaPcele){
 754:src/tcb.cpp   ****         fsMedaPcele=true;
 755:src/tcb.cpp   ****         mtx=new Semaphore_k(1);
 756:src/tcb.cpp   ****         bear = new Semaphore_k(0);
 757:src/tcb.cpp   ****     }
 758:src/tcb.cpp   **** 
 759:src/tcb.cpp   **** }
  11              		.loc 1 759 1
  12              		.cfi_startproc
  13              	.LVL0:
  14 0000 130101FF 		addi	sp,sp,-16
  15              		.cfi_def_cfa_offset 16
  16 0004 23348100 		sd	s0,8(sp)
  17              		.cfi_offset 8, -8
  18 0008 13040101 		addi	s0,sp,16
  19              		.cfi_def_cfa 8, 0
  20              		.loc 1 759 1 is_stmt 0
  21 000c 93071000 		li	a5,1
  22 0010 6308F500 		beq	a0,a5,.L4
  23              	.L1:
  24 0014 03348100 		ld	s0,8(sp)
  25              		.cfi_remember_state
  26              		.cfi_restore 8
  27              		.cfi_def_cfa 2, 16
  28 0018 13010101 		addi	sp,sp,16
  29              		.cfi_def_cfa_offset 0
  30 001c 67800000 		jr	ra
  31              	.L4:
  32              		.cfi_restore_state
  33              		.loc 1 759 1 discriminator 1
  34 0020 B7070100 		li	a5,65536
  35 0024 9387F7FF 		addi	a5,a5,-1
  36 0028 E396F5FE 		bne	a1,a5,.L1
  37              	.LVL1:
  38              	.LBB283:
  39              	.LBB284:
  40              	.LBB285:
GAS LISTING /tmp/ccg8jNLS.s 			page 15


  41              		.file 2 "src/../h/List.hpp"
   1:src/../h/List.hpp **** //
   2:src/../h/List.hpp **** // Created by marko on 20.4.22..
   3:src/../h/List.hpp **** //
   4:src/../h/List.hpp **** 
   5:src/../h/List.hpp **** #ifndef OS1_VEZBE07_RISCV_CONTEXT_SWITCH_2_INTERRUPT_LIST_HPP
   6:src/../h/List.hpp **** #define OS1_VEZBE07_RISCV_CONTEXT_SWITCH_2_INTERRUPT_LIST_HPP
   7:src/../h/List.hpp **** 
   8:src/../h/List.hpp **** #include "memoryAllocator.hpp"
   9:src/../h/List.hpp **** 
  10:src/../h/List.hpp **** template<typename T>
  11:src/../h/List.hpp **** class Lista
  12:src/../h/List.hpp **** {
  13:src/../h/List.hpp **** private:
  14:src/../h/List.hpp ****     struct Elem
  15:src/../h/List.hpp ****     {
  16:src/../h/List.hpp ****         T *data;
  17:src/../h/List.hpp ****         Elem *next;
  18:src/../h/List.hpp **** 
  19:src/../h/List.hpp ****         Elem(T *data, Elem *next) : data(data), next(next) {}
  20:src/../h/List.hpp **** 
  21:src/../h/List.hpp ****     };
  22:src/../h/List.hpp **** 
  23:src/../h/List.hpp ****     Elem *head, *tail;
  24:src/../h/List.hpp **** 
  25:src/../h/List.hpp **** public:
  26:src/../h/List.hpp ****     Lista() : head(0), tail(0) {}
  42              		.loc 2 26 30
  43 002c 97070000 		lla	a5,.LANCHOR0
  43      93870700 
  44 0034 23B00700 		sd	zero,0(a5)
  45 0038 23B40700 		sd	zero,8(a5)
  46              	.LVL2:
  47              	.LBE285:
  48              	.LBE284:
  49              	.LBE283:
  50              		.loc 1 759 1
  51 003c 6FF09FFD 		j	.L1
  52              		.cfi_endproc
  53              	.LFE104:
  55              		.align	2
  56              		.globl	_ZN3TCB13threadWrapperEv
  58              	_ZN3TCB13threadWrapperEv:
  59              	.LFB59:
 138:src/tcb.cpp   **** 
  60              		.loc 1 138 1 is_stmt 1
  61              		.cfi_startproc
  62 0040 130101FE 		addi	sp,sp,-32
  63              		.cfi_def_cfa_offset 32
  64 0044 233C1100 		sd	ra,24(sp)
  65 0048 23388100 		sd	s0,16(sp)
  66 004c 23349100 		sd	s1,8(sp)
  67              		.cfi_offset 1, -8
  68              		.cfi_offset 8, -16
  69              		.cfi_offset 9, -24
  70 0050 13040102 		addi	s0,sp,32
  71              		.cfi_def_cfa 8, 0
GAS LISTING /tmp/ccg8jNLS.s 			page 16


 141:src/tcb.cpp   ****     //ovde sam u korisnickom rezimu
  72              		.loc 1 141 5
 141:src/tcb.cpp   ****     //ovde sam u korisnickom rezimu
  73              		.loc 1 141 22 is_stmt 0
  74 0054 97000000 		call	_ZN5Riscv10popSppSpieEv@plt
  74      E7800000 
  75              	.LVL3:
 143:src/tcb.cpp   **** 
  76              		.loc 1 143 5 is_stmt 1
 143:src/tcb.cpp   **** 
  77              		.loc 1 143 14 is_stmt 0
  78 005c 97040000 		lla	s1,.LANCHOR0
  78      93840400 
  79 0064 83B70401 		ld	a5,16(s1)
  80 0068 03B70700 		ld	a4,0(a5)
 143:src/tcb.cpp   **** 
  81              		.loc 1 143 18
  82 006c 03B58702 		ld	a0,40(a5)
  83 0070 E7000700 		jalr	a4
  84              	.LVL4:
 145:src/tcb.cpp   ****         running->parent->joinAllsem->signal();
  85              		.loc 1 145 5 is_stmt 1
 145:src/tcb.cpp   ****         running->parent->joinAllsem->signal();
  86              		.loc 1 145 17 is_stmt 0
  87 0074 83B70401 		ld	a5,16(s1)
  88 0078 83B78706 		ld	a5,104(a5)
 145:src/tcb.cpp   ****         running->parent->joinAllsem->signal();
  89              		.loc 1 145 5
  90 007c 63860700 		beqz	a5,.L6
 145:src/tcb.cpp   ****         running->parent->joinAllsem->signal();
  91              		.loc 1 145 44 discriminator 1
  92 0080 03C70707 		lbu	a4,112(a5)
 145:src/tcb.cpp   ****         running->parent->joinAllsem->signal();
  93              		.loc 1 145 24 discriminator 1
  94 0084 631C0702 		bnez	a4,.L9
  95              	.L6:
 151:src/tcb.cpp   ****         currThr--;
  96              		.loc 1 151 5 is_stmt 1
  97 0088 97070000 		lbu	a5,.LANCHOR0+24
  97      83C70700 
  98 0090 63880700 		beqz	a5,.L7
 151:src/tcb.cpp   ****         currThr--;
  99              		.loc 1 151 27 is_stmt 0 discriminator 1
 100 0094 97070000 		lw	a5,.LANCHOR0+28
 100      83A70700 
 151:src/tcb.cpp   ****         currThr--;
 101              		.loc 1 151 17 discriminator 1
 102 009c 6344F004 		bgtz	a5,.L10
 103              	.L7:
 159:src/tcb.cpp   **** 
 104              		.loc 1 159 5 is_stmt 1
 159:src/tcb.cpp   **** 
 105              		.loc 1 159 16 is_stmt 0
 106 00a0 97000000 		call	_Z11thread_exitv@plt
 106      E7800000 
 107              	.LVL5:
 167:src/tcb.cpp   **** 
GAS LISTING /tmp/ccg8jNLS.s 			page 17


 108              		.loc 1 167 1
 109 00a8 83308101 		ld	ra,24(sp)
 110              		.cfi_remember_state
 111              		.cfi_restore 1
 112 00ac 03340101 		ld	s0,16(sp)
 113              		.cfi_restore 8
 114              		.cfi_def_cfa 2, 32
 115 00b0 83348100 		ld	s1,8(sp)
 116              		.cfi_restore 9
 117 00b4 13010102 		addi	sp,sp,32
 118              		.cfi_def_cfa_offset 0
 119 00b8 67800000 		jr	ra
 120              	.L9:
 121              		.cfi_restore_state
 146:src/tcb.cpp   ****         running->parent->numberOfChildren--;
 122              		.loc 1 146 9 is_stmt 1
 146:src/tcb.cpp   ****         running->parent->numberOfChildren--;
 123              		.loc 1 146 44 is_stmt 0
 124 00bc 03B58707 		ld	a0,120(a5)
 125 00c0 97000000 		call	_ZN11Semaphore_k6signalEv@plt
 125      E7800000 
 126              	.LVL6:
 147:src/tcb.cpp   ****     }
 127              		.loc 1 147 9 is_stmt 1
 147:src/tcb.cpp   ****     }
 128              		.loc 1 147 18 is_stmt 0
 129 00c8 97070000 		ld	a5,.LANCHOR0+16
 129      83B70700 
 130 00d0 03B78706 		ld	a4,104(a5)
 147:src/tcb.cpp   ****     }
 131              		.loc 1 147 26
 132 00d4 83274707 		lw	a5,116(a4)
 147:src/tcb.cpp   ****     }
 133              		.loc 1 147 42
 134 00d8 9B87F7FF 		addiw	a5,a5,-1
 135 00dc 232AF706 		sw	a5,116(a4)
 136 00e0 6FF09FFA 		j	.L6
 137              	.L10:
 152:src/tcb.cpp   ****         semMaxThreads->signal();
 138              		.loc 1 152 9 is_stmt 1
 152:src/tcb.cpp   ****         semMaxThreads->signal();
 139              		.loc 1 152 16 is_stmt 0
 140 00e4 17070000 		lla	a4,.LANCHOR0
 140      13070700 
 141 00ec 9B87F7FF 		addiw	a5,a5,-1
 142 00f0 232EF700 		sw	a5,28(a4)
 153:src/tcb.cpp   ****     }
 143              		.loc 1 153 9 is_stmt 1
 153:src/tcb.cpp   ****     }
 144              		.loc 1 153 30 is_stmt 0
 145 00f4 03350702 		ld	a0,32(a4)
 146 00f8 97000000 		call	_ZN11Semaphore_k6signalEv@plt
 146      E7800000 
 147              	.LVL7:
 148 0100 6FF01FFA 		j	.L7
 149              		.cfi_endproc
 150              	.LFE59:
GAS LISTING /tmp/ccg8jNLS.s 			page 18


 152              		.align	2
 153              		.globl	_ZN3TCB5yieldEv
 155              	_ZN3TCB5yieldEv:
 156              	.LFB57:
  96:src/tcb.cpp   ****     Riscv::w_a0(0x13);
 157              		.loc 1 96 1 is_stmt 1
 158              		.cfi_startproc
 159 0104 130101FF 		addi	sp,sp,-16
 160              		.cfi_def_cfa_offset 16
 161 0108 23348100 		sd	s0,8(sp)
 162              		.cfi_offset 8, -8
 163 010c 13040101 		addi	s0,sp,16
 164              		.cfi_def_cfa 8, 0
  97:src/tcb.cpp   ****     __asm__ volatile ("ecall");
 165              		.loc 1 97 5
 166              	.LVL8:
 167              	.LBB286:
 168              	.LBB287:
 169              		.file 3 "src/../h/riscv.hpp"
   1:src/../h/riscv.hpp **** //
   2:src/../h/riscv.hpp **** // Created by os on 5/17/24.
   3:src/../h/riscv.hpp **** //
   4:src/../h/riscv.hpp **** 
   5:src/../h/riscv.hpp **** 
   6:src/../h/riscv.hpp **** #ifndef RISCV_HPP
   7:src/../h/riscv.hpp **** #define RISCV_HPP
   8:src/../h/riscv.hpp **** #include "../lib/hw.h"
   9:src/../h/riscv.hpp **** 
  10:src/../h/riscv.hpp **** class Riscv
  11:src/../h/riscv.hpp **** {
  12:src/../h/riscv.hpp **** public:
  13:src/../h/riscv.hpp **** 
  14:src/../h/riscv.hpp ****     // pop sstatus.spp and sstatus.spie bits (has to be a non inline function)
  15:src/../h/riscv.hpp ****     static void popSppSpie();
  16:src/../h/riscv.hpp **** 
  17:src/../h/riscv.hpp ****     // read register scause
  18:src/../h/riscv.hpp ****     static uint64 r_scause();
  19:src/../h/riscv.hpp **** 
  20:src/../h/riscv.hpp ****     // write register scause
  21:src/../h/riscv.hpp ****     static void w_scause(uint64 scause);
  22:src/../h/riscv.hpp **** 
  23:src/../h/riscv.hpp ****     // read register sepc
  24:src/../h/riscv.hpp ****     static uint64 r_sepc();
  25:src/../h/riscv.hpp **** 
  26:src/../h/riscv.hpp ****     // write register sepc
  27:src/../h/riscv.hpp ****     static void w_sepc(uint64 sepc);
  28:src/../h/riscv.hpp **** 
  29:src/../h/riscv.hpp ****     // read register stvec
  30:src/../h/riscv.hpp ****     static uint64 r_stvec();
  31:src/../h/riscv.hpp **** 
  32:src/../h/riscv.hpp ****     // write register stvec
  33:src/../h/riscv.hpp ****     static void w_stvec(uint64 stvec);
  34:src/../h/riscv.hpp **** 
  35:src/../h/riscv.hpp ****     // read register stval
  36:src/../h/riscv.hpp ****     static uint64 r_stval();
  37:src/../h/riscv.hpp **** 
  38:src/../h/riscv.hpp ****     // write register stval
GAS LISTING /tmp/ccg8jNLS.s 			page 19


  39:src/../h/riscv.hpp ****     static void w_stval(uint64 stval);
  40:src/../h/riscv.hpp **** 
  41:src/../h/riscv.hpp ****     enum BitMaskSip
  42:src/../h/riscv.hpp ****     {
  43:src/../h/riscv.hpp ****         SIP_SSIP = (1 << 1),
  44:src/../h/riscv.hpp ****         SIP_STIP = (1 << 5),
  45:src/../h/riscv.hpp ****         SIP_SEIP = (1 << 9),
  46:src/../h/riscv.hpp ****     };
  47:src/../h/riscv.hpp **** 
  48:src/../h/riscv.hpp ****     // mask set register sip
  49:src/../h/riscv.hpp ****     static void ms_sip(uint64 mask);
  50:src/../h/riscv.hpp **** 
  51:src/../h/riscv.hpp ****     // mask clear register sip
  52:src/../h/riscv.hpp ****     static void mc_sip(uint64 mask);
  53:src/../h/riscv.hpp **** 
  54:src/../h/riscv.hpp ****     // read register sip
  55:src/../h/riscv.hpp ****     static uint64 r_sip();
  56:src/../h/riscv.hpp **** 
  57:src/../h/riscv.hpp ****     // write register sip
  58:src/../h/riscv.hpp ****     static void w_sip(uint64 sip);
  59:src/../h/riscv.hpp **** 
  60:src/../h/riscv.hpp ****     enum BitMaskSstatus
  61:src/../h/riscv.hpp ****     {
  62:src/../h/riscv.hpp ****         SSTATUS_SIE = (1 << 1),
  63:src/../h/riscv.hpp ****         SSTATUS_SPIE = (1 << 5),
  64:src/../h/riscv.hpp ****         SSTATUS_SPP = (1 << 8),
  65:src/../h/riscv.hpp ****     };
  66:src/../h/riscv.hpp **** 
  67:src/../h/riscv.hpp ****     // mask set register sstatus
  68:src/../h/riscv.hpp ****     static void ms_sstatus(uint64 mask);
  69:src/../h/riscv.hpp **** 
  70:src/../h/riscv.hpp ****     // mask clear register sstatus
  71:src/../h/riscv.hpp ****     static void mc_sstatus(uint64 mask);
  72:src/../h/riscv.hpp **** 
  73:src/../h/riscv.hpp ****     // read register sstatus
  74:src/../h/riscv.hpp ****     static uint64 r_sstatus();
  75:src/../h/riscv.hpp **** 
  76:src/../h/riscv.hpp ****     // write register sstatus
  77:src/../h/riscv.hpp ****     static void w_sstatus(uint64 sstatus);
  78:src/../h/riscv.hpp **** 
  79:src/../h/riscv.hpp ****     // supervisor trap
  80:src/../h/riscv.hpp ****     static void supervisorTrap();
  81:src/../h/riscv.hpp **** 
  82:src/../h/riscv.hpp **** 
  83:src/../h/riscv.hpp **** 
  84:src/../h/riscv.hpp **** 
  85:src/../h/riscv.hpp ****     //read a0 register
  86:src/../h/riscv.hpp ****     static uint64 r_a0();
  87:src/../h/riscv.hpp **** 
  88:src/../h/riscv.hpp ****     //write to a0 register
  89:src/../h/riscv.hpp ****     static void w_a0(uint64 writeValue);
  90:src/../h/riscv.hpp **** 
  91:src/../h/riscv.hpp **** 
  92:src/../h/riscv.hpp ****     //promeni rezim fja
  93:src/../h/riscv.hpp ****     static void promeniRezim(bool value);
  94:src/../h/riscv.hpp **** private:
  95:src/../h/riscv.hpp **** 
GAS LISTING /tmp/ccg8jNLS.s 			page 20


  96:src/../h/riscv.hpp ****     // supervisor trap handler
  97:src/../h/riscv.hpp ****     static void handleSupervisorTrap();
  98:src/../h/riscv.hpp **** 
  99:src/../h/riscv.hpp **** 
 100:src/../h/riscv.hpp **** 
 101:src/../h/riscv.hpp **** };
 102:src/../h/riscv.hpp **** 
 103:src/../h/riscv.hpp **** 
 104:src/../h/riscv.hpp **** inline uint64 Riscv::r_scause()
 105:src/../h/riscv.hpp **** {
 106:src/../h/riscv.hpp ****     uint64 volatile scause;
 107:src/../h/riscv.hpp ****     __asm__ volatile ("csrr %[scause], scause" : [scause] "=r"(scause));
 108:src/../h/riscv.hpp ****     return scause;
 109:src/../h/riscv.hpp **** }
 110:src/../h/riscv.hpp **** 
 111:src/../h/riscv.hpp **** inline void Riscv::w_scause(uint64 scause)
 112:src/../h/riscv.hpp **** {
 113:src/../h/riscv.hpp ****     __asm__ volatile ("csrw scause, %[scause]" : : [scause] "r"(scause));
 114:src/../h/riscv.hpp **** }
 115:src/../h/riscv.hpp **** 
 116:src/../h/riscv.hpp **** inline uint64 Riscv::r_sepc()
 117:src/../h/riscv.hpp **** {
 118:src/../h/riscv.hpp ****     uint64 volatile sepc;
 119:src/../h/riscv.hpp ****     __asm__ volatile ("csrr %[sepc], sepc" : [sepc] "=r"(sepc));
 120:src/../h/riscv.hpp ****     return sepc;
 121:src/../h/riscv.hpp **** }
 122:src/../h/riscv.hpp **** 
 123:src/../h/riscv.hpp **** inline void Riscv::w_sepc(uint64 sepc)
 124:src/../h/riscv.hpp **** {
 125:src/../h/riscv.hpp ****     __asm__ volatile ("csrw sepc, %[sepc]" : : [sepc] "r"(sepc));
 126:src/../h/riscv.hpp **** }
 127:src/../h/riscv.hpp **** 
 128:src/../h/riscv.hpp **** inline uint64 Riscv::r_stvec()
 129:src/../h/riscv.hpp **** {
 130:src/../h/riscv.hpp ****     uint64 volatile stvec;
 131:src/../h/riscv.hpp ****     __asm__ volatile ("csrr %[stvec], stvec" : [stvec] "=r"(stvec));
 132:src/../h/riscv.hpp ****     return stvec;
 133:src/../h/riscv.hpp **** }
 134:src/../h/riscv.hpp **** 
 135:src/../h/riscv.hpp **** inline void Riscv::w_stvec(uint64 stvec)
 136:src/../h/riscv.hpp **** {
 137:src/../h/riscv.hpp ****     __asm__ volatile ("csrw stvec, %[stvec]" : : [stvec] "r"(stvec));
 138:src/../h/riscv.hpp **** }
 139:src/../h/riscv.hpp **** 
 140:src/../h/riscv.hpp **** inline uint64 Riscv::r_stval()
 141:src/../h/riscv.hpp **** {
 142:src/../h/riscv.hpp ****     uint64 volatile stval;
 143:src/../h/riscv.hpp ****     __asm__ volatile ("csrr %[stval], stval" : [stval] "=r"(stval));
 144:src/../h/riscv.hpp ****     return stval;
 145:src/../h/riscv.hpp **** }
 146:src/../h/riscv.hpp **** 
 147:src/../h/riscv.hpp **** inline void Riscv::w_stval(uint64 stval)
 148:src/../h/riscv.hpp **** {
 149:src/../h/riscv.hpp ****     __asm__ volatile ("csrw stval, %[stval]" : : [stval] "r"(stval));
 150:src/../h/riscv.hpp **** }
 151:src/../h/riscv.hpp **** 
 152:src/../h/riscv.hpp **** inline void Riscv::ms_sip(uint64 mask)
GAS LISTING /tmp/ccg8jNLS.s 			page 21


 153:src/../h/riscv.hpp **** {
 154:src/../h/riscv.hpp ****     __asm__ volatile ("csrs sip, %[mask]" : : [mask] "r"(mask));
 155:src/../h/riscv.hpp **** }
 156:src/../h/riscv.hpp **** 
 157:src/../h/riscv.hpp **** inline void Riscv::mc_sip(uint64 mask)
 158:src/../h/riscv.hpp **** {
 159:src/../h/riscv.hpp ****     __asm__ volatile ("csrc sip, %[mask]" : : [mask] "r"(mask));
 160:src/../h/riscv.hpp **** }
 161:src/../h/riscv.hpp **** 
 162:src/../h/riscv.hpp **** inline uint64 Riscv::r_sip()
 163:src/../h/riscv.hpp **** {
 164:src/../h/riscv.hpp ****     uint64 volatile sip;
 165:src/../h/riscv.hpp ****     __asm__ volatile ("csrr %[sip], sip" : [sip] "=r"(sip));
 166:src/../h/riscv.hpp ****     return sip;
 167:src/../h/riscv.hpp **** }
 168:src/../h/riscv.hpp **** 
 169:src/../h/riscv.hpp **** inline void Riscv::w_sip(uint64 sip)
 170:src/../h/riscv.hpp **** {
 171:src/../h/riscv.hpp ****     __asm__ volatile ("csrw sip, %[sip]" : : [sip] "r"(sip));
 172:src/../h/riscv.hpp **** }
 173:src/../h/riscv.hpp **** 
 174:src/../h/riscv.hpp **** inline void Riscv::ms_sstatus(uint64 mask)
 175:src/../h/riscv.hpp **** {
 176:src/../h/riscv.hpp ****     __asm__ volatile ("csrs sstatus, %[mask]" : : [mask] "r"(mask));
 177:src/../h/riscv.hpp **** }
 178:src/../h/riscv.hpp **** 
 179:src/../h/riscv.hpp **** inline void Riscv::mc_sstatus(uint64 mask)
 180:src/../h/riscv.hpp **** {
 181:src/../h/riscv.hpp ****     __asm__ volatile ("csrc sstatus, %[mask]" : : [mask] "r"(mask));
 182:src/../h/riscv.hpp **** }
 183:src/../h/riscv.hpp **** 
 184:src/../h/riscv.hpp **** inline uint64 Riscv::r_sstatus()
 185:src/../h/riscv.hpp **** {
 186:src/../h/riscv.hpp ****     uint64 volatile sstatus;
 187:src/../h/riscv.hpp ****     __asm__ volatile ("csrr %[sstatus], sstatus" : [sstatus] "=r"(sstatus));
 188:src/../h/riscv.hpp ****     return sstatus;
 189:src/../h/riscv.hpp **** }
 190:src/../h/riscv.hpp **** 
 191:src/../h/riscv.hpp **** inline void Riscv::w_sstatus(uint64 sstatus)
 192:src/../h/riscv.hpp **** {
 193:src/../h/riscv.hpp ****     __asm__ volatile ("csrw sstatus, %[sstatus]" : : [sstatus] "r"(sstatus));
 194:src/../h/riscv.hpp **** }
 195:src/../h/riscv.hpp **** 
 196:src/../h/riscv.hpp **** //a0
 197:src/../h/riscv.hpp **** inline uint64 Riscv::r_a0()
 198:src/../h/riscv.hpp **** {
 199:src/../h/riscv.hpp ****     uint64 volatile a0;
 200:src/../h/riscv.hpp ****     __asm__ volatile ("mv %0, a0" : "=r"(a0));
 201:src/../h/riscv.hpp ****     return a0;
 202:src/../h/riscv.hpp **** }
 203:src/../h/riscv.hpp **** 
 204:src/../h/riscv.hpp **** 
 205:src/../h/riscv.hpp **** inline void Riscv::w_a0(uint64 writeValue) {
 206:src/../h/riscv.hpp ****     __asm__ volatile ("mv a0, %0" : : "r"(writeValue));
 170              		.loc 3 206 5
 171              		.loc 3 206 55 is_stmt 0
 172 0110 93073001 		li	a5,19
GAS LISTING /tmp/ccg8jNLS.s 			page 22


 173              	#APP
 174              	# 206 "src/../h/riscv.hpp" 1
 207              	}
 175              		mv a0, a5
 176              	# 0 "" 2
 177              	.LVL9:
 178              	#NO_APP
 179              	.LBE287:
 180              	.LBE286:
  98:src/tcb.cpp   **** }
 181              		.loc 1 98 5 is_stmt 1
  98:src/tcb.cpp   **** }
 182              		.loc 1 98 31 is_stmt 0
 183              	#APP
 184              	# 98 "src/tcb.cpp" 1
  99:src/tcb.cpp   **** 
 185              		ecall
 186              	# 0 "" 2
 187              		.loc 1 99 1
 188              	#NO_APP
 189 011c 03348100 		ld	s0,8(sp)
 190              		.cfi_restore 8
 191              		.cfi_def_cfa 2, 16
 192 0120 13010101 		addi	sp,sp,16
 193              		.cfi_def_cfa_offset 0
 194 0124 67800000 		jr	ra
 195              		.cfi_endproc
 196              	.LFE57:
 198              		.section	.rodata.str1.8,"aMS",@progbits,1
 199              		.align	3
 200              	.LC0:
 201 0000 416C6F63 		.string	"Alocirani blokovi do pingovanja: "
 201      6972616E 
 201      6920626C 
 201      6F6B6F76 
 201      6920646F 
 202 0022 00000000 		.align	3
 202      0000
 203              	.LC1:
 204 0028 0A00     		.string	"\n"
 205 002a 00000000 		.align	3
 205      0000
 206              	.LC2:
 207 0030 5672656D 		.string	"Vreme:"
 207      653A00
 208              		.text
 209              		.align	2
 210              		.globl	_ZN3TCB8dispatchEv
 212              	_ZN3TCB8dispatchEv:
 213              	.LFB58:
 102:src/tcb.cpp   ****     TCB *old = running;
 214              		.loc 1 102 1 is_stmt 1
 215              		.cfi_startproc
 216 0128 130101FE 		addi	sp,sp,-32
 217              		.cfi_def_cfa_offset 32
 218 012c 233C1100 		sd	ra,24(sp)
 219 0130 23388100 		sd	s0,16(sp)
GAS LISTING /tmp/ccg8jNLS.s 			page 23


 220 0134 23349100 		sd	s1,8(sp)
 221              		.cfi_offset 1, -8
 222              		.cfi_offset 8, -16
 223              		.cfi_offset 9, -24
 224 0138 13040102 		addi	s0,sp,32
 225              		.cfi_def_cfa 8, 0
 103:src/tcb.cpp   ****     if (!old->isFinished() && !old->isBlocked()) { Scheduler::put(old); }
 226              		.loc 1 103 5
 103:src/tcb.cpp   ****     if (!old->isFinished() && !old->isBlocked()) { Scheduler::put(old); }
 227              		.loc 1 103 10 is_stmt 0
 228 013c 97040000 		ld	s1,.LANCHOR0+16
 228      83B40400 
 229              	.LVL10:
 104:src/tcb.cpp   ****     else if(old->isFinished()){
 230              		.loc 1 104 5 is_stmt 1
 231              	.LBB288:
 232              	.LBB289:
 233              		.file 4 "src/../h/tcb.hpp"
   1:src/../h/tcb.hpp **** 
   2:src/../h/tcb.hpp **** #ifndef TCB_HPP
   3:src/../h/tcb.hpp **** #define TCB_HPP
   4:src/../h/tcb.hpp **** 
   5:src/../h/tcb.hpp **** #include "../lib/hw.h"
   6:src/../h/tcb.hpp **** #include "scheduler.hpp"
   7:src/../h/tcb.hpp **** 
   8:src/../h/tcb.hpp **** 
   9:src/../h/tcb.hpp **** 
  10:src/../h/tcb.hpp **** int main();
  11:src/../h/tcb.hpp **** typedef struct Molecule{
  12:src/../h/tcb.hpp ****     int* ids;
  13:src/../h/tcb.hpp ****     char const **type;
  14:src/../h/tcb.hpp **** }Molecule;
  15:src/../h/tcb.hpp **** 
  16:src/../h/tcb.hpp **** 
  17:src/../h/tcb.hpp **** class Semaphore_k;
  18:src/../h/tcb.hpp **** //Thread Control Block
  19:src/../h/tcb.hpp **** 
  20:src/../h/tcb.hpp **** class TCB
  21:src/../h/tcb.hpp **** {
  22:src/../h/tcb.hpp **** public:
  23:src/../h/tcb.hpp **** 
  24:src/../h/tcb.hpp ****     using Body = void (*)(void*);
  25:src/../h/tcb.hpp ****     void* operator new(size_t size) {
  26:src/../h/tcb.hpp ****         return memoryAllocator::mem_alloc(size);
  27:src/../h/tcb.hpp ****     }
  28:src/../h/tcb.hpp ****     void* operator new[](size_t size) {
  29:src/../h/tcb.hpp ****         return memoryAllocator::mem_alloc(size);
  30:src/../h/tcb.hpp ****     }
  31:src/../h/tcb.hpp **** 
  32:src/../h/tcb.hpp ****     void operator delete(void *ptr) {
  33:src/../h/tcb.hpp ****         memoryAllocator::mem_free(ptr);
  34:src/../h/tcb.hpp ****     }
  35:src/../h/tcb.hpp ****     void operator delete[](void *ptr) {
  36:src/../h/tcb.hpp ****         memoryAllocator::mem_free(ptr);
  37:src/../h/tcb.hpp ****     }
  38:src/../h/tcb.hpp **** 
  39:src/../h/tcb.hpp ****     static TCB* kreiraj_thread(TCB** handle, TCB::Body body, void* arg, char * stek);
GAS LISTING /tmp/ccg8jNLS.s 			page 24


  40:src/../h/tcb.hpp **** 
  41:src/../h/tcb.hpp ****     static TCB *running;
  42:src/../h/tcb.hpp **** 
  43:src/../h/tcb.hpp ****     ~TCB() { delete[] stack;
  44:src/../h/tcb.hpp **** 
  45:src/../h/tcb.hpp ****     }
  46:src/../h/tcb.hpp **** 
  47:src/../h/tcb.hpp ****     bool isFinished() const { return finished; }
 234              		.loc 4 47 31
 235              		.loc 4 47 38 is_stmt 0
 236 0144 83C70402 		lbu	a5,32(s1)
 237              	.LVL11:
 238              	.LBE289:
 239              	.LBE288:
 104:src/tcb.cpp   ****     else if(old->isFinished()){
 240              		.loc 1 104 28
 241 0148 63960700 		bnez	a5,.L14
 242              	.LVL12:
 243              	.LBB290:
 244              	.LBB291:
  48:src/../h/tcb.hpp **** 
  49:src/../h/tcb.hpp ****     void setFinished(bool value) { finished = value; }
  50:src/../h/tcb.hpp **** 
  51:src/../h/tcb.hpp ****     bool isBlocked() const { return this->blocked; }
 245              		.loc 4 51 30 is_stmt 1
 246              		.loc 4 51 43 is_stmt 0
 247 014c 03C71402 		lbu	a4,33(s1)
 248              	.LVL13:
 249              	.LBE291:
 250              	.LBE290:
 104:src/tcb.cpp   ****     else if(old->isFinished()){
 251              		.loc 1 104 28
 252 0150 630A0706 		beqz	a4,.L21
 253              	.L14:
 105:src/tcb.cpp   ****         delete old->stack;
 254              		.loc 1 105 10 is_stmt 1 discriminator 4
 255              	.LVL14:
  47:src/../h/tcb.hpp **** 
 256              		.loc 4 47 31 discriminator 4
 105:src/tcb.cpp   ****         delete old->stack;
 257              		.loc 1 105 10 is_stmt 0 discriminator 4
 258 0154 638C0700 		beqz	a5,.L15
 106:src/tcb.cpp   ****         old->stack = nullptr;
 259              		.loc 1 106 9 is_stmt 1
 106:src/tcb.cpp   ****         old->stack = nullptr;
 260              		.loc 1 106 21 is_stmt 0
 261 0158 03B58400 		ld	a0,8(s1)
 106:src/tcb.cpp   ****         old->stack = nullptr;
 262              		.loc 1 106 26
 263 015c 63060500 		beqz	a0,.L16
 106:src/tcb.cpp   ****         old->stack = nullptr;
 264              		.loc 1 106 21 discriminator 1
 265 0160 97000000 		call	_ZdlPv@plt
 265      E7800000 
 266              	.LVL15:
 267              	.L16:
 107:src/tcb.cpp   ****     }
GAS LISTING /tmp/ccg8jNLS.s 			page 25


 268              		.loc 1 107 9 is_stmt 1
 107:src/tcb.cpp   ****     }
 269              		.loc 1 107 20 is_stmt 0
 270 0168 23B40400 		sd	zero,8(s1)
 271              	.L15:
 109:src/tcb.cpp   **** 
 272              		.loc 1 109 5 is_stmt 1
 109:src/tcb.cpp   **** 
 273              		.loc 1 109 29 is_stmt 0
 274 016c 97000000 		call	_ZN9Scheduler3getEv@plt
 274      E7800000 
 275              	.LVL16:
 109:src/tcb.cpp   **** 
 276              		.loc 1 109 13
 277 0174 97070000 		sd	a0,.LANCHOR0+16,a5
 277      23B0A700 
 111:src/tcb.cpp   ****         Riscv::ms_sstatus(Riscv::SSTATUS_SPP);
 278              		.loc 1 111 5 is_stmt 1
 279              	.LVL17:
 280              	.LBB292:
 281              	.LBB293:
  52:src/../h/tcb.hpp **** 
  53:src/../h/tcb.hpp ****     void setBlocked(bool value) { this->blocked = value; }
  54:src/../h/tcb.hpp **** 
  55:src/../h/tcb.hpp ****     bool isMain() const { return this->main; }
 282              		.loc 4 55 27
 283              		.loc 4 55 40 is_stmt 0
 284 017c 83472502 		lbu	a5,34(a0)
 285              	.LVL18:
 286              	.LBE293:
 287              	.LBE292:
 111:src/tcb.cpp   ****         Riscv::ms_sstatus(Riscv::SSTATUS_SPP);
 288              		.loc 1 111 5
 289 0180 638A0704 		beqz	a5,.L17
 112:src/tcb.cpp   ****         //setujem previous privilege na 1 -> privilegovan rezim
 290              		.loc 1 112 9 is_stmt 1
 291              	.LVL19:
 292              	.LBB294:
 293              	.LBB295:
 176:src/../h/riscv.hpp **** }
 294              		.loc 3 176 5
 176:src/../h/riscv.hpp **** }
 295              		.loc 3 176 68 is_stmt 0
 296 0184 93070010 		li	a5,256
 297              	#APP
 298              	# 176 "src/../h/riscv.hpp" 1
 299              		csrs sstatus, a5
 300              	# 0 "" 2
 301              	.LVL20:
 302              	#NO_APP
 303              	.L18:
 304              	.LBE295:
 305              	.LBE294:
 122:src/tcb.cpp   ****         TCB::contextSwitch(&old->context, &running->context);
 306              		.loc 1 122 5 is_stmt 1
 307 018c 6382A402 		beq	s1,a0,.L13
 123:src/tcb.cpp   ****         if(running->pinged){
GAS LISTING /tmp/ccg8jNLS.s 			page 26


 308              		.loc 1 123 9
 123:src/tcb.cpp   ****         if(running->pinged){
 309              		.loc 1 123 27 is_stmt 0
 310 0190 93050501 		addi	a1,a0,16
 311 0194 13850401 		addi	a0,s1,16
 312 0198 97000000 		call	_ZN3TCB13contextSwitchEPNS_7ContextES1_@plt
 312      E7800000 
 313              	.LVL21:
 124:src/tcb.cpp   ****             printString("Alocirani blokovi do pingovanja: ");
 314              		.loc 1 124 9 is_stmt 1
 124:src/tcb.cpp   ****             printString("Alocirani blokovi do pingovanja: ");
 315              		.loc 1 124 21 is_stmt 0
 316 01a0 97070000 		ld	a5,.LANCHOR0+16
 316      83B70700 
 317 01a8 83C74708 		lbu	a5,132(a5)
 124:src/tcb.cpp   ****             printString("Alocirani blokovi do pingovanja: ");
 318              		.loc 1 124 9
 319 01ac 639A0702 		bnez	a5,.L22
 320              	.LVL22:
 321              	.L13:
 135:src/tcb.cpp   **** 
 322              		.loc 1 135 1
 323 01b0 83308101 		ld	ra,24(sp)
 324              		.cfi_remember_state
 325              		.cfi_restore 1
 326 01b4 03340101 		ld	s0,16(sp)
 327              		.cfi_restore 8
 328              		.cfi_def_cfa 2, 32
 329 01b8 83348100 		ld	s1,8(sp)
 330              		.cfi_restore 9
 331 01bc 13010102 		addi	sp,sp,32
 332              		.cfi_def_cfa_offset 0
 333 01c0 67800000 		jr	ra
 334              	.LVL23:
 335              	.L21:
 336              		.cfi_restore_state
 104:src/tcb.cpp   ****     else if(old->isFinished()){
 337              		.loc 1 104 52 is_stmt 1
 104:src/tcb.cpp   ****     else if(old->isFinished()){
 338              		.loc 1 104 66 is_stmt 0
 339 01c4 13850400 		mv	a0,s1
 340 01c8 97000000 		call	_ZN9Scheduler3putEP3TCB@plt
 340      E7800000 
 341              	.LVL24:
 342 01d0 6FF0DFF9 		j	.L15
 343              	.L17:
 116:src/tcb.cpp   ****         //klirujem previous privilege na 0 -> korisnicki rezim
 344              		.loc 1 116 9 is_stmt 1
 345              	.LVL25:
 346              	.LBB296:
 347              	.LBB297:
 181:src/../h/riscv.hpp **** }
 348              		.loc 3 181 5
 181:src/../h/riscv.hpp **** }
 349              		.loc 3 181 68 is_stmt 0
 350 01d4 93070010 		li	a5,256
 351              	#APP
GAS LISTING /tmp/ccg8jNLS.s 			page 27


 352              	# 181 "src/../h/riscv.hpp" 1
 182:src/../h/riscv.hpp **** 
 353              		csrc sstatus, a5
 354              	# 0 "" 2
 355              		.loc 3 182 1
 356              	#NO_APP
 357 01dc 6FF01FFB 		j	.L18
 358              	.LVL26:
 359              	.L22:
 360              	.LBE297:
 361              	.LBE296:
 125:src/tcb.cpp   ****             printInt(running->getAllocatedBlocks());
 362              		.loc 1 125 13 is_stmt 1
 125:src/tcb.cpp   ****             printInt(running->getAllocatedBlocks());
 363              		.loc 1 125 24 is_stmt 0
 364 01e0 17050000 		lla	a0,.LC0
 364      13050500 
 365 01e8 97000000 		call	_Z11printStringPKc@plt
 365      E7800000 
 366              	.LVL27:
 126:src/tcb.cpp   ****             printString("\n");
 367              		.loc 1 126 13 is_stmt 1
 126:src/tcb.cpp   ****             printString("\n");
 368              		.loc 1 126 21 is_stmt 0
 369 01f0 97040000 		lla	s1,.LANCHOR0
 369      93840400 
 370              	.LVL28:
 371 01f8 83B70401 		ld	a5,16(s1)
 372              	.LVL29:
 373              	.LBB298:
 374              	.LBB299:
  56:src/../h/tcb.hpp **** 
  57:src/../h/tcb.hpp ****     //modifikacija PING thread
  58:src/../h/tcb.hpp ****     void incrementMemory(int increment){
  59:src/../h/tcb.hpp ****         this->allocatedBlocks+=increment;
  60:src/../h/tcb.hpp ****     }
  61:src/../h/tcb.hpp ****     void pingThread(){
  62:src/../h/tcb.hpp ****         this->pinged = true;
  63:src/../h/tcb.hpp ****     }
  64:src/../h/tcb.hpp ****     void setPinged(bool value){
  65:src/../h/tcb.hpp ****         this->pinged = value;
  66:src/../h/tcb.hpp ****     }
  67:src/../h/tcb.hpp ****     int getAllocatedBlocks() const{
  68:src/../h/tcb.hpp ****         return this->allocatedBlocks;
 375              		.loc 4 68 9 is_stmt 1
 376              	.LBE299:
 377              	.LBE298:
 126:src/tcb.cpp   ****             printString("\n");
 378              		.loc 1 126 21 is_stmt 0
 379 01fc 13060000 		li	a2,0
 380 0200 9305A000 		li	a1,10
 381 0204 03A50708 		lw	a0,128(a5)
 382 0208 97000000 		call	_Z8printIntiii@plt
 382      E7800000 
 383              	.LVL30:
 127:src/tcb.cpp   ****             printString("Vreme:");
 384              		.loc 1 127 13 is_stmt 1
GAS LISTING /tmp/ccg8jNLS.s 			page 28


 127:src/tcb.cpp   ****             printString("Vreme:");
 385              		.loc 1 127 24 is_stmt 0
 386 0210 17050000 		lla	a0,.LC1
 386      13050500 
 387 0218 97000000 		call	_Z11printStringPKc@plt
 387      E7800000 
 388              	.LVL31:
 128:src/tcb.cpp   ****             printInt(running->getRunTime());
 389              		.loc 1 128 13 is_stmt 1
 128:src/tcb.cpp   ****             printInt(running->getRunTime());
 390              		.loc 1 128 24 is_stmt 0
 391 0220 17050000 		lla	a0,.LC2
 391      13050500 
 392 0228 97000000 		call	_Z11printStringPKc@plt
 392      E7800000 
 393              	.LVL32:
 129:src/tcb.cpp   ****             printString("\n");
 394              		.loc 1 129 13 is_stmt 1
 129:src/tcb.cpp   ****             printString("\n");
 395              		.loc 1 129 21 is_stmt 0
 396 0230 83B70401 		ld	a5,16(s1)
 397              	.LVL33:
 398              	.LBB300:
 399              	.LBB301:
  69:src/../h/tcb.hpp ****     }
  70:src/../h/tcb.hpp ****     int getRunTime() const{
  71:src/../h/tcb.hpp ****         return this->runTime;
 400              		.loc 4 71 9 is_stmt 1
 401              	.LBE301:
 402              	.LBE300:
 129:src/tcb.cpp   ****             printString("\n");
 403              		.loc 1 129 21 is_stmt 0
 404 0234 13060000 		li	a2,0
 405 0238 9305A000 		li	a1,10
 406 023c 03A58708 		lw	a0,136(a5)
 407 0240 97000000 		call	_Z8printIntiii@plt
 407      E7800000 
 408              	.LVL34:
 130:src/tcb.cpp   ****             running->setPinged(false);
 409              		.loc 1 130 13 is_stmt 1
 130:src/tcb.cpp   ****             running->setPinged(false);
 410              		.loc 1 130 24 is_stmt 0
 411 0248 17050000 		lla	a0,.LC1
 411      13050500 
 412 0250 97000000 		call	_Z11printStringPKc@plt
 412      E7800000 
 413              	.LVL35:
 131:src/tcb.cpp   ****         }
 414              		.loc 1 131 13 is_stmt 1
 131:src/tcb.cpp   ****         }
 415              		.loc 1 131 31 is_stmt 0
 416 0258 83B70401 		ld	a5,16(s1)
 417              	.LVL36:
 418              	.LBB302:
 419              	.LBB303:
  65:src/../h/tcb.hpp ****     }
 420              		.loc 4 65 9 is_stmt 1
GAS LISTING /tmp/ccg8jNLS.s 			page 29


  65:src/../h/tcb.hpp ****     }
 421              		.loc 4 65 22 is_stmt 0
 422 025c 23820708 		sb	zero,132(a5)
 423              	.LVL37:
 424              	.LBE303:
 425              	.LBE302:
 135:src/tcb.cpp   **** 
 426              		.loc 1 135 1
 427 0260 6FF01FF5 		j	.L13
 428              		.cfi_endproc
 429              	.LFE58:
 431              		.align	2
 432              		.globl	_ZN3TCB4joinEPS_
 434              	_ZN3TCB4joinEPS_:
 435              	.LFB60:
 169:src/tcb.cpp   ****     if(!handle->isFinished()){
 436              		.loc 1 169 29 is_stmt 1
 437              		.cfi_startproc
 438              	.LVL38:
 170:src/tcb.cpp   ****         running->setBlocked(true);
 439              		.loc 1 170 5
 440              	.LBB304:
 441              	.LBB305:
  47:src/../h/tcb.hpp **** 
 442              		.loc 4 47 31
  47:src/../h/tcb.hpp **** 
 443              		.loc 4 47 38 is_stmt 0
 444 0264 83470502 		lbu	a5,32(a0)
 445              	.LVL39:
 446              	.LBE305:
 447              	.LBE304:
 170:src/tcb.cpp   ****         running->setBlocked(true);
 448              		.loc 1 170 5
 449 0268 63840700 		beqz	a5,.L30
 450 026c 67800000 		ret
 451              	.L30:
 169:src/tcb.cpp   ****     if(!handle->isFinished()){
 452              		.loc 1 169 29
 453 0270 130101FE 		addi	sp,sp,-32
 454              		.cfi_def_cfa_offset 32
 455 0274 233C1100 		sd	ra,24(sp)
 456 0278 23388100 		sd	s0,16(sp)
 457 027c 23349100 		sd	s1,8(sp)
 458 0280 23302101 		sd	s2,0(sp)
 459              		.cfi_offset 1, -8
 460              		.cfi_offset 8, -16
 461              		.cfi_offset 9, -24
 462              		.cfi_offset 18, -32
 463 0284 13040102 		addi	s0,sp,32
 464              		.cfi_def_cfa 8, 0
 465 0288 93040500 		mv	s1,a0
 171:src/tcb.cpp   ****         handle->joined.addLast(running);
 466              		.loc 1 171 9 is_stmt 1
 171:src/tcb.cpp   ****         handle->joined.addLast(running);
 467              		.loc 1 171 28 is_stmt 0
 468 028c 17090000 		ld	s2,.LANCHOR0+16
 468      03390900 
GAS LISTING /tmp/ccg8jNLS.s 			page 30


 469              	.LVL40:
 470              	.LBB306:
 471              	.LBB307:
  53:src/../h/tcb.hpp **** 
 472              		.loc 4 53 35 is_stmt 1
  53:src/../h/tcb.hpp **** 
 473              		.loc 4 53 49 is_stmt 0
 474 0294 93071000 		li	a5,1
 475 0298 A300F902 		sb	a5,33(s2)
 476              	.LVL41:
 477              	.LBE307:
 478              	.LBE306:
 172:src/tcb.cpp   ****     }
 479              		.loc 1 172 9 is_stmt 1
 480              	.LBB308:
 481              	.LBB309:
  27:src/../h/List.hpp **** 
  28:src/../h/List.hpp ****     Lista(const Lista<T> &) = delete;
  29:src/../h/List.hpp **** 
  30:src/../h/List.hpp ****     Lista<T> &operator=(const Lista<T> &) = delete;
  31:src/../h/List.hpp **** 
  32:src/../h/List.hpp ****     void addFirst(T *data)
  33:src/../h/List.hpp ****     {
  34:src/../h/List.hpp ****         Elem *elem = new Elem(data, head);
  35:src/../h/List.hpp ****         head = elem;
  36:src/../h/List.hpp ****         if (!tail) { tail = head; }
  37:src/../h/List.hpp ****     }
  38:src/../h/List.hpp **** 
  39:src/../h/List.hpp ****     void addLast(T *data)
  40:src/../h/List.hpp ****     {
  41:src/../h/List.hpp ****         Elem *elem = new Elem(data, 0);
 482              		.loc 2 41 22 is_stmt 0
 483 029c 13050001 		li	a0,16
 484              	.LVL42:
 485 02a0 97000000 		call	_Znwm@plt
 485      E7800000 
 486              	.LVL43:
 487              	.LBB310:
 488              	.LBB311:
  19:src/../h/List.hpp **** 
 489              		.loc 2 19 58
 490 02a8 23302501 		sd	s2,0(a0)
 491 02ac 23340500 		sd	zero,8(a0)
 492              	.LVL44:
 493              	.LBE311:
 494              	.LBE310:
  42:src/../h/List.hpp ****         if (tail)
 495              		.loc 2 42 13
 496 02b0 83B78403 		ld	a5,56(s1)
 497              		.loc 2 42 9
 498 02b4 63820702 		beqz	a5,.L25
  43:src/../h/List.hpp ****         {
  44:src/../h/List.hpp ****             tail->next = elem;
 499              		.loc 2 44 13
 500 02b8 23B4A700 		sd	a0,8(a5)
  45:src/../h/List.hpp ****             tail = elem;
 501              		.loc 2 45 13
GAS LISTING /tmp/ccg8jNLS.s 			page 31


 502 02bc 23BCA402 		sd	a0,56(s1)
 503              	.LVL45:
 504              	.L23:
 505              	.LBE309:
 506              	.LBE308:
 174:src/tcb.cpp   **** 
 507              		.loc 1 174 1
 508 02c0 83308101 		ld	ra,24(sp)
 509              		.cfi_remember_state
 510              		.cfi_restore 1
 511 02c4 03340101 		ld	s0,16(sp)
 512              		.cfi_restore 8
 513              		.cfi_def_cfa 2, 32
 514 02c8 83348100 		ld	s1,8(sp)
 515              		.cfi_restore 9
 516              	.LVL46:
 517 02cc 03390100 		ld	s2,0(sp)
 518              		.cfi_restore 18
 519 02d0 13010102 		addi	sp,sp,32
 520              		.cfi_def_cfa_offset 0
 521 02d4 67800000 		jr	ra
 522              	.LVL47:
 523              	.L25:
 524              		.cfi_restore_state
 525              	.LBB313:
 526              	.LBB312:
  46:src/../h/List.hpp ****         } else
  47:src/../h/List.hpp ****         {
  48:src/../h/List.hpp ****             head = tail = elem;
 527              		.loc 2 48 13
 528 02d8 23BCA402 		sd	a0,56(s1)
 529 02dc 23B8A402 		sd	a0,48(s1)
 530              	.LVL48:
 531              	.LBE312:
 532              	.LBE313:
 174:src/tcb.cpp   **** 
 533              		.loc 1 174 1
 534 02e0 6FF01FFE 		j	.L23
 535              		.cfi_endproc
 536              	.LFE60:
 538              		.align	2
 539              		.globl	_ZN3TCB12pustiSveNitiEv
 541              	_ZN3TCB12pustiSveNitiEv:
 542              	.LFB61:
 177:src/tcb.cpp   ****     while(this->joined.peekFirst()){
 543              		.loc 1 177 26 is_stmt 1
 544              		.cfi_startproc
 545              	.LVL49:
 546 02e4 130101FE 		addi	sp,sp,-32
 547              		.cfi_def_cfa_offset 32
 548 02e8 233C1100 		sd	ra,24(sp)
 549 02ec 23388100 		sd	s0,16(sp)
 550 02f0 23349100 		sd	s1,8(sp)
 551 02f4 23302101 		sd	s2,0(sp)
 552              		.cfi_offset 1, -8
 553              		.cfi_offset 8, -16
 554              		.cfi_offset 9, -24
GAS LISTING /tmp/ccg8jNLS.s 			page 32


 555              		.cfi_offset 18, -32
 556 02f8 13040102 		addi	s0,sp,32
 557              		.cfi_def_cfa 8, 0
 558 02fc 13090500 		mv	s2,a0
 559 0300 6F004002 		j	.L34
 560              	.LVL50:
 561              	.L36:
 562              	.LBB314:
 563              	.LBB315:
 564              	.LBB316:
  49:src/../h/List.hpp ****         }
  50:src/../h/List.hpp ****     }
  51:src/../h/List.hpp **** 
  52:src/../h/List.hpp ****     T *removeFirst()
  53:src/../h/List.hpp ****     {
  54:src/../h/List.hpp ****         if (!head) { return 0; }
  55:src/../h/List.hpp **** 
  56:src/../h/List.hpp ****         Elem *elem = head;
  57:src/../h/List.hpp ****         head = head->next;
  58:src/../h/List.hpp ****         if (!head) { tail = 0; }
 565              		.loc 2 58 22 is_stmt 0
 566 0304 233C0902 		sd	zero,56(s2)
 567              	.L33:
  59:src/../h/List.hpp **** 
  60:src/../h/List.hpp ****         T *ret = elem->data;
 568              		.loc 2 60 12
 569 0308 83340500 		ld	s1,0(a0)
 570              	.LVL51:
  61:src/../h/List.hpp ****         delete elem;
 571              		.loc 2 61 9
 572 030c 97000000 		call	_ZdlPv@plt
 572      E7800000 
 573              	.LVL52:
 574              	.LBE316:
 575              	.LBE315:
 180:src/tcb.cpp   ****         Scheduler::put(tcb);
 576              		.loc 1 180 9 is_stmt 1
 577              	.LBB318:
 578              	.LBB319:
  53:src/../h/tcb.hpp **** 
 579              		.loc 4 53 35
  53:src/../h/tcb.hpp **** 
 580              		.loc 4 53 49 is_stmt 0
 581 0314 A3800402 		sb	zero,33(s1)
 582              	.LVL53:
 583              	.LBE319:
 584              	.LBE318:
 181:src/tcb.cpp   ****     }
 585              		.loc 1 181 9 is_stmt 1
 181:src/tcb.cpp   ****     }
 586              		.loc 1 181 23 is_stmt 0
 587 0318 13850400 		mv	a0,s1
 588 031c 97000000 		call	_ZN9Scheduler3putEP3TCB@plt
 588      E7800000 
 589              	.LVL54:
 590              	.L34:
 591              	.LBE314:
GAS LISTING /tmp/ccg8jNLS.s 			page 33


 178:src/tcb.cpp   ****         TCB* tcb=this->joined.removeFirst();
 592              		.loc 1 178 5 is_stmt 1
 178:src/tcb.cpp   ****         TCB* tcb=this->joined.removeFirst();
 593              		.loc 1 178 34
 594              	.LBB321:
 595              	.LBB322:
  62:src/../h/List.hpp ****         return ret;
  63:src/../h/List.hpp ****     }
  64:src/../h/List.hpp **** 
  65:src/../h/List.hpp ****     T *peekFirst()
  66:src/../h/List.hpp ****     {
  67:src/../h/List.hpp ****         if (!head) { return 0; }
 596              		.loc 2 67 14 is_stmt 0
 597 0324 03350903 		ld	a0,48(s2)
 598              		.loc 2 67 9
 599 0328 630E0500 		beqz	a0,.L31
  68:src/../h/List.hpp ****         return head->data;
 600              		.loc 2 68 22
 601 032c 83370500 		ld	a5,0(a0)
 602              	.LVL55:
 603              	.LBE322:
 604              	.LBE321:
 178:src/tcb.cpp   ****         TCB* tcb=this->joined.removeFirst();
 605              		.loc 1 178 34
 606 0330 638A0700 		beqz	a5,.L31
 607              	.LBB323:
 179:src/tcb.cpp   ****         tcb->setBlocked(false);
 608              		.loc 1 179 9 is_stmt 1
 609              	.LVL56:
 610              	.LBB320:
 611              	.LBB317:
  57:src/../h/List.hpp ****         if (!head) { tail = 0; }
 612              		.loc 2 57 22 is_stmt 0
 613 0334 83378500 		ld	a5,8(a0)
  57:src/../h/List.hpp ****         if (!head) { tail = 0; }
 614              		.loc 2 57 9
 615 0338 2338F902 		sd	a5,48(s2)
  58:src/../h/List.hpp **** 
 616              		.loc 2 58 9
 617 033c E39607FC 		bnez	a5,.L33
 618 0340 6FF05FFC 		j	.L36
 619              	.LVL57:
 620              	.L31:
 621              	.LBE317:
 622              	.LBE320:
 623              	.LBE323:
 183:src/tcb.cpp   **** 
 624              		.loc 1 183 1
 625 0344 83308101 		ld	ra,24(sp)
 626              		.cfi_restore 1
 627 0348 03340101 		ld	s0,16(sp)
 628              		.cfi_restore 8
 629              		.cfi_def_cfa 2, 32
 630 034c 83348100 		ld	s1,8(sp)
 631              		.cfi_restore 9
 632 0350 03390100 		ld	s2,0(sp)
 633              		.cfi_restore 18
GAS LISTING /tmp/ccg8jNLS.s 			page 34


 634              	.LVL58:
 635 0354 13010102 		addi	sp,sp,32
 636              		.cfi_def_cfa_offset 0
 637 0358 67800000 		jr	ra
 638              		.cfi_endproc
 639              	.LFE61:
 641              		.align	2
 642              		.globl	_ZN3TCBC2EPFvPvES0_Pc
 644              	_ZN3TCBC2EPFvPvES0_Pc:
 645              	.LFB63:
 189:src/tcb.cpp   ****         body(body),
 646              		.loc 1 189 1 is_stmt 1
 647              		.cfi_startproc
 648              	.LVL59:
 649 035c 130101FE 		addi	sp,sp,-32
 650              		.cfi_def_cfa_offset 32
 651 0360 233C1100 		sd	ra,24(sp)
 652 0364 23388100 		sd	s0,16(sp)
 653 0368 23349100 		sd	s1,8(sp)
 654 036c 23302101 		sd	s2,0(sp)
 655              		.cfi_offset 1, -8
 656              		.cfi_offset 8, -16
 657              		.cfi_offset 9, -24
 658              		.cfi_offset 18, -32
 659 0370 13040102 		addi	s0,sp,32
 660              		.cfi_def_cfa 8, 0
 661 0374 93040500 		mv	s1,a0
 662              	.LBB324:
 193:src/tcb.cpp   **** 
 663              		.loc 1 193 157 is_stmt 0
 664 0378 2330B500 		sd	a1,0(a0)
 191:src/tcb.cpp   ****         blocked(false),main(body==nullptr),arg(arg),id(ID++),msgE(nullptr),msgA(nullptr),fsSemaphor
 665              		.loc 1 191 29
 666 037c 638C0510 		beqz	a1,.L45
 191:src/tcb.cpp   ****         blocked(false),main(body==nullptr),arg(arg),id(ID++),msgE(nullptr),msgA(nullptr),fsSemaphor
 667              		.loc 1 191 50 discriminator 1
 668 0380 B7F7FFFF 		li	a5,-4096
 669 0384 B387F600 		add	a5,a3,a5
 670              	.L38:
 193:src/tcb.cpp   **** 
 671              		.loc 1 193 157 discriminator 4
 672 0388 23B4F400 		sd	a5,8(s1)
 673 038c 17070000 		lla	a4,_ZN3TCB13threadWrapperEv
 673      13070700 
 674 0394 23B8E400 		sd	a4,16(s1)
 191:src/tcb.cpp   ****         blocked(false),main(body==nullptr),arg(arg),id(ID++),msgE(nullptr),msgA(nullptr),fsSemaphor
 675              		.loc 1 191 132 discriminator 4
 676 0398 63820710 		beqz	a5,.L48
 677              	.LVL60:
 678              	.L39:
 193:src/tcb.cpp   **** 
 679              		.loc 1 193 157
 680 039c 23BCD400 		sd	a3,24(s1)
 681 03a0 23800402 		sb	zero,32(s1)
 682 03a4 A3800402 		sb	zero,33(s1)
 192:src/tcb.cpp   ****         nullptr),parent(nullptr),waitingForChildren(false),joinALL(false),numberOfChildren(0),joinA
 683              		.loc 1 192 33
GAS LISTING /tmp/ccg8jNLS.s 			page 35


 684 03a8 93B71500 		seqz	a5,a1
 193:src/tcb.cpp   **** 
 685              		.loc 1 193 157
 686 03ac 2381F402 		sb	a5,34(s1)
 687 03b0 23B4C402 		sd	a2,40(s1)
 688              	.LVL61:
 689              	.LBB325:
 690              	.LBB326:
  26:src/../h/List.hpp **** 
 691              		.loc 2 26 30
 692 03b4 23B80402 		sd	zero,48(s1)
 693 03b8 23BC0402 		sd	zero,56(s1)
 694              	.LVL62:
 695              	.LBE326:
 696              	.LBE325:
 192:src/tcb.cpp   ****         nullptr),parent(nullptr),waitingForChildren(false),joinALL(false),numberOfChildren(0),joinA
 697              		.loc 1 192 58
 698 03bc 17070000 		lla	a4,.LANCHOR0
 698      13070700 
 699 03c4 83278702 		lw	a5,40(a4)
 700 03c8 9B861700 		addiw	a3,a5,1
 701 03cc 2324D702 		sw	a3,40(a4)
 193:src/tcb.cpp   **** 
 702              		.loc 1 193 157
 703 03d0 23A0F404 		sw	a5,64(s1)
 704 03d4 23B40404 		sd	zero,72(s1)
 705 03d8 23B80404 		sd	zero,80(s1)
 706 03dc 238C0404 		sb	zero,88(s1)
 707 03e0 23B00406 		sd	zero,96(s1)
 708 03e4 23B40406 		sd	zero,104(s1)
 709 03e8 23880406 		sb	zero,112(s1)
 710 03ec A3880406 		sb	zero,113(s1)
 711 03f0 23AA0406 		sw	zero,116(s1)
 712 03f4 23BC0406 		sd	zero,120(s1)
 713 03f8 23A00408 		sw	zero,128(s1)
 714 03fc 23820408 		sb	zero,132(s1)
 715 0400 23A40408 		sw	zero,136(s1)
 196:src/tcb.cpp   **** 
 716              		.loc 1 196 5 is_stmt 1
 717 0404 638C0506 		beqz	a1,.L37
 198:src/tcb.cpp   ****         if(parent){
 718              		.loc 1 198 9
 198:src/tcb.cpp   ****         if(parent){
 719              		.loc 1 198 15 is_stmt 0
 720 0408 97070000 		ld	a5,.LANCHOR0+16
 720      83B70700 
 721 0410 23B4F406 		sd	a5,104(s1)
 199:src/tcb.cpp   ****             parent->numberOfChildren++;
 722              		.loc 1 199 9 is_stmt 1
 723 0414 63880700 		beqz	a5,.L41
 200:src/tcb.cpp   ****         }
 724              		.loc 1 200 13
 200:src/tcb.cpp   ****         }
 725              		.loc 1 200 21 is_stmt 0
 726 0418 03A74707 		lw	a4,116(a5)
 200:src/tcb.cpp   ****         }
 727              		.loc 1 200 37
GAS LISTING /tmp/ccg8jNLS.s 			page 36


 728 041c 1B071700 		addiw	a4,a4,1
 729 0420 23AAE706 		sw	a4,116(a5)
 730              	.L41:
 202:src/tcb.cpp   ****             numOFthreads++;
 731              		.loc 1 202 9 is_stmt 1
 732 0424 97070000 		lbu	a5,.LANCHOR0+44
 732      83C70700 
 733 042c 638C0700 		beqz	a5,.L42
 203:src/tcb.cpp   ****         }
 734              		.loc 1 203 13
 203:src/tcb.cpp   ****         }
 735              		.loc 1 203 25 is_stmt 0
 736 0430 17070000 		lla	a4,.LANCHOR0
 736      13070700 
 737 0438 83270703 		lw	a5,48(a4)
 738 043c 9B871700 		addiw	a5,a5,1
 739 0440 2328F702 		sw	a5,48(a4)
 740              	.L42:
 205:src/tcb.cpp   ****             semMaxThreads->wait();
 741              		.loc 1 205 9 is_stmt 1
 742 0444 97070000 		lbu	a5,.LANCHOR0+24
 742      83C70700 
 743 044c 639C0704 		bnez	a5,.L49
 744              	.LVL63:
 745              	.L43:
 209:src/tcb.cpp   ****             threadCount++;
 746              		.loc 1 209 9
 747 0450 97070000 		lbu	a5,.LANCHOR0+52
 747      83C70700 
 748 0458 638C0700 		beqz	a5,.L44
 210:src/tcb.cpp   ****         }
 749              		.loc 1 210 13
 210:src/tcb.cpp   ****         }
 750              		.loc 1 210 24 is_stmt 0
 751 045c 17070000 		lla	a4,.LANCHOR0
 751      13070700 
 752 0464 83278703 		lw	a5,56(a4)
 753 0468 9B871700 		addiw	a5,a5,1
 754 046c 232CF702 		sw	a5,56(a4)
 755              	.L44:
 213:src/tcb.cpp   **** 
 756              		.loc 1 213 9 is_stmt 1
 213:src/tcb.cpp   **** 
 757              		.loc 1 213 23 is_stmt 0
 758 0470 13850400 		mv	a0,s1
 759 0474 97000000 		call	_ZN9Scheduler3putEP3TCB@plt
 759      E7800000 
 760              	.LVL64:
 761              	.L37:
 762              	.LBE324:
 218:src/tcb.cpp   **** 
 763              		.loc 1 218 1
 764 047c 83308101 		ld	ra,24(sp)
 765              		.cfi_remember_state
 766              		.cfi_restore 1
 767 0480 03340101 		ld	s0,16(sp)
 768              		.cfi_restore 8
GAS LISTING /tmp/ccg8jNLS.s 			page 37


 769              		.cfi_def_cfa 2, 32
 770 0484 83348100 		ld	s1,8(sp)
 771              		.cfi_restore 9
 772              	.LVL65:
 773 0488 03390100 		ld	s2,0(sp)
 774              		.cfi_restore 18
 775 048c 13010102 		addi	sp,sp,32
 776              		.cfi_def_cfa_offset 0
 777 0490 67800000 		jr	ra
 778              	.LVL66:
 779              	.L45:
 780              		.cfi_restore_state
 781              	.LBB327:
 191:src/tcb.cpp   ****         blocked(false),main(body==nullptr),arg(arg),id(ID++),msgE(nullptr),msgA(nullptr),fsSemaphor
 782              		.loc 1 191 29
 783 0494 93070000 		li	a5,0
 784 0498 6FF01FEF 		j	.L38
 785              	.L48:
 191:src/tcb.cpp   ****         blocked(false),main(body==nullptr),arg(arg),id(ID++),msgE(nullptr),msgA(nullptr),fsSemaphor
 786              		.loc 1 191 132
 787 049c 93060000 		li	a3,0
 788              	.LVL67:
 789 04a0 6FF0DFEF 		j	.L39
 790              	.L49:
 206:src/tcb.cpp   ****             currThr++;
 791              		.loc 1 206 13 is_stmt 1
 206:src/tcb.cpp   ****             currThr++;
 792              		.loc 1 206 32 is_stmt 0
 793 04a4 17090000 		lla	s2,.LANCHOR0
 793      13090900 
 794 04ac 03350902 		ld	a0,32(s2)
 795 04b0 97000000 		call	_ZN11Semaphore_k4waitEv@plt
 795      E7800000 
 796              	.LVL68:
 207:src/tcb.cpp   ****         }
 797              		.loc 1 207 13 is_stmt 1
 207:src/tcb.cpp   ****         }
 798              		.loc 1 207 20 is_stmt 0
 799 04b8 8327C901 		lw	a5,28(s2)
 800 04bc 9B871700 		addiw	a5,a5,1
 801 04c0 232EF900 		sw	a5,28(s2)
 802 04c4 6FF0DFF8 		j	.L43
 803              	.LBE327:
 804              		.cfi_endproc
 805              	.LFE63:
 807              		.globl	_ZN3TCBC1EPFvPvES0_Pc
 808              		.set	_ZN3TCBC1EPFvPvES0_Pc,_ZN3TCBC2EPFvPvES0_Pc
 809              		.align	2
 810              		.globl	_ZN3TCB14kreiraj_threadEPPS_PFvPvES2_Pc
 812              	_ZN3TCB14kreiraj_threadEPPS_PFvPvES2_Pc:
 813              	.LFB56:
  88:src/tcb.cpp   ****     *handle = new TCB(body,arg,stek);
 814              		.loc 1 88 78 is_stmt 1
 815              		.cfi_startproc
 816              		.cfi_personality 0x9b,DW.ref.__gxx_personality_v0
 817              		.cfi_lsda 0x1b,.LLSDA56
 818              	.LVL69:
GAS LISTING /tmp/ccg8jNLS.s 			page 38


 819 04c8 130101FC 		addi	sp,sp,-64
 820              		.cfi_def_cfa_offset 64
 821 04cc 233C1102 		sd	ra,56(sp)
 822 04d0 23388102 		sd	s0,48(sp)
 823 04d4 23349102 		sd	s1,40(sp)
 824 04d8 23302103 		sd	s2,32(sp)
 825 04dc 233C3101 		sd	s3,24(sp)
 826 04e0 23384101 		sd	s4,16(sp)
 827 04e4 23345101 		sd	s5,8(sp)
 828              		.cfi_offset 1, -8
 829              		.cfi_offset 8, -16
 830              		.cfi_offset 9, -24
 831              		.cfi_offset 18, -32
 832              		.cfi_offset 19, -40
 833              		.cfi_offset 20, -48
 834              		.cfi_offset 21, -56
 835 04e8 13040104 		addi	s0,sp,64
 836              		.cfi_def_cfa 8, 0
 837 04ec 13090500 		mv	s2,a0
 838 04f0 93890500 		mv	s3,a1
 839 04f4 130A0600 		mv	s4,a2
 840 04f8 938A0600 		mv	s5,a3
  89:src/tcb.cpp   **** 
 841              		.loc 1 89 5
 842              	.LVL70:
 843              	.LBB328:
 844              	.LBB329:
  26:src/../h/tcb.hpp ****     }
 845              		.loc 4 26 9
  26:src/../h/tcb.hpp ****     }
 846              		.loc 4 26 42 is_stmt 0
 847 04fc 13050009 		li	a0,144
 848              	.LVL71:
 849              	.LEHB0:
 850 0500 97000000 		call	_ZN15memoryAllocator9mem_allocEm@plt
 850      E7800000 
 851              	.LVL72:
 852              	.LEHE0:
 853 0508 93040500 		mv	s1,a0
 854              	.LVL73:
 855              	.LBE329:
 856              	.LBE328:
  89:src/tcb.cpp   **** 
 857              		.loc 1 89 36
 858 050c 93860A00 		mv	a3,s5
 859 0510 13060A00 		mv	a2,s4
 860 0514 93850900 		mv	a1,s3
 861              	.LEHB1:
 862 0518 97000000 		call	_ZN3TCBC1EPFvPvES0_Pc
 862      E7800000 
 863              	.LVL74:
 864              	.LEHE1:
 865 0520 6F000002 		j	.L56
 866              	.L52:
 867 0524 13090500 		mv	s2,a0
 868              	.LVL75:
 869              	.LBB330:
GAS LISTING /tmp/ccg8jNLS.s 			page 39


 870              	.LBB331:
  33:src/../h/tcb.hpp ****     }
 871              		.loc 4 33 9 is_stmt 1
  33:src/../h/tcb.hpp ****     }
 872              		.loc 4 33 34 is_stmt 0
 873 0528 13850400 		mv	a0,s1
 874 052c 97000000 		call	_ZN15memoryAllocator8mem_freeEPv@plt
 874      E7800000 
 875              	.LVL76:
 876 0534 13050900 		mv	a0,s2
 877              	.LEHB2:
 878 0538 97000000 		call	_Unwind_Resume@plt
 878      E7800000 
 879              	.LVL77:
 880              	.LEHE2:
 881              	.L56:
 882              	.LBE331:
 883              	.LBE330:
  89:src/tcb.cpp   **** 
 884              		.loc 1 89 13 discriminator 2
 885 0540 23309900 		sd	s1,0(s2)
  91:src/tcb.cpp   **** }
 886              		.loc 1 91 5 is_stmt 1 discriminator 2
  92:src/tcb.cpp   **** 
 887              		.loc 1 92 1 is_stmt 0 discriminator 2
 888 0544 13850400 		mv	a0,s1
 889 0548 83308103 		ld	ra,56(sp)
 890              		.cfi_restore 1
 891 054c 03340103 		ld	s0,48(sp)
 892              		.cfi_restore 8
 893              		.cfi_def_cfa 2, 64
 894 0550 83348102 		ld	s1,40(sp)
 895              		.cfi_restore 9
 896 0554 03390102 		ld	s2,32(sp)
 897              		.cfi_restore 18
 898              	.LVL78:
 899 0558 83398101 		ld	s3,24(sp)
 900              		.cfi_restore 19
 901              	.LVL79:
 902 055c 033A0101 		ld	s4,16(sp)
 903              		.cfi_restore 20
 904              	.LVL80:
 905 0560 833A8100 		ld	s5,8(sp)
 906              		.cfi_restore 21
 907              	.LVL81:
 908 0564 13010104 		addi	sp,sp,64
 909              		.cfi_def_cfa_offset 0
 910 0568 67800000 		jr	ra
 911              		.cfi_endproc
 912              	.LFE56:
 913              		.globl	__gxx_personality_v0
 914              		.section	.gcc_except_table,"a",@progbits
 915              	.LLSDA56:
 916 0000 FF       		.byte	0xff
 917 0001 FF       		.byte	0xff
 918 0002 03       		.byte	0x3
 919 0003 27       		.byte	0x27
GAS LISTING /tmp/ccg8jNLS.s 			page 40


 920 0004 00000000 		.4byte	.LEHB0-.LFB56
 921 0008 00000000 		.4byte	.LEHE0-.LEHB0
 922 000c 00000000 		.4byte	0
 923 0010 00       		.byte	0
 924 0011 00000000 		.4byte	.LEHB1-.LFB56
 925 0015 00000000 		.4byte	.LEHE1-.LEHB1
 926 0019 00000000 		.4byte	.L52-.LFB56
 927 001d 00       		.byte	0
 928 001e 00000000 		.4byte	.LEHB2-.LFB56
 929 0022 00000000 		.4byte	.LEHE2-.LEHB2
 930 0026 00000000 		.4byte	0
 931 002a 00       		.byte	0
 932              		.text
 934              		.align	2
 935              		.globl	_ZN3TCB7getMyIDEv
 937              	_ZN3TCB7getMyIDEv:
 938              	.LFB65:
 233:src/tcb.cpp   ****     return  this->id;
 939              		.loc 1 233 20 is_stmt 1
 940              		.cfi_startproc
 941              	.LVL82:
 942 056c 130101FF 		addi	sp,sp,-16
 943              		.cfi_def_cfa_offset 16
 944 0570 23348100 		sd	s0,8(sp)
 945              		.cfi_offset 8, -8
 946 0574 13040101 		addi	s0,sp,16
 947              		.cfi_def_cfa 8, 0
 234:src/tcb.cpp   **** }
 948              		.loc 1 234 5
 235:src/tcb.cpp   **** 
 949              		.loc 1 235 1 is_stmt 0
 950 0578 03250504 		lw	a0,64(a0)
 951              	.LVL83:
 952 057c 03348100 		ld	s0,8(sp)
 953              		.cfi_restore 8
 954              		.cfi_def_cfa 2, 16
 955 0580 13010101 		addi	sp,sp,16
 956              		.cfi_def_cfa_offset 0
 957 0584 67800000 		jr	ra
 958              		.cfi_endproc
 959              	.LFE65:
 961              		.align	2
 962              		.globl	_ZN3TCB17setUnisexBatrroomEv
 964              	_ZN3TCB17setUnisexBatrroomEv:
 965              	.LFB66:
 239:src/tcb.cpp   ****     empty = new Semaphore_k(4);
 966              		.loc 1 239 31 is_stmt 1
 967              		.cfi_startproc
 968 0588 130101FE 		addi	sp,sp,-32
 969              		.cfi_def_cfa_offset 32
 970 058c 233C1100 		sd	ra,24(sp)
 971 0590 23388100 		sd	s0,16(sp)
 972 0594 23349100 		sd	s1,8(sp)
 973 0598 23302101 		sd	s2,0(sp)
 974              		.cfi_offset 1, -8
 975              		.cfi_offset 8, -16
 976              		.cfi_offset 9, -24
GAS LISTING /tmp/ccg8jNLS.s 			page 41


 977              		.cfi_offset 18, -32
 978 059c 13040102 		addi	s0,sp,32
 979              		.cfi_def_cfa 8, 0
 240:src/tcb.cpp   ****     toilet = new Semaphore_k(1);
 980              		.loc 1 240 5
 981              	.LVL84:
 982              	.LBB332:
 983              	.LBB333:
 984              		.file 5 "src/../h/Semaphore_k.hpp"
   1:src/../h/Semaphore_k.hpp **** //
   2:src/../h/Semaphore_k.hpp **** // Created by os on 5/17/24.
   3:src/../h/Semaphore_k.hpp **** //
   4:src/../h/Semaphore_k.hpp **** 
   5:src/../h/Semaphore_k.hpp **** #ifndef SEMAPHORE_K_HPP
   6:src/../h/Semaphore_k.hpp **** #define SEMAPHORE_K_HPP
   7:src/../h/Semaphore_k.hpp **** 
   8:src/../h/Semaphore_k.hpp **** #include "List.hpp"
   9:src/../h/Semaphore_k.hpp **** #include "tcb.hpp"
  10:src/../h/Semaphore_k.hpp **** 
  11:src/../h/Semaphore_k.hpp **** 
  12:src/../h/Semaphore_k.hpp **** class Semaphore_k {
  13:src/../h/Semaphore_k.hpp **** private:
  14:src/../h/Semaphore_k.hpp ****     bool closed;
  15:src/../h/Semaphore_k.hpp ****     int value;
  16:src/../h/Semaphore_k.hpp ****     Lista<TCB> blocked;
  17:src/../h/Semaphore_k.hpp **** protected:
  18:src/../h/Semaphore_k.hpp ****     void block();
  19:src/../h/Semaphore_k.hpp **** 
  20:src/../h/Semaphore_k.hpp ****     void deblock();
  21:src/../h/Semaphore_k.hpp **** 
  22:src/../h/Semaphore_k.hpp **** 
  23:src/../h/Semaphore_k.hpp **** public:
  24:src/../h/Semaphore_k.hpp ****     using sem_t = Semaphore_k*;
  25:src/../h/Semaphore_k.hpp ****     void* operator new(size_t size) {
  26:src/../h/Semaphore_k.hpp ****         return memoryAllocator::mem_alloc(size);
 985              		.loc 5 26 9
 986              		.loc 5 26 42 is_stmt 0
 987 05a0 13058001 		li	a0,24
 988 05a4 97000000 		call	_ZN15memoryAllocator9mem_allocEm@plt
 988      E7800000 
 989              	.LVL85:
 990              	.LBE333:
 991              	.LBE332:
 992              	.LBB334:
 993              	.LBB335:
  27:src/../h/Semaphore_k.hpp ****     }
  28:src/../h/Semaphore_k.hpp ****     void* operator new[](size_t size) {
  29:src/../h/Semaphore_k.hpp ****         return memoryAllocator::mem_alloc(size);
  30:src/../h/Semaphore_k.hpp ****     }
  31:src/../h/Semaphore_k.hpp **** 
  32:src/../h/Semaphore_k.hpp ****     void operator delete(void *ptr) {
  33:src/../h/Semaphore_k.hpp ****         memoryAllocator::mem_free(ptr);
  34:src/../h/Semaphore_k.hpp ****     }
  35:src/../h/Semaphore_k.hpp ****     void operator delete[](void *ptr) {
  36:src/../h/Semaphore_k.hpp ****         memoryAllocator::mem_free(ptr);
  37:src/../h/Semaphore_k.hpp ****     }
  38:src/../h/Semaphore_k.hpp **** 
GAS LISTING /tmp/ccg8jNLS.s 			page 42


  39:src/../h/Semaphore_k.hpp ****     Semaphore_k(unsigned init = 0):closed(false),value(init){
 994              		.loc 5 39 60
 995 05ac 23000500 		sb	zero,0(a0)
 996 05b0 93074000 		li	a5,4
 997 05b4 2322F500 		sw	a5,4(a0)
 998              	.LVL86:
 999              	.LBB336:
 1000              	.LBB337:
  26:src/../h/List.hpp **** 
 1001              		.loc 2 26 30
 1002 05b8 23340500 		sd	zero,8(a0)
 1003 05bc 23380500 		sd	zero,16(a0)
 1004              	.LVL87:
 1005              	.LBE337:
 1006              	.LBE336:
 1007              	.LBE335:
 1008              	.LBE334:
 240:src/tcb.cpp   ****     toilet = new Semaphore_k(1);
 1009              		.loc 1 240 11
 1010 05c0 97040000 		lla	s1,.LANCHOR0
 1010      93840400 
 1011 05c8 23B0A404 		sd	a0,64(s1)
 241:src/tcb.cpp   ****     mutexMen = new Semaphore_k(1);
 1012              		.loc 1 241 5 is_stmt 1
 1013              	.LVL88:
 1014              	.LBB338:
 1015              	.LBB339:
  26:src/../h/Semaphore_k.hpp ****     }
 1016              		.loc 5 26 9
  26:src/../h/Semaphore_k.hpp ****     }
 1017              		.loc 5 26 42 is_stmt 0
 1018 05cc 13058001 		li	a0,24
 1019 05d0 97000000 		call	_ZN15memoryAllocator9mem_allocEm@plt
 1019      E7800000 
 1020              	.LVL89:
 1021              	.LBE339:
 1022              	.LBE338:
 1023              	.LBB340:
 1024              	.LBB341:
 1025              		.loc 5 39 60
 1026 05d8 23000500 		sb	zero,0(a0)
 1027 05dc 13091000 		li	s2,1
 1028 05e0 23222501 		sw	s2,4(a0)
 1029              	.LVL90:
 1030              	.LBB342:
 1031              	.LBB343:
  26:src/../h/List.hpp **** 
 1032              		.loc 2 26 30
 1033 05e4 23340500 		sd	zero,8(a0)
 1034 05e8 23380500 		sd	zero,16(a0)
 1035              	.LVL91:
 1036              	.LBE343:
 1037              	.LBE342:
 1038              	.LBE341:
 1039              	.LBE340:
 241:src/tcb.cpp   ****     mutexMen = new Semaphore_k(1);
 1040              		.loc 1 241 12
GAS LISTING /tmp/ccg8jNLS.s 			page 43


 1041 05ec 23B4A404 		sd	a0,72(s1)
 242:src/tcb.cpp   ****     mutexWomen = new Semaphore_k(1);
 1042              		.loc 1 242 5 is_stmt 1
 1043              	.LVL92:
 1044              	.LBB344:
 1045              	.LBB345:
  26:src/../h/Semaphore_k.hpp ****     }
 1046              		.loc 5 26 9
  26:src/../h/Semaphore_k.hpp ****     }
 1047              		.loc 5 26 42 is_stmt 0
 1048 05f0 13058001 		li	a0,24
 1049 05f4 97000000 		call	_ZN15memoryAllocator9mem_allocEm@plt
 1049      E7800000 
 1050              	.LVL93:
 1051              	.LBE345:
 1052              	.LBE344:
 1053              	.LBB346:
 1054              	.LBB347:
 1055              		.loc 5 39 60
 1056 05fc 23000500 		sb	zero,0(a0)
 1057 0600 23222501 		sw	s2,4(a0)
 1058              	.LVL94:
 1059              	.LBB348:
 1060              	.LBB349:
  26:src/../h/List.hpp **** 
 1061              		.loc 2 26 30
 1062 0604 23340500 		sd	zero,8(a0)
 1063 0608 23380500 		sd	zero,16(a0)
 1064              	.LVL95:
 1065              	.LBE349:
 1066              	.LBE348:
 1067              	.LBE347:
 1068              	.LBE346:
 242:src/tcb.cpp   ****     mutexWomen = new Semaphore_k(1);
 1069              		.loc 1 242 14
 1070 060c 23B8A404 		sd	a0,80(s1)
 243:src/tcb.cpp   ****     entry = new Semaphore_k(1);
 1071              		.loc 1 243 5 is_stmt 1
 1072              	.LVL96:
 1073              	.LBB350:
 1074              	.LBB351:
  26:src/../h/Semaphore_k.hpp ****     }
 1075              		.loc 5 26 9
  26:src/../h/Semaphore_k.hpp ****     }
 1076              		.loc 5 26 42 is_stmt 0
 1077 0610 13058001 		li	a0,24
 1078 0614 97000000 		call	_ZN15memoryAllocator9mem_allocEm@plt
 1078      E7800000 
 1079              	.LVL97:
 1080              	.LBE351:
 1081              	.LBE350:
 1082              	.LBB352:
 1083              	.LBB353:
 1084              		.loc 5 39 60
 1085 061c 23000500 		sb	zero,0(a0)
 1086 0620 23222501 		sw	s2,4(a0)
 1087              	.LVL98:
GAS LISTING /tmp/ccg8jNLS.s 			page 44


 1088              	.LBB354:
 1089              	.LBB355:
  26:src/../h/List.hpp **** 
 1090              		.loc 2 26 30
 1091 0624 23340500 		sd	zero,8(a0)
 1092 0628 23380500 		sd	zero,16(a0)
 1093              	.LVL99:
 1094              	.LBE355:
 1095              	.LBE354:
 1096              	.LBE353:
 1097              	.LBE352:
 243:src/tcb.cpp   ****     entry = new Semaphore_k(1);
 1098              		.loc 1 243 16
 1099 062c 23BCA404 		sd	a0,88(s1)
 244:src/tcb.cpp   **** }
 1100              		.loc 1 244 5 is_stmt 1
 1101              	.LVL100:
 1102              	.LBB356:
 1103              	.LBB357:
  26:src/../h/Semaphore_k.hpp ****     }
 1104              		.loc 5 26 9
  26:src/../h/Semaphore_k.hpp ****     }
 1105              		.loc 5 26 42 is_stmt 0
 1106 0630 13058001 		li	a0,24
 1107 0634 97000000 		call	_ZN15memoryAllocator9mem_allocEm@plt
 1107      E7800000 
 1108              	.LVL101:
 1109              	.LBE357:
 1110              	.LBE356:
 1111              	.LBB358:
 1112              	.LBB359:
 1113              		.loc 5 39 60
 1114 063c 23000500 		sb	zero,0(a0)
 1115 0640 23222501 		sw	s2,4(a0)
 1116              	.LVL102:
 1117              	.LBB360:
 1118              	.LBB361:
  26:src/../h/List.hpp **** 
 1119              		.loc 2 26 30
 1120 0644 23340500 		sd	zero,8(a0)
 1121 0648 23380500 		sd	zero,16(a0)
 1122              	.LVL103:
 1123              	.LBE361:
 1124              	.LBE360:
 1125              	.LBE359:
 1126              	.LBE358:
 244:src/tcb.cpp   **** }
 1127              		.loc 1 244 11
 1128 064c 23B0A406 		sd	a0,96(s1)
 245:src/tcb.cpp   **** 
 1129              		.loc 1 245 1
 1130 0650 83308101 		ld	ra,24(sp)
 1131              		.cfi_restore 1
 1132 0654 03340101 		ld	s0,16(sp)
 1133              		.cfi_restore 8
 1134              		.cfi_def_cfa 2, 32
 1135 0658 83348100 		ld	s1,8(sp)
GAS LISTING /tmp/ccg8jNLS.s 			page 45


 1136              		.cfi_restore 9
 1137 065c 03390100 		ld	s2,0(sp)
 1138              		.cfi_restore 18
 1139 0660 13010102 		addi	sp,sp,32
 1140              		.cfi_def_cfa_offset 0
 1141 0664 67800000 		jr	ra
 1142              		.cfi_endproc
 1143              	.LFE66:
 1145              		.section	.rodata.str1.8
 1146 0037 00       		.align	3
 1147              	.LC3:
 1148 0038 5573616F 		.string	"Usao novi muskarac, al ne koristi jos "
 1148      206E6F76 
 1148      69206D75 
 1148      736B6172 
 1148      61632C20 
 1149 005f 00       		.align	3
 1150              	.LC4:
 1151 0060 49443A20 		.string	"ID: "
 1151      00
 1152 0065 000000   		.align	3
 1153              	.LC5:
 1154 0068 5573616F 		.string	"Usao jedan muskarac, zene ne mogu sad ulaziti\n"
 1154      206A6564 
 1154      616E206D 
 1154      75736B61 
 1154      7261632C 
 1155 0097 00       		.align	3
 1156              	.LC6:
 1157 0098 4D75736B 		.string	"Muskarac koristi WC\n"
 1157      61726163 
 1157      206B6F72 
 1157      69737469 
 1157      2057430A 
 1158 00ad 000000   		.align	3
 1159              	.LC7:
 1160 00b0 4D75736B 		.string	"Muskarac izasao iz WC\n"
 1160      61726163 
 1160      20697A61 
 1160      73616F20 
 1160      697A2057 
 1161              		.text
 1162              		.align	2
 1163              		.globl	_ZN3TCB3manEj
 1165              	_ZN3TCB3manEj:
 1166              	.LFB67:
 247:src/tcb.cpp   ****     if(!firstSet){
 1167              		.loc 1 247 32 is_stmt 1
 1168              		.cfi_startproc
 1169              	.LVL104:
 1170 0668 130101FE 		addi	sp,sp,-32
 1171              		.cfi_def_cfa_offset 32
 1172 066c 233C1100 		sd	ra,24(sp)
 1173 0670 23388100 		sd	s0,16(sp)
 1174 0674 23349100 		sd	s1,8(sp)
 1175 0678 23302101 		sd	s2,0(sp)
 1176              		.cfi_offset 1, -8
GAS LISTING /tmp/ccg8jNLS.s 			page 46


 1177              		.cfi_offset 8, -16
 1178              		.cfi_offset 9, -24
 1179              		.cfi_offset 18, -32
 1180 067c 13040102 		addi	s0,sp,32
 1181              		.cfi_def_cfa 8, 0
 1182 0680 93040500 		mv	s1,a0
 248:src/tcb.cpp   ****         setUnisexBatrroom();
 1183              		.loc 1 248 5
 248:src/tcb.cpp   ****         setUnisexBatrroom();
 1184              		.loc 1 248 8 is_stmt 0
 1185 0684 97070000 		lbu	a5,.LANCHOR0+104
 1185      83C70700 
 248:src/tcb.cpp   ****         setUnisexBatrroom();
 1186              		.loc 1 248 5
 1187 068c 6386071A 		beqz	a5,.L66
 1188              	.LVL105:
 1189              	.L62:
 253:src/tcb.cpp   ****     mutexMen->wait();
 1190              		.loc 1 253 5 is_stmt 1
 253:src/tcb.cpp   ****     mutexMen->wait();
 1191              		.loc 1 253 16 is_stmt 0
 1192 0690 17090000 		lla	s2,.LANCHOR0
 1192      13090900 
 1193 0698 03350906 		ld	a0,96(s2)
 1194 069c 97000000 		call	_ZN11Semaphore_k4waitEv@plt
 1194      E7800000 
 1195              	.LVL106:
 254:src/tcb.cpp   ****     printString("Usao novi muskarac, al ne koristi jos ");
 1196              		.loc 1 254 5 is_stmt 1
 254:src/tcb.cpp   ****     printString("Usao novi muskarac, al ne koristi jos ");
 1197              		.loc 1 254 19 is_stmt 0
 1198 06a4 03350905 		ld	a0,80(s2)
 1199 06a8 97000000 		call	_ZN11Semaphore_k4waitEv@plt
 1199      E7800000 
 1200              	.LVL107:
 255:src/tcb.cpp   ****     printString("ID: ");
 1201              		.loc 1 255 5 is_stmt 1
 255:src/tcb.cpp   ****     printString("ID: ");
 1202              		.loc 1 255 16 is_stmt 0
 1203 06b0 17050000 		lla	a0,.LC3
 1203      13050500 
 1204 06b8 97000000 		call	_Z11printStringPKc@plt
 1204      E7800000 
 1205              	.LVL108:
 256:src/tcb.cpp   ****     printInt(id);
 1206              		.loc 1 256 5 is_stmt 1
 256:src/tcb.cpp   ****     printInt(id);
 1207              		.loc 1 256 16 is_stmt 0
 1208 06c0 17050000 		lla	a0,.LC4
 1208      13050500 
 1209 06c8 97000000 		call	_Z11printStringPKc@plt
 1209      E7800000 
 1210              	.LVL109:
 257:src/tcb.cpp   ****     printString("\n");
 1211              		.loc 1 257 5 is_stmt 1
 257:src/tcb.cpp   ****     printString("\n");
 1212              		.loc 1 257 13 is_stmt 0
GAS LISTING /tmp/ccg8jNLS.s 			page 47


 1213 06d0 9B840400 		sext.w	s1,s1
 1214 06d4 13060000 		li	a2,0
 1215 06d8 9305A000 		li	a1,10
 1216 06dc 13850400 		mv	a0,s1
 1217 06e0 97000000 		call	_Z8printIntiii@plt
 1217      E7800000 
 1218              	.LVL110:
 258:src/tcb.cpp   ****     numOfMan++;
 1219              		.loc 1 258 5 is_stmt 1
 258:src/tcb.cpp   ****     numOfMan++;
 1220              		.loc 1 258 16 is_stmt 0
 1221 06e8 17050000 		lla	a0,.LC1
 1221      13050500 
 1222 06f0 97000000 		call	_Z11printStringPKc@plt
 1222      E7800000 
 1223              	.LVL111:
 259:src/tcb.cpp   ****     if(numOfMan==1){
 1224              		.loc 1 259 5 is_stmt 1
 259:src/tcb.cpp   ****     if(numOfMan==1){
 1225              		.loc 1 259 13 is_stmt 0
 1226 06f8 8327C906 		lw	a5,108(s2)
 1227 06fc 9B871700 		addiw	a5,a5,1
 1228 0700 1B870700 		sext.w	a4,a5
 1229 0704 2326F906 		sw	a5,108(s2)
 260:src/tcb.cpp   ****         toilet->wait();
 1230              		.loc 1 260 5 is_stmt 1
 1231 0708 93071000 		li	a5,1
 1232 070c 6302F714 		beq	a4,a5,.L67
 1233              	.L63:
 267:src/tcb.cpp   ****     thread_dispatch();
 1234              		.loc 1 267 5
 267:src/tcb.cpp   ****     thread_dispatch();
 1235              		.loc 1 267 21 is_stmt 0
 1236 0710 17090000 		lla	s2,.LANCHOR0
 1236      13090900 
 1237 0718 03350905 		ld	a0,80(s2)
 1238 071c 97000000 		call	_ZN11Semaphore_k6signalEv@plt
 1238      E7800000 
 1239              	.LVL112:
 268:src/tcb.cpp   **** 
 1240              		.loc 1 268 5 is_stmt 1
 268:src/tcb.cpp   **** 
 1241              		.loc 1 268 20 is_stmt 0
 1242 0724 97000000 		call	_Z15thread_dispatchv@plt
 1242      E7800000 
 1243              	.LVL113:
 270:src/tcb.cpp   ****     thread_dispatch();
 1244              		.loc 1 270 5 is_stmt 1
 270:src/tcb.cpp   ****     thread_dispatch();
 1245              		.loc 1 270 18 is_stmt 0
 1246 072c 03350906 		ld	a0,96(s2)
 1247 0730 97000000 		call	_ZN11Semaphore_k6signalEv@plt
 1247      E7800000 
 1248              	.LVL114:
 271:src/tcb.cpp   ****     empty->wait();
 1249              		.loc 1 271 5 is_stmt 1
 271:src/tcb.cpp   ****     empty->wait();
GAS LISTING /tmp/ccg8jNLS.s 			page 48


 1250              		.loc 1 271 20 is_stmt 0
 1251 0738 97000000 		call	_Z15thread_dispatchv@plt
 1251      E7800000 
 1252              	.LVL115:
 272:src/tcb.cpp   ****     printString("Muskarac koristi WC\n");
 1253              		.loc 1 272 5 is_stmt 1
 272:src/tcb.cpp   ****     printString("Muskarac koristi WC\n");
 1254              		.loc 1 272 16 is_stmt 0
 1255 0740 03350904 		ld	a0,64(s2)
 1256 0744 97000000 		call	_ZN11Semaphore_k4waitEv@plt
 1256      E7800000 
 1257              	.LVL116:
 273:src/tcb.cpp   ****     printString("ID: ");
 1258              		.loc 1 273 5 is_stmt 1
 273:src/tcb.cpp   ****     printString("ID: ");
 1259              		.loc 1 273 16 is_stmt 0
 1260 074c 17050000 		lla	a0,.LC6
 1260      13050500 
 1261 0754 97000000 		call	_Z11printStringPKc@plt
 1261      E7800000 
 1262              	.LVL117:
 274:src/tcb.cpp   ****     printInt(id);
 1263              		.loc 1 274 5 is_stmt 1
 274:src/tcb.cpp   ****     printInt(id);
 1264              		.loc 1 274 16 is_stmt 0
 1265 075c 17050000 		lla	a0,.LC4
 1265      13050500 
 1266 0764 97000000 		call	_Z11printStringPKc@plt
 1266      E7800000 
 1267              	.LVL118:
 275:src/tcb.cpp   ****     printString("\n");
 1268              		.loc 1 275 5 is_stmt 1
 275:src/tcb.cpp   ****     printString("\n");
 1269              		.loc 1 275 13 is_stmt 0
 1270 076c 13060000 		li	a2,0
 1271 0770 9305A000 		li	a1,10
 1272 0774 13850400 		mv	a0,s1
 1273 0778 97000000 		call	_Z8printIntiii@plt
 1273      E7800000 
 1274              	.LVL119:
 276:src/tcb.cpp   ****     empty->signal();
 1275              		.loc 1 276 5 is_stmt 1
 276:src/tcb.cpp   ****     empty->signal();
 1276              		.loc 1 276 16 is_stmt 0
 1277 0780 17050000 		lla	a0,.LC1
 1277      13050500 
 1278 0788 97000000 		call	_Z11printStringPKc@plt
 1278      E7800000 
 1279              	.LVL120:
 277:src/tcb.cpp   ****     thread_dispatch();
 1280              		.loc 1 277 5 is_stmt 1
 277:src/tcb.cpp   ****     thread_dispatch();
 1281              		.loc 1 277 18 is_stmt 0
 1282 0790 03350904 		ld	a0,64(s2)
 1283 0794 97000000 		call	_ZN11Semaphore_k6signalEv@plt
 1283      E7800000 
 1284              	.LVL121:
GAS LISTING /tmp/ccg8jNLS.s 			page 49


 278:src/tcb.cpp   ****     mutexMen->wait();
 1285              		.loc 1 278 5 is_stmt 1
 278:src/tcb.cpp   ****     mutexMen->wait();
 1286              		.loc 1 278 20 is_stmt 0
 1287 079c 97000000 		call	_Z15thread_dispatchv@plt
 1287      E7800000 
 1288              	.LVL122:
 279:src/tcb.cpp   ****     printString("Muskarac izasao iz WC\n");
 1289              		.loc 1 279 5 is_stmt 1
 279:src/tcb.cpp   ****     printString("Muskarac izasao iz WC\n");
 1290              		.loc 1 279 19 is_stmt 0
 1291 07a4 03350905 		ld	a0,80(s2)
 1292 07a8 97000000 		call	_ZN11Semaphore_k4waitEv@plt
 1292      E7800000 
 1293              	.LVL123:
 280:src/tcb.cpp   ****     printString("ID: ");
 1294              		.loc 1 280 5 is_stmt 1
 280:src/tcb.cpp   ****     printString("ID: ");
 1295              		.loc 1 280 16 is_stmt 0
 1296 07b0 17050000 		lla	a0,.LC7
 1296      13050500 
 1297 07b8 97000000 		call	_Z11printStringPKc@plt
 1297      E7800000 
 1298              	.LVL124:
 281:src/tcb.cpp   ****     printInt(id);
 1299              		.loc 1 281 5 is_stmt 1
 281:src/tcb.cpp   ****     printInt(id);
 1300              		.loc 1 281 16 is_stmt 0
 1301 07c0 17050000 		lla	a0,.LC4
 1301      13050500 
 1302 07c8 97000000 		call	_Z11printStringPKc@plt
 1302      E7800000 
 1303              	.LVL125:
 282:src/tcb.cpp   ****     printString("\n");
 1304              		.loc 1 282 5 is_stmt 1
 282:src/tcb.cpp   ****     printString("\n");
 1305              		.loc 1 282 13 is_stmt 0
 1306 07d0 13060000 		li	a2,0
 1307 07d4 9305A000 		li	a1,10
 1308 07d8 13850400 		mv	a0,s1
 1309 07dc 97000000 		call	_Z8printIntiii@plt
 1309      E7800000 
 1310              	.LVL126:
 283:src/tcb.cpp   ****     numOfMan--;
 1311              		.loc 1 283 5 is_stmt 1
 283:src/tcb.cpp   ****     numOfMan--;
 1312              		.loc 1 283 16 is_stmt 0
 1313 07e4 17050000 		lla	a0,.LC1
 1313      13050500 
 1314 07ec 97000000 		call	_Z11printStringPKc@plt
 1314      E7800000 
 1315              	.LVL127:
 284:src/tcb.cpp   ****     if(numOfMan ==0){
 1316              		.loc 1 284 5 is_stmt 1
 284:src/tcb.cpp   ****     if(numOfMan ==0){
 1317              		.loc 1 284 13 is_stmt 0
 1318 07f4 8327C906 		lw	a5,108(s2)
GAS LISTING /tmp/ccg8jNLS.s 			page 50


 1319 07f8 9B87F7FF 		addiw	a5,a5,-1
 1320 07fc 1B870700 		sext.w	a4,a5
 1321 0800 2326F906 		sw	a5,108(s2)
 285:src/tcb.cpp   ****         toilet->signal();
 1322              		.loc 1 285 5 is_stmt 1
 1323 0804 6302070A 		beqz	a4,.L68
 1324              	.L64:
 289:src/tcb.cpp   ****     thread_dispatch();
 1325              		.loc 1 289 5
 289:src/tcb.cpp   ****     thread_dispatch();
 1326              		.loc 1 289 21 is_stmt 0
 1327 0808 17050000 		ld	a0,.LANCHOR0+80
 1327      03350500 
 1328 0810 97000000 		call	_ZN11Semaphore_k6signalEv@plt
 1328      E7800000 
 1329              	.LVL128:
 290:src/tcb.cpp   **** 
 1330              		.loc 1 290 5 is_stmt 1
 290:src/tcb.cpp   **** 
 1331              		.loc 1 290 20 is_stmt 0
 1332 0818 97000000 		call	_Z15thread_dispatchv@plt
 1332      E7800000 
 1333              	.LVL129:
 293:src/tcb.cpp   **** 
 1334              		.loc 1 293 1
 1335 0820 83308101 		ld	ra,24(sp)
 1336              		.cfi_remember_state
 1337              		.cfi_restore 1
 1338 0824 03340101 		ld	s0,16(sp)
 1339              		.cfi_restore 8
 1340              		.cfi_def_cfa 2, 32
 1341 0828 83348100 		ld	s1,8(sp)
 1342              		.cfi_restore 9
 1343 082c 03390100 		ld	s2,0(sp)
 1344              		.cfi_restore 18
 1345 0830 13010102 		addi	sp,sp,32
 1346              		.cfi_def_cfa_offset 0
 1347 0834 67800000 		jr	ra
 1348              	.LVL130:
 1349              	.L66:
 1350              		.cfi_restore_state
 249:src/tcb.cpp   ****         firstSet=true;
 1351              		.loc 1 249 9 is_stmt 1
 249:src/tcb.cpp   ****         firstSet=true;
 1352              		.loc 1 249 26 is_stmt 0
 1353 0838 97000000 		call	_ZN3TCB17setUnisexBatrroomEv
 1353      E7800000 
 1354              	.LVL131:
 250:src/tcb.cpp   ****     }
 1355              		.loc 1 250 9 is_stmt 1
 250:src/tcb.cpp   ****     }
 1356              		.loc 1 250 17 is_stmt 0
 1357 0840 93071000 		li	a5,1
 1358 0844 17070000 		sb	a5,.LANCHOR0+104,a4
 1358      2300F700 
 1359 084c 6FF05FE4 		j	.L62
 1360              	.L67:
GAS LISTING /tmp/ccg8jNLS.s 			page 51


 261:src/tcb.cpp   ****         printString("Usao jedan muskarac, zene ne mogu sad ulaziti\n");
 1361              		.loc 1 261 9 is_stmt 1
 261:src/tcb.cpp   ****         printString("Usao jedan muskarac, zene ne mogu sad ulaziti\n");
 1362              		.loc 1 261 21 is_stmt 0
 1363 0850 17050000 		ld	a0,.LANCHOR0+72
 1363      03350500 
 1364 0858 97000000 		call	_ZN11Semaphore_k4waitEv@plt
 1364      E7800000 
 1365              	.LVL132:
 262:src/tcb.cpp   ****         printString("ID: ");
 1366              		.loc 1 262 9 is_stmt 1
 262:src/tcb.cpp   ****         printString("ID: ");
 1367              		.loc 1 262 20 is_stmt 0
 1368 0860 17050000 		lla	a0,.LC5
 1368      13050500 
 1369 0868 97000000 		call	_Z11printStringPKc@plt
 1369      E7800000 
 1370              	.LVL133:
 263:src/tcb.cpp   ****         printInt(id);
 1371              		.loc 1 263 9 is_stmt 1
 263:src/tcb.cpp   ****         printInt(id);
 1372              		.loc 1 263 20 is_stmt 0
 1373 0870 17050000 		lla	a0,.LC4
 1373      13050500 
 1374 0878 97000000 		call	_Z11printStringPKc@plt
 1374      E7800000 
 1375              	.LVL134:
 264:src/tcb.cpp   ****         printString("\n");
 1376              		.loc 1 264 9 is_stmt 1
 264:src/tcb.cpp   ****         printString("\n");
 1377              		.loc 1 264 17 is_stmt 0
 1378 0880 13060000 		li	a2,0
 1379 0884 9305A000 		li	a1,10
 1380 0888 13850400 		mv	a0,s1
 1381 088c 97000000 		call	_Z8printIntiii@plt
 1381      E7800000 
 1382              	.LVL135:
 265:src/tcb.cpp   ****     }
 1383              		.loc 1 265 9 is_stmt 1
 265:src/tcb.cpp   ****     }
 1384              		.loc 1 265 20 is_stmt 0
 1385 0894 17050000 		lla	a0,.LC1
 1385      13050500 
 1386 089c 97000000 		call	_Z11printStringPKc@plt
 1386      E7800000 
 1387              	.LVL136:
 1388 08a4 6FF0DFE6 		j	.L63
 1389              	.L68:
 286:src/tcb.cpp   ****         thread_dispatch();
 1390              		.loc 1 286 9 is_stmt 1
 286:src/tcb.cpp   ****         thread_dispatch();
 1391              		.loc 1 286 23 is_stmt 0
 1392 08a8 17050000 		ld	a0,.LANCHOR0+72
 1392      03350500 
 1393 08b0 97000000 		call	_ZN11Semaphore_k6signalEv@plt
 1393      E7800000 
 1394              	.LVL137:
GAS LISTING /tmp/ccg8jNLS.s 			page 52


 287:src/tcb.cpp   ****     }
 1395              		.loc 1 287 9 is_stmt 1
 287:src/tcb.cpp   ****     }
 1396              		.loc 1 287 24 is_stmt 0
 1397 08b8 97000000 		call	_Z15thread_dispatchv@plt
 1397      E7800000 
 1398              	.LVL138:
 1399 08c0 6FF09FF4 		j	.L64
 1400              		.cfi_endproc
 1401              	.LFE67:
 1403              		.section	.rodata.str1.8
 1404 00c7 00       		.align	3
 1405              	.LC8:
 1406 00c8 55736C61 		.string	"Usla nova zena,al ne koristi jos,  "
 1406      206E6F76 
 1406      61207A65 
 1406      6E612C61 
 1406      6C206E65 
 1407 00ec 00000000 		.align	3
 1408              	.LC9:
 1409 00f0 55736C61 		.string	"Usla jedna zena, muskarci ne mogu sad ulaziti\n"
 1409      206A6564 
 1409      6E61207A 
 1409      656E612C 
 1409      206D7573 
 1410 011f 00       		.align	3
 1411              	.LC10:
 1412 0120 5A656E61 		.string	"Zena koristi WC\n"
 1412      206B6F72 
 1412      69737469 
 1412      2057430A 
 1412      00
 1413 0131 00000000 		.align	3
 1413      000000
 1414              	.LC11:
 1415 0138 5A656E61 		.string	"Zena izasla iz WC\n"
 1415      20697A61 
 1415      736C6120 
 1415      697A2057 
 1415      430A00
 1416              		.text
 1417              		.align	2
 1418              		.globl	_ZN3TCB5womanEj
 1420              	_ZN3TCB5womanEj:
 1421              	.LFB68:
 297:src/tcb.cpp   ****     if(!firstSet){
 1422              		.loc 1 297 34 is_stmt 1
 1423              		.cfi_startproc
 1424              	.LVL139:
 1425 08c4 130101FE 		addi	sp,sp,-32
 1426              		.cfi_def_cfa_offset 32
 1427 08c8 233C1100 		sd	ra,24(sp)
 1428 08cc 23388100 		sd	s0,16(sp)
 1429 08d0 23349100 		sd	s1,8(sp)
 1430 08d4 23302101 		sd	s2,0(sp)
 1431              		.cfi_offset 1, -8
 1432              		.cfi_offset 8, -16
GAS LISTING /tmp/ccg8jNLS.s 			page 53


 1433              		.cfi_offset 9, -24
 1434              		.cfi_offset 18, -32
 1435 08d8 13040102 		addi	s0,sp,32
 1436              		.cfi_def_cfa 8, 0
 1437 08dc 93040500 		mv	s1,a0
 298:src/tcb.cpp   ****         setUnisexBatrroom();
 1438              		.loc 1 298 5
 298:src/tcb.cpp   ****         setUnisexBatrroom();
 1439              		.loc 1 298 8 is_stmt 0
 1440 08e0 97070000 		lbu	a5,.LANCHOR0+104
 1440      83C70700 
 298:src/tcb.cpp   ****         setUnisexBatrroom();
 1441              		.loc 1 298 5
 1442 08e8 6386071A 		beqz	a5,.L74
 1443              	.LVL140:
 1444              	.L70:
 302:src/tcb.cpp   ****     mutexWomen->wait();
 1445              		.loc 1 302 5 is_stmt 1
 302:src/tcb.cpp   ****     mutexWomen->wait();
 1446              		.loc 1 302 16 is_stmt 0
 1447 08ec 17090000 		lla	s2,.LANCHOR0
 1447      13090900 
 1448 08f4 03350906 		ld	a0,96(s2)
 1449 08f8 97000000 		call	_ZN11Semaphore_k4waitEv@plt
 1449      E7800000 
 1450              	.LVL141:
 303:src/tcb.cpp   ****     printString("Usla nova zena,al ne koristi jos,  ");
 1451              		.loc 1 303 5 is_stmt 1
 303:src/tcb.cpp   ****     printString("Usla nova zena,al ne koristi jos,  ");
 1452              		.loc 1 303 21 is_stmt 0
 1453 0900 03358905 		ld	a0,88(s2)
 1454 0904 97000000 		call	_ZN11Semaphore_k4waitEv@plt
 1454      E7800000 
 1455              	.LVL142:
 304:src/tcb.cpp   ****     printString("ID: ");
 1456              		.loc 1 304 5 is_stmt 1
 304:src/tcb.cpp   ****     printString("ID: ");
 1457              		.loc 1 304 16 is_stmt 0
 1458 090c 17050000 		lla	a0,.LC8
 1458      13050500 
 1459 0914 97000000 		call	_Z11printStringPKc@plt
 1459      E7800000 
 1460              	.LVL143:
 305:src/tcb.cpp   ****     printInt(id);
 1461              		.loc 1 305 5 is_stmt 1
 305:src/tcb.cpp   ****     printInt(id);
 1462              		.loc 1 305 16 is_stmt 0
 1463 091c 17050000 		lla	a0,.LC4
 1463      13050500 
 1464 0924 97000000 		call	_Z11printStringPKc@plt
 1464      E7800000 
 1465              	.LVL144:
 306:src/tcb.cpp   ****     printString("\n");
 1466              		.loc 1 306 5 is_stmt 1
 306:src/tcb.cpp   ****     printString("\n");
 1467              		.loc 1 306 13 is_stmt 0
 1468 092c 9B840400 		sext.w	s1,s1
GAS LISTING /tmp/ccg8jNLS.s 			page 54


 1469 0930 13060000 		li	a2,0
 1470 0934 9305A000 		li	a1,10
 1471 0938 13850400 		mv	a0,s1
 1472 093c 97000000 		call	_Z8printIntiii@plt
 1472      E7800000 
 1473              	.LVL145:
 307:src/tcb.cpp   ****     numOfWoman++;
 1474              		.loc 1 307 5 is_stmt 1
 307:src/tcb.cpp   ****     numOfWoman++;
 1475              		.loc 1 307 16 is_stmt 0
 1476 0944 17050000 		lla	a0,.LC1
 1476      13050500 
 1477 094c 97000000 		call	_Z11printStringPKc@plt
 1477      E7800000 
 1478              	.LVL146:
 308:src/tcb.cpp   ****     if(numOfWoman==1){
 1479              		.loc 1 308 5 is_stmt 1
 308:src/tcb.cpp   ****     if(numOfWoman==1){
 1480              		.loc 1 308 15 is_stmt 0
 1481 0954 83270907 		lw	a5,112(s2)
 1482 0958 9B871700 		addiw	a5,a5,1
 1483 095c 1B870700 		sext.w	a4,a5
 1484 0960 2328F906 		sw	a5,112(s2)
 309:src/tcb.cpp   ****         toilet->wait();
 1485              		.loc 1 309 5 is_stmt 1
 1486 0964 93071000 		li	a5,1
 1487 0968 6302F714 		beq	a4,a5,.L75
 1488              	.L71:
 316:src/tcb.cpp   ****     thread_dispatch();
 1489              		.loc 1 316 5
 316:src/tcb.cpp   ****     thread_dispatch();
 1490              		.loc 1 316 23 is_stmt 0
 1491 096c 17090000 		lla	s2,.LANCHOR0
 1491      13090900 
 1492 0974 03358905 		ld	a0,88(s2)
 1493 0978 97000000 		call	_ZN11Semaphore_k6signalEv@plt
 1493      E7800000 
 1494              	.LVL147:
 317:src/tcb.cpp   **** 
 1495              		.loc 1 317 5 is_stmt 1
 317:src/tcb.cpp   **** 
 1496              		.loc 1 317 20 is_stmt 0
 1497 0980 97000000 		call	_Z15thread_dispatchv@plt
 1497      E7800000 
 1498              	.LVL148:
 319:src/tcb.cpp   ****     thread_dispatch();
 1499              		.loc 1 319 5 is_stmt 1
 319:src/tcb.cpp   ****     thread_dispatch();
 1500              		.loc 1 319 18 is_stmt 0
 1501 0988 03350906 		ld	a0,96(s2)
 1502 098c 97000000 		call	_ZN11Semaphore_k6signalEv@plt
 1502      E7800000 
 1503              	.LVL149:
 320:src/tcb.cpp   ****     empty->wait();
 1504              		.loc 1 320 5 is_stmt 1
 320:src/tcb.cpp   ****     empty->wait();
 1505              		.loc 1 320 20 is_stmt 0
GAS LISTING /tmp/ccg8jNLS.s 			page 55


 1506 0994 97000000 		call	_Z15thread_dispatchv@plt
 1506      E7800000 
 1507              	.LVL150:
 321:src/tcb.cpp   ****     printString("Zena koristi WC\n");
 1508              		.loc 1 321 5 is_stmt 1
 321:src/tcb.cpp   ****     printString("Zena koristi WC\n");
 1509              		.loc 1 321 16 is_stmt 0
 1510 099c 03350904 		ld	a0,64(s2)
 1511 09a0 97000000 		call	_ZN11Semaphore_k4waitEv@plt
 1511      E7800000 
 1512              	.LVL151:
 322:src/tcb.cpp   ****     printString("ID: ");
 1513              		.loc 1 322 5 is_stmt 1
 322:src/tcb.cpp   ****     printString("ID: ");
 1514              		.loc 1 322 16 is_stmt 0
 1515 09a8 17050000 		lla	a0,.LC10
 1515      13050500 
 1516 09b0 97000000 		call	_Z11printStringPKc@plt
 1516      E7800000 
 1517              	.LVL152:
 323:src/tcb.cpp   ****     printInt(id);
 1518              		.loc 1 323 5 is_stmt 1
 323:src/tcb.cpp   ****     printInt(id);
 1519              		.loc 1 323 16 is_stmt 0
 1520 09b8 17050000 		lla	a0,.LC4
 1520      13050500 
 1521 09c0 97000000 		call	_Z11printStringPKc@plt
 1521      E7800000 
 1522              	.LVL153:
 324:src/tcb.cpp   ****     printString("\n");
 1523              		.loc 1 324 5 is_stmt 1
 324:src/tcb.cpp   ****     printString("\n");
 1524              		.loc 1 324 13 is_stmt 0
 1525 09c8 13060000 		li	a2,0
 1526 09cc 9305A000 		li	a1,10
 1527 09d0 13850400 		mv	a0,s1
 1528 09d4 97000000 		call	_Z8printIntiii@plt
 1528      E7800000 
 1529              	.LVL154:
 325:src/tcb.cpp   ****     empty->signal();
 1530              		.loc 1 325 5 is_stmt 1
 325:src/tcb.cpp   ****     empty->signal();
 1531              		.loc 1 325 16 is_stmt 0
 1532 09dc 17050000 		lla	a0,.LC1
 1532      13050500 
 1533 09e4 97000000 		call	_Z11printStringPKc@plt
 1533      E7800000 
 1534              	.LVL155:
 326:src/tcb.cpp   ****     thread_dispatch();
 1535              		.loc 1 326 5 is_stmt 1
 326:src/tcb.cpp   ****     thread_dispatch();
 1536              		.loc 1 326 18 is_stmt 0
 1537 09ec 03350904 		ld	a0,64(s2)
 1538 09f0 97000000 		call	_ZN11Semaphore_k6signalEv@plt
 1538      E7800000 
 1539              	.LVL156:
 327:src/tcb.cpp   ****     mutexWomen->wait();
GAS LISTING /tmp/ccg8jNLS.s 			page 56


 1540              		.loc 1 327 5 is_stmt 1
 327:src/tcb.cpp   ****     mutexWomen->wait();
 1541              		.loc 1 327 20 is_stmt 0
 1542 09f8 97000000 		call	_Z15thread_dispatchv@plt
 1542      E7800000 
 1543              	.LVL157:
 328:src/tcb.cpp   ****     printString("Zena izasla iz WC\n");
 1544              		.loc 1 328 5 is_stmt 1
 328:src/tcb.cpp   ****     printString("Zena izasla iz WC\n");
 1545              		.loc 1 328 21 is_stmt 0
 1546 0a00 03358905 		ld	a0,88(s2)
 1547 0a04 97000000 		call	_ZN11Semaphore_k4waitEv@plt
 1547      E7800000 
 1548              	.LVL158:
 329:src/tcb.cpp   ****     printString("ID: ");
 1549              		.loc 1 329 5 is_stmt 1
 329:src/tcb.cpp   ****     printString("ID: ");
 1550              		.loc 1 329 16 is_stmt 0
 1551 0a0c 17050000 		lla	a0,.LC11
 1551      13050500 
 1552 0a14 97000000 		call	_Z11printStringPKc@plt
 1552      E7800000 
 1553              	.LVL159:
 330:src/tcb.cpp   ****     printInt(id);
 1554              		.loc 1 330 5 is_stmt 1
 330:src/tcb.cpp   ****     printInt(id);
 1555              		.loc 1 330 16 is_stmt 0
 1556 0a1c 17050000 		lla	a0,.LC4
 1556      13050500 
 1557 0a24 97000000 		call	_Z11printStringPKc@plt
 1557      E7800000 
 1558              	.LVL160:
 331:src/tcb.cpp   ****     printString("\n");
 1559              		.loc 1 331 5 is_stmt 1
 331:src/tcb.cpp   ****     printString("\n");
 1560              		.loc 1 331 13 is_stmt 0
 1561 0a2c 13060000 		li	a2,0
 1562 0a30 9305A000 		li	a1,10
 1563 0a34 13850400 		mv	a0,s1
 1564 0a38 97000000 		call	_Z8printIntiii@plt
 1564      E7800000 
 1565              	.LVL161:
 332:src/tcb.cpp   ****     numOfWoman--;
 1566              		.loc 1 332 5 is_stmt 1
 332:src/tcb.cpp   ****     numOfWoman--;
 1567              		.loc 1 332 16 is_stmt 0
 1568 0a40 17050000 		lla	a0,.LC1
 1568      13050500 
 1569 0a48 97000000 		call	_Z11printStringPKc@plt
 1569      E7800000 
 1570              	.LVL162:
 333:src/tcb.cpp   ****     if(numOfWoman ==0){
 1571              		.loc 1 333 5 is_stmt 1
 333:src/tcb.cpp   ****     if(numOfWoman ==0){
 1572              		.loc 1 333 15 is_stmt 0
 1573 0a50 83270907 		lw	a5,112(s2)
 1574 0a54 9B87F7FF 		addiw	a5,a5,-1
GAS LISTING /tmp/ccg8jNLS.s 			page 57


 1575 0a58 1B870700 		sext.w	a4,a5
 1576 0a5c 2328F906 		sw	a5,112(s2)
 334:src/tcb.cpp   ****         toilet->signal();
 1577              		.loc 1 334 5 is_stmt 1
 1578 0a60 6302070A 		beqz	a4,.L76
 1579              	.L72:
 338:src/tcb.cpp   ****     thread_dispatch();
 1580              		.loc 1 338 5
 338:src/tcb.cpp   ****     thread_dispatch();
 1581              		.loc 1 338 23 is_stmt 0
 1582 0a64 17050000 		ld	a0,.LANCHOR0+88
 1582      03350500 
 1583 0a6c 97000000 		call	_ZN11Semaphore_k6signalEv@plt
 1583      E7800000 
 1584              	.LVL163:
 339:src/tcb.cpp   **** 
 1585              		.loc 1 339 5 is_stmt 1
 339:src/tcb.cpp   **** 
 1586              		.loc 1 339 20 is_stmt 0
 1587 0a74 97000000 		call	_Z15thread_dispatchv@plt
 1587      E7800000 
 1588              	.LVL164:
 342:src/tcb.cpp   **** 
 1589              		.loc 1 342 1
 1590 0a7c 83308101 		ld	ra,24(sp)
 1591              		.cfi_remember_state
 1592              		.cfi_restore 1
 1593 0a80 03340101 		ld	s0,16(sp)
 1594              		.cfi_restore 8
 1595              		.cfi_def_cfa 2, 32
 1596 0a84 83348100 		ld	s1,8(sp)
 1597              		.cfi_restore 9
 1598 0a88 03390100 		ld	s2,0(sp)
 1599              		.cfi_restore 18
 1600 0a8c 13010102 		addi	sp,sp,32
 1601              		.cfi_def_cfa_offset 0
 1602 0a90 67800000 		jr	ra
 1603              	.LVL165:
 1604              	.L74:
 1605              		.cfi_restore_state
 299:src/tcb.cpp   ****         firstSet=true;
 1606              		.loc 1 299 9 is_stmt 1
 299:src/tcb.cpp   ****         firstSet=true;
 1607              		.loc 1 299 26 is_stmt 0
 1608 0a94 97000000 		call	_ZN3TCB17setUnisexBatrroomEv
 1608      E7800000 
 1609              	.LVL166:
 300:src/tcb.cpp   ****     }
 1610              		.loc 1 300 9 is_stmt 1
 300:src/tcb.cpp   ****     }
 1611              		.loc 1 300 17 is_stmt 0
 1612 0a9c 93071000 		li	a5,1
 1613 0aa0 17070000 		sb	a5,.LANCHOR0+104,a4
 1613      2300F700 
 1614 0aa8 6FF05FE4 		j	.L70
 1615              	.L75:
 310:src/tcb.cpp   ****         printString("Usla jedna zena, muskarci ne mogu sad ulaziti\n");
GAS LISTING /tmp/ccg8jNLS.s 			page 58


 1616              		.loc 1 310 9 is_stmt 1
 310:src/tcb.cpp   ****         printString("Usla jedna zena, muskarci ne mogu sad ulaziti\n");
 1617              		.loc 1 310 21 is_stmt 0
 1618 0aac 17050000 		ld	a0,.LANCHOR0+72
 1618      03350500 
 1619 0ab4 97000000 		call	_ZN11Semaphore_k4waitEv@plt
 1619      E7800000 
 1620              	.LVL167:
 311:src/tcb.cpp   ****         printString("ID: ");
 1621              		.loc 1 311 9 is_stmt 1
 311:src/tcb.cpp   ****         printString("ID: ");
 1622              		.loc 1 311 20 is_stmt 0
 1623 0abc 17050000 		lla	a0,.LC9
 1623      13050500 
 1624 0ac4 97000000 		call	_Z11printStringPKc@plt
 1624      E7800000 
 1625              	.LVL168:
 312:src/tcb.cpp   ****         printInt(id);
 1626              		.loc 1 312 9 is_stmt 1
 312:src/tcb.cpp   ****         printInt(id);
 1627              		.loc 1 312 20 is_stmt 0
 1628 0acc 17050000 		lla	a0,.LC4
 1628      13050500 
 1629 0ad4 97000000 		call	_Z11printStringPKc@plt
 1629      E7800000 
 1630              	.LVL169:
 313:src/tcb.cpp   ****         printString("\n");
 1631              		.loc 1 313 9 is_stmt 1
 313:src/tcb.cpp   ****         printString("\n");
 1632              		.loc 1 313 17 is_stmt 0
 1633 0adc 13060000 		li	a2,0
 1634 0ae0 9305A000 		li	a1,10
 1635 0ae4 13850400 		mv	a0,s1
 1636 0ae8 97000000 		call	_Z8printIntiii@plt
 1636      E7800000 
 1637              	.LVL170:
 314:src/tcb.cpp   ****     }
 1638              		.loc 1 314 9 is_stmt 1
 314:src/tcb.cpp   ****     }
 1639              		.loc 1 314 20 is_stmt 0
 1640 0af0 17050000 		lla	a0,.LC1
 1640      13050500 
 1641 0af8 97000000 		call	_Z11printStringPKc@plt
 1641      E7800000 
 1642              	.LVL171:
 1643 0b00 6FF0DFE6 		j	.L71
 1644              	.L76:
 335:src/tcb.cpp   ****         thread_dispatch();
 1645              		.loc 1 335 9 is_stmt 1
 335:src/tcb.cpp   ****         thread_dispatch();
 1646              		.loc 1 335 23 is_stmt 0
 1647 0b04 17050000 		ld	a0,.LANCHOR0+72
 1647      03350500 
 1648 0b0c 97000000 		call	_ZN11Semaphore_k6signalEv@plt
 1648      E7800000 
 1649              	.LVL172:
 336:src/tcb.cpp   ****     }
GAS LISTING /tmp/ccg8jNLS.s 			page 59


 1650              		.loc 1 336 9 is_stmt 1
 336:src/tcb.cpp   ****     }
 1651              		.loc 1 336 24 is_stmt 0
 1652 0b14 97000000 		call	_Z15thread_dispatchv@plt
 1652      E7800000 
 1653              	.LVL173:
 1654 0b1c 6FF09FF4 		j	.L72
 1655              		.cfi_endproc
 1656              	.LFE68:
 1658              		.align	2
 1659              		.globl	_ZN3TCB7barrierEv
 1661              	_ZN3TCB7barrierEv:
 1662              	.LFB69:
 344:src/tcb.cpp   ****     if(!fsBarrier){
 1663              		.loc 1 344 21 is_stmt 1
 1664              		.cfi_startproc
 1665 0b20 130101FE 		addi	sp,sp,-32
 1666              		.cfi_def_cfa_offset 32
 1667 0b24 233C1100 		sd	ra,24(sp)
 1668 0b28 23388100 		sd	s0,16(sp)
 1669 0b2c 23349100 		sd	s1,8(sp)
 1670 0b30 23302101 		sd	s2,0(sp)
 1671              		.cfi_offset 1, -8
 1672              		.cfi_offset 8, -16
 1673              		.cfi_offset 9, -24
 1674              		.cfi_offset 18, -32
 1675 0b34 13040102 		addi	s0,sp,32
 1676              		.cfi_def_cfa 8, 0
 345:src/tcb.cpp   ****         fsBarrier = true;
 1677              		.loc 1 345 5
 345:src/tcb.cpp   ****         fsBarrier = true;
 1678              		.loc 1 345 8 is_stmt 0
 1679 0b38 97070000 		lbu	a5,.LANCHOR0+44
 1679      83C70700 
 345:src/tcb.cpp   ****         fsBarrier = true;
 1680              		.loc 1 345 5
 1681 0b40 63900702 		bnez	a5,.L78
 346:src/tcb.cpp   ****         numOFthreads++;
 1682              		.loc 1 346 9 is_stmt 1
 346:src/tcb.cpp   ****         numOFthreads++;
 1683              		.loc 1 346 19 is_stmt 0
 1684 0b44 97070000 		lla	a5,.LANCHOR0
 1684      93870700 
 1685 0b4c 13071000 		li	a4,1
 1686 0b50 2386E702 		sb	a4,44(a5)
 347:src/tcb.cpp   ****     }
 1687              		.loc 1 347 9 is_stmt 1
 347:src/tcb.cpp   ****     }
 1688              		.loc 1 347 21 is_stmt 0
 1689 0b54 03A70703 		lw	a4,48(a5)
 1690 0b58 1B071700 		addiw	a4,a4,1
 1691 0b5c 23A8E702 		sw	a4,48(a5)
 1692              	.L78:
 349:src/tcb.cpp   **** 
 1693              		.loc 1 349 5 is_stmt 1
 349:src/tcb.cpp   **** 
 1694              		.loc 1 349 13 is_stmt 0
GAS LISTING /tmp/ccg8jNLS.s 			page 60


 1695 0b60 17070000 		lla	a4,.LANCHOR0
 1695      13070700 
 1696 0b68 83274707 		lw	a5,116(a4)
 1697 0b6c 9B871700 		addiw	a5,a5,1
 1698 0b70 9B860700 		sext.w	a3,a5
 1699 0b74 232AF706 		sw	a5,116(a4)
 351:src/tcb.cpp   ****         numCalls=0;
 1700              		.loc 1 351 5 is_stmt 1
 1701              	.LBB362:
 351:src/tcb.cpp   ****         numCalls=0;
 1702              		.loc 1 351 16 is_stmt 0
 1703 0b78 83270703 		lw	a5,48(a4)
 351:src/tcb.cpp   ****         numCalls=0;
 1704              		.loc 1 351 5
 1705 0b7c 6390F606 		bne	a3,a5,.L79
 1706              	.LBB363:
 352:src/tcb.cpp   ****         numOFthreads=0;
 1707              		.loc 1 352 9 is_stmt 1
 352:src/tcb.cpp   ****         numOFthreads=0;
 1708              		.loc 1 352 17 is_stmt 0
 1709 0b80 232A0706 		sw	zero,116(a4)
 353:src/tcb.cpp   ****         fsBarrier=false;
 1710              		.loc 1 353 9 is_stmt 1
 353:src/tcb.cpp   ****         fsBarrier=false;
 1711              		.loc 1 353 21 is_stmt 0
 1712 0b84 23280702 		sw	zero,48(a4)
 354:src/tcb.cpp   ****         while(ListBarier.peekFirst()){
 1713              		.loc 1 354 9 is_stmt 1
 354:src/tcb.cpp   ****         while(ListBarier.peekFirst()){
 1714              		.loc 1 354 18 is_stmt 0
 1715 0b88 23060702 		sb	zero,44(a4)
 1716 0b8c 6F008002 		j	.L82
 1717              	.LVL174:
 1718              	.L85:
 1719              	.LBB364:
 1720              	.LBB365:
 1721              	.LBB366:
  58:src/../h/List.hpp **** 
 1722              		.loc 2 58 22
 1723 0b90 97070000 		sd	zero,.LANCHOR0+8,a5
 1723      23B00700 
 1724              	.L81:
  60:src/../h/List.hpp ****         delete elem;
 1725              		.loc 2 60 12
 1726 0b98 83340500 		ld	s1,0(a0)
 1727              	.LVL175:
  61:src/../h/List.hpp ****         return ret;
 1728              		.loc 2 61 9
 1729 0b9c 97000000 		call	_ZdlPv@plt
 1729      E7800000 
 1730              	.LVL176:
 1731              	.LBE366:
 1732              	.LBE365:
 357:src/tcb.cpp   ****             Scheduler::put(t);
 1733              		.loc 1 357 13 is_stmt 1
 1734              	.LBB368:
 1735              	.LBB369:
GAS LISTING /tmp/ccg8jNLS.s 			page 61


  53:src/../h/tcb.hpp **** 
 1736              		.loc 4 53 35
  53:src/../h/tcb.hpp **** 
 1737              		.loc 4 53 49 is_stmt 0
 1738 0ba4 A3800402 		sb	zero,33(s1)
 1739              	.LVL177:
 1740              	.LBE369:
 1741              	.LBE368:
 358:src/tcb.cpp   **** 
 1742              		.loc 1 358 13 is_stmt 1
 358:src/tcb.cpp   **** 
 1743              		.loc 1 358 27 is_stmt 0
 1744 0ba8 13850400 		mv	a0,s1
 1745 0bac 97000000 		call	_ZN9Scheduler3putEP3TCB@plt
 1745      E7800000 
 1746              	.LVL178:
 1747              	.L82:
 1748              	.LBE364:
 355:src/tcb.cpp   ****             TCB* t =ListBarier.removeFirst();
 1749              		.loc 1 355 9 is_stmt 1
 355:src/tcb.cpp   ****             TCB* t =ListBarier.removeFirst();
 1750              		.loc 1 355 36
 1751              	.LBB371:
 1752              	.LBB372:
  67:src/../h/List.hpp ****         return head->data;
 1753              		.loc 2 67 14 is_stmt 0
 1754 0bb4 17050000 		ld	a0,.LANCHOR0
 1754      03350500 
  67:src/../h/List.hpp ****         return head->data;
 1755              		.loc 2 67 9
 1756 0bbc 630E0504 		beqz	a0,.L77
 1757              		.loc 2 68 22
 1758 0bc0 83370500 		ld	a5,0(a0)
 1759              	.LVL179:
 1760              	.LBE372:
 1761              	.LBE371:
 355:src/tcb.cpp   ****             TCB* t =ListBarier.removeFirst();
 1762              		.loc 1 355 36
 1763 0bc4 638A0704 		beqz	a5,.L77
 1764              	.LBB373:
 356:src/tcb.cpp   ****             t->setBlocked(false);
 1765              		.loc 1 356 13 is_stmt 1
 1766              	.LVL180:
 1767              	.LBB370:
 1768              	.LBB367:
  57:src/../h/List.hpp ****         if (!head) { tail = 0; }
 1769              		.loc 2 57 22 is_stmt 0
 1770 0bc8 83378500 		ld	a5,8(a0)
  57:src/../h/List.hpp ****         if (!head) { tail = 0; }
 1771              		.loc 2 57 9
 1772 0bcc 17070000 		sd	a5,.LANCHOR0,a4
 1772      2330F700 
  58:src/../h/List.hpp **** 
 1773              		.loc 2 58 9
 1774 0bd4 E39207FC 		bnez	a5,.L81
 1775 0bd8 6FF09FFB 		j	.L85
 1776              	.LVL181:
GAS LISTING /tmp/ccg8jNLS.s 			page 62


 1777              	.L79:
 1778              	.LBE367:
 1779              	.LBE370:
 1780              	.LBE373:
 1781              	.LBE363:
 363:src/tcb.cpp   ****         ListBarier.addLast(running);
 1782              		.loc 1 363 9 is_stmt 1
 363:src/tcb.cpp   ****         ListBarier.addLast(running);
 1783              		.loc 1 363 28 is_stmt 0
 1784 0bdc 97040000 		lla	s1,.LANCHOR0
 1784      93840400 
 1785 0be4 03B90401 		ld	s2,16(s1)
 1786              	.LVL182:
 1787              	.LBB374:
 1788              	.LBB375:
  53:src/../h/tcb.hpp **** 
 1789              		.loc 4 53 35 is_stmt 1
  53:src/../h/tcb.hpp **** 
 1790              		.loc 4 53 49 is_stmt 0
 1791 0be8 93071000 		li	a5,1
 1792 0bec A300F902 		sb	a5,33(s2)
 1793              	.LVL183:
 1794              	.LBE375:
 1795              	.LBE374:
 364:src/tcb.cpp   **** 
 1796              		.loc 1 364 9 is_stmt 1
 1797              	.LBB376:
 1798              	.LBB377:
  41:src/../h/List.hpp ****         if (tail)
 1799              		.loc 2 41 22 is_stmt 0
 1800 0bf0 13050001 		li	a0,16
 1801 0bf4 97000000 		call	_Znwm@plt
 1801      E7800000 
 1802              	.LVL184:
 1803              	.LBB378:
 1804              	.LBB379:
  19:src/../h/List.hpp **** 
 1805              		.loc 2 19 58
 1806 0bfc 23302501 		sd	s2,0(a0)
 1807 0c00 23340500 		sd	zero,8(a0)
 1808              	.LVL185:
 1809              	.LBE379:
 1810              	.LBE378:
  42:src/../h/List.hpp ****         {
 1811              		.loc 2 42 13
 1812 0c04 83B78400 		ld	a5,8(s1)
  42:src/../h/List.hpp ****         {
 1813              		.loc 2 42 9
 1814 0c08 63840702 		beqz	a5,.L83
  44:src/../h/List.hpp ****             tail = elem;
 1815              		.loc 2 44 13
 1816 0c0c 23B4A700 		sd	a0,8(a5)
  45:src/../h/List.hpp ****         } else
 1817              		.loc 2 45 13
 1818 0c10 97070000 		sd	a0,.LANCHOR0+8,a5
 1818      23B0A700 
 1819              	.LVL186:
GAS LISTING /tmp/ccg8jNLS.s 			page 63


 1820              	.L77:
 1821              	.LBE377:
 1822              	.LBE376:
 1823              	.LBE362:
 368:src/tcb.cpp   **** 
 1824              		.loc 1 368 1
 1825 0c18 83308101 		ld	ra,24(sp)
 1826              		.cfi_remember_state
 1827              		.cfi_restore 1
 1828 0c1c 03340101 		ld	s0,16(sp)
 1829              		.cfi_restore 8
 1830              		.cfi_def_cfa 2, 32
 1831 0c20 83348100 		ld	s1,8(sp)
 1832              		.cfi_restore 9
 1833 0c24 03390100 		ld	s2,0(sp)
 1834              		.cfi_restore 18
 1835 0c28 13010102 		addi	sp,sp,32
 1836              		.cfi_def_cfa_offset 0
 1837 0c2c 67800000 		jr	ra
 1838              	.LVL187:
 1839              	.L83:
 1840              		.cfi_restore_state
 1841              	.LBB382:
 1842              	.LBB381:
 1843              	.LBB380:
  48:src/../h/List.hpp ****         }
 1844              		.loc 2 48 13
 1845 0c30 97070000 		lla	a5,.LANCHOR0
 1845      93870700 
 1846 0c38 23B4A700 		sd	a0,8(a5)
 1847 0c3c 23B0A700 		sd	a0,0(a5)
 1848              	.LVL188:
 1849              	.LBE380:
 1850              	.LBE381:
 1851              	.LBE382:
 368:src/tcb.cpp   **** 
 1852              		.loc 1 368 1
 1853 0c40 6FF09FFD 		j	.L77
 1854              		.cfi_endproc
 1855              	.LFE69:
 1857              		.align	2
 1858              		.globl	_ZN3TCB6setSemEv
 1860              	_ZN3TCB6setSemEv:
 1861              	.LFB72:
 393:src/tcb.cpp   ****     if(!fsSemaphores){
 1862              		.loc 1 393 20 is_stmt 1
 1863              		.cfi_startproc
 1864              	.LVL189:
 394:src/tcb.cpp   ****         fsSemaphores=true;
 1865              		.loc 1 394 5
 394:src/tcb.cpp   ****         fsSemaphores=true;
 1866              		.loc 1 394 9 is_stmt 0
 1867 0c44 83478505 		lbu	a5,88(a0)
 394:src/tcb.cpp   ****         fsSemaphores=true;
 1868              		.loc 1 394 5
 1869 0c48 63840700 		beqz	a5,.L92
 1870 0c4c 67800000 		ret
GAS LISTING /tmp/ccg8jNLS.s 			page 64


 1871              	.L92:
 393:src/tcb.cpp   ****     if(!fsSemaphores){
 1872              		.loc 1 393 20
 1873 0c50 130101FE 		addi	sp,sp,-32
 1874              		.cfi_def_cfa_offset 32
 1875 0c54 233C1100 		sd	ra,24(sp)
 1876 0c58 23388100 		sd	s0,16(sp)
 1877 0c5c 23349100 		sd	s1,8(sp)
 1878              		.cfi_offset 1, -8
 1879              		.cfi_offset 8, -16
 1880              		.cfi_offset 9, -24
 1881 0c60 13040102 		addi	s0,sp,32
 1882              		.cfi_def_cfa 8, 0
 1883 0c64 93040500 		mv	s1,a0
 395:src/tcb.cpp   ****         msgA=new Semaphore_k(0);
 1884              		.loc 1 395 9 is_stmt 1
 395:src/tcb.cpp   ****         msgA=new Semaphore_k(0);
 1885              		.loc 1 395 21 is_stmt 0
 1886 0c68 93071000 		li	a5,1
 1887 0c6c 230CF504 		sb	a5,88(a0)
 396:src/tcb.cpp   ****         msgE=new Semaphore_k(1);
 1888              		.loc 1 396 9 is_stmt 1
 1889              	.LVL190:
 1890              	.LBB383:
 1891              	.LBB384:
  26:src/../h/Semaphore_k.hpp ****     }
 1892              		.loc 5 26 9
  26:src/../h/Semaphore_k.hpp ****     }
 1893              		.loc 5 26 42 is_stmt 0
 1894 0c70 13058001 		li	a0,24
 1895              	.LVL191:
 1896 0c74 97000000 		call	_ZN15memoryAllocator9mem_allocEm@plt
 1896      E7800000 
 1897              	.LVL192:
 1898              	.LBE384:
 1899              	.LBE383:
 1900              	.LBB385:
 1901              	.LBB386:
 1902              		.loc 5 39 60
 1903 0c7c 23000500 		sb	zero,0(a0)
 1904 0c80 23220500 		sw	zero,4(a0)
 1905              	.LVL193:
 1906              	.LBB387:
 1907              	.LBB388:
  26:src/../h/List.hpp **** 
 1908              		.loc 2 26 30
 1909 0c84 23340500 		sd	zero,8(a0)
 1910 0c88 23380500 		sd	zero,16(a0)
 1911              	.LVL194:
 1912              	.LBE388:
 1913              	.LBE387:
 1914              	.LBE386:
 1915              	.LBE385:
 396:src/tcb.cpp   ****         msgE=new Semaphore_k(1);
 1916              		.loc 1 396 13
 1917 0c8c 23B8A404 		sd	a0,80(s1)
 397:src/tcb.cpp   ****     }
GAS LISTING /tmp/ccg8jNLS.s 			page 65


 1918              		.loc 1 397 9 is_stmt 1
 1919              	.LVL195:
 1920              	.LBB389:
 1921              	.LBB390:
  26:src/../h/Semaphore_k.hpp ****     }
 1922              		.loc 5 26 9
  26:src/../h/Semaphore_k.hpp ****     }
 1923              		.loc 5 26 42 is_stmt 0
 1924 0c90 13058001 		li	a0,24
 1925 0c94 97000000 		call	_ZN15memoryAllocator9mem_allocEm@plt
 1925      E7800000 
 1926              	.LVL196:
 1927              	.LBE390:
 1928              	.LBE389:
 1929              	.LBB391:
 1930              	.LBB392:
 1931              		.loc 5 39 60
 1932 0c9c 23000500 		sb	zero,0(a0)
 1933 0ca0 93071000 		li	a5,1
 1934 0ca4 2322F500 		sw	a5,4(a0)
 1935              	.LVL197:
 1936              	.LBB393:
 1937              	.LBB394:
  26:src/../h/List.hpp **** 
 1938              		.loc 2 26 30
 1939 0ca8 23340500 		sd	zero,8(a0)
 1940 0cac 23380500 		sd	zero,16(a0)
 1941              	.LVL198:
 1942              	.LBE394:
 1943              	.LBE393:
 1944              	.LBE392:
 1945              	.LBE391:
 397:src/tcb.cpp   ****     }
 1946              		.loc 1 397 13
 1947 0cb0 23B4A404 		sd	a0,72(s1)
 400:src/tcb.cpp   **** 
 1948              		.loc 1 400 1
 1949 0cb4 83308101 		ld	ra,24(sp)
 1950              		.cfi_restore 1
 1951 0cb8 03340101 		ld	s0,16(sp)
 1952              		.cfi_restore 8
 1953              		.cfi_def_cfa 2, 32
 1954 0cbc 83348100 		ld	s1,8(sp)
 1955              		.cfi_restore 9
 1956              	.LVL199:
 1957 0cc0 13010102 		addi	sp,sp,32
 1958              		.cfi_def_cfa_offset 0
 1959 0cc4 67800000 		jr	ra
 1960              		.cfi_endproc
 1961              	.LFE72:
 1963              		.section	.rodata.str1.8
 1964 014b 00000000 		.align	3
 1964      00
 1965              	.LC12:
 1966 0150 52656365 		.string	"Receive cekam...\n"
 1966      69766520 
 1966      63656B61 
GAS LISTING /tmp/ccg8jNLS.s 			page 66


 1966      6D2E2E2E 
 1966      0A00
 1967 0162 00000000 		.align	3
 1967      0000
 1968              	.LC13:
 1969 0168 506F7275 		.string	"Poruka primljena uspesno\n"
 1969      6B612070 
 1969      72696D6C 
 1969      6A656E61 
 1969      20757370 
 1970              		.text
 1971              		.align	2
 1972              		.globl	_ZN3TCB7receiveEv
 1974              	_ZN3TCB7receiveEv:
 1975              	.LFB70:
 373:src/tcb.cpp   ****     running->setSem();
 1976              		.loc 1 373 28 is_stmt 1
 1977              		.cfi_startproc
 1978 0cc8 130101FE 		addi	sp,sp,-32
 1979              		.cfi_def_cfa_offset 32
 1980 0ccc 233C1100 		sd	ra,24(sp)
 1981 0cd0 23388100 		sd	s0,16(sp)
 1982 0cd4 23349100 		sd	s1,8(sp)
 1983              		.cfi_offset 1, -8
 1984              		.cfi_offset 8, -16
 1985              		.cfi_offset 9, -24
 1986 0cd8 13040102 		addi	s0,sp,32
 1987              		.cfi_def_cfa 8, 0
 374:src/tcb.cpp   ****     printString("Receive cekam...\n");
 1988              		.loc 1 374 5
 374:src/tcb.cpp   ****     printString("Receive cekam...\n");
 1989              		.loc 1 374 20 is_stmt 0
 1990 0cdc 97040000 		lla	s1,.LANCHOR0
 1990      93840400 
 1991 0ce4 03B50401 		ld	a0,16(s1)
 1992 0ce8 97000000 		call	_ZN3TCB6setSemEv
 1992      E7800000 
 1993              	.LVL200:
 375:src/tcb.cpp   ****     running->msgA->wait();
 1994              		.loc 1 375 5 is_stmt 1
 375:src/tcb.cpp   ****     running->msgA->wait();
 1995              		.loc 1 375 16 is_stmt 0
 1996 0cf0 17050000 		lla	a0,.LC12
 1996      13050500 
 1997 0cf8 97000000 		call	_Z11printStringPKc@plt
 1997      E7800000 
 1998              	.LVL201:
 376:src/tcb.cpp   ****     printString("Poruka primljena uspesno\n");
 1999              		.loc 1 376 5 is_stmt 1
 376:src/tcb.cpp   ****     printString("Poruka primljena uspesno\n");
 2000              		.loc 1 376 24 is_stmt 0
 2001 0d00 83B70401 		ld	a5,16(s1)
 2002 0d04 03B50705 		ld	a0,80(a5)
 2003 0d08 97000000 		call	_ZN11Semaphore_k4waitEv@plt
 2003      E7800000 
 2004              	.LVL202:
 377:src/tcb.cpp   ****     char const* msg = running->message;
GAS LISTING /tmp/ccg8jNLS.s 			page 67


 2005              		.loc 1 377 5 is_stmt 1
 377:src/tcb.cpp   ****     char const* msg = running->message;
 2006              		.loc 1 377 16 is_stmt 0
 2007 0d10 17050000 		lla	a0,.LC13
 2007      13050500 
 2008 0d18 97000000 		call	_Z11printStringPKc@plt
 2008      E7800000 
 2009              	.LVL203:
 378:src/tcb.cpp   ****     running->msgE->signal();
 2010              		.loc 1 378 5 is_stmt 1
 378:src/tcb.cpp   ****     running->msgE->signal();
 2011              		.loc 1 378 32 is_stmt 0
 2012 0d20 83B70401 		ld	a5,16(s1)
 378:src/tcb.cpp   ****     running->msgE->signal();
 2013              		.loc 1 378 17
 2014 0d24 83B40706 		ld	s1,96(a5)
 2015              	.LVL204:
 379:src/tcb.cpp   ****     return msg;
 2016              		.loc 1 379 5 is_stmt 1
 379:src/tcb.cpp   ****     return msg;
 2017              		.loc 1 379 26 is_stmt 0
 2018 0d28 03B58704 		ld	a0,72(a5)
 2019 0d2c 97000000 		call	_ZN11Semaphore_k6signalEv@plt
 2019      E7800000 
 2020              	.LVL205:
 380:src/tcb.cpp   **** 
 2021              		.loc 1 380 5 is_stmt 1
 382:src/tcb.cpp   **** void TCB::send(const char *msg) {
 2022              		.loc 1 382 1 is_stmt 0
 2023 0d34 13850400 		mv	a0,s1
 2024 0d38 83308101 		ld	ra,24(sp)
 2025              		.cfi_restore 1
 2026 0d3c 03340101 		ld	s0,16(sp)
 2027              		.cfi_restore 8
 2028              		.cfi_def_cfa 2, 32
 2029 0d40 83348100 		ld	s1,8(sp)
 2030              		.cfi_restore 9
 2031              	.LVL206:
 2032 0d44 13010102 		addi	sp,sp,32
 2033              		.cfi_def_cfa_offset 0
 2034 0d48 67800000 		jr	ra
 2035              		.cfi_endproc
 2036              	.LFE70:
 2038              		.section	.rodata.str1.8
 2039 0182 00000000 		.align	3
 2039      0000
 2040              	.LC14:
 2041 0188 53656E64 		.string	"Send cekam...\n"
 2041      2063656B 
 2041      616D2E2E 
 2041      2E0A00
 2042 0197 00       		.align	3
 2043              	.LC15:
 2044 0198 506F7275 		.string	"Poruka poslata uspesno...\n"
 2044      6B612070 
 2044      6F736C61 
 2044      74612075 
GAS LISTING /tmp/ccg8jNLS.s 			page 68


 2044      73706573 
 2045              		.text
 2046              		.align	2
 2047              		.globl	_ZN3TCB4sendEPKc
 2049              	_ZN3TCB4sendEPKc:
 2050              	.LFB71:
 383:src/tcb.cpp   ****     setSem();
 2051              		.loc 1 383 33 is_stmt 1
 2052              		.cfi_startproc
 2053              	.LVL207:
 2054 0d4c 130101FE 		addi	sp,sp,-32
 2055              		.cfi_def_cfa_offset 32
 2056 0d50 233C1100 		sd	ra,24(sp)
 2057 0d54 23388100 		sd	s0,16(sp)
 2058 0d58 23349100 		sd	s1,8(sp)
 2059 0d5c 23302101 		sd	s2,0(sp)
 2060              		.cfi_offset 1, -8
 2061              		.cfi_offset 8, -16
 2062              		.cfi_offset 9, -24
 2063              		.cfi_offset 18, -32
 2064 0d60 13040102 		addi	s0,sp,32
 2065              		.cfi_def_cfa 8, 0
 2066 0d64 93040500 		mv	s1,a0
 2067 0d68 13890500 		mv	s2,a1
 384:src/tcb.cpp   ****     printString("Send cekam...\n");
 2068              		.loc 1 384 5
 384:src/tcb.cpp   ****     printString("Send cekam...\n");
 2069              		.loc 1 384 11 is_stmt 0
 2070 0d6c 97000000 		call	_ZN3TCB6setSemEv
 2070      E7800000 
 2071              	.LVL208:
 385:src/tcb.cpp   ****     msgE->wait();
 2072              		.loc 1 385 5 is_stmt 1
 385:src/tcb.cpp   ****     msgE->wait();
 2073              		.loc 1 385 16 is_stmt 0
 2074 0d74 17050000 		lla	a0,.LC14
 2074      13050500 
 2075 0d7c 97000000 		call	_Z11printStringPKc@plt
 2075      E7800000 
 2076              	.LVL209:
 386:src/tcb.cpp   ****     printString("Poruka poslata uspesno...\n");
 2077              		.loc 1 386 5 is_stmt 1
 386:src/tcb.cpp   ****     printString("Poruka poslata uspesno...\n");
 2078              		.loc 1 386 15 is_stmt 0
 2079 0d84 03B58404 		ld	a0,72(s1)
 2080 0d88 97000000 		call	_ZN11Semaphore_k4waitEv@plt
 2080      E7800000 
 2081              	.LVL210:
 387:src/tcb.cpp   ****     message = msg;
 2082              		.loc 1 387 5 is_stmt 1
 387:src/tcb.cpp   ****     message = msg;
 2083              		.loc 1 387 16 is_stmt 0
 2084 0d90 17050000 		lla	a0,.LC15
 2084      13050500 
 2085 0d98 97000000 		call	_Z11printStringPKc@plt
 2085      E7800000 
 2086              	.LVL211:
GAS LISTING /tmp/ccg8jNLS.s 			page 69


 388:src/tcb.cpp   ****     msgA->signal();
 2087              		.loc 1 388 5 is_stmt 1
 388:src/tcb.cpp   ****     msgA->signal();
 2088              		.loc 1 388 13 is_stmt 0
 2089 0da0 23B02407 		sd	s2,96(s1)
 389:src/tcb.cpp   **** 
 2090              		.loc 1 389 5 is_stmt 1
 389:src/tcb.cpp   **** 
 2091              		.loc 1 389 17 is_stmt 0
 2092 0da4 03B50405 		ld	a0,80(s1)
 2093 0da8 97000000 		call	_ZN11Semaphore_k6signalEv@plt
 2093      E7800000 
 2094              	.LVL212:
 391:src/tcb.cpp   **** 
 2095              		.loc 1 391 1
 2096 0db0 83308101 		ld	ra,24(sp)
 2097              		.cfi_restore 1
 2098 0db4 03340101 		ld	s0,16(sp)
 2099              		.cfi_restore 8
 2100              		.cfi_def_cfa 2, 32
 2101 0db8 83348100 		ld	s1,8(sp)
 2102              		.cfi_restore 9
 2103              	.LVL213:
 2104 0dbc 03390100 		ld	s2,0(sp)
 2105              		.cfi_restore 18
 2106              	.LVL214:
 2107 0dc0 13010102 		addi	sp,sp,32
 2108              		.cfi_def_cfa_offset 0
 2109 0dc4 67800000 		jr	ra
 2110              		.cfi_endproc
 2111              	.LFE71:
 2113              		.align	2
 2114              		.globl	_ZN3TCB7joinAllEv
 2116              	_ZN3TCB7joinAllEv:
 2117              	.LFB73:
 402:src/tcb.cpp   **** 
 2118              		.loc 1 402 21 is_stmt 1
 2119              		.cfi_startproc
 2120              	.LVL215:
 2121 0dc8 130101FE 		addi	sp,sp,-32
 2122              		.cfi_def_cfa_offset 32
 2123 0dcc 233C1100 		sd	ra,24(sp)
 2124 0dd0 23388100 		sd	s0,16(sp)
 2125 0dd4 23349100 		sd	s1,8(sp)
 2126 0dd8 23302101 		sd	s2,0(sp)
 2127              		.cfi_offset 1, -8
 2128              		.cfi_offset 8, -16
 2129              		.cfi_offset 9, -24
 2130              		.cfi_offset 18, -32
 2131 0ddc 13040102 		addi	s0,sp,32
 2132              		.cfi_def_cfa 8, 0
 2133 0de0 13090500 		mv	s2,a0
 404:src/tcb.cpp   ****         joinALL=true;
 2134              		.loc 1 404 5
 404:src/tcb.cpp   ****         joinALL=true;
 2135              		.loc 1 404 9 is_stmt 0
 2136 0de4 83471507 		lbu	a5,113(a0)
GAS LISTING /tmp/ccg8jNLS.s 			page 70


 404:src/tcb.cpp   ****         joinALL=true;
 2137              		.loc 1 404 5
 2138 0de8 63820702 		beqz	a5,.L102
 2139              	.LVL216:
 2140              	.L98:
 402:src/tcb.cpp   **** 
 2141              		.loc 1 402 21 discriminator 3
 2142 0dec 93040000 		li	s1,0
 2143              	.L100:
 2144              	.LVL217:
 2145              	.LBB395:
 409:src/tcb.cpp   ****         joinAllsem->wait();
 2146              		.loc 1 409 18 is_stmt 1 discriminator 3
 409:src/tcb.cpp   ****         joinAllsem->wait();
 2147              		.loc 1 409 19 is_stmt 0 discriminator 3
 2148 0df0 83274907 		lw	a5,116(s2)
 409:src/tcb.cpp   ****         joinAllsem->wait();
 2149              		.loc 1 409 18 discriminator 3
 2150 0df4 63D4F404 		ble	a5,s1,.L99
 410:src/tcb.cpp   ****     }
 2151              		.loc 1 410 9 is_stmt 1 discriminator 2
 410:src/tcb.cpp   ****     }
 2152              		.loc 1 410 25 is_stmt 0 discriminator 2
 2153 0df8 03358907 		ld	a0,120(s2)
 2154 0dfc 97000000 		call	_ZN11Semaphore_k4waitEv@plt
 2154      E7800000 
 2155              	.LVL218:
 409:src/tcb.cpp   ****         joinAllsem->wait();
 2156              		.loc 1 409 5 is_stmt 1 discriminator 2
 2157 0e04 9B841400 		addiw	s1,s1,1
 2158              	.LVL219:
 2159 0e08 6FF09FFE 		j	.L100
 2160              	.LVL220:
 2161              	.L102:
 2162              	.LBE395:
 405:src/tcb.cpp   ****         joinAllsem= new Semaphore_k(0);
 2163              		.loc 1 405 9
 405:src/tcb.cpp   ****         joinAllsem= new Semaphore_k(0);
 2164              		.loc 1 405 16 is_stmt 0
 2165 0e0c 93041000 		li	s1,1
 2166 0e10 A3089506 		sb	s1,113(a0)
 406:src/tcb.cpp   ****         waitingForChildren=true;
 2167              		.loc 1 406 9 is_stmt 1
 2168              	.LVL221:
 2169              	.LBB396:
 2170              	.LBB397:
  26:src/../h/Semaphore_k.hpp ****     }
 2171              		.loc 5 26 9
  26:src/../h/Semaphore_k.hpp ****     }
 2172              		.loc 5 26 42 is_stmt 0
 2173 0e14 13058001 		li	a0,24
 2174              	.LVL222:
 2175 0e18 97000000 		call	_ZN15memoryAllocator9mem_allocEm@plt
 2175      E7800000 
 2176              	.LVL223:
 2177              	.LBE397:
 2178              	.LBE396:
GAS LISTING /tmp/ccg8jNLS.s 			page 71


 2179              	.LBB398:
 2180              	.LBB399:
 2181              		.loc 5 39 60
 2182 0e20 23000500 		sb	zero,0(a0)
 2183 0e24 23220500 		sw	zero,4(a0)
 2184              	.LVL224:
 2185              	.LBB400:
 2186              	.LBB401:
  26:src/../h/List.hpp **** 
 2187              		.loc 2 26 30
 2188 0e28 23340500 		sd	zero,8(a0)
 2189 0e2c 23380500 		sd	zero,16(a0)
 2190              	.LVL225:
 2191              	.LBE401:
 2192              	.LBE400:
 2193              	.LBE399:
 2194              	.LBE398:
 406:src/tcb.cpp   ****         waitingForChildren=true;
 2195              		.loc 1 406 19
 2196 0e30 233CA906 		sd	a0,120(s2)
 407:src/tcb.cpp   ****     }
 2197              		.loc 1 407 9 is_stmt 1
 407:src/tcb.cpp   ****     }
 2198              		.loc 1 407 27 is_stmt 0
 2199 0e34 23089906 		sb	s1,112(s2)
 2200 0e38 6FF05FFB 		j	.L98
 2201              	.LVL226:
 2202              	.L99:
 412:src/tcb.cpp   ****     numberOfChildren=0;
 2203              		.loc 1 412 5 is_stmt 1
 412:src/tcb.cpp   ****     numberOfChildren=0;
 2204              		.loc 1 412 12 is_stmt 0
 2205 0e3c A3080906 		sb	zero,113(s2)
 413:src/tcb.cpp   **** }
 2206              		.loc 1 413 5 is_stmt 1
 413:src/tcb.cpp   **** }
 2207              		.loc 1 413 21 is_stmt 0
 2208 0e40 232A0906 		sw	zero,116(s2)
 414:src/tcb.cpp   **** 
 2209              		.loc 1 414 1
 2210 0e44 83308101 		ld	ra,24(sp)
 2211              		.cfi_restore 1
 2212 0e48 03340101 		ld	s0,16(sp)
 2213              		.cfi_restore 8
 2214              		.cfi_def_cfa 2, 32
 2215 0e4c 83348100 		ld	s1,8(sp)
 2216              		.cfi_restore 9
 2217              	.LVL227:
 2218 0e50 03390100 		ld	s2,0(sp)
 2219              		.cfi_restore 18
 2220              	.LVL228:
 2221 0e54 13010102 		addi	sp,sp,32
 2222              		.cfi_def_cfa_offset 0
 2223 0e58 67800000 		jr	ra
 2224              		.cfi_endproc
 2225              	.LFE73:
 2227              		.align	2
GAS LISTING /tmp/ccg8jNLS.s 			page 72


 2228              		.globl	_ZN3TCB13setMaxThreadsEj
 2230              	_ZN3TCB13setMaxThreadsEj:
 2231              	.LFB74:
 416:src/tcb.cpp   ****     if(!setMaxTh){
 2232              		.loc 1 416 43 is_stmt 1
 2233              		.cfi_startproc
 2234              	.LVL229:
 417:src/tcb.cpp   ****         setMaxTh=true;
 2235              		.loc 1 417 5
 417:src/tcb.cpp   ****         setMaxTh=true;
 2236              		.loc 1 417 8 is_stmt 0
 2237 0e5c 97070000 		lbu	a5,.LANCHOR0+24
 2237      83C70700 
 417:src/tcb.cpp   ****         setMaxTh=true;
 2238              		.loc 1 417 5
 2239 0e64 63840700 		beqz	a5,.L109
 2240 0e68 67800000 		ret
 2241              	.L109:
 416:src/tcb.cpp   ****     if(!setMaxTh){
 2242              		.loc 1 416 43
 2243 0e6c 130101FE 		addi	sp,sp,-32
 2244              		.cfi_def_cfa_offset 32
 2245 0e70 233C1100 		sd	ra,24(sp)
 2246 0e74 23388100 		sd	s0,16(sp)
 2247 0e78 23349100 		sd	s1,8(sp)
 2248 0e7c 23302101 		sd	s2,0(sp)
 2249              		.cfi_offset 1, -8
 2250              		.cfi_offset 8, -16
 2251              		.cfi_offset 9, -24
 2252              		.cfi_offset 18, -32
 2253 0e80 13040102 		addi	s0,sp,32
 2254              		.cfi_def_cfa 8, 0
 418:src/tcb.cpp   ****         currThr = num;
 2255              		.loc 1 418 9 is_stmt 1
 418:src/tcb.cpp   ****         currThr = num;
 2256              		.loc 1 418 17 is_stmt 0
 2257 0e84 17090000 		lla	s2,.LANCHOR0
 2257      13090900 
 2258 0e8c 93071000 		li	a5,1
 2259 0e90 230CF900 		sb	a5,24(s2)
 419:src/tcb.cpp   ****         semMaxThreads = new Semaphore_k(num);
 2260              		.loc 1 419 9 is_stmt 1
 419:src/tcb.cpp   ****         semMaxThreads = new Semaphore_k(num);
 2261              		.loc 1 419 19 is_stmt 0
 2262 0e94 9B040500 		sext.w	s1,a0
 419:src/tcb.cpp   ****         semMaxThreads = new Semaphore_k(num);
 2263              		.loc 1 419 17
 2264 0e98 232E9900 		sw	s1,28(s2)
 420:src/tcb.cpp   ****     }
 2265              		.loc 1 420 9 is_stmt 1
 2266              	.LVL230:
 2267              	.LBB402:
 2268              	.LBB403:
  26:src/../h/Semaphore_k.hpp ****     }
 2269              		.loc 5 26 9
  26:src/../h/Semaphore_k.hpp ****     }
 2270              		.loc 5 26 42 is_stmt 0
GAS LISTING /tmp/ccg8jNLS.s 			page 73


 2271 0e9c 13058001 		li	a0,24
 2272              	.LVL231:
 2273 0ea0 97000000 		call	_ZN15memoryAllocator9mem_allocEm@plt
 2273      E7800000 
 2274              	.LVL232:
 2275              	.LBE403:
 2276              	.LBE402:
 2277              	.LBB404:
 2278              	.LBB405:
 2279              		.loc 5 39 60
 2280 0ea8 23000500 		sb	zero,0(a0)
 2281 0eac 23229500 		sw	s1,4(a0)
 2282              	.LVL233:
 2283              	.LBB406:
 2284              	.LBB407:
  26:src/../h/List.hpp **** 
 2285              		.loc 2 26 30
 2286 0eb0 23340500 		sd	zero,8(a0)
 2287 0eb4 23380500 		sd	zero,16(a0)
 2288              	.LVL234:
 2289              	.LBE407:
 2290              	.LBE406:
 2291              	.LBE405:
 2292              	.LBE404:
 420:src/tcb.cpp   ****     }
 2293              		.loc 1 420 23
 2294 0eb8 2330A902 		sd	a0,32(s2)
 422:src/tcb.cpp   **** 
 2295              		.loc 1 422 1
 2296 0ebc 83308101 		ld	ra,24(sp)
 2297              		.cfi_restore 1
 2298 0ec0 03340101 		ld	s0,16(sp)
 2299              		.cfi_restore 8
 2300              		.cfi_def_cfa 2, 32
 2301 0ec4 83348100 		ld	s1,8(sp)
 2302              		.cfi_restore 9
 2303              	.LVL235:
 2304 0ec8 03390100 		ld	s2,0(sp)
 2305              		.cfi_restore 18
 2306 0ecc 13010102 		addi	sp,sp,32
 2307              		.cfi_def_cfa_offset 0
 2308 0ed0 67800000 		jr	ra
 2309              		.cfi_endproc
 2310              	.LFE74:
 2312              		.align	2
 2313              		.globl	_ZN3TCB12setBarrier_2Ev
 2315              	_ZN3TCB12setBarrier_2Ev:
 2316              	.LFB76:
 445:src/tcb.cpp   ****     if(!setBarrier2){
 2317              		.loc 1 445 26 is_stmt 1
 2318              		.cfi_startproc
 446:src/tcb.cpp   ****         setBarrier2=true;
 2319              		.loc 1 446 5
 446:src/tcb.cpp   ****         setBarrier2=true;
 2320              		.loc 1 446 8 is_stmt 0
 2321 0ed4 97070000 		lbu	a5,.LANCHOR0+52
 2321      83C70700 
GAS LISTING /tmp/ccg8jNLS.s 			page 74


 446:src/tcb.cpp   ****         setBarrier2=true;
 2322              		.loc 1 446 5
 2323 0edc 63840700 		beqz	a5,.L116
 2324 0ee0 67800000 		ret
 2325              	.L116:
 445:src/tcb.cpp   ****     if(!setBarrier2){
 2326              		.loc 1 445 26
 2327 0ee4 130101FE 		addi	sp,sp,-32
 2328              		.cfi_def_cfa_offset 32
 2329 0ee8 233C1100 		sd	ra,24(sp)
 2330 0eec 23388100 		sd	s0,16(sp)
 2331 0ef0 23349100 		sd	s1,8(sp)
 2332              		.cfi_offset 1, -8
 2333              		.cfi_offset 8, -16
 2334              		.cfi_offset 9, -24
 2335 0ef4 13040102 		addi	s0,sp,32
 2336              		.cfi_def_cfa 8, 0
 447:src/tcb.cpp   ****         firstDoor = new Semaphore_k(1);
 2337              		.loc 1 447 9 is_stmt 1
 447:src/tcb.cpp   ****         firstDoor = new Semaphore_k(1);
 2338              		.loc 1 447 20 is_stmt 0
 2339 0ef8 97040000 		lla	s1,.LANCHOR0
 2339      93840400 
 2340 0f00 93071000 		li	a5,1
 2341 0f04 238AF402 		sb	a5,52(s1)
 448:src/tcb.cpp   ****         secondDoor = new Semaphore_k(0);
 2342              		.loc 1 448 9 is_stmt 1
 2343              	.LVL236:
 2344              	.LBB408:
 2345              	.LBB409:
  26:src/../h/Semaphore_k.hpp ****     }
 2346              		.loc 5 26 9
  26:src/../h/Semaphore_k.hpp ****     }
 2347              		.loc 5 26 42 is_stmt 0
 2348 0f08 13058001 		li	a0,24
 2349 0f0c 97000000 		call	_ZN15memoryAllocator9mem_allocEm@plt
 2349      E7800000 
 2350              	.LVL237:
 2351              	.LBE409:
 2352              	.LBE408:
 2353              	.LBB410:
 2354              	.LBB411:
 2355              		.loc 5 39 60
 2356 0f14 23000500 		sb	zero,0(a0)
 2357 0f18 93071000 		li	a5,1
 2358 0f1c 2322F500 		sw	a5,4(a0)
 2359              	.LVL238:
 2360              	.LBB412:
 2361              	.LBB413:
  26:src/../h/List.hpp **** 
 2362              		.loc 2 26 30
 2363 0f20 23340500 		sd	zero,8(a0)
 2364 0f24 23380500 		sd	zero,16(a0)
 2365              	.LVL239:
 2366              	.LBE413:
 2367              	.LBE412:
 2368              	.LBE411:
GAS LISTING /tmp/ccg8jNLS.s 			page 75


 2369              	.LBE410:
 448:src/tcb.cpp   ****         secondDoor = new Semaphore_k(0);
 2370              		.loc 1 448 19
 2371 0f28 23BCA406 		sd	a0,120(s1)
 449:src/tcb.cpp   ****         numCalls=0;
 2372              		.loc 1 449 9 is_stmt 1
 2373              	.LVL240:
 2374              	.LBB414:
 2375              	.LBB415:
  26:src/../h/Semaphore_k.hpp ****     }
 2376              		.loc 5 26 9
  26:src/../h/Semaphore_k.hpp ****     }
 2377              		.loc 5 26 42 is_stmt 0
 2378 0f2c 13058001 		li	a0,24
 2379 0f30 97000000 		call	_ZN15memoryAllocator9mem_allocEm@plt
 2379      E7800000 
 2380              	.LVL241:
 2381              	.LBE415:
 2382              	.LBE414:
 2383              	.LBB416:
 2384              	.LBB417:
 2385              		.loc 5 39 60
 2386 0f38 23000500 		sb	zero,0(a0)
 2387 0f3c 23220500 		sw	zero,4(a0)
 2388              	.LVL242:
 2389              	.LBB418:
 2390              	.LBB419:
  26:src/../h/List.hpp **** 
 2391              		.loc 2 26 30
 2392 0f40 23340500 		sd	zero,8(a0)
 2393 0f44 23380500 		sd	zero,16(a0)
 2394              	.LVL243:
 2395              	.LBE419:
 2396              	.LBE418:
 2397              	.LBE417:
 2398              	.LBE416:
 449:src/tcb.cpp   ****         numCalls=0;
 2399              		.loc 1 449 20
 2400 0f48 23B0A408 		sd	a0,128(s1)
 450:src/tcb.cpp   ****         threadCount++;
 2401              		.loc 1 450 9 is_stmt 1
 450:src/tcb.cpp   ****         threadCount++;
 2402              		.loc 1 450 17 is_stmt 0
 2403 0f4c 23AA0406 		sw	zero,116(s1)
 451:src/tcb.cpp   ****     }
 2404              		.loc 1 451 9 is_stmt 1
 451:src/tcb.cpp   ****     }
 2405              		.loc 1 451 20 is_stmt 0
 2406 0f50 83A78403 		lw	a5,56(s1)
 2407 0f54 9B871700 		addiw	a5,a5,1
 2408 0f58 23ACF402 		sw	a5,56(s1)
 453:src/tcb.cpp   **** 
 2409              		.loc 1 453 1
 2410 0f5c 83308101 		ld	ra,24(sp)
 2411              		.cfi_restore 1
 2412 0f60 03340101 		ld	s0,16(sp)
 2413              		.cfi_restore 8
GAS LISTING /tmp/ccg8jNLS.s 			page 76


 2414              		.cfi_def_cfa 2, 32
 2415 0f64 83348100 		ld	s1,8(sp)
 2416              		.cfi_restore 9
 2417 0f68 13010102 		addi	sp,sp,32
 2418              		.cfi_def_cfa_offset 0
 2419 0f6c 67800000 		jr	ra
 2420              		.cfi_endproc
 2421              	.LFE76:
 2423              		.align	2
 2424              		.globl	_ZN3TCB9barrier_2Ev
 2426              	_ZN3TCB9barrier_2Ev:
 2427              	.LFB75:
 424:src/tcb.cpp   ****     setBarrier_2();
 2428              		.loc 1 424 23 is_stmt 1
 2429              		.cfi_startproc
 2430 0f70 130101FE 		addi	sp,sp,-32
 2431              		.cfi_def_cfa_offset 32
 2432 0f74 233C1100 		sd	ra,24(sp)
 2433 0f78 23388100 		sd	s0,16(sp)
 2434 0f7c 23349100 		sd	s1,8(sp)
 2435              		.cfi_offset 1, -8
 2436              		.cfi_offset 8, -16
 2437              		.cfi_offset 9, -24
 2438 0f80 13040102 		addi	s0,sp,32
 2439              		.cfi_def_cfa 8, 0
 425:src/tcb.cpp   **** 
 2440              		.loc 1 425 5
 425:src/tcb.cpp   **** 
 2441              		.loc 1 425 17 is_stmt 0
 2442 0f84 97000000 		call	_ZN3TCB12setBarrier_2Ev
 2442      E7800000 
 2443              	.LVL244:
 427:src/tcb.cpp   ****     calls++;
 2444              		.loc 1 427 5 is_stmt 1
 427:src/tcb.cpp   ****     calls++;
 2445              		.loc 1 427 20 is_stmt 0
 2446 0f8c 97040000 		lla	s1,.LANCHOR0
 2446      93840400 
 2447 0f94 03B58407 		ld	a0,120(s1)
 2448 0f98 97000000 		call	_ZN11Semaphore_k4waitEv@plt
 2448      E7800000 
 2449              	.LVL245:
 428:src/tcb.cpp   ****     if(calls==threadCount){
 2450              		.loc 1 428 5 is_stmt 1
 428:src/tcb.cpp   ****     if(calls==threadCount){
 2451              		.loc 1 428 10 is_stmt 0
 2452 0fa0 83A78408 		lw	a5,136(s1)
 2453 0fa4 9B871700 		addiw	a5,a5,1
 2454 0fa8 1B870700 		sext.w	a4,a5
 2455 0fac 23A4F408 		sw	a5,136(s1)
 429:src/tcb.cpp   ****         secondDoor->signal();
 2456              		.loc 1 429 5 is_stmt 1
 429:src/tcb.cpp   ****         secondDoor->signal();
 2457              		.loc 1 429 13 is_stmt 0
 2458 0fb0 83A78403 		lw	a5,56(s1)
 429:src/tcb.cpp   ****         secondDoor->signal();
 2459              		.loc 1 429 5
GAS LISTING /tmp/ccg8jNLS.s 			page 77


 2460 0fb4 6302F706 		beq	a4,a5,.L123
 432:src/tcb.cpp   ****     }
 2461              		.loc 1 432 9 is_stmt 1
 432:src/tcb.cpp   ****     }
 2462              		.loc 1 432 26 is_stmt 0
 2463 0fb8 17050000 		ld	a0,.LANCHOR0+120
 2463      03350500 
 2464 0fc0 97000000 		call	_ZN11Semaphore_k6signalEv@plt
 2464      E7800000 
 2465              	.LVL246:
 2466              	.L119:
 434:src/tcb.cpp   ****     calls--;
 2467              		.loc 1 434 5 is_stmt 1
 434:src/tcb.cpp   ****     calls--;
 2468              		.loc 1 434 21 is_stmt 0
 2469 0fc8 97040000 		lla	s1,.LANCHOR0
 2469      93840400 
 2470 0fd0 03B50408 		ld	a0,128(s1)
 2471 0fd4 97000000 		call	_ZN11Semaphore_k4waitEv@plt
 2471      E7800000 
 2472              	.LVL247:
 435:src/tcb.cpp   ****     if(calls==0){
 2473              		.loc 1 435 5 is_stmt 1
 435:src/tcb.cpp   ****     if(calls==0){
 2474              		.loc 1 435 10 is_stmt 0
 2475 0fdc 83A78408 		lw	a5,136(s1)
 2476 0fe0 9B87F7FF 		addiw	a5,a5,-1
 2477 0fe4 1B870700 		sext.w	a4,a5
 2478 0fe8 23A4F408 		sw	a5,136(s1)
 436:src/tcb.cpp   ****         threadCount=1;
 2479              		.loc 1 436 5 is_stmt 1
 2480 0fec 63100704 		bnez	a4,.L120
 437:src/tcb.cpp   ****         firstDoor->signal();
 2481              		.loc 1 437 9
 437:src/tcb.cpp   ****         firstDoor->signal();
 2482              		.loc 1 437 20 is_stmt 0
 2483 0ff0 13071000 		li	a4,1
 2484 0ff4 23ACE402 		sw	a4,56(s1)
 438:src/tcb.cpp   ****     }else{
 2485              		.loc 1 438 9 is_stmt 1
 438:src/tcb.cpp   ****     }else{
 2486              		.loc 1 438 26 is_stmt 0
 2487 0ff8 03B58407 		ld	a0,120(s1)
 2488 0ffc 97000000 		call	_ZN11Semaphore_k6signalEv@plt
 2488      E7800000 
 2489              	.LVL248:
 2490              	.L117:
 443:src/tcb.cpp   **** 
 2491              		.loc 1 443 1
 2492 1004 83308101 		ld	ra,24(sp)
 2493              		.cfi_remember_state
 2494              		.cfi_restore 1
 2495 1008 03340101 		ld	s0,16(sp)
 2496              		.cfi_restore 8
 2497              		.cfi_def_cfa 2, 32
 2498 100c 83348100 		ld	s1,8(sp)
 2499              		.cfi_restore 9
GAS LISTING /tmp/ccg8jNLS.s 			page 78


 2500 1010 13010102 		addi	sp,sp,32
 2501              		.cfi_def_cfa_offset 0
 2502 1014 67800000 		jr	ra
 2503              	.L123:
 2504              		.cfi_restore_state
 430:src/tcb.cpp   ****     }else{
 2505              		.loc 1 430 9 is_stmt 1
 430:src/tcb.cpp   ****     }else{
 2506              		.loc 1 430 27 is_stmt 0
 2507 1018 17050000 		ld	a0,.LANCHOR0+128
 2507      03350500 
 2508 1020 97000000 		call	_ZN11Semaphore_k6signalEv@plt
 2508      E7800000 
 2509              	.LVL249:
 2510 1028 6FF01FFA 		j	.L119
 2511              	.L120:
 440:src/tcb.cpp   ****     }
 2512              		.loc 1 440 9 is_stmt 1
 440:src/tcb.cpp   ****     }
 2513              		.loc 1 440 27 is_stmt 0
 2514 102c 17050000 		ld	a0,.LANCHOR0+128
 2514      03350500 
 2515 1034 97000000 		call	_ZN11Semaphore_k6signalEv@plt
 2515      E7800000 
 2516              	.LVL250:
 443:src/tcb.cpp   **** 
 2517              		.loc 1 443 1
 2518 103c 6FF09FFC 		j	.L117
 2519              		.cfi_endproc
 2520              	.LFE75:
 2522              		.align	2
 2523              		.globl	_ZN3TCB18setAtomicBroadcastEv
 2525              	_ZN3TCB18setAtomicBroadcastEv:
 2526              	.LFB79:
 517:src/tcb.cpp   ****     emptyy = new Semaphore_k(CAPACITY);
 2527              		.loc 1 517 32 is_stmt 1
 2528              		.cfi_startproc
 2529              	.LVL251:
 2530 1040 130101FE 		addi	sp,sp,-32
 2531              		.cfi_def_cfa_offset 32
 2532 1044 233C1100 		sd	ra,24(sp)
 2533 1048 23388100 		sd	s0,16(sp)
 2534 104c 23349100 		sd	s1,8(sp)
 2535              		.cfi_offset 1, -8
 2536              		.cfi_offset 8, -16
 2537              		.cfi_offset 9, -24
 2538 1050 13040102 		addi	s0,sp,32
 2539              		.cfi_def_cfa 8, 0
 518:src/tcb.cpp   ****     for(int i=0;i<M;i++){
 2540              		.loc 1 518 5
 2541              	.LVL252:
 2542              	.LBB420:
 2543              	.LBB421:
  26:src/../h/Semaphore_k.hpp ****     }
 2544              		.loc 5 26 9
  26:src/../h/Semaphore_k.hpp ****     }
 2545              		.loc 5 26 42 is_stmt 0
GAS LISTING /tmp/ccg8jNLS.s 			page 79


 2546 1054 13058001 		li	a0,24
 2547              	.LVL253:
 2548 1058 97000000 		call	_ZN15memoryAllocator9mem_allocEm@plt
 2548      E7800000 
 2549              	.LVL254:
 2550              	.LBE421:
 2551              	.LBE420:
 2552              	.LBB422:
 2553              	.LBB423:
 2554              		.loc 5 39 60
 2555 1060 23000500 		sb	zero,0(a0)
 2556 1064 9307A000 		li	a5,10
 2557 1068 2322F500 		sw	a5,4(a0)
 2558              	.LVL255:
 2559              	.LBB424:
 2560              	.LBB425:
  26:src/../h/List.hpp **** 
 2561              		.loc 2 26 30
 2562 106c 23340500 		sd	zero,8(a0)
 2563 1070 23380500 		sd	zero,16(a0)
 2564              	.LVL256:
 2565              	.LBE425:
 2566              	.LBE424:
 2567              	.LBE423:
 2568              	.LBE422:
 518:src/tcb.cpp   ****     for(int i=0;i<M;i++){
 2569              		.loc 1 518 12
 2570 1074 97070000 		sd	a0,.LANCHOR0+144,a5
 2570      23B0A700 
 519:src/tcb.cpp   ****         full[i]=new Semaphore_k(0);
 2571              		.loc 1 519 5 is_stmt 1
 2572              	.LVL257:
 2573              	.LBB426:
 519:src/tcb.cpp   ****         full[i]=new Semaphore_k(0);
 2574              		.loc 1 519 13 is_stmt 0
 2575 107c 93040000 		li	s1,0
 2576 1080 6F008003 		j	.L126
 2577              	.LVL258:
 2578              	.L130:
 520:src/tcb.cpp   **** 
 2579              		.loc 1 520 9 is_stmt 1
 2580              	.LBB427:
 2581              	.LBB428:
  26:src/../h/Semaphore_k.hpp ****     }
 2582              		.loc 5 26 9
  26:src/../h/Semaphore_k.hpp ****     }
 2583              		.loc 5 26 42 is_stmt 0
 2584 1084 13058001 		li	a0,24
 2585 1088 97000000 		call	_ZN15memoryAllocator9mem_allocEm@plt
 2585      E7800000 
 2586              	.LVL259:
 2587              	.LBE428:
 2588              	.LBE427:
 2589              	.LBB429:
 2590              	.LBB430:
 2591              		.loc 5 39 60
 2592 1090 23000500 		sb	zero,0(a0)
GAS LISTING /tmp/ccg8jNLS.s 			page 80


 2593 1094 23220500 		sw	zero,4(a0)
 2594              	.LVL260:
 2595              	.LBB431:
 2596              	.LBB432:
  26:src/../h/List.hpp **** 
 2597              		.loc 2 26 30
 2598 1098 23340500 		sd	zero,8(a0)
 2599 109c 23380500 		sd	zero,16(a0)
 2600              	.LVL261:
 2601              	.LBE432:
 2602              	.LBE431:
 2603              	.LBE430:
 2604              	.LBE429:
 520:src/tcb.cpp   **** 
 2605              		.loc 1 520 16
 2606 10a0 13973400 		slli	a4,s1,3
 2607 10a4 97070000 		lla	a5,.LANCHOR0
 2607      93870700 
 2608 10ac B387E700 		add	a5,a5,a4
 2609 10b0 23BCA708 		sd	a0,152(a5)
 519:src/tcb.cpp   ****         full[i]=new Semaphore_k(0);
 2610              		.loc 1 519 5 is_stmt 1
 2611 10b4 9B841400 		addiw	s1,s1,1
 2612              	.LVL262:
 2613              	.L126:
 519:src/tcb.cpp   ****         full[i]=new Semaphore_k(0);
 2614              		.loc 1 519 18 discriminator 2
 2615 10b8 93077000 		li	a5,7
 2616 10bc E3D497FC 		ble	s1,a5,.L130
 2617              	.LBE426:
 2618              	.LBB433:
 523:src/tcb.cpp   ****         mutexC[i]=new Semaphore_k(1);
 2619              		.loc 1 523 13 is_stmt 0
 2620 10c0 93040000 		li	s1,0
 2621              	.LVL263:
 2622              	.L125:
 523:src/tcb.cpp   ****         mutexC[i]=new Semaphore_k(1);
 2623              		.loc 1 523 18 is_stmt 1 discriminator 2
 2624 10c4 93079000 		li	a5,9
 2625 10c8 63C09704 		bgt	s1,a5,.L124
 524:src/tcb.cpp   **** 
 2626              		.loc 1 524 9
 2627              	.LVL264:
 2628              	.LBB434:
 2629              	.LBB435:
  26:src/../h/Semaphore_k.hpp ****     }
 2630              		.loc 5 26 9
  26:src/../h/Semaphore_k.hpp ****     }
 2631              		.loc 5 26 42 is_stmt 0
 2632 10cc 13058001 		li	a0,24
 2633 10d0 97000000 		call	_ZN15memoryAllocator9mem_allocEm@plt
 2633      E7800000 
 2634              	.LVL265:
 2635              	.LBE435:
 2636              	.LBE434:
 2637              	.LBB436:
 2638              	.LBB437:
GAS LISTING /tmp/ccg8jNLS.s 			page 81


 2639              		.loc 5 39 60
 2640 10d8 23000500 		sb	zero,0(a0)
 2641 10dc 93071000 		li	a5,1
 2642 10e0 2322F500 		sw	a5,4(a0)
 2643              	.LVL266:
 2644              	.LBB438:
 2645              	.LBB439:
  26:src/../h/List.hpp **** 
 2646              		.loc 2 26 30
 2647 10e4 23340500 		sd	zero,8(a0)
 2648 10e8 23380500 		sd	zero,16(a0)
 2649              	.LVL267:
 2650              	.LBE439:
 2651              	.LBE438:
 2652              	.LBE437:
 2653              	.LBE436:
 524:src/tcb.cpp   **** 
 2654              		.loc 1 524 18
 2655 10ec 13973400 		slli	a4,s1,3
 2656 10f0 97070000 		lla	a5,.LANCHOR0
 2656      93870700 
 2657 10f8 B387E700 		add	a5,a5,a4
 2658 10fc 23BCA70C 		sd	a0,216(a5)
 523:src/tcb.cpp   ****         mutexC[i]=new Semaphore_k(1);
 2659              		.loc 1 523 5 is_stmt 1
 2660 1100 9B841400 		addiw	s1,s1,1
 2661              	.LVL268:
 2662 1104 6FF01FFC 		j	.L125
 2663              	.LVL269:
 2664              	.L124:
 2665              	.LBE433:
 527:src/tcb.cpp   **** 
 2666              		.loc 1 527 1 is_stmt 0
 2667 1108 83308101 		ld	ra,24(sp)
 2668              		.cfi_restore 1
 2669 110c 03340101 		ld	s0,16(sp)
 2670              		.cfi_restore 8
 2671              		.cfi_def_cfa 2, 32
 2672 1110 83348100 		ld	s1,8(sp)
 2673              		.cfi_restore 9
 2674              	.LVL270:
 2675 1114 13010102 		addi	sp,sp,32
 2676              		.cfi_def_cfa_offset 0
 2677 1118 67800000 		jr	ra
 2678              		.cfi_endproc
 2679              	.LFE79:
 2681              		.section	.rodata.str1.8
 2682 01b3 00000000 		.align	3
 2682      00
 2683              	.LC16:
 2684 01b8 62756666 		.string	"buffer["
 2684      65725B00 
 2685              		.align	3
 2686              	.LC17:
 2687 01c0 5D202D20 		.string	"] - producer id = "
 2687      70726F64 
 2687      75636572 
GAS LISTING /tmp/ccg8jNLS.s 			page 82


 2687      20696420 
 2687      3D2000
 2688              		.text
 2689              		.align	2
 2690              		.globl	_ZN3TCB8producerEi
 2692              	_ZN3TCB8producerEi:
 2693              	.LFB77:
 460:src/tcb.cpp   ****     if(!prodConsum){
 2694              		.loc 1 460 28 is_stmt 1
 2695              		.cfi_startproc
 2696              	.LVL271:
 2697 111c 130101FD 		addi	sp,sp,-48
 2698              		.cfi_def_cfa_offset 48
 2699 1120 23341102 		sd	ra,40(sp)
 2700 1124 23308102 		sd	s0,32(sp)
 2701 1128 233C9100 		sd	s1,24(sp)
 2702 112c 23382101 		sd	s2,16(sp)
 2703 1130 23343101 		sd	s3,8(sp)
 2704              		.cfi_offset 1, -8
 2705              		.cfi_offset 8, -16
 2706              		.cfi_offset 9, -24
 2707              		.cfi_offset 18, -32
 2708              		.cfi_offset 19, -40
 2709 1134 13040103 		addi	s0,sp,48
 2710              		.cfi_def_cfa 8, 0
 2711 1138 93890500 		mv	s3,a1
 461:src/tcb.cpp   ****         setAtomicBroadcast();
 2712              		.loc 1 461 5
 461:src/tcb.cpp   ****         setAtomicBroadcast();
 2713              		.loc 1 461 8 is_stmt 0
 2714 113c 97070000 		lbu	a5,.LANCHOR0+296
 2714      83C70700 
 461:src/tcb.cpp   ****         setAtomicBroadcast();
 2715              		.loc 1 461 5
 2716 1144 63860700 		beqz	a5,.L138
 2717              	.LVL272:
 2718              	.L132:
 460:src/tcb.cpp   ****     if(!prodConsum){
 2719              		.loc 1 460 28 discriminator 1
 2720 1148 13090000 		li	s2,0
 2721 114c 6F000005 		j	.L136
 2722              	.LVL273:
 2723              	.L138:
 462:src/tcb.cpp   ****         prodConsum=true;
 2724              		.loc 1 462 9 is_stmt 1
 462:src/tcb.cpp   ****         prodConsum=true;
 2725              		.loc 1 462 27 is_stmt 0
 2726 1150 97000000 		call	_ZN3TCB18setAtomicBroadcastEv
 2726      E7800000 
 2727              	.LVL274:
 463:src/tcb.cpp   ****     }
 2728              		.loc 1 463 9 is_stmt 1
 463:src/tcb.cpp   ****     }
 2729              		.loc 1 463 19 is_stmt 0
 2730 1158 93071000 		li	a5,1
 2731 115c 17070000 		sb	a5,.LANCHOR0+296,a4
 2731      2300F700 
GAS LISTING /tmp/ccg8jNLS.s 			page 83


 2732 1164 6FF05FFE 		j	.L132
 2733              	.LVL275:
 2734              	.L139:
 2735              	.LBB440:
 2736              	.LBB441:
 2737              	.LBB442:
 477:src/tcb.cpp   ****             thread_dispatch();
 2738              		.loc 1 477 13 is_stmt 1 discriminator 2
 477:src/tcb.cpp   ****             thread_dispatch();
 2739              		.loc 1 477 19 is_stmt 0 discriminator 2
 2740 1168 13973400 		slli	a4,s1,3
 2741 116c 97070000 		lla	a5,.LANCHOR0
 2741      93870700 
 2742 1174 B387E700 		add	a5,a5,a4
 477:src/tcb.cpp   ****             thread_dispatch();
 2743              		.loc 1 477 28 discriminator 2
 2744 1178 03B58709 		ld	a0,152(a5)
 2745 117c 97000000 		call	_ZN11Semaphore_k6signalEv@plt
 2745      E7800000 
 2746              	.LVL276:
 478:src/tcb.cpp   ****         }
 2747              		.loc 1 478 13 is_stmt 1 discriminator 2
 478:src/tcb.cpp   ****         }
 2748              		.loc 1 478 28 is_stmt 0 discriminator 2
 2749 1184 97000000 		call	_Z15thread_dispatchv@plt
 2749      E7800000 
 2750              	.LVL277:
 476:src/tcb.cpp   ****             full[i]->signal();
 2751              		.loc 1 476 9 is_stmt 1 discriminator 2
 2752 118c 9B841400 		addiw	s1,s1,1
 2753              	.LVL278:
 2754              	.L135:
 476:src/tcb.cpp   ****             full[i]->signal();
 2755              		.loc 1 476 22 discriminator 3
 2756 1190 93077000 		li	a5,7
 2757 1194 E3DA97FC 		ble	s1,a5,.L139
 2758              	.LBE442:
 2759              	.LBE441:
 466:src/tcb.cpp   ****         newItem +=100;
 2760              		.loc 1 466 5 discriminator 2
 2761 1198 1B091900 		addiw	s2,s2,1
 2762              	.LVL279:
 2763              	.L136:
 466:src/tcb.cpp   ****         newItem +=100;
 2764              		.loc 1 466 18 discriminator 1
 2765 119c 93079000 		li	a5,9
 2766 11a0 63C6270B 		bgt	s2,a5,.L131
 2767              	.LBB444:
 467:src/tcb.cpp   ****         emptyy->wait();
 2768              		.loc 1 467 9
 467:src/tcb.cpp   ****         emptyy->wait();
 2769              		.loc 1 467 17 is_stmt 0
 2770 11a4 97040000 		lla	s1,.LANCHOR0
 2770      93840400 
 2771 11ac 83A7C412 		lw	a5,300(s1)
 2772 11b0 9B874706 		addiw	a5,a5,100
 2773 11b4 23A6F412 		sw	a5,300(s1)
GAS LISTING /tmp/ccg8jNLS.s 			page 84


 468:src/tcb.cpp   ****         buffer[writeIndex]=newItem;
 2774              		.loc 1 468 9 is_stmt 1
 468:src/tcb.cpp   ****         buffer[writeIndex]=newItem;
 2775              		.loc 1 468 21 is_stmt 0
 2776 11b8 03B50409 		ld	a0,144(s1)
 2777 11bc 97000000 		call	_ZN11Semaphore_k4waitEv@plt
 2777      E7800000 
 2778              	.LVL280:
 469:src/tcb.cpp   ****         printString("buffer[");
 2779              		.loc 1 469 9 is_stmt 1
 469:src/tcb.cpp   ****         printString("buffer[");
 2780              		.loc 1 469 26 is_stmt 0
 2781 11c4 83A70413 		lw	a5,304(s1)
 469:src/tcb.cpp   ****         printString("buffer[");
 2782              		.loc 1 469 27
 2783 11c8 93972700 		slli	a5,a5,2
 2784 11cc B387F400 		add	a5,s1,a5
 2785 11d0 03A7C412 		lw	a4,300(s1)
 2786 11d4 23ACE712 		sw	a4,312(a5)
 470:src/tcb.cpp   ****         printInt(writeIndex);
 2787              		.loc 1 470 9 is_stmt 1
 470:src/tcb.cpp   ****         printInt(writeIndex);
 2788              		.loc 1 470 20 is_stmt 0
 2789 11d8 17050000 		lla	a0,.LC16
 2789      13050500 
 2790 11e0 97000000 		call	_Z11printStringPKc@plt
 2790      E7800000 
 2791              	.LVL281:
 471:src/tcb.cpp   ****         printString("] - producer id = ");
 2792              		.loc 1 471 9 is_stmt 1
 471:src/tcb.cpp   ****         printString("] - producer id = ");
 2793              		.loc 1 471 17 is_stmt 0
 2794 11e8 13060000 		li	a2,0
 2795 11ec 9305A000 		li	a1,10
 2796 11f0 03A50413 		lw	a0,304(s1)
 2797 11f4 97000000 		call	_Z8printIntiii@plt
 2797      E7800000 
 2798              	.LVL282:
 472:src/tcb.cpp   ****         printInt(id);
 2799              		.loc 1 472 9 is_stmt 1
 472:src/tcb.cpp   ****         printInt(id);
 2800              		.loc 1 472 20 is_stmt 0
 2801 11fc 17050000 		lla	a0,.LC17
 2801      13050500 
 2802 1204 97000000 		call	_Z11printStringPKc@plt
 2802      E7800000 
 2803              	.LVL283:
 473:src/tcb.cpp   ****         printString("\n");
 2804              		.loc 1 473 9 is_stmt 1
 473:src/tcb.cpp   ****         printString("\n");
 2805              		.loc 1 473 17 is_stmt 0
 2806 120c 13060000 		li	a2,0
 2807 1210 9305A000 		li	a1,10
 2808 1214 13850900 		mv	a0,s3
 2809 1218 97000000 		call	_Z8printIntiii@plt
 2809      E7800000 
 2810              	.LVL284:
GAS LISTING /tmp/ccg8jNLS.s 			page 85


 474:src/tcb.cpp   ****         writeIndex = (writeIndex+1)%CAPACITY;
 2811              		.loc 1 474 9 is_stmt 1
 474:src/tcb.cpp   ****         writeIndex = (writeIndex+1)%CAPACITY;
 2812              		.loc 1 474 20 is_stmt 0
 2813 1220 17050000 		lla	a0,.LC1
 2813      13050500 
 2814 1228 97000000 		call	_Z11printStringPKc@plt
 2814      E7800000 
 2815              	.LVL285:
 475:src/tcb.cpp   ****         for(int i=0;i<M;i++){
 2816              		.loc 1 475 9 is_stmt 1
 475:src/tcb.cpp   ****         for(int i=0;i<M;i++){
 2817              		.loc 1 475 33 is_stmt 0
 2818 1230 83A70413 		lw	a5,304(s1)
 2819 1234 9B871700 		addiw	a5,a5,1
 475:src/tcb.cpp   ****         for(int i=0;i<M;i++){
 2820              		.loc 1 475 36
 2821 1238 1307A000 		li	a4,10
 2822 123c BBE7E702 		remw	a5,a5,a4
 475:src/tcb.cpp   ****         for(int i=0;i<M;i++){
 2823              		.loc 1 475 20
 2824 1240 23A8F412 		sw	a5,304(s1)
 476:src/tcb.cpp   ****             full[i]->signal();
 2825              		.loc 1 476 9 is_stmt 1
 2826              	.LVL286:
 2827              	.LBB443:
 476:src/tcb.cpp   ****             full[i]->signal();
 2828              		.loc 1 476 17 is_stmt 0
 2829 1244 93040000 		li	s1,0
 2830 1248 6FF09FF4 		j	.L135
 2831              	.LVL287:
 2832              	.L131:
 2833              	.LBE443:
 2834              	.LBE444:
 2835              	.LBE440:
 484:src/tcb.cpp   **** 
 2836              		.loc 1 484 1
 2837 124c 83308102 		ld	ra,40(sp)
 2838              		.cfi_restore 1
 2839 1250 03340102 		ld	s0,32(sp)
 2840              		.cfi_restore 8
 2841              		.cfi_def_cfa 2, 48
 2842 1254 83348101 		ld	s1,24(sp)
 2843              		.cfi_restore 9
 2844 1258 03390101 		ld	s2,16(sp)
 2845              		.cfi_restore 18
 2846              	.LVL288:
 2847 125c 83398100 		ld	s3,8(sp)
 2848              		.cfi_restore 19
 2849 1260 13010103 		addi	sp,sp,48
 2850              		.cfi_def_cfa_offset 0
 2851 1264 67800000 		jr	ra
 2852              		.cfi_endproc
 2853              	.LFE77:
 2855              		.section	.rodata.str1.8
 2856 01d3 00000000 		.align	3
 2856      00
GAS LISTING /tmp/ccg8jNLS.s 			page 86


 2857              	.LC18:
 2858 01d8 4E657720 		.string	"New item consumed: "
 2858      6974656D 
 2858      20636F6E 
 2858      73756D65 
 2858      643A2000 
 2859 01ec 00000000 		.align	3
 2860              	.LC19:
 2861 01f0 2E204E69 		.string	". Nit id = "
 2861      74206964 
 2861      203D2000 
 2862              		.text
 2863              		.align	2
 2864              		.globl	_ZN3TCB8consumerEi
 2866              	_ZN3TCB8consumerEi:
 2867              	.LFB78:
 486:src/tcb.cpp   ****     if(!prodConsum){
 2868              		.loc 1 486 28 is_stmt 1
 2869              		.cfi_startproc
 2870              	.LVL289:
 2871 1268 130101FC 		addi	sp,sp,-64
 2872              		.cfi_def_cfa_offset 64
 2873 126c 233C1102 		sd	ra,56(sp)
 2874 1270 23388102 		sd	s0,48(sp)
 2875 1274 23349102 		sd	s1,40(sp)
 2876 1278 23302103 		sd	s2,32(sp)
 2877 127c 233C3101 		sd	s3,24(sp)
 2878 1280 23384101 		sd	s4,16(sp)
 2879 1284 23345101 		sd	s5,8(sp)
 2880 1288 23306101 		sd	s6,0(sp)
 2881              		.cfi_offset 1, -8
 2882              		.cfi_offset 8, -16
 2883              		.cfi_offset 9, -24
 2884              		.cfi_offset 18, -32
 2885              		.cfi_offset 19, -40
 2886              		.cfi_offset 20, -48
 2887              		.cfi_offset 21, -56
 2888              		.cfi_offset 22, -64
 2889 128c 13040104 		addi	s0,sp,64
 2890              		.cfi_def_cfa 8, 0
 2891 1290 938A0500 		mv	s5,a1
 487:src/tcb.cpp   ****         setAtomicBroadcast();
 2892              		.loc 1 487 5
 487:src/tcb.cpp   ****         setAtomicBroadcast();
 2893              		.loc 1 487 8 is_stmt 0
 2894 1294 97070000 		lbu	a5,.LANCHOR0+296
 2894      83C70700 
 487:src/tcb.cpp   ****         setAtomicBroadcast();
 2895              		.loc 1 487 5
 2896 129c 63880700 		beqz	a5,.L146
 2897              	.LVL290:
 2898              	.L141:
 486:src/tcb.cpp   ****     if(!prodConsum){
 2899              		.loc 1 486 28 discriminator 1
 2900 12a0 130A0000 		li	s4,0
 2901 12a4 93040000 		li	s1,0
 2902 12a8 6F000007 		j	.L144
GAS LISTING /tmp/ccg8jNLS.s 			page 87


 2903              	.LVL291:
 2904              	.L146:
 488:src/tcb.cpp   ****         prodConsum=true;
 2905              		.loc 1 488 9 is_stmt 1
 488:src/tcb.cpp   ****         prodConsum=true;
 2906              		.loc 1 488 27 is_stmt 0
 2907 12ac 97000000 		call	_ZN3TCB18setAtomicBroadcastEv
 2907      E7800000 
 2908              	.LVL292:
 489:src/tcb.cpp   ****     }
 2909              		.loc 1 489 9 is_stmt 1
 489:src/tcb.cpp   ****     }
 2910              		.loc 1 489 19 is_stmt 0
 2911 12b4 93071000 		li	a5,1
 2912 12b8 17070000 		sb	a5,.LANCHOR0+296,a4
 2912      2300F700 
 2913 12c0 6FF01FFE 		j	.L141
 2914              	.LVL293:
 2915              	.L147:
 2916              	.LBB445:
 505:src/tcb.cpp   ****             emptyy->signal();
 2917              		.loc 1 505 13 is_stmt 1
 505:src/tcb.cpp   ****             emptyy->signal();
 2918              		.loc 1 505 35 is_stmt 0
 2919 12c4 17070000 		lla	a4,.LANCHOR0
 2919      13070700 
 2920 12cc 23200916 		sw	zero,352(s2)
 506:src/tcb.cpp   ****             thread_dispatch();
 2921              		.loc 1 506 13 is_stmt 1
 506:src/tcb.cpp   ****             thread_dispatch();
 2922              		.loc 1 506 27 is_stmt 0
 2923 12d0 03350709 		ld	a0,144(a4)
 2924 12d4 97000000 		call	_ZN11Semaphore_k6signalEv@plt
 2924      E7800000 
 2925              	.LVL294:
 507:src/tcb.cpp   ****         }
 2926              		.loc 1 507 13 is_stmt 1
 507:src/tcb.cpp   ****         }
 2927              		.loc 1 507 28 is_stmt 0
 2928 12dc 97000000 		call	_Z15thread_dispatchv@plt
 2928      E7800000 
 2929              	.LVL295:
 2930              	.L143:
 509:src/tcb.cpp   ****         thread_dispatch();
 2931              		.loc 1 509 9 is_stmt 1 discriminator 2
 509:src/tcb.cpp   ****         thread_dispatch();
 2932              		.loc 1 509 25 is_stmt 0 discriminator 2
 2933 12e4 13973400 		slli	a4,s1,3
 2934 12e8 97070000 		lla	a5,.LANCHOR0
 2934      93870700 
 2935 12f0 B387E700 		add	a5,a5,a4
 509:src/tcb.cpp   ****         thread_dispatch();
 2936              		.loc 1 509 34 discriminator 2
 2937 12f4 03B5870D 		ld	a0,216(a5)
 2938 12f8 97000000 		call	_ZN11Semaphore_k6signalEv@plt
 2938      E7800000 
 2939              	.LVL296:
GAS LISTING /tmp/ccg8jNLS.s 			page 88


 510:src/tcb.cpp   ****         readIndex=(readIndex+1)%CAPACITY;
 2940              		.loc 1 510 9 is_stmt 1 discriminator 2
 510:src/tcb.cpp   ****         readIndex=(readIndex+1)%CAPACITY;
 2941              		.loc 1 510 24 is_stmt 0 discriminator 2
 2942 1300 97000000 		call	_Z15thread_dispatchv@plt
 2942      E7800000 
 2943              	.LVL297:
 511:src/tcb.cpp   **** 
 2944              		.loc 1 511 9 is_stmt 1 discriminator 2
 511:src/tcb.cpp   **** 
 2945              		.loc 1 511 29 is_stmt 0 discriminator 2
 2946 1308 9B841400 		addiw	s1,s1,1
 2947              	.LVL298:
 511:src/tcb.cpp   **** 
 2948              		.loc 1 511 18 discriminator 2
 2949 130c 9307A000 		li	a5,10
 2950 1310 BBE4F402 		remw	s1,s1,a5
 2951              	.LVL299:
 493:src/tcb.cpp   ****         full[id]->wait();
 2952              		.loc 1 493 5 is_stmt 1 discriminator 2
 2953 1314 1B0A1A00 		addiw	s4,s4,1
 2954              	.LVL300:
 2955              	.L144:
 493:src/tcb.cpp   ****         full[id]->wait();
 2956              		.loc 1 493 18 discriminator 1
 2957 1318 93079000 		li	a5,9
 2958 131c 63CA470B 		bgt	s4,a5,.L140
 494:src/tcb.cpp   ****         newI=buffer[readIndex];
 2959              		.loc 1 494 9
 494:src/tcb.cpp   ****         newI=buffer[readIndex];
 2960              		.loc 1 494 16 is_stmt 0
 2961 1320 97090000 		lla	s3,.LANCHOR0
 2961      93890900 
 2962 1328 93973A00 		slli	a5,s5,3
 2963 132c B387F900 		add	a5,s3,a5
 494:src/tcb.cpp   ****         newI=buffer[readIndex];
 2964              		.loc 1 494 23
 2965 1330 03B58709 		ld	a0,152(a5)
 2966 1334 97000000 		call	_ZN11Semaphore_k4waitEv@plt
 2966      E7800000 
 2967              	.LVL301:
 495:src/tcb.cpp   ****         mutexC[readIndex]->wait();
 2968              		.loc 1 495 9 is_stmt 1
 495:src/tcb.cpp   ****         mutexC[readIndex]->wait();
 2969              		.loc 1 495 13 is_stmt 0
 2970 133c 13992400 		slli	s2,s1,2
 2971 1340 33892901 		add	s2,s3,s2
 2972 1344 032B8913 		lw	s6,312(s2)
 2973              	.LVL302:
 496:src/tcb.cpp   ****         consumerCnt[readIndex]++;
 2974              		.loc 1 496 9 is_stmt 1
 496:src/tcb.cpp   ****         consumerCnt[readIndex]++;
 2975              		.loc 1 496 25 is_stmt 0
 2976 1348 93973400 		slli	a5,s1,3
 2977 134c B389F900 		add	s3,s3,a5
 496:src/tcb.cpp   ****         consumerCnt[readIndex]++;
 2978              		.loc 1 496 32
GAS LISTING /tmp/ccg8jNLS.s 			page 89


 2979 1350 03B5890D 		ld	a0,216(s3)
 2980 1354 97000000 		call	_ZN11Semaphore_k4waitEv@plt
 2980      E7800000 
 2981              	.LVL303:
 497:src/tcb.cpp   **** 
 2982              		.loc 1 497 9 is_stmt 1
 497:src/tcb.cpp   **** 
 2983              		.loc 1 497 30 is_stmt 0
 2984 135c 83270916 		lw	a5,352(s2)
 497:src/tcb.cpp   **** 
 2985              		.loc 1 497 31
 2986 1360 9B871700 		addiw	a5,a5,1
 2987 1364 2320F916 		sw	a5,352(s2)
 499:src/tcb.cpp   ****         printInt(newI);
 2988              		.loc 1 499 9 is_stmt 1
 499:src/tcb.cpp   ****         printInt(newI);
 2989              		.loc 1 499 20 is_stmt 0
 2990 1368 17050000 		lla	a0,.LC18
 2990      13050500 
 2991 1370 97000000 		call	_Z11printStringPKc@plt
 2991      E7800000 
 2992              	.LVL304:
 500:src/tcb.cpp   ****         printString(". Nit id = ");
 2993              		.loc 1 500 9 is_stmt 1
 500:src/tcb.cpp   ****         printString(". Nit id = ");
 2994              		.loc 1 500 17 is_stmt 0
 2995 1378 13060000 		li	a2,0
 2996 137c 9305A000 		li	a1,10
 2997 1380 13050B00 		mv	a0,s6
 2998 1384 97000000 		call	_Z8printIntiii@plt
 2998      E7800000 
 2999              	.LVL305:
 501:src/tcb.cpp   ****         printInt(id);
 3000              		.loc 1 501 9 is_stmt 1
 501:src/tcb.cpp   ****         printInt(id);
 3001              		.loc 1 501 20 is_stmt 0
 3002 138c 17050000 		lla	a0,.LC19
 3002      13050500 
 3003 1394 97000000 		call	_Z11printStringPKc@plt
 3003      E7800000 
 3004              	.LVL306:
 502:src/tcb.cpp   ****         printString("\n");
 3005              		.loc 1 502 9 is_stmt 1
 502:src/tcb.cpp   ****         printString("\n");
 3006              		.loc 1 502 17 is_stmt 0
 3007 139c 13060000 		li	a2,0
 3008 13a0 9305A000 		li	a1,10
 3009 13a4 13850A00 		mv	a0,s5
 3010 13a8 97000000 		call	_Z8printIntiii@plt
 3010      E7800000 
 3011              	.LVL307:
 503:src/tcb.cpp   ****         if(consumerCnt[readIndex]==M){
 3012              		.loc 1 503 9 is_stmt 1
 503:src/tcb.cpp   ****         if(consumerCnt[readIndex]==M){
 3013              		.loc 1 503 20 is_stmt 0
 3014 13b0 17050000 		lla	a0,.LC1
 3014      13050500 
GAS LISTING /tmp/ccg8jNLS.s 			page 90


 3015 13b8 97000000 		call	_Z11printStringPKc@plt
 3015      E7800000 
 3016              	.LVL308:
 504:src/tcb.cpp   ****             consumerCnt[readIndex]=0;
 3017              		.loc 1 504 9 is_stmt 1
 504:src/tcb.cpp   ****             consumerCnt[readIndex]=0;
 3018              		.loc 1 504 33 is_stmt 0
 3019 13c0 03270916 		lw	a4,352(s2)
 504:src/tcb.cpp   ****             consumerCnt[readIndex]=0;
 3020              		.loc 1 504 9
 3021 13c4 93078000 		li	a5,8
 3022 13c8 E31EF7F0 		bne	a4,a5,.L143
 3023 13cc 6FF09FEF 		j	.L147
 3024              	.LVL309:
 3025              	.L140:
 3026              	.LBE445:
 515:src/tcb.cpp   **** 
 3027              		.loc 1 515 1
 3028 13d0 83308103 		ld	ra,56(sp)
 3029              		.cfi_restore 1
 3030 13d4 03340103 		ld	s0,48(sp)
 3031              		.cfi_restore 8
 3032              		.cfi_def_cfa 2, 64
 3033 13d8 83348102 		ld	s1,40(sp)
 3034              		.cfi_restore 9
 3035              	.LVL310:
 3036 13dc 03390102 		ld	s2,32(sp)
 3037              		.cfi_restore 18
 3038 13e0 83398101 		ld	s3,24(sp)
 3039              		.cfi_restore 19
 3040 13e4 033A0101 		ld	s4,16(sp)
 3041              		.cfi_restore 20
 3042              	.LVL311:
 3043 13e8 833A8100 		ld	s5,8(sp)
 3044              		.cfi_restore 21
 3045 13ec 033B0100 		ld	s6,0(sp)
 3046              		.cfi_restore 22
 3047 13f0 13010104 		addi	sp,sp,64
 3048              		.cfi_def_cfa_offset 0
 3049 13f4 67800000 		jr	ra
 3050              		.cfi_endproc
 3051              	.LFE78:
 3053              		.align	2
 3054              		.globl	_ZN3TCB7barrierEjPP8MoleculePKc
 3056              	_ZN3TCB7barrierEjPP8MoleculePKc:
 3057              	.LFB82:
 576:src/tcb.cpp   ****     door1->wait();
 3058              		.loc 1 576 76 is_stmt 1
 3059              		.cfi_startproc
 3060              	.LVL312:
 3061 13f8 130101FD 		addi	sp,sp,-48
 3062              		.cfi_def_cfa_offset 48
 3063 13fc 23341102 		sd	ra,40(sp)
 3064 1400 23308102 		sd	s0,32(sp)
 3065 1404 233C9100 		sd	s1,24(sp)
 3066 1408 23382101 		sd	s2,16(sp)
 3067 140c 23343101 		sd	s3,8(sp)
GAS LISTING /tmp/ccg8jNLS.s 			page 91


 3068 1410 23304101 		sd	s4,0(sp)
 3069              		.cfi_offset 1, -8
 3070              		.cfi_offset 8, -16
 3071              		.cfi_offset 9, -24
 3072              		.cfi_offset 18, -32
 3073              		.cfi_offset 19, -40
 3074              		.cfi_offset 20, -48
 3075 1414 13040103 		addi	s0,sp,48
 3076              		.cfi_def_cfa 8, 0
 3077 1418 130A0500 		mv	s4,a0
 3078 141c 13890500 		mv	s2,a1
 3079 1420 93090600 		mv	s3,a2
 577:src/tcb.cpp   ****     molecule->ids[count] = id;
 3080              		.loc 1 577 5
 577:src/tcb.cpp   ****     molecule->ids[count] = id;
 3081              		.loc 1 577 16 is_stmt 0
 3082 1424 97040000 		lla	s1,.LANCHOR0
 3082      93840400 
 3083 142c 03B58418 		ld	a0,392(s1)
 3084              	.LVL313:
 3085 1430 97000000 		call	_ZN11Semaphore_k4waitEv@plt
 3085      E7800000 
 3086              	.LVL314:
 578:src/tcb.cpp   ****     molecule->type[count] = element;
 3087              		.loc 1 578 5 is_stmt 1
 578:src/tcb.cpp   ****     molecule->type[count] = element;
 3088              		.loc 1 578 15 is_stmt 0
 3089 1438 83B70419 		ld	a5,400(s1)
 3090 143c 83B70700 		ld	a5,0(a5)
 578:src/tcb.cpp   ****     molecule->type[count] = element;
 3091              		.loc 1 578 19
 3092 1440 03A78419 		lw	a4,408(s1)
 578:src/tcb.cpp   ****     molecule->type[count] = element;
 3093              		.loc 1 578 24
 3094 1444 13172700 		slli	a4,a4,2
 3095 1448 B387E700 		add	a5,a5,a4
 578:src/tcb.cpp   ****     molecule->type[count] = element;
 3096              		.loc 1 578 26
 3097 144c 23A04701 		sw	s4,0(a5)
 579:src/tcb.cpp   ****     count++;
 3098              		.loc 1 579 5 is_stmt 1
 579:src/tcb.cpp   ****     count++;
 3099              		.loc 1 579 15 is_stmt 0
 3100 1450 83B70419 		ld	a5,400(s1)
 3101 1454 83B78700 		ld	a5,8(a5)
 579:src/tcb.cpp   ****     count++;
 3102              		.loc 1 579 20
 3103 1458 03A78419 		lw	a4,408(s1)
 579:src/tcb.cpp   ****     count++;
 3104              		.loc 1 579 25
 3105 145c 13173700 		slli	a4,a4,3
 3106 1460 B387E700 		add	a5,a5,a4
 579:src/tcb.cpp   ****     count++;
 3107              		.loc 1 579 27
 3108 1464 23B03701 		sd	s3,0(a5)
 580:src/tcb.cpp   ****     if (count == 3) {
 3109              		.loc 1 580 5 is_stmt 1
GAS LISTING /tmp/ccg8jNLS.s 			page 92


 580:src/tcb.cpp   ****     if (count == 3) {
 3110              		.loc 1 580 10 is_stmt 0
 3111 1468 83A78419 		lw	a5,408(s1)
 3112 146c 9B871700 		addiw	a5,a5,1
 3113 1470 1B870700 		sext.w	a4,a5
 3114 1474 23ACF418 		sw	a5,408(s1)
 581:src/tcb.cpp   ****         door2->signal();
 3115              		.loc 1 581 5 is_stmt 1
 3116 1478 93073000 		li	a5,3
 3117 147c 630AF708 		beq	a4,a5,.L154
 584:src/tcb.cpp   ****     }
 3118              		.loc 1 584 9
 584:src/tcb.cpp   ****     }
 3119              		.loc 1 584 22 is_stmt 0
 3120 1480 17050000 		ld	a0,.LANCHOR0+392
 3120      03350500 
 3121 1488 97000000 		call	_ZN11Semaphore_k6signalEv@plt
 3121      E7800000 
 3122              	.LVL315:
 3123              	.L150:
 586:src/tcb.cpp   ****     *molekul = molecule;
 3124              		.loc 1 586 5 is_stmt 1
 586:src/tcb.cpp   ****     *molekul = molecule;
 3125              		.loc 1 586 16 is_stmt 0
 3126 1490 97040000 		lla	s1,.LANCHOR0
 3126      93840400 
 3127 1498 03B5041A 		ld	a0,416(s1)
 3128 149c 97000000 		call	_ZN11Semaphore_k4waitEv@plt
 3128      E7800000 
 3129              	.LVL316:
 587:src/tcb.cpp   ****     count--;
 3130              		.loc 1 587 5 is_stmt 1
 587:src/tcb.cpp   ****     count--;
 3131              		.loc 1 587 14 is_stmt 0
 3132 14a4 83B70419 		ld	a5,400(s1)
 3133 14a8 2330F900 		sd	a5,0(s2)
 588:src/tcb.cpp   ****     if (count == 0) {
 3134              		.loc 1 588 5 is_stmt 1
 588:src/tcb.cpp   ****     if (count == 0) {
 3135              		.loc 1 588 10 is_stmt 0
 3136 14ac 83A78419 		lw	a5,408(s1)
 3137 14b0 9B87F7FF 		addiw	a5,a5,-1
 3138 14b4 1B870700 		sext.w	a4,a5
 3139 14b8 23ACF418 		sw	a5,408(s1)
 589:src/tcb.cpp   ****         hydroSem->signal();
 3140              		.loc 1 589 5 is_stmt 1
 3141 14bc 63140706 		bnez	a4,.L151
 590:src/tcb.cpp   ****         oxySem->signal();
 3142              		.loc 1 590 9
 590:src/tcb.cpp   ****         oxySem->signal();
 3143              		.loc 1 590 25 is_stmt 0
 3144 14c0 03B5841A 		ld	a0,424(s1)
 3145 14c4 97000000 		call	_ZN11Semaphore_k6signalEv@plt
 3145      E7800000 
 3146              	.LVL317:
 591:src/tcb.cpp   ****         hydroSem->signal();
 3147              		.loc 1 591 9 is_stmt 1
GAS LISTING /tmp/ccg8jNLS.s 			page 93


 591:src/tcb.cpp   ****         hydroSem->signal();
 3148              		.loc 1 591 23 is_stmt 0
 3149 14cc 03B5041B 		ld	a0,432(s1)
 3150 14d0 97000000 		call	_ZN11Semaphore_k6signalEv@plt
 3150      E7800000 
 3151              	.LVL318:
 592:src/tcb.cpp   ****         door1->signal();
 3152              		.loc 1 592 9 is_stmt 1
 592:src/tcb.cpp   ****         door1->signal();
 3153              		.loc 1 592 25 is_stmt 0
 3154 14d8 03B5841A 		ld	a0,424(s1)
 3155 14dc 97000000 		call	_ZN11Semaphore_k6signalEv@plt
 3155      E7800000 
 3156              	.LVL319:
 593:src/tcb.cpp   **** 
 3157              		.loc 1 593 9 is_stmt 1
 593:src/tcb.cpp   **** 
 3158              		.loc 1 593 22 is_stmt 0
 3159 14e4 03B58418 		ld	a0,392(s1)
 3160 14e8 97000000 		call	_ZN11Semaphore_k6signalEv@plt
 3160      E7800000 
 3161              	.LVL320:
 3162              	.L148:
 598:src/tcb.cpp   **** void TCB::setAtomH20() {
 3163              		.loc 1 598 1
 3164 14f0 83308102 		ld	ra,40(sp)
 3165              		.cfi_remember_state
 3166              		.cfi_restore 1
 3167 14f4 03340102 		ld	s0,32(sp)
 3168              		.cfi_restore 8
 3169              		.cfi_def_cfa 2, 48
 3170 14f8 83348101 		ld	s1,24(sp)
 3171              		.cfi_restore 9
 3172 14fc 03390101 		ld	s2,16(sp)
 3173              		.cfi_restore 18
 3174              	.LVL321:
 3175 1500 83398100 		ld	s3,8(sp)
 3176              		.cfi_restore 19
 3177              	.LVL322:
 3178 1504 033A0100 		ld	s4,0(sp)
 3179              		.cfi_restore 20
 3180 1508 13010103 		addi	sp,sp,48
 3181              		.cfi_def_cfa_offset 0
 3182 150c 67800000 		jr	ra
 3183              	.LVL323:
 3184              	.L154:
 3185              		.cfi_restore_state
 582:src/tcb.cpp   ****     } else {
 3186              		.loc 1 582 9 is_stmt 1
 582:src/tcb.cpp   ****     } else {
 3187              		.loc 1 582 22 is_stmt 0
 3188 1510 17050000 		ld	a0,.LANCHOR0+416
 3188      03350500 
 3189 1518 97000000 		call	_ZN11Semaphore_k6signalEv@plt
 3189      E7800000 
 3190              	.LVL324:
 3191 1520 6FF01FF7 		j	.L150
GAS LISTING /tmp/ccg8jNLS.s 			page 94


 3192              	.L151:
 596:src/tcb.cpp   ****     }
 3193              		.loc 1 596 9 is_stmt 1
 596:src/tcb.cpp   ****     }
 3194              		.loc 1 596 22 is_stmt 0
 3195 1524 17050000 		ld	a0,.LANCHOR0+416
 3195      03350500 
 3196 152c 97000000 		call	_ZN11Semaphore_k6signalEv@plt
 3196      E7800000 
 3197              	.LVL325:
 598:src/tcb.cpp   **** void TCB::setAtomH20() {
 3198              		.loc 1 598 1
 3199 1534 6FF0DFFB 		j	.L148
 3200              		.cfi_endproc
 3201              	.LFE82:
 3203              		.align	2
 3204              		.globl	_ZN3TCB10setAtomH20Ev
 3206              	_ZN3TCB10setAtomH20Ev:
 3207              	.LFB83:
 599:src/tcb.cpp   ****     hydroSem = new Semaphore_k(2);
 3208              		.loc 1 599 24 is_stmt 1
 3209              		.cfi_startproc
 3210 1538 130101FE 		addi	sp,sp,-32
 3211              		.cfi_def_cfa_offset 32
 3212 153c 233C1100 		sd	ra,24(sp)
 3213 1540 23388100 		sd	s0,16(sp)
 3214 1544 23349100 		sd	s1,8(sp)
 3215 1548 23302101 		sd	s2,0(sp)
 3216              		.cfi_offset 1, -8
 3217              		.cfi_offset 8, -16
 3218              		.cfi_offset 9, -24
 3219              		.cfi_offset 18, -32
 3220 154c 13040102 		addi	s0,sp,32
 3221              		.cfi_def_cfa 8, 0
 600:src/tcb.cpp   ****     oxySem = new Semaphore_k(1);
 3222              		.loc 1 600 5
 3223              	.LVL326:
 3224              	.LBB446:
 3225              	.LBB447:
  26:src/../h/Semaphore_k.hpp ****     }
 3226              		.loc 5 26 9
  26:src/../h/Semaphore_k.hpp ****     }
 3227              		.loc 5 26 42 is_stmt 0
 3228 1550 13058001 		li	a0,24
 3229 1554 97000000 		call	_ZN15memoryAllocator9mem_allocEm@plt
 3229      E7800000 
 3230              	.LVL327:
 3231              	.LBE447:
 3232              	.LBE446:
 3233              	.LBB448:
 3234              	.LBB449:
 3235              		.loc 5 39 60
 3236 155c 23000500 		sb	zero,0(a0)
 3237 1560 93072000 		li	a5,2
 3238 1564 2322F500 		sw	a5,4(a0)
 3239              	.LVL328:
 3240              	.LBB450:
GAS LISTING /tmp/ccg8jNLS.s 			page 95


 3241              	.LBB451:
  26:src/../h/List.hpp **** 
 3242              		.loc 2 26 30
 3243 1568 23340500 		sd	zero,8(a0)
 3244 156c 23380500 		sd	zero,16(a0)
 3245              	.LVL329:
 3246              	.LBE451:
 3247              	.LBE450:
 3248              	.LBE449:
 3249              	.LBE448:
 600:src/tcb.cpp   ****     oxySem = new Semaphore_k(1);
 3250              		.loc 1 600 14
 3251 1570 97040000 		lla	s1,.LANCHOR0
 3251      93840400 
 3252 1578 23B4A41A 		sd	a0,424(s1)
 601:src/tcb.cpp   ****     door1 = new Semaphore_k(1);
 3253              		.loc 1 601 5 is_stmt 1
 3254              	.LVL330:
 3255              	.LBB452:
 3256              	.LBB453:
  26:src/../h/Semaphore_k.hpp ****     }
 3257              		.loc 5 26 9
  26:src/../h/Semaphore_k.hpp ****     }
 3258              		.loc 5 26 42 is_stmt 0
 3259 157c 13058001 		li	a0,24
 3260 1580 97000000 		call	_ZN15memoryAllocator9mem_allocEm@plt
 3260      E7800000 
 3261              	.LVL331:
 3262              	.LBE453:
 3263              	.LBE452:
 3264              	.LBB454:
 3265              	.LBB455:
 3266              		.loc 5 39 60
 3267 1588 23000500 		sb	zero,0(a0)
 3268 158c 13091000 		li	s2,1
 3269 1590 23222501 		sw	s2,4(a0)
 3270              	.LVL332:
 3271              	.LBB456:
 3272              	.LBB457:
  26:src/../h/List.hpp **** 
 3273              		.loc 2 26 30
 3274 1594 23340500 		sd	zero,8(a0)
 3275 1598 23380500 		sd	zero,16(a0)
 3276              	.LVL333:
 3277              	.LBE457:
 3278              	.LBE456:
 3279              	.LBE455:
 3280              	.LBE454:
 601:src/tcb.cpp   ****     door1 = new Semaphore_k(1);
 3281              		.loc 1 601 12
 3282 159c 23B8A41A 		sd	a0,432(s1)
 602:src/tcb.cpp   ****     door2 = new Semaphore_k(0);
 3283              		.loc 1 602 5 is_stmt 1
 3284              	.LVL334:
 3285              	.LBB458:
 3286              	.LBB459:
  26:src/../h/Semaphore_k.hpp ****     }
GAS LISTING /tmp/ccg8jNLS.s 			page 96


 3287              		.loc 5 26 9
  26:src/../h/Semaphore_k.hpp ****     }
 3288              		.loc 5 26 42 is_stmt 0
 3289 15a0 13058001 		li	a0,24
 3290 15a4 97000000 		call	_ZN15memoryAllocator9mem_allocEm@plt
 3290      E7800000 
 3291              	.LVL335:
 3292              	.LBE459:
 3293              	.LBE458:
 3294              	.LBB460:
 3295              	.LBB461:
 3296              		.loc 5 39 60
 3297 15ac 23000500 		sb	zero,0(a0)
 3298 15b0 23222501 		sw	s2,4(a0)
 3299              	.LVL336:
 3300              	.LBB462:
 3301              	.LBB463:
  26:src/../h/List.hpp **** 
 3302              		.loc 2 26 30
 3303 15b4 23340500 		sd	zero,8(a0)
 3304 15b8 23380500 		sd	zero,16(a0)
 3305              	.LVL337:
 3306              	.LBE463:
 3307              	.LBE462:
 3308              	.LBE461:
 3309              	.LBE460:
 602:src/tcb.cpp   ****     door2 = new Semaphore_k(0);
 3310              		.loc 1 602 11
 3311 15bc 23B4A418 		sd	a0,392(s1)
 603:src/tcb.cpp   ****     molecule = new Molecule;
 3312              		.loc 1 603 5 is_stmt 1
 3313              	.LVL338:
 3314              	.LBB464:
 3315              	.LBB465:
  26:src/../h/Semaphore_k.hpp ****     }
 3316              		.loc 5 26 9
  26:src/../h/Semaphore_k.hpp ****     }
 3317              		.loc 5 26 42 is_stmt 0
 3318 15c0 13058001 		li	a0,24
 3319 15c4 97000000 		call	_ZN15memoryAllocator9mem_allocEm@plt
 3319      E7800000 
 3320              	.LVL339:
 3321              	.LBE465:
 3322              	.LBE464:
 3323              	.LBB466:
 3324              	.LBB467:
 3325              		.loc 5 39 60
 3326 15cc 23000500 		sb	zero,0(a0)
 3327 15d0 23220500 		sw	zero,4(a0)
 3328              	.LVL340:
 3329              	.LBB468:
 3330              	.LBB469:
  26:src/../h/List.hpp **** 
 3331              		.loc 2 26 30
 3332 15d4 23340500 		sd	zero,8(a0)
 3333 15d8 23380500 		sd	zero,16(a0)
 3334              	.LVL341:
GAS LISTING /tmp/ccg8jNLS.s 			page 97


 3335              	.LBE469:
 3336              	.LBE468:
 3337              	.LBE467:
 3338              	.LBE466:
 603:src/tcb.cpp   ****     molecule = new Molecule;
 3339              		.loc 1 603 11
 3340 15dc 23B0A41A 		sd	a0,416(s1)
 604:src/tcb.cpp   ****     molecule->ids = new int[3];
 3341              		.loc 1 604 5 is_stmt 1
 604:src/tcb.cpp   ****     molecule->ids = new int[3];
 3342              		.loc 1 604 20 is_stmt 0
 3343 15e0 13050001 		li	a0,16
 3344 15e4 97000000 		call	_Znwm@plt
 3344      E7800000 
 3345              	.LVL342:
 3346 15ec 13090500 		mv	s2,a0
 604:src/tcb.cpp   ****     molecule->ids = new int[3];
 3347              		.loc 1 604 14
 3348 15f0 23B8A418 		sd	a0,400(s1)
 605:src/tcb.cpp   ****     molecule->type = new const char * [3];
 3349              		.loc 1 605 5 is_stmt 1
 605:src/tcb.cpp   ****     molecule->type = new const char * [3];
 3350              		.loc 1 605 30 is_stmt 0
 3351 15f4 1305C000 		li	a0,12
 3352 15f8 97000000 		call	_Znam@plt
 3352      E7800000 
 3353              	.LVL343:
 605:src/tcb.cpp   ****     molecule->type = new const char * [3];
 3354              		.loc 1 605 19
 3355 1600 2330A900 		sd	a0,0(s2)
 606:src/tcb.cpp   **** }
 3356              		.loc 1 606 5 is_stmt 1
 606:src/tcb.cpp   **** }
 3357              		.loc 1 606 15 is_stmt 0
 3358 1604 83B40419 		ld	s1,400(s1)
 606:src/tcb.cpp   **** }
 3359              		.loc 1 606 41
 3360 1608 13058001 		li	a0,24
 3361 160c 97000000 		call	_Znam@plt
 3361      E7800000 
 3362              	.LVL344:
 606:src/tcb.cpp   **** }
 3363              		.loc 1 606 20
 3364 1614 23B4A400 		sd	a0,8(s1)
 607:src/tcb.cpp   **** 
 3365              		.loc 1 607 1
 3366 1618 83308101 		ld	ra,24(sp)
 3367              		.cfi_restore 1
 3368 161c 03340101 		ld	s0,16(sp)
 3369              		.cfi_restore 8
 3370              		.cfi_def_cfa 2, 32
 3371 1620 83348100 		ld	s1,8(sp)
 3372              		.cfi_restore 9
 3373 1624 03390100 		ld	s2,0(sp)
 3374              		.cfi_restore 18
 3375 1628 13010102 		addi	sp,sp,32
 3376              		.cfi_def_cfa_offset 0
GAS LISTING /tmp/ccg8jNLS.s 			page 98


 3377 162c 67800000 		jr	ra
 3378              		.cfi_endproc
 3379              	.LFE83:
 3381              		.section	.rodata.str1.8
 3382 01fc 00000000 		.align	3
 3383              	.LC20:
 3384 0200 4F00     		.string	"O"
 3385 0202 00000000 		.align	3
 3385      0000
 3386              	.LC21:
 3387 0208 2D00     		.string	"-"
 3388              		.text
 3389              		.align	2
 3390              		.globl	_ZN3TCB6oxygenEj
 3392              	_ZN3TCB6oxygenEj:
 3393              	.LFB80:
 530:src/tcb.cpp   ****     if(!fsH20){
 3394              		.loc 1 530 35 is_stmt 1
 3395              		.cfi_startproc
 3396              	.LVL345:
 3397 1630 130101FD 		addi	sp,sp,-48
 3398              		.cfi_def_cfa_offset 48
 3399 1634 23341102 		sd	ra,40(sp)
 3400 1638 23308102 		sd	s0,32(sp)
 3401 163c 233C9100 		sd	s1,24(sp)
 3402              		.cfi_offset 1, -8
 3403              		.cfi_offset 8, -16
 3404              		.cfi_offset 9, -24
 3405 1640 13040103 		addi	s0,sp,48
 3406              		.cfi_def_cfa 8, 0
 3407 1644 93040500 		mv	s1,a0
 531:src/tcb.cpp   ****         setAtomH20();
 3408              		.loc 1 531 5
 531:src/tcb.cpp   ****         setAtomH20();
 3409              		.loc 1 531 8 is_stmt 0
 3410 1648 97070000 		lbu	a5,.LANCHOR0+440
 3410      83C70700 
 531:src/tcb.cpp   ****         setAtomH20();
 3411              		.loc 1 531 5
 3412 1650 63800714 		beqz	a5,.L160
 3413              	.LVL346:
 3414              	.L158:
 535:src/tcb.cpp   ****     auto * molekul= new Molecule ;
 3415              		.loc 1 535 5 is_stmt 1
 535:src/tcb.cpp   ****     auto * molekul= new Molecule ;
 3416              		.loc 1 535 17 is_stmt 0
 3417 1654 17050000 		ld	a0,.LANCHOR0+432
 3417      03350500 
 3418 165c 97000000 		call	_ZN11Semaphore_k4waitEv@plt
 3418      E7800000 
 3419              	.LVL347:
 536:src/tcb.cpp   ****     barrier(id,&molekul,"O");
 3420              		.loc 1 536 5 is_stmt 1
 536:src/tcb.cpp   ****     barrier(id,&molekul,"O");
 3421              		.loc 1 536 25 is_stmt 0
 3422 1664 13050001 		li	a0,16
 3423 1668 97000000 		call	_Znwm@plt
GAS LISTING /tmp/ccg8jNLS.s 			page 99


 3423      E7800000 
 3424              	.LVL348:
 3425 1670 233CA4FC 		sd	a0,-40(s0)
 537:src/tcb.cpp   ****     printInt(molekul->ids[0]);
 3426              		.loc 1 537 5 is_stmt 1
 537:src/tcb.cpp   ****     printInt(molekul->ids[0]);
 3427              		.loc 1 537 12 is_stmt 0
 3428 1674 17060000 		lla	a2,.LC20
 3428      13060600 
 3429 167c 930584FD 		addi	a1,s0,-40
 3430 1680 13850400 		mv	a0,s1
 3431 1684 97000000 		call	_ZN3TCB7barrierEjPP8MoleculePKc
 3431      E7800000 
 3432              	.LVL349:
 538:src/tcb.cpp   ****     printString("-");
 3433              		.loc 1 538 5 is_stmt 1
 538:src/tcb.cpp   ****     printString("-");
 3434              		.loc 1 538 28 is_stmt 0
 3435 168c 833784FD 		ld	a5,-40(s0)
 538:src/tcb.cpp   ****     printString("-");
 3436              		.loc 1 538 23
 3437 1690 83B70700 		ld	a5,0(a5)
 538:src/tcb.cpp   ****     printString("-");
 3438              		.loc 1 538 13
 3439 1694 13060000 		li	a2,0
 3440 1698 9305A000 		li	a1,10
 3441 169c 03A50700 		lw	a0,0(a5)
 3442 16a0 97000000 		call	_Z8printIntiii@plt
 3442      E7800000 
 3443              	.LVL350:
 539:src/tcb.cpp   ****     printInt(molekul->ids[1]);
 3444              		.loc 1 539 5 is_stmt 1
 539:src/tcb.cpp   ****     printInt(molekul->ids[1]);
 3445              		.loc 1 539 16 is_stmt 0
 3446 16a8 17050000 		lla	a0,.LC21
 3446      13050500 
 3447 16b0 97000000 		call	_Z11printStringPKc@plt
 3447      E7800000 
 3448              	.LVL351:
 540:src/tcb.cpp   ****     printString("-");
 3449              		.loc 1 540 5 is_stmt 1
 540:src/tcb.cpp   ****     printString("-");
 3450              		.loc 1 540 23 is_stmt 0
 3451 16b8 833784FD 		ld	a5,-40(s0)
 3452 16bc 83B70700 		ld	a5,0(a5)
 540:src/tcb.cpp   ****     printString("-");
 3453              		.loc 1 540 13
 3454 16c0 13060000 		li	a2,0
 3455 16c4 9305A000 		li	a1,10
 3456 16c8 03A54700 		lw	a0,4(a5)
 3457 16cc 97000000 		call	_Z8printIntiii@plt
 3457      E7800000 
 3458              	.LVL352:
 541:src/tcb.cpp   ****     printInt(molekul->ids[2]);
 3459              		.loc 1 541 5 is_stmt 1
 541:src/tcb.cpp   ****     printInt(molekul->ids[2]);
 3460              		.loc 1 541 16 is_stmt 0
GAS LISTING /tmp/ccg8jNLS.s 			page 100


 3461 16d4 17050000 		lla	a0,.LC21
 3461      13050500 
 3462 16dc 97000000 		call	_Z11printStringPKc@plt
 3462      E7800000 
 3463              	.LVL353:
 542:src/tcb.cpp   ****     printString("\n");
 3464              		.loc 1 542 5 is_stmt 1
 542:src/tcb.cpp   ****     printString("\n");
 3465              		.loc 1 542 23 is_stmt 0
 3466 16e4 833784FD 		ld	a5,-40(s0)
 3467 16e8 83B70700 		ld	a5,0(a5)
 542:src/tcb.cpp   ****     printString("\n");
 3468              		.loc 1 542 13
 3469 16ec 13060000 		li	a2,0
 3470 16f0 9305A000 		li	a1,10
 3471 16f4 03A58700 		lw	a0,8(a5)
 3472 16f8 97000000 		call	_Z8printIntiii@plt
 3472      E7800000 
 3473              	.LVL354:
 543:src/tcb.cpp   ****     printString(molekul->type[0]);
 3474              		.loc 1 543 5 is_stmt 1
 543:src/tcb.cpp   ****     printString(molekul->type[0]);
 3475              		.loc 1 543 16 is_stmt 0
 3476 1700 17050000 		lla	a0,.LC1
 3476      13050500 
 3477 1708 97000000 		call	_Z11printStringPKc@plt
 3477      E7800000 
 3478              	.LVL355:
 544:src/tcb.cpp   ****     printString("-");
 3479              		.loc 1 544 5 is_stmt 1
 544:src/tcb.cpp   ****     printString("-");
 3480              		.loc 1 544 32 is_stmt 0
 3481 1710 833784FD 		ld	a5,-40(s0)
 544:src/tcb.cpp   ****     printString("-");
 3482              		.loc 1 544 26
 3483 1714 83B78700 		ld	a5,8(a5)
 544:src/tcb.cpp   ****     printString("-");
 3484              		.loc 1 544 16
 3485 1718 03B50700 		ld	a0,0(a5)
 3486 171c 97000000 		call	_Z11printStringPKc@plt
 3486      E7800000 
 3487              	.LVL356:
 545:src/tcb.cpp   ****     printString(molekul->type[1]);
 3488              		.loc 1 545 5 is_stmt 1
 545:src/tcb.cpp   ****     printString(molekul->type[1]);
 3489              		.loc 1 545 16 is_stmt 0
 3490 1724 17050000 		lla	a0,.LC21
 3490      13050500 
 3491 172c 97000000 		call	_Z11printStringPKc@plt
 3491      E7800000 
 3492              	.LVL357:
 546:src/tcb.cpp   ****     printString("-");
 3493              		.loc 1 546 5 is_stmt 1
 546:src/tcb.cpp   ****     printString("-");
 3494              		.loc 1 546 26 is_stmt 0
 3495 1734 833784FD 		ld	a5,-40(s0)
 3496 1738 83B78700 		ld	a5,8(a5)
GAS LISTING /tmp/ccg8jNLS.s 			page 101


 546:src/tcb.cpp   ****     printString("-");
 3497              		.loc 1 546 16
 3498 173c 03B58700 		ld	a0,8(a5)
 3499 1740 97000000 		call	_Z11printStringPKc@plt
 3499      E7800000 
 3500              	.LVL358:
 547:src/tcb.cpp   ****     printString(molekul->type[2]);
 3501              		.loc 1 547 5 is_stmt 1
 547:src/tcb.cpp   ****     printString(molekul->type[2]);
 3502              		.loc 1 547 16 is_stmt 0
 3503 1748 17050000 		lla	a0,.LC21
 3503      13050500 
 3504 1750 97000000 		call	_Z11printStringPKc@plt
 3504      E7800000 
 3505              	.LVL359:
 548:src/tcb.cpp   ****     printString("\n");
 3506              		.loc 1 548 5 is_stmt 1
 548:src/tcb.cpp   ****     printString("\n");
 3507              		.loc 1 548 26 is_stmt 0
 3508 1758 833784FD 		ld	a5,-40(s0)
 3509 175c 83B78700 		ld	a5,8(a5)
 548:src/tcb.cpp   ****     printString("\n");
 3510              		.loc 1 548 16
 3511 1760 03B50701 		ld	a0,16(a5)
 3512 1764 97000000 		call	_Z11printStringPKc@plt
 3512      E7800000 
 3513              	.LVL360:
 549:src/tcb.cpp   **** 
 3514              		.loc 1 549 5 is_stmt 1
 549:src/tcb.cpp   **** 
 3515              		.loc 1 549 16 is_stmt 0
 3516 176c 17050000 		lla	a0,.LC1
 3516      13050500 
 3517 1774 97000000 		call	_Z11printStringPKc@plt
 3517      E7800000 
 3518              	.LVL361:
 551:src/tcb.cpp   **** 
 3519              		.loc 1 551 1
 3520 177c 83308102 		ld	ra,40(sp)
 3521              		.cfi_remember_state
 3522              		.cfi_restore 1
 3523 1780 03340102 		ld	s0,32(sp)
 3524              		.cfi_restore 8
 3525              		.cfi_def_cfa 2, 48
 3526 1784 83348101 		ld	s1,24(sp)
 3527              		.cfi_restore 9
 3528 1788 13010103 		addi	sp,sp,48
 3529              		.cfi_def_cfa_offset 0
 3530 178c 67800000 		jr	ra
 3531              	.LVL362:
 3532              	.L160:
 3533              		.cfi_restore_state
 532:src/tcb.cpp   ****         fsH20=true;
 3534              		.loc 1 532 9 is_stmt 1
 532:src/tcb.cpp   ****         fsH20=true;
 3535              		.loc 1 532 19 is_stmt 0
 3536 1790 97000000 		call	_ZN3TCB10setAtomH20Ev
GAS LISTING /tmp/ccg8jNLS.s 			page 102


 3536      E7800000 
 3537              	.LVL363:
 533:src/tcb.cpp   ****     }
 3538              		.loc 1 533 9 is_stmt 1
 533:src/tcb.cpp   ****     }
 3539              		.loc 1 533 14 is_stmt 0
 3540 1798 93071000 		li	a5,1
 3541 179c 17070000 		sb	a5,.LANCHOR0+440,a4
 3541      2300F700 
 3542 17a4 6FF01FEB 		j	.L158
 3543              		.cfi_endproc
 3544              	.LFE80:
 3546              		.section	.rodata.str1.8
 3547 020a 00000000 		.align	3
 3547      0000
 3548              	.LC22:
 3549 0210 4800     		.string	"H"
 3550              		.text
 3551              		.align	2
 3552              		.globl	_ZN3TCB8hydrogenEj
 3554              	_ZN3TCB8hydrogenEj:
 3555              	.LFB81:
 553:src/tcb.cpp   ****     if(!fsH20){
 3556              		.loc 1 553 37 is_stmt 1
 3557              		.cfi_startproc
 3558              	.LVL364:
 3559 17a8 130101FD 		addi	sp,sp,-48
 3560              		.cfi_def_cfa_offset 48
 3561 17ac 23341102 		sd	ra,40(sp)
 3562 17b0 23308102 		sd	s0,32(sp)
 3563 17b4 233C9100 		sd	s1,24(sp)
 3564              		.cfi_offset 1, -8
 3565              		.cfi_offset 8, -16
 3566              		.cfi_offset 9, -24
 3567 17b8 13040103 		addi	s0,sp,48
 3568              		.cfi_def_cfa 8, 0
 3569 17bc 93040500 		mv	s1,a0
 554:src/tcb.cpp   ****         setAtomH20();
 3570              		.loc 1 554 5
 554:src/tcb.cpp   ****         setAtomH20();
 3571              		.loc 1 554 8 is_stmt 0
 3572 17c0 97070000 		lbu	a5,.LANCHOR0+440
 3572      83C70700 
 554:src/tcb.cpp   ****         setAtomH20();
 3573              		.loc 1 554 5
 3574 17c8 63800714 		beqz	a5,.L164
 3575              	.LVL365:
 3576              	.L162:
 558:src/tcb.cpp   **** 
 3577              		.loc 1 558 5 is_stmt 1
 558:src/tcb.cpp   **** 
 3578              		.loc 1 558 19 is_stmt 0
 3579 17cc 17050000 		ld	a0,.LANCHOR0+424
 3579      03350500 
 3580 17d4 97000000 		call	_ZN11Semaphore_k4waitEv@plt
 3580      E7800000 
 3581              	.LVL366:
GAS LISTING /tmp/ccg8jNLS.s 			page 103


 560:src/tcb.cpp   ****     barrier(id,&molekul,"H");
 3582              		.loc 1 560 5 is_stmt 1
 560:src/tcb.cpp   ****     barrier(id,&molekul,"H");
 3583              		.loc 1 560 25 is_stmt 0
 3584 17dc 13050001 		li	a0,16
 3585 17e0 97000000 		call	_Znwm@plt
 3585      E7800000 
 3586              	.LVL367:
 3587 17e8 233CA4FC 		sd	a0,-40(s0)
 561:src/tcb.cpp   ****     printInt(molekul->ids[0]);
 3588              		.loc 1 561 5 is_stmt 1
 561:src/tcb.cpp   ****     printInt(molekul->ids[0]);
 3589              		.loc 1 561 12 is_stmt 0
 3590 17ec 17060000 		lla	a2,.LC22
 3590      13060600 
 3591 17f4 930584FD 		addi	a1,s0,-40
 3592 17f8 13850400 		mv	a0,s1
 3593 17fc 97000000 		call	_ZN3TCB7barrierEjPP8MoleculePKc
 3593      E7800000 
 3594              	.LVL368:
 562:src/tcb.cpp   ****     printString("-");
 3595              		.loc 1 562 5 is_stmt 1
 562:src/tcb.cpp   ****     printString("-");
 3596              		.loc 1 562 28 is_stmt 0
 3597 1804 833784FD 		ld	a5,-40(s0)
 562:src/tcb.cpp   ****     printString("-");
 3598              		.loc 1 562 23
 3599 1808 83B70700 		ld	a5,0(a5)
 562:src/tcb.cpp   ****     printString("-");
 3600              		.loc 1 562 13
 3601 180c 13060000 		li	a2,0
 3602 1810 9305A000 		li	a1,10
 3603 1814 03A50700 		lw	a0,0(a5)
 3604 1818 97000000 		call	_Z8printIntiii@plt
 3604      E7800000 
 3605              	.LVL369:
 563:src/tcb.cpp   ****     printInt(molekul->ids[1]);
 3606              		.loc 1 563 5 is_stmt 1
 563:src/tcb.cpp   ****     printInt(molekul->ids[1]);
 3607              		.loc 1 563 16 is_stmt 0
 3608 1820 17050000 		lla	a0,.LC21
 3608      13050500 
 3609 1828 97000000 		call	_Z11printStringPKc@plt
 3609      E7800000 
 3610              	.LVL370:
 564:src/tcb.cpp   ****     printString("-");
 3611              		.loc 1 564 5 is_stmt 1
 564:src/tcb.cpp   ****     printString("-");
 3612              		.loc 1 564 23 is_stmt 0
 3613 1830 833784FD 		ld	a5,-40(s0)
 3614 1834 83B70700 		ld	a5,0(a5)
 564:src/tcb.cpp   ****     printString("-");
 3615              		.loc 1 564 13
 3616 1838 13060000 		li	a2,0
 3617 183c 9305A000 		li	a1,10
 3618 1840 03A54700 		lw	a0,4(a5)
 3619 1844 97000000 		call	_Z8printIntiii@plt
GAS LISTING /tmp/ccg8jNLS.s 			page 104


 3619      E7800000 
 3620              	.LVL371:
 565:src/tcb.cpp   ****     printInt(molekul->ids[2]);
 3621              		.loc 1 565 5 is_stmt 1
 565:src/tcb.cpp   ****     printInt(molekul->ids[2]);
 3622              		.loc 1 565 16 is_stmt 0
 3623 184c 17050000 		lla	a0,.LC21
 3623      13050500 
 3624 1854 97000000 		call	_Z11printStringPKc@plt
 3624      E7800000 
 3625              	.LVL372:
 566:src/tcb.cpp   ****     printString("\n");
 3626              		.loc 1 566 5 is_stmt 1
 566:src/tcb.cpp   ****     printString("\n");
 3627              		.loc 1 566 23 is_stmt 0
 3628 185c 833784FD 		ld	a5,-40(s0)
 3629 1860 83B70700 		ld	a5,0(a5)
 566:src/tcb.cpp   ****     printString("\n");
 3630              		.loc 1 566 13
 3631 1864 13060000 		li	a2,0
 3632 1868 9305A000 		li	a1,10
 3633 186c 03A58700 		lw	a0,8(a5)
 3634 1870 97000000 		call	_Z8printIntiii@plt
 3634      E7800000 
 3635              	.LVL373:
 567:src/tcb.cpp   ****     printString(molekul->type[0]);
 3636              		.loc 1 567 5 is_stmt 1
 567:src/tcb.cpp   ****     printString(molekul->type[0]);
 3637              		.loc 1 567 16 is_stmt 0
 3638 1878 17050000 		lla	a0,.LC1
 3638      13050500 
 3639 1880 97000000 		call	_Z11printStringPKc@plt
 3639      E7800000 
 3640              	.LVL374:
 568:src/tcb.cpp   ****     printString("-");
 3641              		.loc 1 568 5 is_stmt 1
 568:src/tcb.cpp   ****     printString("-");
 3642              		.loc 1 568 32 is_stmt 0
 3643 1888 833784FD 		ld	a5,-40(s0)
 568:src/tcb.cpp   ****     printString("-");
 3644              		.loc 1 568 26
 3645 188c 83B78700 		ld	a5,8(a5)
 568:src/tcb.cpp   ****     printString("-");
 3646              		.loc 1 568 16
 3647 1890 03B50700 		ld	a0,0(a5)
 3648 1894 97000000 		call	_Z11printStringPKc@plt
 3648      E7800000 
 3649              	.LVL375:
 569:src/tcb.cpp   ****     printString(molekul->type[1]);
 3650              		.loc 1 569 5 is_stmt 1
 569:src/tcb.cpp   ****     printString(molekul->type[1]);
 3651              		.loc 1 569 16 is_stmt 0
 3652 189c 17050000 		lla	a0,.LC21
 3652      13050500 
 3653 18a4 97000000 		call	_Z11printStringPKc@plt
 3653      E7800000 
 3654              	.LVL376:
GAS LISTING /tmp/ccg8jNLS.s 			page 105


 570:src/tcb.cpp   ****     printString("-");
 3655              		.loc 1 570 5 is_stmt 1
 570:src/tcb.cpp   ****     printString("-");
 3656              		.loc 1 570 26 is_stmt 0
 3657 18ac 833784FD 		ld	a5,-40(s0)
 3658 18b0 83B78700 		ld	a5,8(a5)
 570:src/tcb.cpp   ****     printString("-");
 3659              		.loc 1 570 16
 3660 18b4 03B58700 		ld	a0,8(a5)
 3661 18b8 97000000 		call	_Z11printStringPKc@plt
 3661      E7800000 
 3662              	.LVL377:
 571:src/tcb.cpp   ****     printString(molekul->type[2]);
 3663              		.loc 1 571 5 is_stmt 1
 571:src/tcb.cpp   ****     printString(molekul->type[2]);
 3664              		.loc 1 571 16 is_stmt 0
 3665 18c0 17050000 		lla	a0,.LC21
 3665      13050500 
 3666 18c8 97000000 		call	_Z11printStringPKc@plt
 3666      E7800000 
 3667              	.LVL378:
 572:src/tcb.cpp   ****     printString("\n");
 3668              		.loc 1 572 5 is_stmt 1
 572:src/tcb.cpp   ****     printString("\n");
 3669              		.loc 1 572 26 is_stmt 0
 3670 18d0 833784FD 		ld	a5,-40(s0)
 3671 18d4 83B78700 		ld	a5,8(a5)
 572:src/tcb.cpp   ****     printString("\n");
 3672              		.loc 1 572 16
 3673 18d8 03B50701 		ld	a0,16(a5)
 3674 18dc 97000000 		call	_Z11printStringPKc@plt
 3674      E7800000 
 3675              	.LVL379:
 573:src/tcb.cpp   **** 
 3676              		.loc 1 573 5 is_stmt 1
 573:src/tcb.cpp   **** 
 3677              		.loc 1 573 16 is_stmt 0
 3678 18e4 17050000 		lla	a0,.LC1
 3678      13050500 
 3679 18ec 97000000 		call	_Z11printStringPKc@plt
 3679      E7800000 
 3680              	.LVL380:
 575:src/tcb.cpp   **** void TCB::barrier(unsigned int id, Molecule** molekul,const char* element) {
 3681              		.loc 1 575 1
 3682 18f4 83308102 		ld	ra,40(sp)
 3683              		.cfi_remember_state
 3684              		.cfi_restore 1
 3685 18f8 03340102 		ld	s0,32(sp)
 3686              		.cfi_restore 8
 3687              		.cfi_def_cfa 2, 48
 3688 18fc 83348101 		ld	s1,24(sp)
 3689              		.cfi_restore 9
 3690 1900 13010103 		addi	sp,sp,48
 3691              		.cfi_def_cfa_offset 0
 3692 1904 67800000 		jr	ra
 3693              	.LVL381:
 3694              	.L164:
GAS LISTING /tmp/ccg8jNLS.s 			page 106


 3695              		.cfi_restore_state
 555:src/tcb.cpp   ****         fsH20=true;
 3696              		.loc 1 555 9 is_stmt 1
 555:src/tcb.cpp   ****         fsH20=true;
 3697              		.loc 1 555 19 is_stmt 0
 3698 1908 97000000 		call	_ZN3TCB10setAtomH20Ev
 3698      E7800000 
 3699              	.LVL382:
 556:src/tcb.cpp   ****     }
 3700              		.loc 1 556 9 is_stmt 1
 556:src/tcb.cpp   ****     }
 3701              		.loc 1 556 14 is_stmt 0
 3702 1910 93071000 		li	a5,1
 3703 1914 17070000 		sb	a5,.LANCHOR0+440,a4
 3703      2300F700 
 3704 191c 6FF01FEB 		j	.L162
 3705              		.cfi_endproc
 3706              	.LFE81:
 3708              		.align	2
 3709              		.globl	_ZN3TCB16setDiningSavagesEv
 3711              	_ZN3TCB16setDiningSavagesEv:
 3712              	.LFB86:
 634:src/tcb.cpp   ****     if(!fsDiningSavage){
 3713              		.loc 1 634 30 is_stmt 1
 3714              		.cfi_startproc
 635:src/tcb.cpp   ****         fsDiningSavage=true;
 3715              		.loc 1 635 5
 635:src/tcb.cpp   ****         fsDiningSavage=true;
 3716              		.loc 1 635 8 is_stmt 0
 3717 1920 97070000 		lbu	a5,.LANCHOR0+441
 3717      83C70700 
 635:src/tcb.cpp   ****         fsDiningSavage=true;
 3718              		.loc 1 635 5
 3719 1928 63840700 		beqz	a5,.L171
 3720 192c 67800000 		ret
 3721              	.L171:
 634:src/tcb.cpp   ****     if(!fsDiningSavage){
 3722              		.loc 1 634 30
 3723 1930 130101FE 		addi	sp,sp,-32
 3724              		.cfi_def_cfa_offset 32
 3725 1934 233C1100 		sd	ra,24(sp)
 3726 1938 23388100 		sd	s0,16(sp)
 3727 193c 23349100 		sd	s1,8(sp)
 3728              		.cfi_offset 1, -8
 3729              		.cfi_offset 8, -16
 3730              		.cfi_offset 9, -24
 3731 1940 13040102 		addi	s0,sp,32
 3732              		.cfi_def_cfa 8, 0
 636:src/tcb.cpp   ****         mutex = new Semaphore_k(1);
 3733              		.loc 1 636 9 is_stmt 1
 636:src/tcb.cpp   ****         mutex = new Semaphore_k(1);
 3734              		.loc 1 636 23 is_stmt 0
 3735 1944 97040000 		lla	s1,.LANCHOR0
 3735      93840400 
 3736 194c 93071000 		li	a5,1
 3737 1950 A38CF41A 		sb	a5,441(s1)
 637:src/tcb.cpp   ****         semSavage = new Semaphore_k(0);
GAS LISTING /tmp/ccg8jNLS.s 			page 107


 3738              		.loc 1 637 9 is_stmt 1
 3739              	.LVL383:
 3740              	.LBB470:
 3741              	.LBB471:
  26:src/../h/Semaphore_k.hpp ****     }
 3742              		.loc 5 26 9
  26:src/../h/Semaphore_k.hpp ****     }
 3743              		.loc 5 26 42 is_stmt 0
 3744 1954 13058001 		li	a0,24
 3745 1958 97000000 		call	_ZN15memoryAllocator9mem_allocEm@plt
 3745      E7800000 
 3746              	.LVL384:
 3747              	.LBE471:
 3748              	.LBE470:
 3749              	.LBB472:
 3750              	.LBB473:
 3751              		.loc 5 39 60
 3752 1960 23000500 		sb	zero,0(a0)
 3753 1964 93071000 		li	a5,1
 3754 1968 2322F500 		sw	a5,4(a0)
 3755              	.LVL385:
 3756              	.LBB474:
 3757              	.LBB475:
  26:src/../h/List.hpp **** 
 3758              		.loc 2 26 30
 3759 196c 23340500 		sd	zero,8(a0)
 3760 1970 23380500 		sd	zero,16(a0)
 3761              	.LVL386:
 3762              	.LBE475:
 3763              	.LBE474:
 3764              	.LBE473:
 3765              	.LBE472:
 637:src/tcb.cpp   ****         semSavage = new Semaphore_k(0);
 3766              		.loc 1 637 15
 3767 1974 23B0A41C 		sd	a0,448(s1)
 638:src/tcb.cpp   ****         semCook = new Semaphore_k(0);
 3768              		.loc 1 638 9 is_stmt 1
 3769              	.LVL387:
 3770              	.LBB476:
 3771              	.LBB477:
  26:src/../h/Semaphore_k.hpp ****     }
 3772              		.loc 5 26 9
  26:src/../h/Semaphore_k.hpp ****     }
 3773              		.loc 5 26 42 is_stmt 0
 3774 1978 13058001 		li	a0,24
 3775 197c 97000000 		call	_ZN15memoryAllocator9mem_allocEm@plt
 3775      E7800000 
 3776              	.LVL388:
 3777              	.LBE477:
 3778              	.LBE476:
 3779              	.LBB478:
 3780              	.LBB479:
 3781              		.loc 5 39 60
 3782 1984 23000500 		sb	zero,0(a0)
 3783 1988 23220500 		sw	zero,4(a0)
 3784              	.LVL389:
 3785              	.LBB480:
GAS LISTING /tmp/ccg8jNLS.s 			page 108


 3786              	.LBB481:
  26:src/../h/List.hpp **** 
 3787              		.loc 2 26 30
 3788 198c 23340500 		sd	zero,8(a0)
 3789 1990 23380500 		sd	zero,16(a0)
 3790              	.LVL390:
 3791              	.LBE481:
 3792              	.LBE480:
 3793              	.LBE479:
 3794              	.LBE478:
 638:src/tcb.cpp   ****         semCook = new Semaphore_k(0);
 3795              		.loc 1 638 19
 3796 1994 23B4A41C 		sd	a0,456(s1)
 639:src/tcb.cpp   ****     }
 3797              		.loc 1 639 9 is_stmt 1
 3798              	.LVL391:
 3799              	.LBB482:
 3800              	.LBB483:
  26:src/../h/Semaphore_k.hpp ****     }
 3801              		.loc 5 26 9
  26:src/../h/Semaphore_k.hpp ****     }
 3802              		.loc 5 26 42 is_stmt 0
 3803 1998 13058001 		li	a0,24
 3804 199c 97000000 		call	_ZN15memoryAllocator9mem_allocEm@plt
 3804      E7800000 
 3805              	.LVL392:
 3806              	.LBE483:
 3807              	.LBE482:
 3808              	.LBB484:
 3809              	.LBB485:
 3810              		.loc 5 39 60
 3811 19a4 23000500 		sb	zero,0(a0)
 3812 19a8 23220500 		sw	zero,4(a0)
 3813              	.LVL393:
 3814              	.LBB486:
 3815              	.LBB487:
  26:src/../h/List.hpp **** 
 3816              		.loc 2 26 30
 3817 19ac 23340500 		sd	zero,8(a0)
 3818 19b0 23380500 		sd	zero,16(a0)
 3819              	.LVL394:
 3820              	.LBE487:
 3821              	.LBE486:
 3822              	.LBE485:
 3823              	.LBE484:
 639:src/tcb.cpp   ****     }
 3824              		.loc 1 639 17
 3825 19b4 23B8A41C 		sd	a0,464(s1)
 642:src/tcb.cpp   **** 
 3826              		.loc 1 642 1
 3827 19b8 83308101 		ld	ra,24(sp)
 3828              		.cfi_restore 1
 3829 19bc 03340101 		ld	s0,16(sp)
 3830              		.cfi_restore 8
 3831              		.cfi_def_cfa 2, 32
 3832 19c0 83348100 		ld	s1,8(sp)
 3833              		.cfi_restore 9
GAS LISTING /tmp/ccg8jNLS.s 			page 109


 3834 19c4 13010102 		addi	sp,sp,32
 3835              		.cfi_def_cfa_offset 0
 3836 19c8 67800000 		jr	ra
 3837              		.cfi_endproc
 3838              	.LFE86:
 3840              		.section	.rodata.str1.8
 3841 0212 00000000 		.align	3
 3841      0000
 3842              	.LC23:
 3843 0218 44697620 		.string	"Div jede\n"
 3843      6A656465 
 3843      0A00
 3844              		.text
 3845              		.align	2
 3846              		.globl	_ZN3TCB6savageEi
 3848              	_ZN3TCB6savageEi:
 3849              	.LFB84:
 609:src/tcb.cpp   ****     setDiningSavages();
 3850              		.loc 1 609 26 is_stmt 1
 3851              		.cfi_startproc
 3852              	.LVL395:
 3853 19cc 130101FE 		addi	sp,sp,-32
 3854              		.cfi_def_cfa_offset 32
 3855 19d0 233C1100 		sd	ra,24(sp)
 3856 19d4 23388100 		sd	s0,16(sp)
 3857 19d8 23349100 		sd	s1,8(sp)
 3858              		.cfi_offset 1, -8
 3859              		.cfi_offset 8, -16
 3860              		.cfi_offset 9, -24
 3861 19dc 13040102 		addi	s0,sp,32
 3862              		.cfi_def_cfa 8, 0
 610:src/tcb.cpp   ****     mutex->wait();
 3863              		.loc 1 610 5
 610:src/tcb.cpp   ****     mutex->wait();
 3864              		.loc 1 610 21 is_stmt 0
 3865 19e0 97000000 		call	_ZN3TCB16setDiningSavagesEv
 3865      E7800000 
 3866              	.LVL396:
 611:src/tcb.cpp   ****     if(pot==0){
 3867              		.loc 1 611 5 is_stmt 1
 611:src/tcb.cpp   ****     if(pot==0){
 3868              		.loc 1 611 16 is_stmt 0
 3869 19e8 97040000 		lla	s1,.LANCHOR0
 3869      93840400 
 3870 19f0 03B5041C 		ld	a0,448(s1)
 3871 19f4 97000000 		call	_ZN11Semaphore_k4waitEv@plt
 3871      E7800000 
 3872              	.LVL397:
 612:src/tcb.cpp   ****         semCook->signal();
 3873              		.loc 1 612 5 is_stmt 1
 612:src/tcb.cpp   ****         semCook->signal();
 3874              		.loc 1 612 11 is_stmt 0
 3875 19fc 83A7841D 		lw	a5,472(s1)
 612:src/tcb.cpp   ****         semCook->signal();
 3876              		.loc 1 612 5
 3877 1a00 63840704 		beqz	a5,.L175
 3878              	.L173:
GAS LISTING /tmp/ccg8jNLS.s 			page 110


 617:src/tcb.cpp   ****     mutex->signal();
 3879              		.loc 1 617 5 is_stmt 1
 617:src/tcb.cpp   ****     mutex->signal();
 3880              		.loc 1 617 8 is_stmt 0
 3881 1a04 97070000 		lla	a5,.LANCHOR0
 3881      93870700 
 3882 1a0c 03A7871D 		lw	a4,472(a5)
 3883 1a10 1B07F7FF 		addiw	a4,a4,-1
 3884 1a14 23ACE71C 		sw	a4,472(a5)
 618:src/tcb.cpp   ****     //thread_dispatch();
 3885              		.loc 1 618 5 is_stmt 1
 618:src/tcb.cpp   ****     //thread_dispatch();
 3886              		.loc 1 618 18 is_stmt 0
 3887 1a18 03B5071C 		ld	a0,448(a5)
 3888 1a1c 97000000 		call	_ZN11Semaphore_k6signalEv@plt
 3888      E7800000 
 3889              	.LVL398:
 620:src/tcb.cpp   **** 
 3890              		.loc 1 620 5 is_stmt 1
 620:src/tcb.cpp   **** 
 3891              		.loc 1 620 16 is_stmt 0
 3892 1a24 17050000 		lla	a0,.LC23
 3892      13050500 
 3893 1a2c 97000000 		call	_Z11printStringPKc@plt
 3893      E7800000 
 3894              	.LVL399:
 622:src/tcb.cpp   **** 
 3895              		.loc 1 622 1
 3896 1a34 83308101 		ld	ra,24(sp)
 3897              		.cfi_remember_state
 3898              		.cfi_restore 1
 3899 1a38 03340101 		ld	s0,16(sp)
 3900              		.cfi_restore 8
 3901              		.cfi_def_cfa 2, 32
 3902 1a3c 83348100 		ld	s1,8(sp)
 3903              		.cfi_restore 9
 3904 1a40 13010102 		addi	sp,sp,32
 3905              		.cfi_def_cfa_offset 0
 3906 1a44 67800000 		jr	ra
 3907              	.L175:
 3908              		.cfi_restore_state
 613:src/tcb.cpp   ****         // thread_dispatch();
 3909              		.loc 1 613 9 is_stmt 1
 613:src/tcb.cpp   ****         // thread_dispatch();
 3910              		.loc 1 613 24 is_stmt 0
 3911 1a48 03B5041D 		ld	a0,464(s1)
 3912 1a4c 97000000 		call	_ZN11Semaphore_k6signalEv@plt
 3912      E7800000 
 3913              	.LVL400:
 615:src/tcb.cpp   ****     }
 3914              		.loc 1 615 9 is_stmt 1
 615:src/tcb.cpp   ****     }
 3915              		.loc 1 615 24 is_stmt 0
 3916 1a54 03B5841C 		ld	a0,456(s1)
 3917 1a58 97000000 		call	_ZN11Semaphore_k4waitEv@plt
 3917      E7800000 
 3918              	.LVL401:
GAS LISTING /tmp/ccg8jNLS.s 			page 111


 3919 1a60 6FF05FFA 		j	.L173
 3920              		.cfi_endproc
 3921              	.LFE84:
 3923              		.section	.rodata.str1.8
 3924 0222 00000000 		.align	3
 3924      0000
 3925              	.LC24:
 3926 0228 4B757661 		.string	"Kuvar priprema hranu\n"
 3926      72207072 
 3926      69707265 
 3926      6D612068 
 3926      72616E75 
 3927              		.text
 3928              		.align	2
 3929              		.globl	_ZN3TCB4cookEv
 3931              	_ZN3TCB4cookEv:
 3932              	.LFB85:
 624:src/tcb.cpp   ****     setDiningSavages();
 3933              		.loc 1 624 18 is_stmt 1
 3934              		.cfi_startproc
 3935 1a64 130101FE 		addi	sp,sp,-32
 3936              		.cfi_def_cfa_offset 32
 3937 1a68 233C1100 		sd	ra,24(sp)
 3938 1a6c 23388100 		sd	s0,16(sp)
 3939 1a70 23349100 		sd	s1,8(sp)
 3940              		.cfi_offset 1, -8
 3941              		.cfi_offset 8, -16
 3942              		.cfi_offset 9, -24
 3943 1a74 13040102 		addi	s0,sp,32
 3944              		.cfi_def_cfa 8, 0
 625:src/tcb.cpp   ****     semCook->wait();
 3945              		.loc 1 625 5
 625:src/tcb.cpp   ****     semCook->wait();
 3946              		.loc 1 625 21 is_stmt 0
 3947 1a78 97000000 		call	_ZN3TCB16setDiningSavagesEv
 3947      E7800000 
 3948              	.LVL402:
 626:src/tcb.cpp   ****     printString("Kuvar priprema hranu\n");
 3949              		.loc 1 626 5 is_stmt 1
 626:src/tcb.cpp   ****     printString("Kuvar priprema hranu\n");
 3950              		.loc 1 626 18 is_stmt 0
 3951 1a80 97040000 		lla	s1,.LANCHOR0
 3951      93840400 
 3952 1a88 03B5041D 		ld	a0,464(s1)
 3953 1a8c 97000000 		call	_ZN11Semaphore_k4waitEv@plt
 3953      E7800000 
 3954              	.LVL403:
 627:src/tcb.cpp   ****     pot=S;
 3955              		.loc 1 627 5 is_stmt 1
 627:src/tcb.cpp   ****     pot=S;
 3956              		.loc 1 627 16 is_stmt 0
 3957 1a94 17050000 		lla	a0,.LC24
 3957      13050500 
 3958 1a9c 97000000 		call	_Z11printStringPKc@plt
 3958      E7800000 
 3959              	.LVL404:
 628:src/tcb.cpp   ****     semSavage->signal();
GAS LISTING /tmp/ccg8jNLS.s 			page 112


 3960              		.loc 1 628 5 is_stmt 1
 628:src/tcb.cpp   ****     semSavage->signal();
 3961              		.loc 1 628 8 is_stmt 0
 3962 1aa4 93072003 		li	a5,50
 3963 1aa8 23ACF41C 		sw	a5,472(s1)
 629:src/tcb.cpp   ****     //thread_dispatch();
 3964              		.loc 1 629 5 is_stmt 1
 629:src/tcb.cpp   ****     //thread_dispatch();
 3965              		.loc 1 629 22 is_stmt 0
 3966 1aac 03B5841C 		ld	a0,456(s1)
 3967 1ab0 97000000 		call	_ZN11Semaphore_k6signalEv@plt
 3967      E7800000 
 3968              	.LVL405:
 632:src/tcb.cpp   **** 
 3969              		.loc 1 632 1
 3970 1ab8 83308101 		ld	ra,24(sp)
 3971              		.cfi_restore 1
 3972 1abc 03340101 		ld	s0,16(sp)
 3973              		.cfi_restore 8
 3974              		.cfi_def_cfa 2, 32
 3975 1ac0 83348100 		ld	s1,8(sp)
 3976              		.cfi_restore 9
 3977 1ac4 13010102 		addi	sp,sp,32
 3978              		.cfi_def_cfa_offset 0
 3979 1ac8 67800000 		jr	ra
 3980              		.cfi_endproc
 3981              	.LFE85:
 3983              		.section	.rodata.str1.8
 3984 023e 0000     		.align	3
 3985              	.LC25:
 3986 0240 526F6469 		.string	"Roditelj lovi za decu - id: "
 3986      74656C6A 
 3986      206C6F76 
 3986      69207A61 
 3986      20646563 
 3987 025d 000000   		.align	3
 3988              	.LC26:
 3989 0260 526F6469 		.string	"Roditelj napunio ciniju\n"
 3989      74656C6A 
 3989      206E6170 
 3989      756E696F 
 3989      2063696E 
 3990              		.text
 3991              		.align	2
 3992              		.globl	_ZN3TCB21parentHuntForChildrenEj
 3994              	_ZN3TCB21parentHuntForChildrenEj:
 3995              	.LFB89:
 670:src/tcb.cpp   ****     parentt->wait();
 3996              		.loc 1 670 50 is_stmt 1
 3997              		.cfi_startproc
 3998              	.LVL406:
 3999 1acc 130101FE 		addi	sp,sp,-32
 4000              		.cfi_def_cfa_offset 32
 4001 1ad0 233C1100 		sd	ra,24(sp)
 4002 1ad4 23388100 		sd	s0,16(sp)
 4003 1ad8 23349100 		sd	s1,8(sp)
 4004 1adc 23302101 		sd	s2,0(sp)
GAS LISTING /tmp/ccg8jNLS.s 			page 113


 4005              		.cfi_offset 1, -8
 4006              		.cfi_offset 8, -16
 4007              		.cfi_offset 9, -24
 4008              		.cfi_offset 18, -32
 4009 1ae0 13040102 		addi	s0,sp,32
 4010              		.cfi_def_cfa 8, 0
 4011 1ae4 93040500 		mv	s1,a0
 671:src/tcb.cpp   ****     mutexParent->wait();
 4012              		.loc 1 671 5
 671:src/tcb.cpp   ****     mutexParent->wait();
 4013              		.loc 1 671 18 is_stmt 0
 4014 1ae8 17090000 		lla	s2,.LANCHOR0
 4014      13090900 
 4015 1af0 0335091E 		ld	a0,480(s2)
 4016              	.LVL407:
 4017 1af4 97000000 		call	_ZN11Semaphore_k4waitEv@plt
 4017      E7800000 
 4018              	.LVL408:
 672:src/tcb.cpp   ****     printString("Roditelj lovi za decu - id: ");
 4019              		.loc 1 672 5 is_stmt 1
 672:src/tcb.cpp   ****     printString("Roditelj lovi za decu - id: ");
 4020              		.loc 1 672 22 is_stmt 0
 4021 1afc 0335891E 		ld	a0,488(s2)
 4022 1b00 97000000 		call	_ZN11Semaphore_k4waitEv@plt
 4022      E7800000 
 4023              	.LVL409:
 673:src/tcb.cpp   ****     printInt(id);
 4024              		.loc 1 673 5 is_stmt 1
 673:src/tcb.cpp   ****     printInt(id);
 4025              		.loc 1 673 16 is_stmt 0
 4026 1b08 17050000 		lla	a0,.LC25
 4026      13050500 
 4027 1b10 97000000 		call	_Z11printStringPKc@plt
 4027      E7800000 
 4028              	.LVL410:
 674:src/tcb.cpp   ****     printString("\n");
 4029              		.loc 1 674 5 is_stmt 1
 674:src/tcb.cpp   ****     printString("\n");
 4030              		.loc 1 674 13 is_stmt 0
 4031 1b18 13060000 		li	a2,0
 4032 1b1c 9305A000 		li	a1,10
 4033 1b20 13850400 		mv	a0,s1
 4034 1b24 97000000 		call	_Z8printIntiii@plt
 4034      E7800000 
 4035              	.LVL411:
 675:src/tcb.cpp   ****     for(int i=0;i<10000;i++){
 4036              		.loc 1 675 5 is_stmt 1
 675:src/tcb.cpp   ****     for(int i=0;i<10000;i++){
 4037              		.loc 1 675 16 is_stmt 0
 4038 1b2c 17050000 		lla	a0,.LC1
 4038      13050500 
 4039 1b34 97000000 		call	_Z11printStringPKc@plt
 4039      E7800000 
 4040              	.LVL412:
 676:src/tcb.cpp   ****         for(int j=0;j<10000;j++);
 4041              		.loc 1 676 5 is_stmt 1
 4042              	.LBB488:
GAS LISTING /tmp/ccg8jNLS.s 			page 114


 676:src/tcb.cpp   ****         for(int j=0;j<10000;j++);
 4043              		.loc 1 676 13 is_stmt 0
 4044 1b3c 93040000 		li	s1,0
 4045 1b40 6F000001 		j	.L182
 4046              	.LVL413:
 4047              	.L180:
 4048              	.LBB489:
 678:src/tcb.cpp   ****     };
 4049              		.loc 1 678 9 is_stmt 1 discriminator 2
 678:src/tcb.cpp   ****     };
 4050              		.loc 1 678 24 is_stmt 0 discriminator 2
 4051 1b44 97000000 		call	_Z15thread_dispatchv@plt
 4051      E7800000 
 4052              	.LVL414:
 4053              	.LBE489:
 676:src/tcb.cpp   ****         for(int j=0;j<10000;j++);
 4054              		.loc 1 676 5 is_stmt 1 discriminator 2
 4055 1b4c 9B841400 		addiw	s1,s1,1
 4056              	.LVL415:
 4057              	.L182:
 676:src/tcb.cpp   ****         for(int j=0;j<10000;j++);
 4058              		.loc 1 676 18 discriminator 1
 4059 1b50 B7270000 		li	a5,8192
 4060 1b54 9387F770 		addi	a5,a5,1807
 4061 1b58 63CE9700 		bgt	s1,a5,.L179
 4062              	.LBB491:
 4063              	.LBB490:
 677:src/tcb.cpp   ****         thread_dispatch();
 4064              		.loc 1 677 17 is_stmt 0
 4065 1b5c 13070000 		li	a4,0
 4066              	.L181:
 4067              	.LVL416:
 677:src/tcb.cpp   ****         thread_dispatch();
 4068              		.loc 1 677 22 is_stmt 1 discriminator 3
 4069 1b60 B7270000 		li	a5,8192
 4070 1b64 9387F770 		addi	a5,a5,1807
 4071 1b68 E3CEE7FC 		bgt	a4,a5,.L180
 677:src/tcb.cpp   ****         thread_dispatch();
 4072              		.loc 1 677 9 discriminator 2
 4073 1b6c 1B071700 		addiw	a4,a4,1
 4074              	.LVL417:
 4075 1b70 6FF01FFF 		j	.L181
 4076              	.L179:
 4077              	.LBE490:
 4078              	.LBE491:
 4079              	.LBE488:
 679:src/tcb.cpp   ****     printString("Roditelj napunio ciniju\n");
 4080              		.loc 1 679 6
 680:src/tcb.cpp   ****     pot1 = F;
 4081              		.loc 1 680 5
 680:src/tcb.cpp   ****     pot1 = F;
 4082              		.loc 1 680 16 is_stmt 0
 4083 1b74 17050000 		lla	a0,.LC26
 4083      13050500 
 4084 1b7c 97000000 		call	_Z11printStringPKc@plt
 4084      E7800000 
 4085              	.LVL418:
GAS LISTING /tmp/ccg8jNLS.s 			page 115


 681:src/tcb.cpp   ****     mutexParent->signal();
 4086              		.loc 1 681 5 is_stmt 1
 681:src/tcb.cpp   ****     mutexParent->signal();
 4087              		.loc 1 681 10 is_stmt 0
 4088 1b84 97040000 		lla	s1,.LANCHOR0
 4088      93840400 
 4089              	.LVL419:
 4090 1b8c 93078001 		li	a5,24
 4091 1b90 23A8F41E 		sw	a5,496(s1)
 682:src/tcb.cpp   ****     mutexChild->signal();
 4092              		.loc 1 682 5 is_stmt 1
 682:src/tcb.cpp   ****     mutexChild->signal();
 4093              		.loc 1 682 24 is_stmt 0
 4094 1b94 03B5841E 		ld	a0,488(s1)
 4095 1b98 97000000 		call	_ZN11Semaphore_k6signalEv@plt
 4095      E7800000 
 4096              	.LVL420:
 683:src/tcb.cpp   **** 
 4097              		.loc 1 683 5 is_stmt 1
 683:src/tcb.cpp   **** 
 4098              		.loc 1 683 23 is_stmt 0
 4099 1ba0 03B5841F 		ld	a0,504(s1)
 4100 1ba4 97000000 		call	_ZN11Semaphore_k6signalEv@plt
 4100      E7800000 
 4101              	.LVL421:
 685:src/tcb.cpp   **** 
 4102              		.loc 1 685 1
 4103 1bac 83308101 		ld	ra,24(sp)
 4104              		.cfi_restore 1
 4105 1bb0 03340101 		ld	s0,16(sp)
 4106              		.cfi_restore 8
 4107              		.cfi_def_cfa 2, 32
 4108 1bb4 83348100 		ld	s1,8(sp)
 4109              		.cfi_restore 9
 4110 1bb8 03390100 		ld	s2,0(sp)
 4111              		.cfi_restore 18
 4112 1bbc 13010102 		addi	sp,sp,32
 4113              		.cfi_def_cfa_offset 0
 4114 1bc0 67800000 		jr	ra
 4115              		.cfi_endproc
 4116              	.LFE89:
 4118              		.section	.rodata.str1.8
 4119 0279 00000000 		.align	3
 4119      000000
 4120              	.LC27:
 4121 0280 526F6469 		.string	"Roditelj lovi za sebe - id: "
 4121      74656C6A 
 4121      206C6F76 
 4121      69207A61 
 4121      20736562 
 4122 029d 000000   		.align	3
 4123              	.LC28:
 4124 02a0 526F6469 		.string	"Roditelj jeo - id: "
 4124      74656C6A 
 4124      206A656F 
 4124      202D2069 
 4124      643A2000 
GAS LISTING /tmp/ccg8jNLS.s 			page 116


 4125              		.text
 4126              		.align	2
 4127              		.globl	_ZN3TCB23parentForHuntForHimselfEj
 4129              	_ZN3TCB23parentForHuntForHimselfEj:
 4130              	.LFB90:
 687:src/tcb.cpp   ****     mutexParent->wait();
 4131              		.loc 1 687 52 is_stmt 1
 4132              		.cfi_startproc
 4133              	.LVL422:
 4134 1bc4 130101FE 		addi	sp,sp,-32
 4135              		.cfi_def_cfa_offset 32
 4136 1bc8 233C1100 		sd	ra,24(sp)
 4137 1bcc 23388100 		sd	s0,16(sp)
 4138 1bd0 23349100 		sd	s1,8(sp)
 4139 1bd4 23302101 		sd	s2,0(sp)
 4140              		.cfi_offset 1, -8
 4141              		.cfi_offset 8, -16
 4142              		.cfi_offset 9, -24
 4143              		.cfi_offset 18, -32
 4144 1bd8 13040102 		addi	s0,sp,32
 4145              		.cfi_def_cfa 8, 0
 4146 1bdc 13090500 		mv	s2,a0
 688:src/tcb.cpp   ****     printString("Roditelj lovi za sebe - id: ");
 4147              		.loc 1 688 5
 688:src/tcb.cpp   ****     printString("Roditelj lovi za sebe - id: ");
 4148              		.loc 1 688 22 is_stmt 0
 4149 1be0 17050000 		ld	a0,.LANCHOR0+488
 4149      03350500 
 4150              	.LVL423:
 4151 1be8 97000000 		call	_ZN11Semaphore_k4waitEv@plt
 4151      E7800000 
 4152              	.LVL424:
 689:src/tcb.cpp   ****     printInt(id);
 4153              		.loc 1 689 5 is_stmt 1
 689:src/tcb.cpp   ****     printInt(id);
 4154              		.loc 1 689 16 is_stmt 0
 4155 1bf0 17050000 		lla	a0,.LC27
 4155      13050500 
 4156 1bf8 97000000 		call	_Z11printStringPKc@plt
 4156      E7800000 
 4157              	.LVL425:
 690:src/tcb.cpp   ****     printString("\n");
 4158              		.loc 1 690 5 is_stmt 1
 690:src/tcb.cpp   ****     printString("\n");
 4159              		.loc 1 690 13 is_stmt 0
 4160 1c00 1B090900 		sext.w	s2,s2
 4161 1c04 13060000 		li	a2,0
 4162 1c08 9305A000 		li	a1,10
 4163 1c0c 13050900 		mv	a0,s2
 4164 1c10 97000000 		call	_Z8printIntiii@plt
 4164      E7800000 
 4165              	.LVL426:
 691:src/tcb.cpp   ****     for(int i=0;i<10000;i++){
 4166              		.loc 1 691 5 is_stmt 1
 691:src/tcb.cpp   ****     for(int i=0;i<10000;i++){
 4167              		.loc 1 691 16 is_stmt 0
 4168 1c18 17050000 		lla	a0,.LC1
GAS LISTING /tmp/ccg8jNLS.s 			page 117


 4168      13050500 
 4169 1c20 97000000 		call	_Z11printStringPKc@plt
 4169      E7800000 
 4170              	.LVL427:
 692:src/tcb.cpp   ****         for(int j=0;j<10000;j++);
 4171              		.loc 1 692 5 is_stmt 1
 4172              	.LBB492:
 692:src/tcb.cpp   ****         for(int j=0;j<10000;j++);
 4173              		.loc 1 692 13 is_stmt 0
 4174 1c28 93040000 		li	s1,0
 4175 1c2c 6F000001 		j	.L188
 4176              	.LVL428:
 4177              	.L186:
 4178              	.LBB493:
 694:src/tcb.cpp   ****     };
 4179              		.loc 1 694 9 is_stmt 1 discriminator 2
 694:src/tcb.cpp   ****     };
 4180              		.loc 1 694 24 is_stmt 0 discriminator 2
 4181 1c30 97000000 		call	_Z15thread_dispatchv@plt
 4181      E7800000 
 4182              	.LVL429:
 4183              	.LBE493:
 692:src/tcb.cpp   ****         for(int j=0;j<10000;j++);
 4184              		.loc 1 692 5 is_stmt 1 discriminator 2
 4185 1c38 9B841400 		addiw	s1,s1,1
 4186              	.LVL430:
 4187              	.L188:
 692:src/tcb.cpp   ****         for(int j=0;j<10000;j++);
 4188              		.loc 1 692 18 discriminator 1
 4189 1c3c B7270000 		li	a5,8192
 4190 1c40 9387F770 		addi	a5,a5,1807
 4191 1c44 63CE9700 		bgt	s1,a5,.L185
 4192              	.LBB495:
 4193              	.LBB494:
 693:src/tcb.cpp   ****         thread_dispatch();
 4194              		.loc 1 693 17 is_stmt 0
 4195 1c48 13070000 		li	a4,0
 4196              	.L187:
 4197              	.LVL431:
 693:src/tcb.cpp   ****         thread_dispatch();
 4198              		.loc 1 693 22 is_stmt 1 discriminator 3
 4199 1c4c B7270000 		li	a5,8192
 4200 1c50 9387F770 		addi	a5,a5,1807
 4201 1c54 E3CEE7FC 		bgt	a4,a5,.L186
 693:src/tcb.cpp   ****         thread_dispatch();
 4202              		.loc 1 693 9 discriminator 2
 4203 1c58 1B071700 		addiw	a4,a4,1
 4204              	.LVL432:
 4205 1c5c 6FF01FFF 		j	.L187
 4206              	.L185:
 4207              	.LBE494:
 4208              	.LBE495:
 4209              	.LBE492:
 695:src/tcb.cpp   ****     printString("Roditelj jeo - id: ");
 4210              		.loc 1 695 6
 696:src/tcb.cpp   ****     printInt(id);
 4211              		.loc 1 696 5
GAS LISTING /tmp/ccg8jNLS.s 			page 118


 696:src/tcb.cpp   ****     printInt(id);
 4212              		.loc 1 696 16 is_stmt 0
 4213 1c60 17050000 		lla	a0,.LC28
 4213      13050500 
 4214 1c68 97000000 		call	_Z11printStringPKc@plt
 4214      E7800000 
 4215              	.LVL433:
 697:src/tcb.cpp   ****     printString("\n");
 4216              		.loc 1 697 5 is_stmt 1
 697:src/tcb.cpp   ****     printString("\n");
 4217              		.loc 1 697 13 is_stmt 0
 4218 1c70 13060000 		li	a2,0
 4219 1c74 9305A000 		li	a1,10
 4220 1c78 13050900 		mv	a0,s2
 4221 1c7c 97000000 		call	_Z8printIntiii@plt
 4221      E7800000 
 4222              	.LVL434:
 698:src/tcb.cpp   ****     mutexParent->signal();
 4223              		.loc 1 698 5 is_stmt 1
 698:src/tcb.cpp   ****     mutexParent->signal();
 4224              		.loc 1 698 16 is_stmt 0
 4225 1c84 17050000 		lla	a0,.LC1
 4225      13050500 
 4226 1c8c 97000000 		call	_Z11printStringPKc@plt
 4226      E7800000 
 4227              	.LVL435:
 699:src/tcb.cpp   **** 
 4228              		.loc 1 699 5 is_stmt 1
 699:src/tcb.cpp   **** 
 4229              		.loc 1 699 24 is_stmt 0
 4230 1c94 17050000 		ld	a0,.LANCHOR0+488
 4230      03350500 
 4231 1c9c 97000000 		call	_ZN11Semaphore_k6signalEv@plt
 4231      E7800000 
 4232              	.LVL436:
 701:src/tcb.cpp   **** 
 4233              		.loc 1 701 1
 4234 1ca4 83308101 		ld	ra,24(sp)
 4235              		.cfi_restore 1
 4236 1ca8 03340101 		ld	s0,16(sp)
 4237              		.cfi_restore 8
 4238              		.cfi_def_cfa 2, 32
 4239 1cac 83348100 		ld	s1,8(sp)
 4240              		.cfi_restore 9
 4241              	.LVL437:
 4242 1cb0 03390100 		ld	s2,0(sp)
 4243              		.cfi_restore 18
 4244 1cb4 13010102 		addi	sp,sp,32
 4245              		.cfi_def_cfa_offset 0
 4246 1cb8 67800000 		jr	ra
 4247              		.cfi_endproc
 4248              	.LFE90:
 4250              		.align	2
 4251              		.globl	_ZN3TCB14setHungryBirdsEv
 4253              	_ZN3TCB14setHungryBirdsEv:
 4254              	.LFB91:
 703:src/tcb.cpp   ****     if(!setHngryBird){
GAS LISTING /tmp/ccg8jNLS.s 			page 119


 4255              		.loc 1 703 28 is_stmt 1
 4256              		.cfi_startproc
 704:src/tcb.cpp   ****         parentt = new Semaphore_k(1);
 4257              		.loc 1 704 5
 704:src/tcb.cpp   ****         parentt = new Semaphore_k(1);
 4258              		.loc 1 704 8 is_stmt 0
 4259 1cbc 97070000 		lbu	a5,.LANCHOR0+512
 4259      83C70700 
 704:src/tcb.cpp   ****         parentt = new Semaphore_k(1);
 4260              		.loc 1 704 5
 4261 1cc4 63840700 		beqz	a5,.L196
 4262 1cc8 67800000 		ret
 4263              	.L196:
 703:src/tcb.cpp   ****     if(!setHngryBird){
 4264              		.loc 1 703 28
 4265 1ccc 130101FE 		addi	sp,sp,-32
 4266              		.cfi_def_cfa_offset 32
 4267 1cd0 233C1100 		sd	ra,24(sp)
 4268 1cd4 23388100 		sd	s0,16(sp)
 4269 1cd8 23349100 		sd	s1,8(sp)
 4270 1cdc 23302101 		sd	s2,0(sp)
 4271              		.cfi_offset 1, -8
 4272              		.cfi_offset 8, -16
 4273              		.cfi_offset 9, -24
 4274              		.cfi_offset 18, -32
 4275 1ce0 13040102 		addi	s0,sp,32
 4276              		.cfi_def_cfa 8, 0
 705:src/tcb.cpp   ****         mutexParent = new Semaphore_k(1);
 4277              		.loc 1 705 9 is_stmt 1
 4278              	.LVL438:
 4279              	.LBB496:
 4280              	.LBB497:
  26:src/../h/Semaphore_k.hpp ****     }
 4281              		.loc 5 26 9
  26:src/../h/Semaphore_k.hpp ****     }
 4282              		.loc 5 26 42 is_stmt 0
 4283 1ce4 13058001 		li	a0,24
 4284 1ce8 97000000 		call	_ZN15memoryAllocator9mem_allocEm@plt
 4284      E7800000 
 4285              	.LVL439:
 4286              	.LBE497:
 4287              	.LBE496:
 4288              	.LBB498:
 4289              	.LBB499:
 4290              		.loc 5 39 60
 4291 1cf0 23000500 		sb	zero,0(a0)
 4292 1cf4 13091000 		li	s2,1
 4293 1cf8 23222501 		sw	s2,4(a0)
 4294              	.LVL440:
 4295              	.LBB500:
 4296              	.LBB501:
  26:src/../h/List.hpp **** 
 4297              		.loc 2 26 30
 4298 1cfc 23340500 		sd	zero,8(a0)
 4299 1d00 23380500 		sd	zero,16(a0)
 4300              	.LVL441:
 4301              	.LBE501:
GAS LISTING /tmp/ccg8jNLS.s 			page 120


 4302              	.LBE500:
 4303              	.LBE499:
 4304              	.LBE498:
 705:src/tcb.cpp   ****         mutexParent = new Semaphore_k(1);
 4305              		.loc 1 705 17
 4306 1d04 97040000 		lla	s1,.LANCHOR0
 4306      93840400 
 4307 1d0c 23B0A41E 		sd	a0,480(s1)
 706:src/tcb.cpp   ****         mutexChild = new Semaphore_k(0);
 4308              		.loc 1 706 9 is_stmt 1
 4309              	.LVL442:
 4310              	.LBB502:
 4311              	.LBB503:
  26:src/../h/Semaphore_k.hpp ****     }
 4312              		.loc 5 26 9
  26:src/../h/Semaphore_k.hpp ****     }
 4313              		.loc 5 26 42 is_stmt 0
 4314 1d10 13058001 		li	a0,24
 4315 1d14 97000000 		call	_ZN15memoryAllocator9mem_allocEm@plt
 4315      E7800000 
 4316              	.LVL443:
 4317              	.LBE503:
 4318              	.LBE502:
 4319              	.LBB504:
 4320              	.LBB505:
 4321              		.loc 5 39 60
 4322 1d1c 23000500 		sb	zero,0(a0)
 4323 1d20 23222501 		sw	s2,4(a0)
 4324              	.LVL444:
 4325              	.LBB506:
 4326              	.LBB507:
  26:src/../h/List.hpp **** 
 4327              		.loc 2 26 30
 4328 1d24 23340500 		sd	zero,8(a0)
 4329 1d28 23380500 		sd	zero,16(a0)
 4330              	.LVL445:
 4331              	.LBE507:
 4332              	.LBE506:
 4333              	.LBE505:
 4334              	.LBE504:
 706:src/tcb.cpp   ****         mutexChild = new Semaphore_k(0);
 4335              		.loc 1 706 21
 4336 1d2c 23B4A41E 		sd	a0,488(s1)
 707:src/tcb.cpp   ****         setHngryBird= true;
 4337              		.loc 1 707 9 is_stmt 1
 4338              	.LVL446:
 4339              	.LBB508:
 4340              	.LBB509:
  26:src/../h/Semaphore_k.hpp ****     }
 4341              		.loc 5 26 9
  26:src/../h/Semaphore_k.hpp ****     }
 4342              		.loc 5 26 42 is_stmt 0
 4343 1d30 13058001 		li	a0,24
 4344 1d34 97000000 		call	_ZN15memoryAllocator9mem_allocEm@plt
 4344      E7800000 
 4345              	.LVL447:
 4346              	.LBE509:
GAS LISTING /tmp/ccg8jNLS.s 			page 121


 4347              	.LBE508:
 4348              	.LBB510:
 4349              	.LBB511:
 4350              		.loc 5 39 60
 4351 1d3c 23000500 		sb	zero,0(a0)
 4352 1d40 23220500 		sw	zero,4(a0)
 4353              	.LVL448:
 4354              	.LBB512:
 4355              	.LBB513:
  26:src/../h/List.hpp **** 
 4356              		.loc 2 26 30
 4357 1d44 23340500 		sd	zero,8(a0)
 4358 1d48 23380500 		sd	zero,16(a0)
 4359              	.LVL449:
 4360              	.LBE513:
 4361              	.LBE512:
 4362              	.LBE511:
 4363              	.LBE510:
 707:src/tcb.cpp   ****         setHngryBird= true;
 4364              		.loc 1 707 20
 4365 1d4c 23BCA41E 		sd	a0,504(s1)
 708:src/tcb.cpp   ****     }
 4366              		.loc 1 708 9 is_stmt 1
 708:src/tcb.cpp   ****     }
 4367              		.loc 1 708 21 is_stmt 0
 4368 1d50 23802421 		sb	s2,512(s1)
 711:src/tcb.cpp   **** //HONEY BEE PROBLEM
 4369              		.loc 1 711 1
 4370 1d54 83308101 		ld	ra,24(sp)
 4371              		.cfi_restore 1
 4372 1d58 03340101 		ld	s0,16(sp)
 4373              		.cfi_restore 8
 4374              		.cfi_def_cfa 2, 32
 4375 1d5c 83348100 		ld	s1,8(sp)
 4376              		.cfi_restore 9
 4377 1d60 03390100 		ld	s2,0(sp)
 4378              		.cfi_restore 18
 4379 1d64 13010102 		addi	sp,sp,32
 4380              		.cfi_def_cfa_offset 0
 4381 1d68 67800000 		jr	ra
 4382              		.cfi_endproc
 4383              	.LFE91:
 4385              		.section	.rodata.str1.8
 4386 02b4 00000000 		.align	3
 4387              	.LC29:
 4388 02b8 44455445 		.string	"DETE PTICA JEDE -id: "
 4388      20505449 
 4388      4341204A 
 4388      45444520 
 4388      2D69643A 
 4389 02ce 0000     		.align	3
 4390              	.LC30:
 4391 02d0 44656361 		.string	"Deca sve izjela - signal roditeljima\n"
 4391      20737665 
 4391      20697A6A 
 4391      656C6120 
 4391      2D207369 
GAS LISTING /tmp/ccg8jNLS.s 			page 122


 4392              		.text
 4393              		.align	2
 4394              		.globl	_ZN3TCB9birdChildEj
 4396              	_ZN3TCB9birdChildEj:
 4397              	.LFB87:
 645:src/tcb.cpp   ****     setHungryBirds();
 4398              		.loc 1 645 38 is_stmt 1
 4399              		.cfi_startproc
 4400              	.LVL450:
 4401 1d6c 130101FE 		addi	sp,sp,-32
 4402              		.cfi_def_cfa_offset 32
 4403 1d70 233C1100 		sd	ra,24(sp)
 4404 1d74 23388100 		sd	s0,16(sp)
 4405 1d78 23349100 		sd	s1,8(sp)
 4406 1d7c 23302101 		sd	s2,0(sp)
 4407              		.cfi_offset 1, -8
 4408              		.cfi_offset 8, -16
 4409              		.cfi_offset 9, -24
 4410              		.cfi_offset 18, -32
 4411 1d80 13040102 		addi	s0,sp,32
 4412              		.cfi_def_cfa 8, 0
 4413 1d84 13090500 		mv	s2,a0
 646:src/tcb.cpp   ****     mutexChild->wait();
 4414              		.loc 1 646 5
 646:src/tcb.cpp   ****     mutexChild->wait();
 4415              		.loc 1 646 19 is_stmt 0
 4416 1d88 97000000 		call	_ZN3TCB14setHungryBirdsEv
 4416      E7800000 
 4417              	.LVL451:
 647:src/tcb.cpp   ****     pot1--;
 4418              		.loc 1 647 5 is_stmt 1
 647:src/tcb.cpp   ****     pot1--;
 4419              		.loc 1 647 21 is_stmt 0
 4420 1d90 97040000 		lla	s1,.LANCHOR0
 4420      93840400 
 4421 1d98 03B5841F 		ld	a0,504(s1)
 4422 1d9c 97000000 		call	_ZN11Semaphore_k4waitEv@plt
 4422      E7800000 
 4423              	.LVL452:
 648:src/tcb.cpp   ****     printString("DETE PTICA JEDE -id: ");
 4424              		.loc 1 648 5 is_stmt 1
 648:src/tcb.cpp   ****     printString("DETE PTICA JEDE -id: ");
 4425              		.loc 1 648 9 is_stmt 0
 4426 1da4 83A7041F 		lw	a5,496(s1)
 4427 1da8 9B87F7FF 		addiw	a5,a5,-1
 4428 1dac 23A8F41E 		sw	a5,496(s1)
 649:src/tcb.cpp   ****     printInt(id);
 4429              		.loc 1 649 5 is_stmt 1
 649:src/tcb.cpp   ****     printInt(id);
 4430              		.loc 1 649 16 is_stmt 0
 4431 1db0 17050000 		lla	a0,.LC29
 4431      13050500 
 4432 1db8 97000000 		call	_Z11printStringPKc@plt
 4432      E7800000 
 4433              	.LVL453:
 650:src/tcb.cpp   ****     printString("\n");
 4434              		.loc 1 650 5 is_stmt 1
GAS LISTING /tmp/ccg8jNLS.s 			page 123


 650:src/tcb.cpp   ****     printString("\n");
 4435              		.loc 1 650 13 is_stmt 0
 4436 1dc0 13060000 		li	a2,0
 4437 1dc4 9305A000 		li	a1,10
 4438 1dc8 13050900 		mv	a0,s2
 4439 1dcc 97000000 		call	_Z8printIntiii@plt
 4439      E7800000 
 4440              	.LVL454:
 651:src/tcb.cpp   ****     if(pot1==0){
 4441              		.loc 1 651 5 is_stmt 1
 651:src/tcb.cpp   ****     if(pot1==0){
 4442              		.loc 1 651 16 is_stmt 0
 4443 1dd4 17050000 		lla	a0,.LC1
 4443      13050500 
 4444 1ddc 97000000 		call	_Z11printStringPKc@plt
 4444      E7800000 
 4445              	.LVL455:
 652:src/tcb.cpp   ****         printString("Deca sve izjela - signal roditeljima\n");
 4446              		.loc 1 652 5 is_stmt 1
 652:src/tcb.cpp   ****         printString("Deca sve izjela - signal roditeljima\n");
 4447              		.loc 1 652 12 is_stmt 0
 4448 1de4 83A7041F 		lw	a5,496(s1)
 652:src/tcb.cpp   ****         printString("Deca sve izjela - signal roditeljima\n");
 4449              		.loc 1 652 5
 4450 1de8 639E0702 		bnez	a5,.L198
 653:src/tcb.cpp   ****         parentt->signal();
 4451              		.loc 1 653 9 is_stmt 1
 653:src/tcb.cpp   ****         parentt->signal();
 4452              		.loc 1 653 20 is_stmt 0
 4453 1dec 17050000 		lla	a0,.LC30
 4453      13050500 
 4454 1df4 97000000 		call	_Z11printStringPKc@plt
 4454      E7800000 
 4455              	.LVL456:
 654:src/tcb.cpp   **** 
 4456              		.loc 1 654 9 is_stmt 1
 654:src/tcb.cpp   **** 
 4457              		.loc 1 654 24 is_stmt 0
 4458 1dfc 17050000 		ld	a0,.LANCHOR0+480
 4458      03350500 
 4459 1e04 97000000 		call	_ZN11Semaphore_k6signalEv@plt
 4459      E7800000 
 4460              	.LVL457:
 4461              	.L197:
 661:src/tcb.cpp   **** 
 4462              		.loc 1 661 1
 4463 1e0c 83308101 		ld	ra,24(sp)
 4464              		.cfi_remember_state
 4465              		.cfi_restore 1
 4466 1e10 03340101 		ld	s0,16(sp)
 4467              		.cfi_restore 8
 4468              		.cfi_def_cfa 2, 32
 4469 1e14 83348100 		ld	s1,8(sp)
 4470              		.cfi_restore 9
 4471 1e18 03390100 		ld	s2,0(sp)
 4472              		.cfi_restore 18
 4473 1e1c 13010102 		addi	sp,sp,32
GAS LISTING /tmp/ccg8jNLS.s 			page 124


 4474              		.cfi_def_cfa_offset 0
 4475 1e20 67800000 		jr	ra
 4476              	.L198:
 4477              		.cfi_restore_state
 657:src/tcb.cpp   ****     }
 4478              		.loc 1 657 9 is_stmt 1
 657:src/tcb.cpp   ****     }
 4479              		.loc 1 657 27 is_stmt 0
 4480 1e24 17050000 		ld	a0,.LANCHOR0+504
 4480      03350500 
 4481 1e2c 97000000 		call	_ZN11Semaphore_k6signalEv@plt
 4481      E7800000 
 4482              	.LVL458:
 661:src/tcb.cpp   **** 
 4483              		.loc 1 661 1
 4484 1e34 6FF09FFD 		j	.L197
 4485              		.cfi_endproc
 4486              	.LFE87:
 4488              		.align	2
 4489              		.globl	_ZN3TCB10birdParentEj
 4491              	_ZN3TCB10birdParentEj:
 4492              	.LFB88:
 663:src/tcb.cpp   ****     setHungryBirds();
 4493              		.loc 1 663 39 is_stmt 1
 4494              		.cfi_startproc
 4495              	.LVL459:
 4496 1e38 130101FE 		addi	sp,sp,-32
 4497              		.cfi_def_cfa_offset 32
 4498 1e3c 233C1100 		sd	ra,24(sp)
 4499 1e40 23388100 		sd	s0,16(sp)
 4500 1e44 23349100 		sd	s1,8(sp)
 4501              		.cfi_offset 1, -8
 4502              		.cfi_offset 8, -16
 4503              		.cfi_offset 9, -24
 4504 1e48 13040102 		addi	s0,sp,32
 4505              		.cfi_def_cfa 8, 0
 4506 1e4c 93040500 		mv	s1,a0
 664:src/tcb.cpp   ****     parentHuntForChildren(id);
 4507              		.loc 1 664 5
 664:src/tcb.cpp   ****     parentHuntForChildren(id);
 4508              		.loc 1 664 19 is_stmt 0
 4509 1e50 97000000 		call	_ZN3TCB14setHungryBirdsEv
 4509      E7800000 
 4510              	.LVL460:
 665:src/tcb.cpp   ****     parentForHuntForHimself(id);
 4511              		.loc 1 665 5 is_stmt 1
 665:src/tcb.cpp   ****     parentForHuntForHimself(id);
 4512              		.loc 1 665 26 is_stmt 0
 4513 1e58 13850400 		mv	a0,s1
 4514 1e5c 97000000 		call	_ZN3TCB21parentHuntForChildrenEj
 4514      E7800000 
 4515              	.LVL461:
 666:src/tcb.cpp   **** 
 4516              		.loc 1 666 5 is_stmt 1
 666:src/tcb.cpp   **** 
 4517              		.loc 1 666 28 is_stmt 0
 4518 1e64 13850400 		mv	a0,s1
GAS LISTING /tmp/ccg8jNLS.s 			page 125


 4519 1e68 97000000 		call	_ZN3TCB23parentForHuntForHimselfEj
 4519      E7800000 
 4520              	.LVL462:
 668:src/tcb.cpp   **** 
 4521              		.loc 1 668 1
 4522 1e70 83308101 		ld	ra,24(sp)
 4523              		.cfi_restore 1
 4524 1e74 03340101 		ld	s0,16(sp)
 4525              		.cfi_restore 8
 4526              		.cfi_def_cfa 2, 32
 4527 1e78 83348100 		ld	s1,8(sp)
 4528              		.cfi_restore 9
 4529 1e7c 13010102 		addi	sp,sp,32
 4530              		.cfi_def_cfa_offset 0
 4531 1e80 67800000 		jr	ra
 4532              		.cfi_endproc
 4533              	.LFE88:
 4535              		.align	2
 4536              		.globl	_ZN3TCB11setPceleMedEv
 4538              	_ZN3TCB11setPceleMedEv:
 4539              	.LFB94:
 752:src/tcb.cpp   ****     if(!fsMedaPcele){
 4540              		.loc 1 752 25 is_stmt 1
 4541              		.cfi_startproc
 753:src/tcb.cpp   ****         fsMedaPcele=true;
 4542              		.loc 1 753 5
 753:src/tcb.cpp   ****         fsMedaPcele=true;
 4543              		.loc 1 753 8 is_stmt 0
 4544 1e84 97070000 		lbu	a5,.LANCHOR0+513
 4544      83C70700 
 753:src/tcb.cpp   ****         fsMedaPcele=true;
 4545              		.loc 1 753 5
 4546 1e8c 63840700 		beqz	a5,.L209
 4547 1e90 67800000 		ret
 4548              	.L209:
 752:src/tcb.cpp   ****     if(!fsMedaPcele){
 4549              		.loc 1 752 25
 4550 1e94 130101FE 		addi	sp,sp,-32
 4551              		.cfi_def_cfa_offset 32
 4552 1e98 233C1100 		sd	ra,24(sp)
 4553 1e9c 23388100 		sd	s0,16(sp)
 4554 1ea0 23349100 		sd	s1,8(sp)
 4555              		.cfi_offset 1, -8
 4556              		.cfi_offset 8, -16
 4557              		.cfi_offset 9, -24
 4558 1ea4 13040102 		addi	s0,sp,32
 4559              		.cfi_def_cfa 8, 0
 754:src/tcb.cpp   ****         mtx=new Semaphore_k(1);
 4560              		.loc 1 754 9 is_stmt 1
 754:src/tcb.cpp   ****         mtx=new Semaphore_k(1);
 4561              		.loc 1 754 20 is_stmt 0
 4562 1ea8 97040000 		lla	s1,.LANCHOR0
 4562      93840400 
 4563 1eb0 93071000 		li	a5,1
 4564 1eb4 A380F420 		sb	a5,513(s1)
 755:src/tcb.cpp   ****         bear = new Semaphore_k(0);
 4565              		.loc 1 755 9 is_stmt 1
GAS LISTING /tmp/ccg8jNLS.s 			page 126


 4566              	.LVL463:
 4567              	.LBB514:
 4568              	.LBB515:
  26:src/../h/Semaphore_k.hpp ****     }
 4569              		.loc 5 26 9
  26:src/../h/Semaphore_k.hpp ****     }
 4570              		.loc 5 26 42 is_stmt 0
 4571 1eb8 13058001 		li	a0,24
 4572 1ebc 97000000 		call	_ZN15memoryAllocator9mem_allocEm@plt
 4572      E7800000 
 4573              	.LVL464:
 4574              	.LBE515:
 4575              	.LBE514:
 4576              	.LBB516:
 4577              	.LBB517:
 4578              		.loc 5 39 60
 4579 1ec4 23000500 		sb	zero,0(a0)
 4580 1ec8 93071000 		li	a5,1
 4581 1ecc 2322F500 		sw	a5,4(a0)
 4582              	.LVL465:
 4583              	.LBB518:
 4584              	.LBB519:
  26:src/../h/List.hpp **** 
 4585              		.loc 2 26 30
 4586 1ed0 23340500 		sd	zero,8(a0)
 4587 1ed4 23380500 		sd	zero,16(a0)
 4588              	.LVL466:
 4589              	.LBE519:
 4590              	.LBE518:
 4591              	.LBE517:
 4592              	.LBE516:
 755:src/tcb.cpp   ****         bear = new Semaphore_k(0);
 4593              		.loc 1 755 12
 4594 1ed8 23B4A420 		sd	a0,520(s1)
 756:src/tcb.cpp   ****     }
 4595              		.loc 1 756 9 is_stmt 1
 4596              	.LVL467:
 4597              	.LBB520:
 4598              	.LBB521:
  26:src/../h/Semaphore_k.hpp ****     }
 4599              		.loc 5 26 9
  26:src/../h/Semaphore_k.hpp ****     }
 4600              		.loc 5 26 42 is_stmt 0
 4601 1edc 13058001 		li	a0,24
 4602 1ee0 97000000 		call	_ZN15memoryAllocator9mem_allocEm@plt
 4602      E7800000 
 4603              	.LVL468:
 4604              	.LBE521:
 4605              	.LBE520:
 4606              	.LBB522:
 4607              	.LBB523:
 4608              		.loc 5 39 60
 4609 1ee8 23000500 		sb	zero,0(a0)
 4610 1eec 23220500 		sw	zero,4(a0)
 4611              	.LVL469:
 4612              	.LBB524:
 4613              	.LBB525:
GAS LISTING /tmp/ccg8jNLS.s 			page 127


  26:src/../h/List.hpp **** 
 4614              		.loc 2 26 30
 4615 1ef0 23340500 		sd	zero,8(a0)
 4616 1ef4 23380500 		sd	zero,16(a0)
 4617              	.LVL470:
 4618              	.LBE525:
 4619              	.LBE524:
 4620              	.LBE523:
 4621              	.LBE522:
 756:src/tcb.cpp   ****     }
 4622              		.loc 1 756 14
 4623 1ef8 23B8A420 		sd	a0,528(s1)
 4624              		.loc 1 759 1
 4625 1efc 83308101 		ld	ra,24(sp)
 4626              		.cfi_restore 1
 4627 1f00 03340101 		ld	s0,16(sp)
 4628              		.cfi_restore 8
 4629              		.cfi_def_cfa 2, 32
 4630 1f04 83348100 		ld	s1,8(sp)
 4631              		.cfi_restore 9
 4632 1f08 13010102 		addi	sp,sp,32
 4633              		.cfi_def_cfa_offset 0
 4634 1f0c 67800000 		jr	ra
 4635              		.cfi_endproc
 4636              	.LFE94:
 4638              		.section	.rodata.str1.8
 4639 02f6 0000     		.align	3
 4640              	.LC31:
 4641 02f8 5063656C 		.string	"Pcela skuplja med id - "
 4641      6120736B 
 4641      75706C6A 
 4641      61206D65 
 4641      64206964 
 4642              		.align	3
 4643              	.LC32:
 4644 0310 5063656C 		.string	"Pcela donela med u kosnicu -id: "
 4644      6120646F 
 4644      6E656C61 
 4644      206D6564 
 4644      2075206B 
 4645 0331 00000000 		.align	3
 4645      000000
 4646              	.LC33:
 4647 0338 5063656C 		.string	"Pcele napunile kosnicu budi medveda\n"
 4647      65206E61 
 4647      70756E69 
 4647      6C65206B 
 4647      6F736E69 
 4648              		.text
 4649              		.align	2
 4650              		.globl	_ZN3TCB7honeybeEj
 4652              	_ZN3TCB7honeybeEj:
 4653              	.LFB92:
 713:src/tcb.cpp   ****     setPceleMed();
 4654              		.loc 1 713 36 is_stmt 1
 4655              		.cfi_startproc
 4656              	.LVL471:
GAS LISTING /tmp/ccg8jNLS.s 			page 128


 4657 1f10 130101FE 		addi	sp,sp,-32
 4658              		.cfi_def_cfa_offset 32
 4659 1f14 233C1100 		sd	ra,24(sp)
 4660 1f18 23388100 		sd	s0,16(sp)
 4661 1f1c 23349100 		sd	s1,8(sp)
 4662 1f20 23302101 		sd	s2,0(sp)
 4663              		.cfi_offset 1, -8
 4664              		.cfi_offset 8, -16
 4665              		.cfi_offset 9, -24
 4666              		.cfi_offset 18, -32
 4667 1f24 13040102 		addi	s0,sp,32
 4668              		.cfi_def_cfa 8, 0
 4669 1f28 13090500 		mv	s2,a0
 714:src/tcb.cpp   ****     printString("Pcela skuplja med id - ");
 4670              		.loc 1 714 5
 714:src/tcb.cpp   ****     printString("Pcela skuplja med id - ");
 4671              		.loc 1 714 16 is_stmt 0
 4672 1f2c 97000000 		call	_ZN3TCB11setPceleMedEv
 4672      E7800000 
 4673              	.LVL472:
 715:src/tcb.cpp   ****     printInt(id);
 4674              		.loc 1 715 5 is_stmt 1
 715:src/tcb.cpp   ****     printInt(id);
 4675              		.loc 1 715 16 is_stmt 0
 4676 1f34 17050000 		lla	a0,.LC31
 4676      13050500 
 4677 1f3c 97000000 		call	_Z11printStringPKc@plt
 4677      E7800000 
 4678              	.LVL473:
 716:src/tcb.cpp   ****     printString("\n");
 4679              		.loc 1 716 5 is_stmt 1
 716:src/tcb.cpp   ****     printString("\n");
 4680              		.loc 1 716 13 is_stmt 0
 4681 1f44 1B090900 		sext.w	s2,s2
 4682 1f48 13060000 		li	a2,0
 4683 1f4c 9305A000 		li	a1,10
 4684 1f50 13050900 		mv	a0,s2
 4685 1f54 97000000 		call	_Z8printIntiii@plt
 4685      E7800000 
 4686              	.LVL474:
 717:src/tcb.cpp   ****     for(int i=0;i<1000;i++){
 4687              		.loc 1 717 5 is_stmt 1
 717:src/tcb.cpp   ****     for(int i=0;i<1000;i++){
 4688              		.loc 1 717 16 is_stmt 0
 4689 1f5c 17050000 		lla	a0,.LC1
 4689      13050500 
 4690 1f64 97000000 		call	_Z11printStringPKc@plt
 4690      E7800000 
 4691              	.LVL475:
 718:src/tcb.cpp   ****         for(int j=0;j<1000;j++);
 4692              		.loc 1 718 5 is_stmt 1
 4693              	.LBB526:
 718:src/tcb.cpp   ****         for(int j=0;j<1000;j++);
 4694              		.loc 1 718 13 is_stmt 0
 4695 1f6c 93040000 		li	s1,0
 4696 1f70 6F000001 		j	.L214
 4697              	.LVL476:
GAS LISTING /tmp/ccg8jNLS.s 			page 129


 4698              	.L212:
 4699              	.LBB527:
 720:src/tcb.cpp   ****     }
 4700              		.loc 1 720 9 is_stmt 1 discriminator 2
 720:src/tcb.cpp   ****     }
 4701              		.loc 1 720 24 is_stmt 0 discriminator 2
 4702 1f74 97000000 		call	_Z15thread_dispatchv@plt
 4702      E7800000 
 4703              	.LVL477:
 4704              	.LBE527:
 718:src/tcb.cpp   ****         for(int j=0;j<1000;j++);
 4705              		.loc 1 718 5 is_stmt 1 discriminator 2
 4706 1f7c 9B841400 		addiw	s1,s1,1
 4707              	.LVL478:
 4708              	.L214:
 718:src/tcb.cpp   ****         for(int j=0;j<1000;j++);
 4709              		.loc 1 718 18 discriminator 1
 4710 1f80 9307703E 		li	a5,999
 4711 1f84 63CC9700 		bgt	s1,a5,.L211
 4712              	.LBB529:
 4713              	.LBB528:
 719:src/tcb.cpp   ****         thread_dispatch();
 4714              		.loc 1 719 17 is_stmt 0
 4715 1f88 93070000 		li	a5,0
 4716              	.L213:
 4717              	.LVL479:
 719:src/tcb.cpp   ****         thread_dispatch();
 4718              		.loc 1 719 22 is_stmt 1 discriminator 3
 4719 1f8c 1307703E 		li	a4,999
 4720 1f90 E342F7FE 		bgt	a5,a4,.L212
 719:src/tcb.cpp   ****         thread_dispatch();
 4721              		.loc 1 719 9 discriminator 2
 4722 1f94 9B871700 		addiw	a5,a5,1
 4723              	.LVL480:
 4724 1f98 6FF05FFF 		j	.L213
 4725              	.L211:
 4726              	.LBE528:
 4727              	.LBE529:
 4728              	.LBE526:
 722:src/tcb.cpp   ****     printString("Pcela donela med u kosnicu -id: ");
 4729              		.loc 1 722 5
 722:src/tcb.cpp   ****     printString("Pcela donela med u kosnicu -id: ");
 4730              		.loc 1 722 14 is_stmt 0
 4731 1f9c 97040000 		lla	s1,.LANCHOR0
 4731      93840400 
 4732              	.LVL481:
 4733 1fa4 03B58420 		ld	a0,520(s1)
 4734 1fa8 97000000 		call	_ZN11Semaphore_k4waitEv@plt
 4734      E7800000 
 4735              	.LVL482:
 723:src/tcb.cpp   ****     printInt(id);
 4736              		.loc 1 723 5 is_stmt 1
 723:src/tcb.cpp   ****     printInt(id);
 4737              		.loc 1 723 16 is_stmt 0
 4738 1fb0 17050000 		lla	a0,.LC32
 4738      13050500 
 4739 1fb8 97000000 		call	_Z11printStringPKc@plt
GAS LISTING /tmp/ccg8jNLS.s 			page 130


 4739      E7800000 
 4740              	.LVL483:
 724:src/tcb.cpp   ****     printString("\n");
 4741              		.loc 1 724 5 is_stmt 1
 724:src/tcb.cpp   ****     printString("\n");
 4742              		.loc 1 724 13 is_stmt 0
 4743 1fc0 13060000 		li	a2,0
 4744 1fc4 9305A000 		li	a1,10
 4745 1fc8 13050900 		mv	a0,s2
 4746 1fcc 97000000 		call	_Z8printIntiii@plt
 4746      E7800000 
 4747              	.LVL484:
 725:src/tcb.cpp   ****     kosnica++;
 4748              		.loc 1 725 5 is_stmt 1
 725:src/tcb.cpp   ****     kosnica++;
 4749              		.loc 1 725 16 is_stmt 0
 4750 1fd4 17050000 		lla	a0,.LC1
 4750      13050500 
 4751 1fdc 97000000 		call	_Z11printStringPKc@plt
 4751      E7800000 
 4752              	.LVL485:
 726:src/tcb.cpp   ****     if(kosnica==49){
 4753              		.loc 1 726 5 is_stmt 1
 726:src/tcb.cpp   ****     if(kosnica==49){
 4754              		.loc 1 726 12 is_stmt 0
 4755 1fe4 83A78421 		lw	a5,536(s1)
 4756 1fe8 9B871700 		addiw	a5,a5,1
 4757 1fec 1B870700 		sext.w	a4,a5
 4758 1ff0 23ACF420 		sw	a5,536(s1)
 727:src/tcb.cpp   ****         printString("Pcele napunile kosnicu budi medveda\n");
 4759              		.loc 1 727 5 is_stmt 1
 4760 1ff4 93071003 		li	a5,49
 4761 1ff8 6306F702 		beq	a4,a5,.L218
 731:src/tcb.cpp   ****     }
 4762              		.loc 1 731 9
 731:src/tcb.cpp   ****     }
 4763              		.loc 1 731 20 is_stmt 0
 4764 1ffc 17050000 		ld	a0,.LANCHOR0+520
 4764      03350500 
 4765 2004 97000000 		call	_ZN11Semaphore_k6signalEv@plt
 4765      E7800000 
 4766              	.LVL486:
 4767              	.L210:
 734:src/tcb.cpp   **** 
 4768              		.loc 1 734 1
 4769 200c 83308101 		ld	ra,24(sp)
 4770              		.cfi_remember_state
 4771              		.cfi_restore 1
 4772 2010 03340101 		ld	s0,16(sp)
 4773              		.cfi_restore 8
 4774              		.cfi_def_cfa 2, 32
 4775 2014 83348100 		ld	s1,8(sp)
 4776              		.cfi_restore 9
 4777 2018 03390100 		ld	s2,0(sp)
 4778              		.cfi_restore 18
 4779 201c 13010102 		addi	sp,sp,32
 4780              		.cfi_def_cfa_offset 0
GAS LISTING /tmp/ccg8jNLS.s 			page 131


 4781 2020 67800000 		jr	ra
 4782              	.L218:
 4783              		.cfi_restore_state
 728:src/tcb.cpp   ****         bear->signal();
 4784              		.loc 1 728 9 is_stmt 1
 728:src/tcb.cpp   ****         bear->signal();
 4785              		.loc 1 728 20 is_stmt 0
 4786 2024 17050000 		lla	a0,.LC33
 4786      13050500 
 4787 202c 97000000 		call	_Z11printStringPKc@plt
 4787      E7800000 
 4788              	.LVL487:
 729:src/tcb.cpp   ****     }else{
 4789              		.loc 1 729 9 is_stmt 1
 729:src/tcb.cpp   ****     }else{
 4790              		.loc 1 729 21 is_stmt 0
 4791 2034 17050000 		ld	a0,.LANCHOR0+528
 4791      03350500 
 4792 203c 97000000 		call	_ZN11Semaphore_k6signalEv@plt
 4792      E7800000 
 4793              	.LVL488:
 4794 2044 6FF09FFC 		j	.L210
 4795              		.cfi_endproc
 4796              	.LFE92:
 4798              		.section	.rodata.str1.8
 4799 035d 000000   		.align	3
 4800              	.LC34:
 4801 0360 4D656461 		.string	"Meda ceka\n"
 4801      2063656B 
 4801      610A00
 4802 036b 00000000 		.align	3
 4802      00
 4803              	.LC35:
 4804 0370 4D656461 		.string	"Meda jede med..."
 4804      206A6564 
 4804      65206D65 
 4804      642E2E2E 
 4804      00
 4805 0381 00000000 		.align	3
 4805      000000
 4806              	.LC36:
 4807 0388 4D656461 		.string	"Meda sve izjeo signal pcelama\n"
 4807      20737665 
 4807      20697A6A 
 4807      656F2073 
 4807      69676E61 
 4808              		.text
 4809              		.align	2
 4810              		.globl	_ZN3TCB4medaEv
 4812              	_ZN3TCB4medaEv:
 4813              	.LFB93:
 736:src/tcb.cpp   ****     setPceleMed();
 4814              		.loc 1 736 18 is_stmt 1
 4815              		.cfi_startproc
 4816 2048 130101FF 		addi	sp,sp,-16
 4817              		.cfi_def_cfa_offset 16
 4818 204c 23341100 		sd	ra,8(sp)
GAS LISTING /tmp/ccg8jNLS.s 			page 132


 4819 2050 23308100 		sd	s0,0(sp)
 4820              		.cfi_offset 1, -8
 4821              		.cfi_offset 8, -16
 4822 2054 13040101 		addi	s0,sp,16
 4823              		.cfi_def_cfa 8, 0
 737:src/tcb.cpp   ****     printString("Meda ceka\n");
 4824              		.loc 1 737 5
 737:src/tcb.cpp   ****     printString("Meda ceka\n");
 4825              		.loc 1 737 16 is_stmt 0
 4826 2058 97000000 		call	_ZN3TCB11setPceleMedEv
 4826      E7800000 
 4827              	.LVL489:
 738:src/tcb.cpp   ****     bear->wait();
 4828              		.loc 1 738 5 is_stmt 1
 738:src/tcb.cpp   ****     bear->wait();
 4829              		.loc 1 738 16 is_stmt 0
 4830 2060 17050000 		lla	a0,.LC34
 4830      13050500 
 4831 2068 97000000 		call	_Z11printStringPKc@plt
 4831      E7800000 
 4832              	.LVL490:
 739:src/tcb.cpp   ****     printString("Meda jede med...");
 4833              		.loc 1 739 5 is_stmt 1
 739:src/tcb.cpp   ****     printString("Meda jede med...");
 4834              		.loc 1 739 15 is_stmt 0
 4835 2070 17050000 		ld	a0,.LANCHOR0+528
 4835      03350500 
 4836 2078 97000000 		call	_ZN11Semaphore_k4waitEv@plt
 4836      E7800000 
 4837              	.LVL491:
 740:src/tcb.cpp   ****     printString("\n");
 4838              		.loc 1 740 5 is_stmt 1
 740:src/tcb.cpp   ****     printString("\n");
 4839              		.loc 1 740 16 is_stmt 0
 4840 2080 17050000 		lla	a0,.LC35
 4840      13050500 
 4841 2088 97000000 		call	_Z11printStringPKc@plt
 4841      E7800000 
 4842              	.LVL492:
 741:src/tcb.cpp   ****     for(int i=0;i<100000;i++){
 4843              		.loc 1 741 5 is_stmt 1
 741:src/tcb.cpp   ****     for(int i=0;i<100000;i++){
 4844              		.loc 1 741 16 is_stmt 0
 4845 2090 17050000 		lla	a0,.LC1
 4845      13050500 
 4846 2098 97000000 		call	_Z11printStringPKc@plt
 4846      E7800000 
 4847              	.LVL493:
 742:src/tcb.cpp   ****         for(int j=0;j<1000;j++);
 4848              		.loc 1 742 5 is_stmt 1
 4849              	.LBB530:
 742:src/tcb.cpp   ****         for(int j=0;j<1000;j++);
 4850              		.loc 1 742 13 is_stmt 0
 4851 20a0 93060000 		li	a3,0
 4852 20a4 6F008000 		j	.L223
 4853              	.LVL494:
 4854              	.L221:
GAS LISTING /tmp/ccg8jNLS.s 			page 133


 742:src/tcb.cpp   ****         for(int j=0;j<1000;j++);
 4855              		.loc 1 742 5 is_stmt 1 discriminator 2
 4856 20a8 9B861600 		addiw	a3,a3,1
 4857              	.LVL495:
 4858              	.L223:
 742:src/tcb.cpp   ****         for(int j=0;j<1000;j++);
 4859              		.loc 1 742 18 discriminator 1
 4860 20ac B7870100 		li	a5,98304
 4861 20b0 9387F769 		addi	a5,a5,1695
 4862 20b4 63CCD700 		bgt	a3,a5,.L220
 4863              	.LBB531:
 743:src/tcb.cpp   ****         //thread_dispatch();
 4864              		.loc 1 743 17 is_stmt 0
 4865 20b8 93070000 		li	a5,0
 4866              	.L222:
 4867              	.LVL496:
 743:src/tcb.cpp   ****         //thread_dispatch();
 4868              		.loc 1 743 22 is_stmt 1 discriminator 3
 4869 20bc 1307703E 		li	a4,999
 4870 20c0 E344F7FE 		bgt	a5,a4,.L221
 743:src/tcb.cpp   ****         //thread_dispatch();
 4871              		.loc 1 743 9 discriminator 2
 4872 20c4 9B871700 		addiw	a5,a5,1
 4873              	.LVL497:
 4874 20c8 6FF05FFF 		j	.L222
 4875              	.L220:
 4876              	.LBE531:
 4877              	.LBE530:
 746:src/tcb.cpp   ****     kosnica=0;
 4878              		.loc 1 746 5
 746:src/tcb.cpp   ****     kosnica=0;
 4879              		.loc 1 746 16 is_stmt 0
 4880 20cc 17050000 		lla	a0,.LC36
 4880      13050500 
 4881 20d4 97000000 		call	_Z11printStringPKc@plt
 4881      E7800000 
 4882              	.LVL498:
 747:src/tcb.cpp   ****     mtx->signal();
 4883              		.loc 1 747 5 is_stmt 1
 747:src/tcb.cpp   ****     mtx->signal();
 4884              		.loc 1 747 12 is_stmt 0
 4885 20dc 97070000 		lla	a5,.LANCHOR0
 4885      93870700 
 4886 20e4 23AC0720 		sw	zero,536(a5)
 748:src/tcb.cpp   **** 
 4887              		.loc 1 748 5 is_stmt 1
 748:src/tcb.cpp   **** 
 4888              		.loc 1 748 16 is_stmt 0
 4889 20e8 03B58720 		ld	a0,520(a5)
 4890 20ec 97000000 		call	_ZN11Semaphore_k6signalEv@plt
 4890      E7800000 
 4891              	.LVL499:
 750:src/tcb.cpp   **** 
 4892              		.loc 1 750 1
 4893 20f4 83308100 		ld	ra,8(sp)
 4894              		.cfi_restore 1
 4895 20f8 03340100 		ld	s0,0(sp)
GAS LISTING /tmp/ccg8jNLS.s 			page 134


 4896              		.cfi_restore 8
 4897              		.cfi_def_cfa 2, 16
 4898 20fc 13010101 		addi	sp,sp,16
 4899              		.cfi_def_cfa_offset 0
 4900 2100 67800000 		jr	ra
 4901              		.cfi_endproc
 4902              	.LFE93:
 4904              		.align	2
 4906              	_GLOBAL__sub_I__ZN3TCB7waitingE:
 4907              	.LFB105:
 4908              		.loc 1 759 1 is_stmt 1
 4909              		.cfi_startproc
 4910 2104 130101FF 		addi	sp,sp,-16
 4911              		.cfi_def_cfa_offset 16
 4912 2108 23341100 		sd	ra,8(sp)
 4913 210c 23308100 		sd	s0,0(sp)
 4914              		.cfi_offset 1, -8
 4915              		.cfi_offset 8, -16
 4916 2110 13040101 		addi	s0,sp,16
 4917              		.cfi_def_cfa 8, 0
 4918              		.loc 1 759 1 is_stmt 0
 4919 2114 B7050100 		li	a1,65536
 4920 2118 9385F5FF 		addi	a1,a1,-1
 4921 211c 13051000 		li	a0,1
 4922 2120 97000000 		call	_Z41__static_initialization_and_destruction_0ii
 4922      E7800000 
 4923              	.LVL500:
 4924 2128 83308100 		ld	ra,8(sp)
 4925              		.cfi_restore 1
 4926 212c 03340100 		ld	s0,0(sp)
 4927              		.cfi_restore 8
 4928              		.cfi_def_cfa 2, 16
 4929 2130 13010101 		addi	sp,sp,16
 4930              		.cfi_def_cfa_offset 0
 4931 2134 67800000 		jr	ra
 4932              		.cfi_endproc
 4933              	.LFE105:
 4935              		.section	.init_array,"aw"
 4936              		.align	3
 4937 0000 00000000 		.dword	_GLOBAL__sub_I__ZN3TCB7waitingE
 4937      00000000 
 4938              		.globl	writeIndex
 4939              		.globl	_ZN3TCB4bearE
 4940              		.globl	_ZN3TCB3mtxE
 4941              		.globl	_ZN3TCB11fsMedaPceleE
 4942              		.globl	_ZN3TCB7kosnicaE
 4943              		.globl	_ZN3TCB4pot1E
 4944              		.globl	_ZN3TCB11mutexParentE
 4945              		.globl	_ZN3TCB10mutexChildE
 4946              		.globl	_ZN3TCB7parenttE
 4947              		.globl	_ZN3TCB12setHngryBirdE
 4948              		.globl	_ZN3TCB14fsDiningSavageE
 4949              		.globl	_ZN3TCB3potE
 4950              		.globl	_ZN3TCB7semCookE
 4951              		.globl	_ZN3TCB9semSavageE
 4952              		.globl	_ZN3TCB5mutexE
 4953              		.globl	_ZN3TCB5door2E
GAS LISTING /tmp/ccg8jNLS.s 			page 135


 4954              		.globl	_ZN3TCB5door1E
 4955              		.globl	_ZN3TCB6oxySemE
 4956              		.globl	_ZN3TCB8hydroSemE
 4957              		.globl	_ZN3TCB5countE
 4958              		.globl	_ZN3TCB8moleculeE
 4959              		.globl	_ZN3TCB5fsH20E
 4960              		.globl	_ZN3TCB10secondDoorE
 4961              		.globl	_ZN3TCB9firstDoorE
 4962              		.globl	_ZN3TCB11setBarrier2E
 4963              		.globl	_ZN3TCB5callsE
 4964              		.globl	_ZN3TCB11threadCountE
 4965              		.globl	_ZN3TCB7currThrE
 4966              		.globl	_ZN3TCB8setMaxThE
 4967              		.globl	_ZN3TCB13semMaxThreadsE
 4968              		.globl	_ZN3TCB7newItemE
 4969              		.globl	_ZN3TCB10prodConsumE
 4970              		.globl	mutexC
 4971              		.globl	full
 4972              		.globl	emptyy
 4973              		.globl	consumerCnt
 4974              		.globl	buffer
 4975              		.globl	_ZN3TCB12numOFthreadsE
 4976              		.globl	_ZN3TCB8numCallsE
 4977              		.globl	_ZN3TCB9fsBarrierE
 4978              		.globl	_ZN3TCB10ListBarierE
 4979              		.globl	_ZN3TCB8firstSetE
 4980              		.globl	_ZN3TCB5entryE
 4981              		.globl	_ZN3TCB10mutexWomenE
 4982              		.globl	_ZN3TCB8mutexMenE
 4983              		.globl	_ZN3TCB6toiletE
 4984              		.globl	_ZN3TCB5emptyE
 4985              		.globl	_ZN3TCB8numOfManE
 4986              		.globl	_ZN3TCB10numOfWomanE
 4987              		.globl	_ZN3TCB2IDE
 4988              		.globl	_ZN3TCB7runningE
 4989              		.globl	_ZN3TCB7waitingE
 4990              		.bss
 4991              		.align	3
 4992              		.set	.LANCHOR0,. + 0
 4995              	_ZN3TCB10ListBarierE:
 4996 0000 00000000 		.zero	16
 4996      00000000 
 4996      00000000 
 4996      00000000 
 4999              	_ZN3TCB7runningE:
 5000 0010 00000000 		.zero	8
 5000      00000000 
 5003              	_ZN3TCB8setMaxThE:
 5004 0018 00       		.zero	1
 5005 0019 000000   		.zero	3
 5008              	_ZN3TCB7currThrE:
 5009 001c 00000000 		.zero	4
 5012              	_ZN3TCB13semMaxThreadsE:
 5013 0020 00000000 		.zero	8
 5013      00000000 
 5016              	_ZN3TCB2IDE:
 5017 0028 00000000 		.zero	4
GAS LISTING /tmp/ccg8jNLS.s 			page 136


 5020              	_ZN3TCB9fsBarrierE:
 5021 002c 00       		.zero	1
 5022 002d 000000   		.zero	3
 5025              	_ZN3TCB12numOFthreadsE:
 5026 0030 00000000 		.zero	4
 5029              	_ZN3TCB11setBarrier2E:
 5030 0034 00       		.zero	1
 5031 0035 000000   		.zero	3
 5034              	_ZN3TCB11threadCountE:
 5035 0038 00000000 		.zero	4
 5036 003c 00000000 		.zero	4
 5039              	_ZN3TCB5emptyE:
 5040 0040 00000000 		.zero	8
 5040      00000000 
 5043              	_ZN3TCB6toiletE:
 5044 0048 00000000 		.zero	8
 5044      00000000 
 5047              	_ZN3TCB8mutexMenE:
 5048 0050 00000000 		.zero	8
 5048      00000000 
 5051              	_ZN3TCB10mutexWomenE:
 5052 0058 00000000 		.zero	8
 5052      00000000 
 5055              	_ZN3TCB5entryE:
 5056 0060 00000000 		.zero	8
 5056      00000000 
 5059              	_ZN3TCB8firstSetE:
 5060 0068 00       		.zero	1
 5061 0069 000000   		.zero	3
 5064              	_ZN3TCB8numOfManE:
 5065 006c 00000000 		.zero	4
 5068              	_ZN3TCB10numOfWomanE:
 5069 0070 00000000 		.zero	4
 5072              	_ZN3TCB8numCallsE:
 5073 0074 00000000 		.zero	4
 5076              	_ZN3TCB9firstDoorE:
 5077 0078 00000000 		.zero	8
 5077      00000000 
 5080              	_ZN3TCB10secondDoorE:
 5081 0080 00000000 		.zero	8
 5081      00000000 
 5084              	_ZN3TCB5callsE:
 5085 0088 00000000 		.zero	4
 5086 008c 00000000 		.zero	4
 5089              	emptyy:
 5090 0090 00000000 		.zero	8
 5090      00000000 
 5093              	full:
 5094 0098 00000000 		.zero	64
 5094      00000000 
 5094      00000000 
 5094      00000000 
 5094      00000000 
 5097              	mutexC:
 5098 00d8 00000000 		.zero	80
 5098      00000000 
 5098      00000000 
GAS LISTING /tmp/ccg8jNLS.s 			page 137


 5098      00000000 
 5098      00000000 
 5101              	_ZN3TCB10prodConsumE:
 5102 0128 00       		.zero	1
 5103 0129 000000   		.zero	3
 5106              	_ZN3TCB7newItemE:
 5107 012c 00000000 		.zero	4
 5110              	writeIndex:
 5111 0130 00000000 		.zero	4
 5112 0134 00000000 		.zero	4
 5115              	buffer:
 5116 0138 00000000 		.zero	40
 5116      00000000 
 5116      00000000 
 5116      00000000 
 5116      00000000 
 5119              	consumerCnt:
 5120 0160 00000000 		.zero	40
 5120      00000000 
 5120      00000000 
 5120      00000000 
 5120      00000000 
 5123              	_ZN3TCB5door1E:
 5124 0188 00000000 		.zero	8
 5124      00000000 
 5127              	_ZN3TCB8moleculeE:
 5128 0190 00000000 		.zero	8
 5128      00000000 
 5131              	_ZN3TCB5countE:
 5132 0198 00000000 		.zero	4
 5133 019c 00000000 		.zero	4
 5136              	_ZN3TCB5door2E:
 5137 01a0 00000000 		.zero	8
 5137      00000000 
 5140              	_ZN3TCB8hydroSemE:
 5141 01a8 00000000 		.zero	8
 5141      00000000 
 5144              	_ZN3TCB6oxySemE:
 5145 01b0 00000000 		.zero	8
 5145      00000000 
 5148              	_ZN3TCB5fsH20E:
 5149 01b8 00       		.zero	1
 5152              	_ZN3TCB14fsDiningSavageE:
 5153 01b9 00       		.zero	1
 5154 01ba 00000000 		.zero	6
 5154      0000
 5157              	_ZN3TCB5mutexE:
 5158 01c0 00000000 		.zero	8
 5158      00000000 
 5161              	_ZN3TCB9semSavageE:
 5162 01c8 00000000 		.zero	8
 5162      00000000 
 5165              	_ZN3TCB7semCookE:
 5166 01d0 00000000 		.zero	8
 5166      00000000 
 5169              	_ZN3TCB3potE:
 5170 01d8 00000000 		.zero	4
GAS LISTING /tmp/ccg8jNLS.s 			page 138


 5171 01dc 00000000 		.zero	4
 5174              	_ZN3TCB7parenttE:
 5175 01e0 00000000 		.zero	8
 5175      00000000 
 5178              	_ZN3TCB11mutexParentE:
 5179 01e8 00000000 		.zero	8
 5179      00000000 
 5182              	_ZN3TCB4pot1E:
 5183 01f0 00000000 		.zero	4
 5184 01f4 00000000 		.zero	4
 5187              	_ZN3TCB10mutexChildE:
 5188 01f8 00000000 		.zero	8
 5188      00000000 
 5191              	_ZN3TCB12setHngryBirdE:
 5192 0200 00       		.zero	1
 5195              	_ZN3TCB11fsMedaPceleE:
 5196 0201 00       		.zero	1
 5197 0202 00000000 		.zero	6
 5197      0000
 5200              	_ZN3TCB3mtxE:
 5201 0208 00000000 		.zero	8
 5201      00000000 
 5204              	_ZN3TCB4bearE:
 5205 0210 00000000 		.zero	8
 5205      00000000 
 5208              	_ZN3TCB7kosnicaE:
 5209 0218 00000000 		.zero	4
 5212              	_ZN3TCB7waitingE:
 5213 021c 00000000 		.zero	4
 5214              		.text
 5215              	.Letext0:
 5216              		.file 6 "src/../h/../lib/hw.h"
 5217              		.file 7 "src/../h/memoryAllocator.hpp"
 5218              		.file 8 "src/../h/scheduler.hpp"
 5219              		.file 9 "src/../h/syscall_c.h"
 5220              		.file 10 "src/../test/printing.hpp"
 5221              		.file 11 "src/../h/syscall_cpp.hpp"
 17462              		.align	3
 17465              	DW.ref.__gxx_personality_v0:
 17466 0000 00000000 		.dword	__gxx_personality_v0
 17466      00000000 
 17467              		.ident	"GCC: (Ubuntu 9.4.0-1ubuntu1~20.04) 9.4.0"
 17468              		.section	.note.GNU-stack,"",@progbits
GAS LISTING /tmp/ccg8jNLS.s 			page 139


DEFINED SYMBOLS
                            *ABS*:0000000000000000 tcb.cpp
     /tmp/ccg8jNLS.s:8      .text:0000000000000000 _Z41__static_initialization_and_destruction_0ii
     /tmp/ccg8jNLS.s:12     .text:0000000000000000 .L0 
     /tmp/ccg8jNLS.s:14     .text:0000000000000000 .L0 
     /tmp/ccg8jNLS.s:15     .text:0000000000000004 .L0 
     /tmp/ccg8jNLS.s:17     .text:0000000000000008 .L0 
     /tmp/ccg8jNLS.s:19     .text:000000000000000c .L0 
     /tmp/ccg8jNLS.s:21     .text:000000000000000c .L0 
     /tmp/ccg8jNLS.s:25     .text:0000000000000018 .L0 
     /tmp/ccg8jNLS.s:26     .text:0000000000000018 .L0 
     /tmp/ccg8jNLS.s:27     .text:0000000000000018 .L0 
     /tmp/ccg8jNLS.s:29     .text:000000000000001c .L0 
     /tmp/ccg8jNLS.s:32     .text:0000000000000020 .L0 
     /tmp/ccg8jNLS.s:34     .text:0000000000000020 .L0 
     /tmp/ccg8jNLS.s:43     .text:000000000000002c .L0 
     /tmp/ccg8jNLS.s:51     .text:000000000000003c .L0 
     /tmp/ccg8jNLS.s:52     .text:0000000000000040 .L0 
     /tmp/ccg8jNLS.s:58     .text:0000000000000040 _ZN3TCB13threadWrapperEv
     /tmp/ccg8jNLS.s:61     .text:0000000000000040 .L0 
     /tmp/ccg8jNLS.s:62     .text:0000000000000040 .L0 
     /tmp/ccg8jNLS.s:63     .text:0000000000000044 .L0 
     /tmp/ccg8jNLS.s:67     .text:0000000000000050 .L0 
     /tmp/ccg8jNLS.s:68     .text:0000000000000050 .L0 
     /tmp/ccg8jNLS.s:69     .text:0000000000000050 .L0 
     /tmp/ccg8jNLS.s:71     .text:0000000000000054 .L0 
     /tmp/ccg8jNLS.s:73     .text:0000000000000054 .L0 
     /tmp/ccg8jNLS.s:74     .text:0000000000000054 .L0 
     /tmp/ccg8jNLS.s:77     .text:000000000000005c .L0 
     /tmp/ccg8jNLS.s:78     .text:000000000000005c .L0 
     /tmp/ccg8jNLS.s:82     .text:000000000000006c .L0 
     /tmp/ccg8jNLS.s:86     .text:0000000000000074 .L0 
     /tmp/ccg8jNLS.s:87     .text:0000000000000074 .L0 
     /tmp/ccg8jNLS.s:90     .text:000000000000007c .L0 
     /tmp/ccg8jNLS.s:92     .text:0000000000000080 .L0 
     /tmp/ccg8jNLS.s:94     .text:0000000000000084 .L0 
     /tmp/ccg8jNLS.s:97     .text:0000000000000088 .L0 
     /tmp/ccg8jNLS.s:100    .text:0000000000000094 .L0 
     /tmp/ccg8jNLS.s:102    .text:000000000000009c .L0 
     /tmp/ccg8jNLS.s:105    .text:00000000000000a0 .L0 
     /tmp/ccg8jNLS.s:106    .text:00000000000000a0 .L0 
     /tmp/ccg8jNLS.s:109    .text:00000000000000a8 .L0 
     /tmp/ccg8jNLS.s:110    .text:00000000000000ac .L0 
     /tmp/ccg8jNLS.s:111    .text:00000000000000ac .L0 
     /tmp/ccg8jNLS.s:113    .text:00000000000000b0 .L0 
     /tmp/ccg8jNLS.s:114    .text:00000000000000b0 .L0 
     /tmp/ccg8jNLS.s:116    .text:00000000000000b4 .L0 
     /tmp/ccg8jNLS.s:118    .text:00000000000000b8 .L0 
     /tmp/ccg8jNLS.s:121    .text:00000000000000bc .L0 
     /tmp/ccg8jNLS.s:123    .text:00000000000000bc .L0 
     /tmp/ccg8jNLS.s:124    .text:00000000000000bc .L0 
     /tmp/ccg8jNLS.s:128    .text:00000000000000c8 .L0 
     /tmp/ccg8jNLS.s:129    .text:00000000000000c8 .L0 
     /tmp/ccg8jNLS.s:132    .text:00000000000000d4 .L0 
     /tmp/ccg8jNLS.s:134    .text:00000000000000d8 .L0 
     /tmp/ccg8jNLS.s:139    .text:00000000000000e4 .L0 
     /tmp/ccg8jNLS.s:140    .text:00000000000000e4 .L0 
GAS LISTING /tmp/ccg8jNLS.s 			page 140


     /tmp/ccg8jNLS.s:144    .text:00000000000000f4 .L0 
     /tmp/ccg8jNLS.s:145    .text:00000000000000f4 .L0 
     /tmp/ccg8jNLS.s:149    .text:0000000000000104 .L0 
     /tmp/ccg8jNLS.s:155    .text:0000000000000104 _ZN3TCB5yieldEv
     /tmp/ccg8jNLS.s:158    .text:0000000000000104 .L0 
     /tmp/ccg8jNLS.s:159    .text:0000000000000104 .L0 
     /tmp/ccg8jNLS.s:160    .text:0000000000000108 .L0 
     /tmp/ccg8jNLS.s:162    .text:000000000000010c .L0 
     /tmp/ccg8jNLS.s:164    .text:0000000000000110 .L0 
     /tmp/ccg8jNLS.s:170    .text:0000000000000110 .L0 
     /tmp/ccg8jNLS.s:171    .text:0000000000000110 .L0 
     /tmp/ccg8jNLS.s:172    .text:0000000000000110 .L0 
     /tmp/ccg8jNLS.s:182    .text:0000000000000118 .L0 
         src/tcb.cpp:98     .text:0000000000000118 .L0 
     /tmp/ccg8jNLS.s:189    .text:000000000000011c .L0 
     /tmp/ccg8jNLS.s:190    .text:0000000000000120 .L0 
     /tmp/ccg8jNLS.s:191    .text:0000000000000120 .L0 
     /tmp/ccg8jNLS.s:193    .text:0000000000000124 .L0 
     /tmp/ccg8jNLS.s:195    .text:0000000000000128 .L0 
     /tmp/ccg8jNLS.s:212    .text:0000000000000128 _ZN3TCB8dispatchEv
     /tmp/ccg8jNLS.s:215    .text:0000000000000128 .L0 
     /tmp/ccg8jNLS.s:216    .text:0000000000000128 .L0 
     /tmp/ccg8jNLS.s:217    .text:000000000000012c .L0 
     /tmp/ccg8jNLS.s:221    .text:0000000000000138 .L0 
     /tmp/ccg8jNLS.s:222    .text:0000000000000138 .L0 
     /tmp/ccg8jNLS.s:223    .text:0000000000000138 .L0 
     /tmp/ccg8jNLS.s:225    .text:000000000000013c .L0 
     /tmp/ccg8jNLS.s:227    .text:000000000000013c .L0 
     /tmp/ccg8jNLS.s:228    .text:000000000000013c .L0 
     /tmp/ccg8jNLS.s:234    .text:0000000000000144 .L0 
     /tmp/ccg8jNLS.s:235    .text:0000000000000144 .L0 
     /tmp/ccg8jNLS.s:236    .text:0000000000000144 .L0 
     /tmp/ccg8jNLS.s:241    .text:0000000000000148 .L0 
     /tmp/ccg8jNLS.s:246    .text:000000000000014c .L0 
     /tmp/ccg8jNLS.s:247    .text:000000000000014c .L0 
     /tmp/ccg8jNLS.s:252    .text:0000000000000150 .L0 
     /tmp/ccg8jNLS.s:256    .text:0000000000000154 .L0 
     /tmp/ccg8jNLS.s:257    .text:0000000000000154 .L0 
     /tmp/ccg8jNLS.s:258    .text:0000000000000154 .L0 
     /tmp/ccg8jNLS.s:260    .text:0000000000000158 .L0 
     /tmp/ccg8jNLS.s:261    .text:0000000000000158 .L0 
     /tmp/ccg8jNLS.s:263    .text:000000000000015c .L0 
     /tmp/ccg8jNLS.s:265    .text:0000000000000160 .L0 
     /tmp/ccg8jNLS.s:269    .text:0000000000000168 .L0 
     /tmp/ccg8jNLS.s:270    .text:0000000000000168 .L0 
     /tmp/ccg8jNLS.s:273    .text:000000000000016c .L0 
     /tmp/ccg8jNLS.s:274    .text:000000000000016c .L0 
     /tmp/ccg8jNLS.s:277    .text:0000000000000174 .L0 
     /tmp/ccg8jNLS.s:282    .text:000000000000017c .L0 
     /tmp/ccg8jNLS.s:283    .text:000000000000017c .L0 
     /tmp/ccg8jNLS.s:284    .text:000000000000017c .L0 
     /tmp/ccg8jNLS.s:289    .text:0000000000000180 .L0 
     /tmp/ccg8jNLS.s:294    .text:0000000000000184 .L0 
     /tmp/ccg8jNLS.s:295    .text:0000000000000184 .L0 
     /tmp/ccg8jNLS.s:296    .text:0000000000000184 .L0 
     /tmp/ccg8jNLS.s:307    .text:000000000000018c .L0 
     /tmp/ccg8jNLS.s:309    .text:0000000000000190 .L0 
GAS LISTING /tmp/ccg8jNLS.s 			page 141


     /tmp/ccg8jNLS.s:310    .text:0000000000000190 .L0 
     /tmp/ccg8jNLS.s:315    .text:00000000000001a0 .L0 
     /tmp/ccg8jNLS.s:316    .text:00000000000001a0 .L0 
     /tmp/ccg8jNLS.s:319    .text:00000000000001ac .L0 
     /tmp/ccg8jNLS.s:323    .text:00000000000001b0 .L0 
     /tmp/ccg8jNLS.s:324    .text:00000000000001b4 .L0 
     /tmp/ccg8jNLS.s:325    .text:00000000000001b4 .L0 
     /tmp/ccg8jNLS.s:327    .text:00000000000001b8 .L0 
     /tmp/ccg8jNLS.s:328    .text:00000000000001b8 .L0 
     /tmp/ccg8jNLS.s:330    .text:00000000000001bc .L0 
     /tmp/ccg8jNLS.s:332    .text:00000000000001c0 .L0 
     /tmp/ccg8jNLS.s:336    .text:00000000000001c4 .L0 
     /tmp/ccg8jNLS.s:338    .text:00000000000001c4 .L0 
     /tmp/ccg8jNLS.s:339    .text:00000000000001c4 .L0 
     /tmp/ccg8jNLS.s:348    .text:00000000000001d4 .L0 
     /tmp/ccg8jNLS.s:349    .text:00000000000001d4 .L0 
     /tmp/ccg8jNLS.s:350    .text:00000000000001d4 .L0 
     /tmp/ccg8jNLS.s:357    .text:00000000000001dc .L0 
     /tmp/ccg8jNLS.s:363    .text:00000000000001e0 .L0 
     /tmp/ccg8jNLS.s:364    .text:00000000000001e0 .L0 
     /tmp/ccg8jNLS.s:368    .text:00000000000001f0 .L0 
     /tmp/ccg8jNLS.s:369    .text:00000000000001f0 .L0 
     /tmp/ccg8jNLS.s:378    .text:00000000000001fc .L0 
     /tmp/ccg8jNLS.s:379    .text:00000000000001fc .L0 
     /tmp/ccg8jNLS.s:385    .text:0000000000000210 .L0 
     /tmp/ccg8jNLS.s:386    .text:0000000000000210 .L0 
     /tmp/ccg8jNLS.s:390    .text:0000000000000220 .L0 
     /tmp/ccg8jNLS.s:391    .text:0000000000000220 .L0 
     /tmp/ccg8jNLS.s:395    .text:0000000000000230 .L0 
     /tmp/ccg8jNLS.s:396    .text:0000000000000230 .L0 
     /tmp/ccg8jNLS.s:403    .text:0000000000000234 .L0 
     /tmp/ccg8jNLS.s:404    .text:0000000000000234 .L0 
     /tmp/ccg8jNLS.s:410    .text:0000000000000248 .L0 
     /tmp/ccg8jNLS.s:411    .text:0000000000000248 .L0 
     /tmp/ccg8jNLS.s:415    .text:0000000000000258 .L0 
     /tmp/ccg8jNLS.s:416    .text:0000000000000258 .L0 
     /tmp/ccg8jNLS.s:421    .text:000000000000025c .L0 
     /tmp/ccg8jNLS.s:422    .text:000000000000025c .L0 
     /tmp/ccg8jNLS.s:427    .text:0000000000000260 .L0 
     /tmp/ccg8jNLS.s:428    .text:0000000000000264 .L0 
     /tmp/ccg8jNLS.s:434    .text:0000000000000264 _ZN3TCB4joinEPS_
     /tmp/ccg8jNLS.s:437    .text:0000000000000264 .L0 
     /tmp/ccg8jNLS.s:439    .text:0000000000000264 .L0 
     /tmp/ccg8jNLS.s:442    .text:0000000000000264 .L0 
     /tmp/ccg8jNLS.s:443    .text:0000000000000264 .L0 
     /tmp/ccg8jNLS.s:444    .text:0000000000000264 .L0 
     /tmp/ccg8jNLS.s:449    .text:0000000000000268 .L0 
     /tmp/ccg8jNLS.s:453    .text:0000000000000270 .L0 
     /tmp/ccg8jNLS.s:454    .text:0000000000000274 .L0 
     /tmp/ccg8jNLS.s:459    .text:0000000000000284 .L0 
     /tmp/ccg8jNLS.s:460    .text:0000000000000284 .L0 
     /tmp/ccg8jNLS.s:461    .text:0000000000000284 .L0 
     /tmp/ccg8jNLS.s:462    .text:0000000000000284 .L0 
     /tmp/ccg8jNLS.s:464    .text:0000000000000288 .L0 
     /tmp/ccg8jNLS.s:467    .text:000000000000028c .L0 
     /tmp/ccg8jNLS.s:468    .text:000000000000028c .L0 
     /tmp/ccg8jNLS.s:473    .text:0000000000000294 .L0 
GAS LISTING /tmp/ccg8jNLS.s 			page 142


     /tmp/ccg8jNLS.s:474    .text:0000000000000294 .L0 
     /tmp/ccg8jNLS.s:482    .text:000000000000029c .L0 
     /tmp/ccg8jNLS.s:483    .text:000000000000029c .L0 
     /tmp/ccg8jNLS.s:490    .text:00000000000002a8 .L0 
     /tmp/ccg8jNLS.s:496    .text:00000000000002b0 .L0 
     /tmp/ccg8jNLS.s:498    .text:00000000000002b4 .L0 
     /tmp/ccg8jNLS.s:500    .text:00000000000002b8 .L0 
     /tmp/ccg8jNLS.s:502    .text:00000000000002bc .L0 
     /tmp/ccg8jNLS.s:508    .text:00000000000002c0 .L0 
     /tmp/ccg8jNLS.s:509    .text:00000000000002c4 .L0 
     /tmp/ccg8jNLS.s:510    .text:00000000000002c4 .L0 
     /tmp/ccg8jNLS.s:512    .text:00000000000002c8 .L0 
     /tmp/ccg8jNLS.s:513    .text:00000000000002c8 .L0 
     /tmp/ccg8jNLS.s:515    .text:00000000000002cc .L0 
     /tmp/ccg8jNLS.s:518    .text:00000000000002d0 .L0 
     /tmp/ccg8jNLS.s:520    .text:00000000000002d4 .L0 
     /tmp/ccg8jNLS.s:524    .text:00000000000002d8 .L0 
     /tmp/ccg8jNLS.s:528    .text:00000000000002d8 .L0 
     /tmp/ccg8jNLS.s:534    .text:00000000000002e0 .L0 
     /tmp/ccg8jNLS.s:535    .text:00000000000002e4 .L0 
     /tmp/ccg8jNLS.s:541    .text:00000000000002e4 _ZN3TCB12pustiSveNitiEv
     /tmp/ccg8jNLS.s:544    .text:00000000000002e4 .L0 
     /tmp/ccg8jNLS.s:546    .text:00000000000002e4 .L0 
     /tmp/ccg8jNLS.s:547    .text:00000000000002e8 .L0 
     /tmp/ccg8jNLS.s:552    .text:00000000000002f8 .L0 
     /tmp/ccg8jNLS.s:553    .text:00000000000002f8 .L0 
     /tmp/ccg8jNLS.s:554    .text:00000000000002f8 .L0 
     /tmp/ccg8jNLS.s:555    .text:00000000000002f8 .L0 
     /tmp/ccg8jNLS.s:557    .text:00000000000002fc .L0 
     /tmp/ccg8jNLS.s:566    .text:0000000000000304 .L0 
     /tmp/ccg8jNLS.s:569    .text:0000000000000308 .L0 
     /tmp/ccg8jNLS.s:572    .text:000000000000030c .L0 
     /tmp/ccg8jNLS.s:579    .text:0000000000000314 .L0 
     /tmp/ccg8jNLS.s:580    .text:0000000000000314 .L0 
     /tmp/ccg8jNLS.s:581    .text:0000000000000314 .L0 
     /tmp/ccg8jNLS.s:586    .text:0000000000000318 .L0 
     /tmp/ccg8jNLS.s:587    .text:0000000000000318 .L0 
     /tmp/ccg8jNLS.s:593    .text:0000000000000324 .L0 
     /tmp/ccg8jNLS.s:596    .text:0000000000000324 .L0 
     /tmp/ccg8jNLS.s:597    .text:0000000000000324 .L0 
     /tmp/ccg8jNLS.s:599    .text:0000000000000328 .L0 
     /tmp/ccg8jNLS.s:601    .text:000000000000032c .L0 
     /tmp/ccg8jNLS.s:606    .text:0000000000000330 .L0 
     /tmp/ccg8jNLS.s:612    .text:0000000000000334 .L0 
     /tmp/ccg8jNLS.s:613    .text:0000000000000334 .L0 
     /tmp/ccg8jNLS.s:615    .text:0000000000000338 .L0 
     /tmp/ccg8jNLS.s:617    .text:000000000000033c .L0 
     /tmp/ccg8jNLS.s:625    .text:0000000000000344 .L0 
     /tmp/ccg8jNLS.s:626    .text:0000000000000348 .L0 
     /tmp/ccg8jNLS.s:628    .text:000000000000034c .L0 
     /tmp/ccg8jNLS.s:629    .text:000000000000034c .L0 
     /tmp/ccg8jNLS.s:631    .text:0000000000000350 .L0 
     /tmp/ccg8jNLS.s:633    .text:0000000000000354 .L0 
     /tmp/ccg8jNLS.s:636    .text:0000000000000358 .L0 
     /tmp/ccg8jNLS.s:638    .text:000000000000035c .L0 
     /tmp/ccg8jNLS.s:644    .text:000000000000035c _ZN3TCBC2EPFvPvES0_Pc
     /tmp/ccg8jNLS.s:647    .text:000000000000035c .L0 
GAS LISTING /tmp/ccg8jNLS.s 			page 143


     /tmp/ccg8jNLS.s:649    .text:000000000000035c .L0 
     /tmp/ccg8jNLS.s:650    .text:0000000000000360 .L0 
     /tmp/ccg8jNLS.s:655    .text:0000000000000370 .L0 
     /tmp/ccg8jNLS.s:656    .text:0000000000000370 .L0 
     /tmp/ccg8jNLS.s:657    .text:0000000000000370 .L0 
     /tmp/ccg8jNLS.s:658    .text:0000000000000370 .L0 
     /tmp/ccg8jNLS.s:660    .text:0000000000000374 .L0 
     /tmp/ccg8jNLS.s:664    .text:0000000000000378 .L0 
     /tmp/ccg8jNLS.s:666    .text:000000000000037c .L0 
     /tmp/ccg8jNLS.s:668    .text:0000000000000380 .L0 
     /tmp/ccg8jNLS.s:672    .text:0000000000000388 .L0 
     /tmp/ccg8jNLS.s:676    .text:0000000000000398 .L0 
     /tmp/ccg8jNLS.s:680    .text:000000000000039c .L0 
     /tmp/ccg8jNLS.s:684    .text:00000000000003a8 .L0 
     /tmp/ccg8jNLS.s:686    .text:00000000000003ac .L0 
     /tmp/ccg8jNLS.s:692    .text:00000000000003b4 .L0 
     /tmp/ccg8jNLS.s:698    .text:00000000000003bc .L0 
     /tmp/ccg8jNLS.s:703    .text:00000000000003d0 .L0 
     /tmp/ccg8jNLS.s:717    .text:0000000000000404 .L0 
     /tmp/ccg8jNLS.s:719    .text:0000000000000408 .L0 
     /tmp/ccg8jNLS.s:720    .text:0000000000000408 .L0 
     /tmp/ccg8jNLS.s:723    .text:0000000000000414 .L0 
     /tmp/ccg8jNLS.s:725    .text:0000000000000418 .L0 
     /tmp/ccg8jNLS.s:726    .text:0000000000000418 .L0 
     /tmp/ccg8jNLS.s:728    .text:000000000000041c .L0 
     /tmp/ccg8jNLS.s:732    .text:0000000000000424 .L0 
     /tmp/ccg8jNLS.s:735    .text:0000000000000430 .L0 
     /tmp/ccg8jNLS.s:736    .text:0000000000000430 .L0 
     /tmp/ccg8jNLS.s:742    .text:0000000000000444 .L0 
     /tmp/ccg8jNLS.s:747    .text:0000000000000450 .L0 
     /tmp/ccg8jNLS.s:750    .text:000000000000045c .L0 
     /tmp/ccg8jNLS.s:751    .text:000000000000045c .L0 
     /tmp/ccg8jNLS.s:757    .text:0000000000000470 .L0 
     /tmp/ccg8jNLS.s:758    .text:0000000000000470 .L0 
     /tmp/ccg8jNLS.s:764    .text:000000000000047c .L0 
     /tmp/ccg8jNLS.s:765    .text:0000000000000480 .L0 
     /tmp/ccg8jNLS.s:766    .text:0000000000000480 .L0 
     /tmp/ccg8jNLS.s:768    .text:0000000000000484 .L0 
     /tmp/ccg8jNLS.s:769    .text:0000000000000484 .L0 
     /tmp/ccg8jNLS.s:771    .text:0000000000000488 .L0 
     /tmp/ccg8jNLS.s:774    .text:000000000000048c .L0 
     /tmp/ccg8jNLS.s:776    .text:0000000000000490 .L0 
     /tmp/ccg8jNLS.s:780    .text:0000000000000494 .L0 
     /tmp/ccg8jNLS.s:783    .text:0000000000000494 .L0 
     /tmp/ccg8jNLS.s:787    .text:000000000000049c .L0 
     /tmp/ccg8jNLS.s:792    .text:00000000000004a4 .L0 
     /tmp/ccg8jNLS.s:793    .text:00000000000004a4 .L0 
     /tmp/ccg8jNLS.s:798    .text:00000000000004b8 .L0 
     /tmp/ccg8jNLS.s:799    .text:00000000000004b8 .L0 
     /tmp/ccg8jNLS.s:804    .text:00000000000004c8 .L0 
     /tmp/ccg8jNLS.s:644    .text:000000000000035c _ZN3TCBC1EPFvPvES0_Pc
     /tmp/ccg8jNLS.s:812    .text:00000000000004c8 _ZN3TCB14kreiraj_threadEPPS_PFvPvES2_Pc
     /tmp/ccg8jNLS.s:815    .text:00000000000004c8 .L0 
     /tmp/ccg8jNLS.s:17465  .data.rel.local.DW.ref.__gxx_personality_v0:0000000000000000 DW.ref.__gxx_personality_v0
     /tmp/ccg8jNLS.s:819    .text:00000000000004c8 .L0 
     /tmp/ccg8jNLS.s:820    .text:00000000000004cc .L0 
     /tmp/ccg8jNLS.s:828    .text:00000000000004e8 .L0 
GAS LISTING /tmp/ccg8jNLS.s 			page 144


     /tmp/ccg8jNLS.s:829    .text:00000000000004e8 .L0 
     /tmp/ccg8jNLS.s:830    .text:00000000000004e8 .L0 
     /tmp/ccg8jNLS.s:831    .text:00000000000004e8 .L0 
     /tmp/ccg8jNLS.s:832    .text:00000000000004e8 .L0 
     /tmp/ccg8jNLS.s:833    .text:00000000000004e8 .L0 
     /tmp/ccg8jNLS.s:834    .text:00000000000004e8 .L0 
     /tmp/ccg8jNLS.s:836    .text:00000000000004ec .L0 
     /tmp/ccg8jNLS.s:845    .text:00000000000004fc .L0 
     /tmp/ccg8jNLS.s:846    .text:00000000000004fc .L0 
     /tmp/ccg8jNLS.s:847    .text:00000000000004fc .L0 
     /tmp/ccg8jNLS.s:858    .text:000000000000050c .L0 
     /tmp/ccg8jNLS.s:872    .text:0000000000000528 .L0 
     /tmp/ccg8jNLS.s:873    .text:0000000000000528 .L0 
     /tmp/ccg8jNLS.s:885    .text:0000000000000540 .L0 
     /tmp/ccg8jNLS.s:887    .text:0000000000000544 .L0 
     /tmp/ccg8jNLS.s:888    .text:0000000000000544 .L0 
     /tmp/ccg8jNLS.s:890    .text:000000000000054c .L0 
     /tmp/ccg8jNLS.s:892    .text:0000000000000550 .L0 
     /tmp/ccg8jNLS.s:893    .text:0000000000000550 .L0 
     /tmp/ccg8jNLS.s:895    .text:0000000000000554 .L0 
     /tmp/ccg8jNLS.s:897    .text:0000000000000558 .L0 
     /tmp/ccg8jNLS.s:900    .text:000000000000055c .L0 
     /tmp/ccg8jNLS.s:903    .text:0000000000000560 .L0 
     /tmp/ccg8jNLS.s:906    .text:0000000000000564 .L0 
     /tmp/ccg8jNLS.s:909    .text:0000000000000568 .L0 
     /tmp/ccg8jNLS.s:911    .text:000000000000056c .L0 
     /tmp/ccg8jNLS.s:937    .text:000000000000056c _ZN3TCB7getMyIDEv
     /tmp/ccg8jNLS.s:940    .text:000000000000056c .L0 
     /tmp/ccg8jNLS.s:942    .text:000000000000056c .L0 
     /tmp/ccg8jNLS.s:943    .text:0000000000000570 .L0 
     /tmp/ccg8jNLS.s:945    .text:0000000000000574 .L0 
     /tmp/ccg8jNLS.s:947    .text:0000000000000578 .L0 
     /tmp/ccg8jNLS.s:949    .text:0000000000000578 .L0 
     /tmp/ccg8jNLS.s:950    .text:0000000000000578 .L0 
     /tmp/ccg8jNLS.s:953    .text:0000000000000580 .L0 
     /tmp/ccg8jNLS.s:954    .text:0000000000000580 .L0 
     /tmp/ccg8jNLS.s:956    .text:0000000000000584 .L0 
     /tmp/ccg8jNLS.s:958    .text:0000000000000588 .L0 
     /tmp/ccg8jNLS.s:964    .text:0000000000000588 _ZN3TCB17setUnisexBatrroomEv
     /tmp/ccg8jNLS.s:967    .text:0000000000000588 .L0 
     /tmp/ccg8jNLS.s:968    .text:0000000000000588 .L0 
     /tmp/ccg8jNLS.s:969    .text:000000000000058c .L0 
     /tmp/ccg8jNLS.s:974    .text:000000000000059c .L0 
     /tmp/ccg8jNLS.s:975    .text:000000000000059c .L0 
     /tmp/ccg8jNLS.s:976    .text:000000000000059c .L0 
     /tmp/ccg8jNLS.s:977    .text:000000000000059c .L0 
     /tmp/ccg8jNLS.s:979    .text:00000000000005a0 .L0 
     /tmp/ccg8jNLS.s:985    .text:00000000000005a0 .L0 
     /tmp/ccg8jNLS.s:986    .text:00000000000005a0 .L0 
     /tmp/ccg8jNLS.s:987    .text:00000000000005a0 .L0 
     /tmp/ccg8jNLS.s:995    .text:00000000000005ac .L0 
     /tmp/ccg8jNLS.s:1002   .text:00000000000005b8 .L0 
     /tmp/ccg8jNLS.s:1010   .text:00000000000005c0 .L0 
     /tmp/ccg8jNLS.s:1016   .text:00000000000005cc .L0 
     /tmp/ccg8jNLS.s:1017   .text:00000000000005cc .L0 
     /tmp/ccg8jNLS.s:1018   .text:00000000000005cc .L0 
     /tmp/ccg8jNLS.s:1026   .text:00000000000005d8 .L0 
GAS LISTING /tmp/ccg8jNLS.s 			page 145


     /tmp/ccg8jNLS.s:1033   .text:00000000000005e4 .L0 
     /tmp/ccg8jNLS.s:1041   .text:00000000000005ec .L0 
     /tmp/ccg8jNLS.s:1046   .text:00000000000005f0 .L0 
     /tmp/ccg8jNLS.s:1047   .text:00000000000005f0 .L0 
     /tmp/ccg8jNLS.s:1048   .text:00000000000005f0 .L0 
     /tmp/ccg8jNLS.s:1056   .text:00000000000005fc .L0 
     /tmp/ccg8jNLS.s:1062   .text:0000000000000604 .L0 
     /tmp/ccg8jNLS.s:1070   .text:000000000000060c .L0 
     /tmp/ccg8jNLS.s:1075   .text:0000000000000610 .L0 
     /tmp/ccg8jNLS.s:1076   .text:0000000000000610 .L0 
     /tmp/ccg8jNLS.s:1077   .text:0000000000000610 .L0 
     /tmp/ccg8jNLS.s:1085   .text:000000000000061c .L0 
     /tmp/ccg8jNLS.s:1091   .text:0000000000000624 .L0 
     /tmp/ccg8jNLS.s:1099   .text:000000000000062c .L0 
     /tmp/ccg8jNLS.s:1104   .text:0000000000000630 .L0 
     /tmp/ccg8jNLS.s:1105   .text:0000000000000630 .L0 
     /tmp/ccg8jNLS.s:1106   .text:0000000000000630 .L0 
     /tmp/ccg8jNLS.s:1114   .text:000000000000063c .L0 
     /tmp/ccg8jNLS.s:1120   .text:0000000000000644 .L0 
     /tmp/ccg8jNLS.s:1128   .text:000000000000064c .L0 
     /tmp/ccg8jNLS.s:1130   .text:0000000000000650 .L0 
     /tmp/ccg8jNLS.s:1131   .text:0000000000000654 .L0 
     /tmp/ccg8jNLS.s:1133   .text:0000000000000658 .L0 
     /tmp/ccg8jNLS.s:1134   .text:0000000000000658 .L0 
     /tmp/ccg8jNLS.s:1136   .text:000000000000065c .L0 
     /tmp/ccg8jNLS.s:1138   .text:0000000000000660 .L0 
     /tmp/ccg8jNLS.s:1140   .text:0000000000000664 .L0 
     /tmp/ccg8jNLS.s:1142   .text:0000000000000668 .L0 
     /tmp/ccg8jNLS.s:1165   .text:0000000000000668 _ZN3TCB3manEj
     /tmp/ccg8jNLS.s:1168   .text:0000000000000668 .L0 
     /tmp/ccg8jNLS.s:1170   .text:0000000000000668 .L0 
     /tmp/ccg8jNLS.s:1171   .text:000000000000066c .L0 
     /tmp/ccg8jNLS.s:1176   .text:000000000000067c .L0 
     /tmp/ccg8jNLS.s:1177   .text:000000000000067c .L0 
     /tmp/ccg8jNLS.s:1178   .text:000000000000067c .L0 
     /tmp/ccg8jNLS.s:1179   .text:000000000000067c .L0 
     /tmp/ccg8jNLS.s:1181   .text:0000000000000680 .L0 
     /tmp/ccg8jNLS.s:1184   .text:0000000000000684 .L0 
     /tmp/ccg8jNLS.s:1185   .text:0000000000000684 .L0 
     /tmp/ccg8jNLS.s:1187   .text:000000000000068c .L0 
     /tmp/ccg8jNLS.s:1191   .text:0000000000000690 .L0 
     /tmp/ccg8jNLS.s:1192   .text:0000000000000690 .L0 
     /tmp/ccg8jNLS.s:1197   .text:00000000000006a4 .L0 
     /tmp/ccg8jNLS.s:1198   .text:00000000000006a4 .L0 
     /tmp/ccg8jNLS.s:1202   .text:00000000000006b0 .L0 
     /tmp/ccg8jNLS.s:1203   .text:00000000000006b0 .L0 
     /tmp/ccg8jNLS.s:1207   .text:00000000000006c0 .L0 
     /tmp/ccg8jNLS.s:1208   .text:00000000000006c0 .L0 
     /tmp/ccg8jNLS.s:1212   .text:00000000000006d0 .L0 
     /tmp/ccg8jNLS.s:1213   .text:00000000000006d0 .L0 
     /tmp/ccg8jNLS.s:1220   .text:00000000000006e8 .L0 
     /tmp/ccg8jNLS.s:1221   .text:00000000000006e8 .L0 
     /tmp/ccg8jNLS.s:1225   .text:00000000000006f8 .L0 
     /tmp/ccg8jNLS.s:1226   .text:00000000000006f8 .L0 
     /tmp/ccg8jNLS.s:1231   .text:0000000000000708 .L0 
     /tmp/ccg8jNLS.s:1235   .text:0000000000000710 .L0 
     /tmp/ccg8jNLS.s:1236   .text:0000000000000710 .L0 
GAS LISTING /tmp/ccg8jNLS.s 			page 146


     /tmp/ccg8jNLS.s:1241   .text:0000000000000724 .L0 
     /tmp/ccg8jNLS.s:1242   .text:0000000000000724 .L0 
     /tmp/ccg8jNLS.s:1245   .text:000000000000072c .L0 
     /tmp/ccg8jNLS.s:1246   .text:000000000000072c .L0 
     /tmp/ccg8jNLS.s:1250   .text:0000000000000738 .L0 
     /tmp/ccg8jNLS.s:1251   .text:0000000000000738 .L0 
     /tmp/ccg8jNLS.s:1254   .text:0000000000000740 .L0 
     /tmp/ccg8jNLS.s:1255   .text:0000000000000740 .L0 
     /tmp/ccg8jNLS.s:1259   .text:000000000000074c .L0 
     /tmp/ccg8jNLS.s:1260   .text:000000000000074c .L0 
     /tmp/ccg8jNLS.s:1264   .text:000000000000075c .L0 
     /tmp/ccg8jNLS.s:1265   .text:000000000000075c .L0 
     /tmp/ccg8jNLS.s:1269   .text:000000000000076c .L0 
     /tmp/ccg8jNLS.s:1270   .text:000000000000076c .L0 
     /tmp/ccg8jNLS.s:1276   .text:0000000000000780 .L0 
     /tmp/ccg8jNLS.s:1277   .text:0000000000000780 .L0 
     /tmp/ccg8jNLS.s:1281   .text:0000000000000790 .L0 
     /tmp/ccg8jNLS.s:1282   .text:0000000000000790 .L0 
     /tmp/ccg8jNLS.s:1286   .text:000000000000079c .L0 
     /tmp/ccg8jNLS.s:1287   .text:000000000000079c .L0 
     /tmp/ccg8jNLS.s:1290   .text:00000000000007a4 .L0 
     /tmp/ccg8jNLS.s:1291   .text:00000000000007a4 .L0 
     /tmp/ccg8jNLS.s:1295   .text:00000000000007b0 .L0 
     /tmp/ccg8jNLS.s:1296   .text:00000000000007b0 .L0 
     /tmp/ccg8jNLS.s:1300   .text:00000000000007c0 .L0 
     /tmp/ccg8jNLS.s:1301   .text:00000000000007c0 .L0 
     /tmp/ccg8jNLS.s:1305   .text:00000000000007d0 .L0 
     /tmp/ccg8jNLS.s:1306   .text:00000000000007d0 .L0 
     /tmp/ccg8jNLS.s:1312   .text:00000000000007e4 .L0 
     /tmp/ccg8jNLS.s:1313   .text:00000000000007e4 .L0 
     /tmp/ccg8jNLS.s:1317   .text:00000000000007f4 .L0 
     /tmp/ccg8jNLS.s:1318   .text:00000000000007f4 .L0 
     /tmp/ccg8jNLS.s:1323   .text:0000000000000804 .L0 
     /tmp/ccg8jNLS.s:1326   .text:0000000000000808 .L0 
     /tmp/ccg8jNLS.s:1327   .text:0000000000000808 .L0 
     /tmp/ccg8jNLS.s:1331   .text:0000000000000818 .L0 
     /tmp/ccg8jNLS.s:1332   .text:0000000000000818 .L0 
     /tmp/ccg8jNLS.s:1335   .text:0000000000000820 .L0 
     /tmp/ccg8jNLS.s:1336   .text:0000000000000824 .L0 
     /tmp/ccg8jNLS.s:1337   .text:0000000000000824 .L0 
     /tmp/ccg8jNLS.s:1339   .text:0000000000000828 .L0 
     /tmp/ccg8jNLS.s:1340   .text:0000000000000828 .L0 
     /tmp/ccg8jNLS.s:1342   .text:000000000000082c .L0 
     /tmp/ccg8jNLS.s:1344   .text:0000000000000830 .L0 
     /tmp/ccg8jNLS.s:1346   .text:0000000000000834 .L0 
     /tmp/ccg8jNLS.s:1350   .text:0000000000000838 .L0 
     /tmp/ccg8jNLS.s:1352   .text:0000000000000838 .L0 
     /tmp/ccg8jNLS.s:1353   .text:0000000000000838 .L0 
     /tmp/ccg8jNLS.s:1356   .text:0000000000000840 .L0 
     /tmp/ccg8jNLS.s:1357   .text:0000000000000840 .L0 
     /tmp/ccg8jNLS.s:1362   .text:0000000000000850 .L0 
     /tmp/ccg8jNLS.s:1363   .text:0000000000000850 .L0 
     /tmp/ccg8jNLS.s:1367   .text:0000000000000860 .L0 
     /tmp/ccg8jNLS.s:1368   .text:0000000000000860 .L0 
     /tmp/ccg8jNLS.s:1372   .text:0000000000000870 .L0 
     /tmp/ccg8jNLS.s:1373   .text:0000000000000870 .L0 
     /tmp/ccg8jNLS.s:1377   .text:0000000000000880 .L0 
GAS LISTING /tmp/ccg8jNLS.s 			page 147


     /tmp/ccg8jNLS.s:1378   .text:0000000000000880 .L0 
     /tmp/ccg8jNLS.s:1384   .text:0000000000000894 .L0 
     /tmp/ccg8jNLS.s:1385   .text:0000000000000894 .L0 
     /tmp/ccg8jNLS.s:1391   .text:00000000000008a8 .L0 
     /tmp/ccg8jNLS.s:1392   .text:00000000000008a8 .L0 
     /tmp/ccg8jNLS.s:1396   .text:00000000000008b8 .L0 
     /tmp/ccg8jNLS.s:1397   .text:00000000000008b8 .L0 
     /tmp/ccg8jNLS.s:1400   .text:00000000000008c4 .L0 
     /tmp/ccg8jNLS.s:1420   .text:00000000000008c4 _ZN3TCB5womanEj
     /tmp/ccg8jNLS.s:1423   .text:00000000000008c4 .L0 
     /tmp/ccg8jNLS.s:1425   .text:00000000000008c4 .L0 
     /tmp/ccg8jNLS.s:1426   .text:00000000000008c8 .L0 
     /tmp/ccg8jNLS.s:1431   .text:00000000000008d8 .L0 
     /tmp/ccg8jNLS.s:1432   .text:00000000000008d8 .L0 
     /tmp/ccg8jNLS.s:1433   .text:00000000000008d8 .L0 
     /tmp/ccg8jNLS.s:1434   .text:00000000000008d8 .L0 
     /tmp/ccg8jNLS.s:1436   .text:00000000000008dc .L0 
     /tmp/ccg8jNLS.s:1439   .text:00000000000008e0 .L0 
     /tmp/ccg8jNLS.s:1440   .text:00000000000008e0 .L0 
     /tmp/ccg8jNLS.s:1442   .text:00000000000008e8 .L0 
     /tmp/ccg8jNLS.s:1446   .text:00000000000008ec .L0 
     /tmp/ccg8jNLS.s:1447   .text:00000000000008ec .L0 
     /tmp/ccg8jNLS.s:1452   .text:0000000000000900 .L0 
     /tmp/ccg8jNLS.s:1453   .text:0000000000000900 .L0 
     /tmp/ccg8jNLS.s:1457   .text:000000000000090c .L0 
     /tmp/ccg8jNLS.s:1458   .text:000000000000090c .L0 
     /tmp/ccg8jNLS.s:1462   .text:000000000000091c .L0 
     /tmp/ccg8jNLS.s:1463   .text:000000000000091c .L0 
     /tmp/ccg8jNLS.s:1467   .text:000000000000092c .L0 
     /tmp/ccg8jNLS.s:1468   .text:000000000000092c .L0 
     /tmp/ccg8jNLS.s:1475   .text:0000000000000944 .L0 
     /tmp/ccg8jNLS.s:1476   .text:0000000000000944 .L0 
     /tmp/ccg8jNLS.s:1480   .text:0000000000000954 .L0 
     /tmp/ccg8jNLS.s:1481   .text:0000000000000954 .L0 
     /tmp/ccg8jNLS.s:1486   .text:0000000000000964 .L0 
     /tmp/ccg8jNLS.s:1490   .text:000000000000096c .L0 
     /tmp/ccg8jNLS.s:1491   .text:000000000000096c .L0 
     /tmp/ccg8jNLS.s:1496   .text:0000000000000980 .L0 
     /tmp/ccg8jNLS.s:1497   .text:0000000000000980 .L0 
     /tmp/ccg8jNLS.s:1500   .text:0000000000000988 .L0 
     /tmp/ccg8jNLS.s:1501   .text:0000000000000988 .L0 
     /tmp/ccg8jNLS.s:1505   .text:0000000000000994 .L0 
     /tmp/ccg8jNLS.s:1506   .text:0000000000000994 .L0 
     /tmp/ccg8jNLS.s:1509   .text:000000000000099c .L0 
     /tmp/ccg8jNLS.s:1510   .text:000000000000099c .L0 
     /tmp/ccg8jNLS.s:1514   .text:00000000000009a8 .L0 
     /tmp/ccg8jNLS.s:1515   .text:00000000000009a8 .L0 
     /tmp/ccg8jNLS.s:1519   .text:00000000000009b8 .L0 
     /tmp/ccg8jNLS.s:1520   .text:00000000000009b8 .L0 
     /tmp/ccg8jNLS.s:1524   .text:00000000000009c8 .L0 
     /tmp/ccg8jNLS.s:1525   .text:00000000000009c8 .L0 
     /tmp/ccg8jNLS.s:1531   .text:00000000000009dc .L0 
     /tmp/ccg8jNLS.s:1532   .text:00000000000009dc .L0 
     /tmp/ccg8jNLS.s:1536   .text:00000000000009ec .L0 
     /tmp/ccg8jNLS.s:1537   .text:00000000000009ec .L0 
     /tmp/ccg8jNLS.s:1541   .text:00000000000009f8 .L0 
     /tmp/ccg8jNLS.s:1542   .text:00000000000009f8 .L0 
GAS LISTING /tmp/ccg8jNLS.s 			page 148


     /tmp/ccg8jNLS.s:1545   .text:0000000000000a00 .L0 
     /tmp/ccg8jNLS.s:1546   .text:0000000000000a00 .L0 
     /tmp/ccg8jNLS.s:1550   .text:0000000000000a0c .L0 
     /tmp/ccg8jNLS.s:1551   .text:0000000000000a0c .L0 
     /tmp/ccg8jNLS.s:1555   .text:0000000000000a1c .L0 
     /tmp/ccg8jNLS.s:1556   .text:0000000000000a1c .L0 
     /tmp/ccg8jNLS.s:1560   .text:0000000000000a2c .L0 
     /tmp/ccg8jNLS.s:1561   .text:0000000000000a2c .L0 
     /tmp/ccg8jNLS.s:1567   .text:0000000000000a40 .L0 
     /tmp/ccg8jNLS.s:1568   .text:0000000000000a40 .L0 
     /tmp/ccg8jNLS.s:1572   .text:0000000000000a50 .L0 
     /tmp/ccg8jNLS.s:1573   .text:0000000000000a50 .L0 
     /tmp/ccg8jNLS.s:1578   .text:0000000000000a60 .L0 
     /tmp/ccg8jNLS.s:1581   .text:0000000000000a64 .L0 
     /tmp/ccg8jNLS.s:1582   .text:0000000000000a64 .L0 
     /tmp/ccg8jNLS.s:1586   .text:0000000000000a74 .L0 
     /tmp/ccg8jNLS.s:1587   .text:0000000000000a74 .L0 
     /tmp/ccg8jNLS.s:1590   .text:0000000000000a7c .L0 
     /tmp/ccg8jNLS.s:1591   .text:0000000000000a80 .L0 
     /tmp/ccg8jNLS.s:1592   .text:0000000000000a80 .L0 
     /tmp/ccg8jNLS.s:1594   .text:0000000000000a84 .L0 
     /tmp/ccg8jNLS.s:1595   .text:0000000000000a84 .L0 
     /tmp/ccg8jNLS.s:1597   .text:0000000000000a88 .L0 
     /tmp/ccg8jNLS.s:1599   .text:0000000000000a8c .L0 
     /tmp/ccg8jNLS.s:1601   .text:0000000000000a90 .L0 
     /tmp/ccg8jNLS.s:1605   .text:0000000000000a94 .L0 
     /tmp/ccg8jNLS.s:1607   .text:0000000000000a94 .L0 
     /tmp/ccg8jNLS.s:1608   .text:0000000000000a94 .L0 
     /tmp/ccg8jNLS.s:1611   .text:0000000000000a9c .L0 
     /tmp/ccg8jNLS.s:1612   .text:0000000000000a9c .L0 
     /tmp/ccg8jNLS.s:1617   .text:0000000000000aac .L0 
     /tmp/ccg8jNLS.s:1618   .text:0000000000000aac .L0 
     /tmp/ccg8jNLS.s:1622   .text:0000000000000abc .L0 
     /tmp/ccg8jNLS.s:1623   .text:0000000000000abc .L0 
     /tmp/ccg8jNLS.s:1627   .text:0000000000000acc .L0 
     /tmp/ccg8jNLS.s:1628   .text:0000000000000acc .L0 
     /tmp/ccg8jNLS.s:1632   .text:0000000000000adc .L0 
     /tmp/ccg8jNLS.s:1633   .text:0000000000000adc .L0 
     /tmp/ccg8jNLS.s:1639   .text:0000000000000af0 .L0 
     /tmp/ccg8jNLS.s:1640   .text:0000000000000af0 .L0 
     /tmp/ccg8jNLS.s:1646   .text:0000000000000b04 .L0 
     /tmp/ccg8jNLS.s:1647   .text:0000000000000b04 .L0 
     /tmp/ccg8jNLS.s:1651   .text:0000000000000b14 .L0 
     /tmp/ccg8jNLS.s:1652   .text:0000000000000b14 .L0 
     /tmp/ccg8jNLS.s:1655   .text:0000000000000b20 .L0 
     /tmp/ccg8jNLS.s:1661   .text:0000000000000b20 _ZN3TCB7barrierEv
     /tmp/ccg8jNLS.s:1664   .text:0000000000000b20 .L0 
     /tmp/ccg8jNLS.s:1665   .text:0000000000000b20 .L0 
     /tmp/ccg8jNLS.s:1666   .text:0000000000000b24 .L0 
     /tmp/ccg8jNLS.s:1671   .text:0000000000000b34 .L0 
     /tmp/ccg8jNLS.s:1672   .text:0000000000000b34 .L0 
     /tmp/ccg8jNLS.s:1673   .text:0000000000000b34 .L0 
     /tmp/ccg8jNLS.s:1674   .text:0000000000000b34 .L0 
     /tmp/ccg8jNLS.s:1676   .text:0000000000000b38 .L0 
     /tmp/ccg8jNLS.s:1678   .text:0000000000000b38 .L0 
     /tmp/ccg8jNLS.s:1679   .text:0000000000000b38 .L0 
     /tmp/ccg8jNLS.s:1681   .text:0000000000000b40 .L0 
GAS LISTING /tmp/ccg8jNLS.s 			page 149


     /tmp/ccg8jNLS.s:1683   .text:0000000000000b44 .L0 
     /tmp/ccg8jNLS.s:1684   .text:0000000000000b44 .L0 
     /tmp/ccg8jNLS.s:1688   .text:0000000000000b54 .L0 
     /tmp/ccg8jNLS.s:1689   .text:0000000000000b54 .L0 
     /tmp/ccg8jNLS.s:1694   .text:0000000000000b60 .L0 
     /tmp/ccg8jNLS.s:1695   .text:0000000000000b60 .L0 
     /tmp/ccg8jNLS.s:1702   .text:0000000000000b78 .L0 
     /tmp/ccg8jNLS.s:1703   .text:0000000000000b78 .L0 
     /tmp/ccg8jNLS.s:1705   .text:0000000000000b7c .L0 
     /tmp/ccg8jNLS.s:1708   .text:0000000000000b80 .L0 
     /tmp/ccg8jNLS.s:1709   .text:0000000000000b80 .L0 
     /tmp/ccg8jNLS.s:1711   .text:0000000000000b84 .L0 
     /tmp/ccg8jNLS.s:1712   .text:0000000000000b84 .L0 
     /tmp/ccg8jNLS.s:1714   .text:0000000000000b88 .L0 
     /tmp/ccg8jNLS.s:1715   .text:0000000000000b88 .L0 
     /tmp/ccg8jNLS.s:1723   .text:0000000000000b90 .L0 
     /tmp/ccg8jNLS.s:1726   .text:0000000000000b98 .L0 
     /tmp/ccg8jNLS.s:1729   .text:0000000000000b9c .L0 
     /tmp/ccg8jNLS.s:1736   .text:0000000000000ba4 .L0 
     /tmp/ccg8jNLS.s:1737   .text:0000000000000ba4 .L0 
     /tmp/ccg8jNLS.s:1738   .text:0000000000000ba4 .L0 
     /tmp/ccg8jNLS.s:1743   .text:0000000000000ba8 .L0 
     /tmp/ccg8jNLS.s:1744   .text:0000000000000ba8 .L0 
     /tmp/ccg8jNLS.s:1750   .text:0000000000000bb4 .L0 
     /tmp/ccg8jNLS.s:1753   .text:0000000000000bb4 .L0 
     /tmp/ccg8jNLS.s:1754   .text:0000000000000bb4 .L0 
     /tmp/ccg8jNLS.s:1756   .text:0000000000000bbc .L0 
     /tmp/ccg8jNLS.s:1758   .text:0000000000000bc0 .L0 
     /tmp/ccg8jNLS.s:1763   .text:0000000000000bc4 .L0 
     /tmp/ccg8jNLS.s:1769   .text:0000000000000bc8 .L0 
     /tmp/ccg8jNLS.s:1770   .text:0000000000000bc8 .L0 
     /tmp/ccg8jNLS.s:1772   .text:0000000000000bcc .L0 
     /tmp/ccg8jNLS.s:1774   .text:0000000000000bd4 .L0 
     /tmp/ccg8jNLS.s:1783   .text:0000000000000bdc .L0 
     /tmp/ccg8jNLS.s:1784   .text:0000000000000bdc .L0 
     /tmp/ccg8jNLS.s:1790   .text:0000000000000be8 .L0 
     /tmp/ccg8jNLS.s:1791   .text:0000000000000be8 .L0 
     /tmp/ccg8jNLS.s:1799   .text:0000000000000bf0 .L0 
     /tmp/ccg8jNLS.s:1800   .text:0000000000000bf0 .L0 
     /tmp/ccg8jNLS.s:1806   .text:0000000000000bfc .L0 
     /tmp/ccg8jNLS.s:1812   .text:0000000000000c04 .L0 
     /tmp/ccg8jNLS.s:1814   .text:0000000000000c08 .L0 
     /tmp/ccg8jNLS.s:1816   .text:0000000000000c0c .L0 
     /tmp/ccg8jNLS.s:1818   .text:0000000000000c10 .L0 
     /tmp/ccg8jNLS.s:1825   .text:0000000000000c18 .L0 
     /tmp/ccg8jNLS.s:1826   .text:0000000000000c1c .L0 
     /tmp/ccg8jNLS.s:1827   .text:0000000000000c1c .L0 
     /tmp/ccg8jNLS.s:1829   .text:0000000000000c20 .L0 
     /tmp/ccg8jNLS.s:1830   .text:0000000000000c20 .L0 
     /tmp/ccg8jNLS.s:1832   .text:0000000000000c24 .L0 
     /tmp/ccg8jNLS.s:1834   .text:0000000000000c28 .L0 
     /tmp/ccg8jNLS.s:1836   .text:0000000000000c2c .L0 
     /tmp/ccg8jNLS.s:1840   .text:0000000000000c30 .L0 
     /tmp/ccg8jNLS.s:1845   .text:0000000000000c30 .L0 
     /tmp/ccg8jNLS.s:1853   .text:0000000000000c40 .L0 
     /tmp/ccg8jNLS.s:1854   .text:0000000000000c44 .L0 
     /tmp/ccg8jNLS.s:1860   .text:0000000000000c44 _ZN3TCB6setSemEv
GAS LISTING /tmp/ccg8jNLS.s 			page 150


     /tmp/ccg8jNLS.s:1863   .text:0000000000000c44 .L0 
     /tmp/ccg8jNLS.s:1865   .text:0000000000000c44 .L0 
     /tmp/ccg8jNLS.s:1866   .text:0000000000000c44 .L0 
     /tmp/ccg8jNLS.s:1867   .text:0000000000000c44 .L0 
     /tmp/ccg8jNLS.s:1869   .text:0000000000000c48 .L0 
     /tmp/ccg8jNLS.s:1873   .text:0000000000000c50 .L0 
     /tmp/ccg8jNLS.s:1874   .text:0000000000000c54 .L0 
     /tmp/ccg8jNLS.s:1878   .text:0000000000000c60 .L0 
     /tmp/ccg8jNLS.s:1879   .text:0000000000000c60 .L0 
     /tmp/ccg8jNLS.s:1880   .text:0000000000000c60 .L0 
     /tmp/ccg8jNLS.s:1882   .text:0000000000000c64 .L0 
     /tmp/ccg8jNLS.s:1885   .text:0000000000000c68 .L0 
     /tmp/ccg8jNLS.s:1886   .text:0000000000000c68 .L0 
     /tmp/ccg8jNLS.s:1892   .text:0000000000000c70 .L0 
     /tmp/ccg8jNLS.s:1893   .text:0000000000000c70 .L0 
     /tmp/ccg8jNLS.s:1894   .text:0000000000000c70 .L0 
     /tmp/ccg8jNLS.s:1903   .text:0000000000000c7c .L0 
     /tmp/ccg8jNLS.s:1909   .text:0000000000000c84 .L0 
     /tmp/ccg8jNLS.s:1917   .text:0000000000000c8c .L0 
     /tmp/ccg8jNLS.s:1922   .text:0000000000000c90 .L0 
     /tmp/ccg8jNLS.s:1923   .text:0000000000000c90 .L0 
     /tmp/ccg8jNLS.s:1924   .text:0000000000000c90 .L0 
     /tmp/ccg8jNLS.s:1932   .text:0000000000000c9c .L0 
     /tmp/ccg8jNLS.s:1939   .text:0000000000000ca8 .L0 
     /tmp/ccg8jNLS.s:1947   .text:0000000000000cb0 .L0 
     /tmp/ccg8jNLS.s:1949   .text:0000000000000cb4 .L0 
     /tmp/ccg8jNLS.s:1950   .text:0000000000000cb8 .L0 
     /tmp/ccg8jNLS.s:1952   .text:0000000000000cbc .L0 
     /tmp/ccg8jNLS.s:1953   .text:0000000000000cbc .L0 
     /tmp/ccg8jNLS.s:1955   .text:0000000000000cc0 .L0 
     /tmp/ccg8jNLS.s:1958   .text:0000000000000cc4 .L0 
     /tmp/ccg8jNLS.s:1960   .text:0000000000000cc8 .L0 
     /tmp/ccg8jNLS.s:1974   .text:0000000000000cc8 _ZN3TCB7receiveEv
     /tmp/ccg8jNLS.s:1977   .text:0000000000000cc8 .L0 
     /tmp/ccg8jNLS.s:1978   .text:0000000000000cc8 .L0 
     /tmp/ccg8jNLS.s:1979   .text:0000000000000ccc .L0 
     /tmp/ccg8jNLS.s:1983   .text:0000000000000cd8 .L0 
     /tmp/ccg8jNLS.s:1984   .text:0000000000000cd8 .L0 
     /tmp/ccg8jNLS.s:1985   .text:0000000000000cd8 .L0 
     /tmp/ccg8jNLS.s:1987   .text:0000000000000cdc .L0 
     /tmp/ccg8jNLS.s:1989   .text:0000000000000cdc .L0 
     /tmp/ccg8jNLS.s:1990   .text:0000000000000cdc .L0 
     /tmp/ccg8jNLS.s:1995   .text:0000000000000cf0 .L0 
     /tmp/ccg8jNLS.s:1996   .text:0000000000000cf0 .L0 
     /tmp/ccg8jNLS.s:2000   .text:0000000000000d00 .L0 
     /tmp/ccg8jNLS.s:2001   .text:0000000000000d00 .L0 
     /tmp/ccg8jNLS.s:2006   .text:0000000000000d10 .L0 
     /tmp/ccg8jNLS.s:2007   .text:0000000000000d10 .L0 
     /tmp/ccg8jNLS.s:2011   .text:0000000000000d20 .L0 
     /tmp/ccg8jNLS.s:2012   .text:0000000000000d20 .L0 
     /tmp/ccg8jNLS.s:2014   .text:0000000000000d24 .L0 
     /tmp/ccg8jNLS.s:2017   .text:0000000000000d28 .L0 
     /tmp/ccg8jNLS.s:2018   .text:0000000000000d28 .L0 
     /tmp/ccg8jNLS.s:2022   .text:0000000000000d34 .L0 
     /tmp/ccg8jNLS.s:2023   .text:0000000000000d34 .L0 
     /tmp/ccg8jNLS.s:2025   .text:0000000000000d3c .L0 
     /tmp/ccg8jNLS.s:2027   .text:0000000000000d40 .L0 
GAS LISTING /tmp/ccg8jNLS.s 			page 151


     /tmp/ccg8jNLS.s:2028   .text:0000000000000d40 .L0 
     /tmp/ccg8jNLS.s:2030   .text:0000000000000d44 .L0 
     /tmp/ccg8jNLS.s:2033   .text:0000000000000d48 .L0 
     /tmp/ccg8jNLS.s:2035   .text:0000000000000d4c .L0 
     /tmp/ccg8jNLS.s:2049   .text:0000000000000d4c _ZN3TCB4sendEPKc
     /tmp/ccg8jNLS.s:2052   .text:0000000000000d4c .L0 
     /tmp/ccg8jNLS.s:2054   .text:0000000000000d4c .L0 
     /tmp/ccg8jNLS.s:2055   .text:0000000000000d50 .L0 
     /tmp/ccg8jNLS.s:2060   .text:0000000000000d60 .L0 
     /tmp/ccg8jNLS.s:2061   .text:0000000000000d60 .L0 
     /tmp/ccg8jNLS.s:2062   .text:0000000000000d60 .L0 
     /tmp/ccg8jNLS.s:2063   .text:0000000000000d60 .L0 
     /tmp/ccg8jNLS.s:2065   .text:0000000000000d64 .L0 
     /tmp/ccg8jNLS.s:2069   .text:0000000000000d6c .L0 
     /tmp/ccg8jNLS.s:2070   .text:0000000000000d6c .L0 
     /tmp/ccg8jNLS.s:2073   .text:0000000000000d74 .L0 
     /tmp/ccg8jNLS.s:2074   .text:0000000000000d74 .L0 
     /tmp/ccg8jNLS.s:2078   .text:0000000000000d84 .L0 
     /tmp/ccg8jNLS.s:2079   .text:0000000000000d84 .L0 
     /tmp/ccg8jNLS.s:2083   .text:0000000000000d90 .L0 
     /tmp/ccg8jNLS.s:2084   .text:0000000000000d90 .L0 
     /tmp/ccg8jNLS.s:2088   .text:0000000000000da0 .L0 
     /tmp/ccg8jNLS.s:2089   .text:0000000000000da0 .L0 
     /tmp/ccg8jNLS.s:2091   .text:0000000000000da4 .L0 
     /tmp/ccg8jNLS.s:2092   .text:0000000000000da4 .L0 
     /tmp/ccg8jNLS.s:2096   .text:0000000000000db0 .L0 
     /tmp/ccg8jNLS.s:2097   .text:0000000000000db4 .L0 
     /tmp/ccg8jNLS.s:2099   .text:0000000000000db8 .L0 
     /tmp/ccg8jNLS.s:2100   .text:0000000000000db8 .L0 
     /tmp/ccg8jNLS.s:2102   .text:0000000000000dbc .L0 
     /tmp/ccg8jNLS.s:2105   .text:0000000000000dc0 .L0 
     /tmp/ccg8jNLS.s:2108   .text:0000000000000dc4 .L0 
     /tmp/ccg8jNLS.s:2110   .text:0000000000000dc8 .L0 
     /tmp/ccg8jNLS.s:2116   .text:0000000000000dc8 _ZN3TCB7joinAllEv
     /tmp/ccg8jNLS.s:2119   .text:0000000000000dc8 .L0 
     /tmp/ccg8jNLS.s:2121   .text:0000000000000dc8 .L0 
     /tmp/ccg8jNLS.s:2122   .text:0000000000000dcc .L0 
     /tmp/ccg8jNLS.s:2127   .text:0000000000000ddc .L0 
     /tmp/ccg8jNLS.s:2128   .text:0000000000000ddc .L0 
     /tmp/ccg8jNLS.s:2129   .text:0000000000000ddc .L0 
     /tmp/ccg8jNLS.s:2130   .text:0000000000000ddc .L0 
     /tmp/ccg8jNLS.s:2132   .text:0000000000000de0 .L0 
     /tmp/ccg8jNLS.s:2135   .text:0000000000000de4 .L0 
     /tmp/ccg8jNLS.s:2136   .text:0000000000000de4 .L0 
     /tmp/ccg8jNLS.s:2138   .text:0000000000000de8 .L0 
     /tmp/ccg8jNLS.s:2142   .text:0000000000000dec .L0 
     /tmp/ccg8jNLS.s:2147   .text:0000000000000df0 .L0 
     /tmp/ccg8jNLS.s:2148   .text:0000000000000df0 .L0 
     /tmp/ccg8jNLS.s:2150   .text:0000000000000df4 .L0 
     /tmp/ccg8jNLS.s:2152   .text:0000000000000df8 .L0 
     /tmp/ccg8jNLS.s:2153   .text:0000000000000df8 .L0 
     /tmp/ccg8jNLS.s:2157   .text:0000000000000e04 .L0 
     /tmp/ccg8jNLS.s:2164   .text:0000000000000e0c .L0 
     /tmp/ccg8jNLS.s:2165   .text:0000000000000e0c .L0 
     /tmp/ccg8jNLS.s:2171   .text:0000000000000e14 .L0 
     /tmp/ccg8jNLS.s:2172   .text:0000000000000e14 .L0 
     /tmp/ccg8jNLS.s:2173   .text:0000000000000e14 .L0 
GAS LISTING /tmp/ccg8jNLS.s 			page 152


     /tmp/ccg8jNLS.s:2182   .text:0000000000000e20 .L0 
     /tmp/ccg8jNLS.s:2188   .text:0000000000000e28 .L0 
     /tmp/ccg8jNLS.s:2196   .text:0000000000000e30 .L0 
     /tmp/ccg8jNLS.s:2198   .text:0000000000000e34 .L0 
     /tmp/ccg8jNLS.s:2199   .text:0000000000000e34 .L0 
     /tmp/ccg8jNLS.s:2204   .text:0000000000000e3c .L0 
     /tmp/ccg8jNLS.s:2205   .text:0000000000000e3c .L0 
     /tmp/ccg8jNLS.s:2207   .text:0000000000000e40 .L0 
     /tmp/ccg8jNLS.s:2208   .text:0000000000000e40 .L0 
     /tmp/ccg8jNLS.s:2210   .text:0000000000000e44 .L0 
     /tmp/ccg8jNLS.s:2211   .text:0000000000000e48 .L0 
     /tmp/ccg8jNLS.s:2213   .text:0000000000000e4c .L0 
     /tmp/ccg8jNLS.s:2214   .text:0000000000000e4c .L0 
     /tmp/ccg8jNLS.s:2216   .text:0000000000000e50 .L0 
     /tmp/ccg8jNLS.s:2219   .text:0000000000000e54 .L0 
     /tmp/ccg8jNLS.s:2222   .text:0000000000000e58 .L0 
     /tmp/ccg8jNLS.s:2224   .text:0000000000000e5c .L0 
     /tmp/ccg8jNLS.s:2230   .text:0000000000000e5c _ZN3TCB13setMaxThreadsEj
     /tmp/ccg8jNLS.s:2233   .text:0000000000000e5c .L0 
     /tmp/ccg8jNLS.s:2235   .text:0000000000000e5c .L0 
     /tmp/ccg8jNLS.s:2236   .text:0000000000000e5c .L0 
     /tmp/ccg8jNLS.s:2237   .text:0000000000000e5c .L0 
     /tmp/ccg8jNLS.s:2239   .text:0000000000000e64 .L0 
     /tmp/ccg8jNLS.s:2243   .text:0000000000000e6c .L0 
     /tmp/ccg8jNLS.s:2244   .text:0000000000000e70 .L0 
     /tmp/ccg8jNLS.s:2249   .text:0000000000000e80 .L0 
     /tmp/ccg8jNLS.s:2250   .text:0000000000000e80 .L0 
     /tmp/ccg8jNLS.s:2251   .text:0000000000000e80 .L0 
     /tmp/ccg8jNLS.s:2252   .text:0000000000000e80 .L0 
     /tmp/ccg8jNLS.s:2254   .text:0000000000000e84 .L0 
     /tmp/ccg8jNLS.s:2256   .text:0000000000000e84 .L0 
     /tmp/ccg8jNLS.s:2257   .text:0000000000000e84 .L0 
     /tmp/ccg8jNLS.s:2261   .text:0000000000000e94 .L0 
     /tmp/ccg8jNLS.s:2262   .text:0000000000000e94 .L0 
     /tmp/ccg8jNLS.s:2264   .text:0000000000000e98 .L0 
     /tmp/ccg8jNLS.s:2269   .text:0000000000000e9c .L0 
     /tmp/ccg8jNLS.s:2270   .text:0000000000000e9c .L0 
     /tmp/ccg8jNLS.s:2271   .text:0000000000000e9c .L0 
     /tmp/ccg8jNLS.s:2280   .text:0000000000000ea8 .L0 
     /tmp/ccg8jNLS.s:2286   .text:0000000000000eb0 .L0 
     /tmp/ccg8jNLS.s:2294   .text:0000000000000eb8 .L0 
     /tmp/ccg8jNLS.s:2296   .text:0000000000000ebc .L0 
     /tmp/ccg8jNLS.s:2297   .text:0000000000000ec0 .L0 
     /tmp/ccg8jNLS.s:2299   .text:0000000000000ec4 .L0 
     /tmp/ccg8jNLS.s:2300   .text:0000000000000ec4 .L0 
     /tmp/ccg8jNLS.s:2302   .text:0000000000000ec8 .L0 
     /tmp/ccg8jNLS.s:2305   .text:0000000000000ecc .L0 
     /tmp/ccg8jNLS.s:2307   .text:0000000000000ed0 .L0 
     /tmp/ccg8jNLS.s:2309   .text:0000000000000ed4 .L0 
     /tmp/ccg8jNLS.s:2315   .text:0000000000000ed4 _ZN3TCB12setBarrier_2Ev
     /tmp/ccg8jNLS.s:2318   .text:0000000000000ed4 .L0 
     /tmp/ccg8jNLS.s:2319   .text:0000000000000ed4 .L0 
     /tmp/ccg8jNLS.s:2320   .text:0000000000000ed4 .L0 
     /tmp/ccg8jNLS.s:2321   .text:0000000000000ed4 .L0 
     /tmp/ccg8jNLS.s:2323   .text:0000000000000edc .L0 
     /tmp/ccg8jNLS.s:2327   .text:0000000000000ee4 .L0 
     /tmp/ccg8jNLS.s:2328   .text:0000000000000ee8 .L0 
GAS LISTING /tmp/ccg8jNLS.s 			page 153


     /tmp/ccg8jNLS.s:2332   .text:0000000000000ef4 .L0 
     /tmp/ccg8jNLS.s:2333   .text:0000000000000ef4 .L0 
     /tmp/ccg8jNLS.s:2334   .text:0000000000000ef4 .L0 
     /tmp/ccg8jNLS.s:2336   .text:0000000000000ef8 .L0 
     /tmp/ccg8jNLS.s:2338   .text:0000000000000ef8 .L0 
     /tmp/ccg8jNLS.s:2339   .text:0000000000000ef8 .L0 
     /tmp/ccg8jNLS.s:2346   .text:0000000000000f08 .L0 
     /tmp/ccg8jNLS.s:2347   .text:0000000000000f08 .L0 
     /tmp/ccg8jNLS.s:2348   .text:0000000000000f08 .L0 
     /tmp/ccg8jNLS.s:2356   .text:0000000000000f14 .L0 
     /tmp/ccg8jNLS.s:2363   .text:0000000000000f20 .L0 
     /tmp/ccg8jNLS.s:2371   .text:0000000000000f28 .L0 
     /tmp/ccg8jNLS.s:2376   .text:0000000000000f2c .L0 
     /tmp/ccg8jNLS.s:2377   .text:0000000000000f2c .L0 
     /tmp/ccg8jNLS.s:2378   .text:0000000000000f2c .L0 
     /tmp/ccg8jNLS.s:2386   .text:0000000000000f38 .L0 
     /tmp/ccg8jNLS.s:2392   .text:0000000000000f40 .L0 
     /tmp/ccg8jNLS.s:2400   .text:0000000000000f48 .L0 
     /tmp/ccg8jNLS.s:2402   .text:0000000000000f4c .L0 
     /tmp/ccg8jNLS.s:2403   .text:0000000000000f4c .L0 
     /tmp/ccg8jNLS.s:2405   .text:0000000000000f50 .L0 
     /tmp/ccg8jNLS.s:2406   .text:0000000000000f50 .L0 
     /tmp/ccg8jNLS.s:2410   .text:0000000000000f5c .L0 
     /tmp/ccg8jNLS.s:2411   .text:0000000000000f60 .L0 
     /tmp/ccg8jNLS.s:2413   .text:0000000000000f64 .L0 
     /tmp/ccg8jNLS.s:2414   .text:0000000000000f64 .L0 
     /tmp/ccg8jNLS.s:2416   .text:0000000000000f68 .L0 
     /tmp/ccg8jNLS.s:2418   .text:0000000000000f6c .L0 
     /tmp/ccg8jNLS.s:2420   .text:0000000000000f70 .L0 
     /tmp/ccg8jNLS.s:2426   .text:0000000000000f70 _ZN3TCB9barrier_2Ev
     /tmp/ccg8jNLS.s:2429   .text:0000000000000f70 .L0 
     /tmp/ccg8jNLS.s:2430   .text:0000000000000f70 .L0 
     /tmp/ccg8jNLS.s:2431   .text:0000000000000f74 .L0 
     /tmp/ccg8jNLS.s:2435   .text:0000000000000f80 .L0 
     /tmp/ccg8jNLS.s:2436   .text:0000000000000f80 .L0 
     /tmp/ccg8jNLS.s:2437   .text:0000000000000f80 .L0 
     /tmp/ccg8jNLS.s:2439   .text:0000000000000f84 .L0 
     /tmp/ccg8jNLS.s:2441   .text:0000000000000f84 .L0 
     /tmp/ccg8jNLS.s:2442   .text:0000000000000f84 .L0 
     /tmp/ccg8jNLS.s:2445   .text:0000000000000f8c .L0 
     /tmp/ccg8jNLS.s:2446   .text:0000000000000f8c .L0 
     /tmp/ccg8jNLS.s:2451   .text:0000000000000fa0 .L0 
     /tmp/ccg8jNLS.s:2452   .text:0000000000000fa0 .L0 
     /tmp/ccg8jNLS.s:2457   .text:0000000000000fb0 .L0 
     /tmp/ccg8jNLS.s:2458   .text:0000000000000fb0 .L0 
     /tmp/ccg8jNLS.s:2460   .text:0000000000000fb4 .L0 
     /tmp/ccg8jNLS.s:2462   .text:0000000000000fb8 .L0 
     /tmp/ccg8jNLS.s:2463   .text:0000000000000fb8 .L0 
     /tmp/ccg8jNLS.s:2468   .text:0000000000000fc8 .L0 
     /tmp/ccg8jNLS.s:2469   .text:0000000000000fc8 .L0 
     /tmp/ccg8jNLS.s:2474   .text:0000000000000fdc .L0 
     /tmp/ccg8jNLS.s:2475   .text:0000000000000fdc .L0 
     /tmp/ccg8jNLS.s:2480   .text:0000000000000fec .L0 
     /tmp/ccg8jNLS.s:2482   .text:0000000000000ff0 .L0 
     /tmp/ccg8jNLS.s:2483   .text:0000000000000ff0 .L0 
     /tmp/ccg8jNLS.s:2486   .text:0000000000000ff8 .L0 
     /tmp/ccg8jNLS.s:2487   .text:0000000000000ff8 .L0 
GAS LISTING /tmp/ccg8jNLS.s 			page 154


     /tmp/ccg8jNLS.s:2492   .text:0000000000001004 .L0 
     /tmp/ccg8jNLS.s:2493   .text:0000000000001008 .L0 
     /tmp/ccg8jNLS.s:2494   .text:0000000000001008 .L0 
     /tmp/ccg8jNLS.s:2496   .text:000000000000100c .L0 
     /tmp/ccg8jNLS.s:2497   .text:000000000000100c .L0 
     /tmp/ccg8jNLS.s:2499   .text:0000000000001010 .L0 
     /tmp/ccg8jNLS.s:2501   .text:0000000000001014 .L0 
     /tmp/ccg8jNLS.s:2504   .text:0000000000001018 .L0 
     /tmp/ccg8jNLS.s:2506   .text:0000000000001018 .L0 
     /tmp/ccg8jNLS.s:2507   .text:0000000000001018 .L0 
     /tmp/ccg8jNLS.s:2513   .text:000000000000102c .L0 
     /tmp/ccg8jNLS.s:2514   .text:000000000000102c .L0 
     /tmp/ccg8jNLS.s:2518   .text:000000000000103c .L0 
     /tmp/ccg8jNLS.s:2519   .text:0000000000001040 .L0 
     /tmp/ccg8jNLS.s:2525   .text:0000000000001040 _ZN3TCB18setAtomicBroadcastEv
     /tmp/ccg8jNLS.s:2528   .text:0000000000001040 .L0 
     /tmp/ccg8jNLS.s:2530   .text:0000000000001040 .L0 
     /tmp/ccg8jNLS.s:2531   .text:0000000000001044 .L0 
     /tmp/ccg8jNLS.s:2535   .text:0000000000001050 .L0 
     /tmp/ccg8jNLS.s:2536   .text:0000000000001050 .L0 
     /tmp/ccg8jNLS.s:2537   .text:0000000000001050 .L0 
     /tmp/ccg8jNLS.s:2539   .text:0000000000001054 .L0 
     /tmp/ccg8jNLS.s:2544   .text:0000000000001054 .L0 
     /tmp/ccg8jNLS.s:2545   .text:0000000000001054 .L0 
     /tmp/ccg8jNLS.s:2546   .text:0000000000001054 .L0 
     /tmp/ccg8jNLS.s:2555   .text:0000000000001060 .L0 
     /tmp/ccg8jNLS.s:2562   .text:000000000000106c .L0 
     /tmp/ccg8jNLS.s:2570   .text:0000000000001074 .L0 
     /tmp/ccg8jNLS.s:2574   .text:000000000000107c .L0 
     /tmp/ccg8jNLS.s:2575   .text:000000000000107c .L0 
     /tmp/ccg8jNLS.s:2582   .text:0000000000001084 .L0 
     /tmp/ccg8jNLS.s:2583   .text:0000000000001084 .L0 
     /tmp/ccg8jNLS.s:2584   .text:0000000000001084 .L0 
     /tmp/ccg8jNLS.s:2592   .text:0000000000001090 .L0 
     /tmp/ccg8jNLS.s:2598   .text:0000000000001098 .L0 
     /tmp/ccg8jNLS.s:2606   .text:00000000000010a0 .L0 
     /tmp/ccg8jNLS.s:2611   .text:00000000000010b4 .L0 
     /tmp/ccg8jNLS.s:2615   .text:00000000000010b8 .L0 
     /tmp/ccg8jNLS.s:2620   .text:00000000000010c0 .L0 
     /tmp/ccg8jNLS.s:2624   .text:00000000000010c4 .L0 
     /tmp/ccg8jNLS.s:2630   .text:00000000000010cc .L0 
     /tmp/ccg8jNLS.s:2631   .text:00000000000010cc .L0 
     /tmp/ccg8jNLS.s:2632   .text:00000000000010cc .L0 
     /tmp/ccg8jNLS.s:2640   .text:00000000000010d8 .L0 
     /tmp/ccg8jNLS.s:2647   .text:00000000000010e4 .L0 
     /tmp/ccg8jNLS.s:2655   .text:00000000000010ec .L0 
     /tmp/ccg8jNLS.s:2660   .text:0000000000001100 .L0 
     /tmp/ccg8jNLS.s:2667   .text:0000000000001108 .L0 
     /tmp/ccg8jNLS.s:2668   .text:000000000000110c .L0 
     /tmp/ccg8jNLS.s:2670   .text:0000000000001110 .L0 
     /tmp/ccg8jNLS.s:2671   .text:0000000000001110 .L0 
     /tmp/ccg8jNLS.s:2673   .text:0000000000001114 .L0 
     /tmp/ccg8jNLS.s:2676   .text:0000000000001118 .L0 
     /tmp/ccg8jNLS.s:2678   .text:000000000000111c .L0 
     /tmp/ccg8jNLS.s:2692   .text:000000000000111c _ZN3TCB8producerEi
     /tmp/ccg8jNLS.s:2695   .text:000000000000111c .L0 
     /tmp/ccg8jNLS.s:2697   .text:000000000000111c .L0 
GAS LISTING /tmp/ccg8jNLS.s 			page 155


     /tmp/ccg8jNLS.s:2698   .text:0000000000001120 .L0 
     /tmp/ccg8jNLS.s:2704   .text:0000000000001134 .L0 
     /tmp/ccg8jNLS.s:2705   .text:0000000000001134 .L0 
     /tmp/ccg8jNLS.s:2706   .text:0000000000001134 .L0 
     /tmp/ccg8jNLS.s:2707   .text:0000000000001134 .L0 
     /tmp/ccg8jNLS.s:2708   .text:0000000000001134 .L0 
     /tmp/ccg8jNLS.s:2710   .text:0000000000001138 .L0 
     /tmp/ccg8jNLS.s:2713   .text:000000000000113c .L0 
     /tmp/ccg8jNLS.s:2714   .text:000000000000113c .L0 
     /tmp/ccg8jNLS.s:2716   .text:0000000000001144 .L0 
     /tmp/ccg8jNLS.s:2720   .text:0000000000001148 .L0 
     /tmp/ccg8jNLS.s:2725   .text:0000000000001150 .L0 
     /tmp/ccg8jNLS.s:2726   .text:0000000000001150 .L0 
     /tmp/ccg8jNLS.s:2729   .text:0000000000001158 .L0 
     /tmp/ccg8jNLS.s:2730   .text:0000000000001158 .L0 
     /tmp/ccg8jNLS.s:2739   .text:0000000000001168 .L0 
     /tmp/ccg8jNLS.s:2740   .text:0000000000001168 .L0 
     /tmp/ccg8jNLS.s:2744   .text:0000000000001178 .L0 
     /tmp/ccg8jNLS.s:2748   .text:0000000000001184 .L0 
     /tmp/ccg8jNLS.s:2749   .text:0000000000001184 .L0 
     /tmp/ccg8jNLS.s:2752   .text:000000000000118c .L0 
     /tmp/ccg8jNLS.s:2756   .text:0000000000001190 .L0 
     /tmp/ccg8jNLS.s:2761   .text:0000000000001198 .L0 
     /tmp/ccg8jNLS.s:2765   .text:000000000000119c .L0 
     /tmp/ccg8jNLS.s:2769   .text:00000000000011a4 .L0 
     /tmp/ccg8jNLS.s:2770   .text:00000000000011a4 .L0 
     /tmp/ccg8jNLS.s:2775   .text:00000000000011b8 .L0 
     /tmp/ccg8jNLS.s:2776   .text:00000000000011b8 .L0 
     /tmp/ccg8jNLS.s:2780   .text:00000000000011c4 .L0 
     /tmp/ccg8jNLS.s:2781   .text:00000000000011c4 .L0 
     /tmp/ccg8jNLS.s:2783   .text:00000000000011c8 .L0 
     /tmp/ccg8jNLS.s:2788   .text:00000000000011d8 .L0 
     /tmp/ccg8jNLS.s:2789   .text:00000000000011d8 .L0 
     /tmp/ccg8jNLS.s:2793   .text:00000000000011e8 .L0 
     /tmp/ccg8jNLS.s:2794   .text:00000000000011e8 .L0 
     /tmp/ccg8jNLS.s:2800   .text:00000000000011fc .L0 
     /tmp/ccg8jNLS.s:2801   .text:00000000000011fc .L0 
     /tmp/ccg8jNLS.s:2805   .text:000000000000120c .L0 
     /tmp/ccg8jNLS.s:2806   .text:000000000000120c .L0 
     /tmp/ccg8jNLS.s:2812   .text:0000000000001220 .L0 
     /tmp/ccg8jNLS.s:2813   .text:0000000000001220 .L0 
     /tmp/ccg8jNLS.s:2817   .text:0000000000001230 .L0 
     /tmp/ccg8jNLS.s:2818   .text:0000000000001230 .L0 
     /tmp/ccg8jNLS.s:2821   .text:0000000000001238 .L0 
     /tmp/ccg8jNLS.s:2824   .text:0000000000001240 .L0 
     /tmp/ccg8jNLS.s:2828   .text:0000000000001244 .L0 
     /tmp/ccg8jNLS.s:2829   .text:0000000000001244 .L0 
     /tmp/ccg8jNLS.s:2837   .text:000000000000124c .L0 
     /tmp/ccg8jNLS.s:2838   .text:0000000000001250 .L0 
     /tmp/ccg8jNLS.s:2840   .text:0000000000001254 .L0 
     /tmp/ccg8jNLS.s:2841   .text:0000000000001254 .L0 
     /tmp/ccg8jNLS.s:2843   .text:0000000000001258 .L0 
     /tmp/ccg8jNLS.s:2845   .text:000000000000125c .L0 
     /tmp/ccg8jNLS.s:2848   .text:0000000000001260 .L0 
     /tmp/ccg8jNLS.s:2850   .text:0000000000001264 .L0 
     /tmp/ccg8jNLS.s:2852   .text:0000000000001268 .L0 
     /tmp/ccg8jNLS.s:2866   .text:0000000000001268 _ZN3TCB8consumerEi
GAS LISTING /tmp/ccg8jNLS.s 			page 156


     /tmp/ccg8jNLS.s:2869   .text:0000000000001268 .L0 
     /tmp/ccg8jNLS.s:2871   .text:0000000000001268 .L0 
     /tmp/ccg8jNLS.s:2872   .text:000000000000126c .L0 
     /tmp/ccg8jNLS.s:2881   .text:000000000000128c .L0 
     /tmp/ccg8jNLS.s:2882   .text:000000000000128c .L0 
     /tmp/ccg8jNLS.s:2883   .text:000000000000128c .L0 
     /tmp/ccg8jNLS.s:2884   .text:000000000000128c .L0 
     /tmp/ccg8jNLS.s:2885   .text:000000000000128c .L0 
     /tmp/ccg8jNLS.s:2886   .text:000000000000128c .L0 
     /tmp/ccg8jNLS.s:2887   .text:000000000000128c .L0 
     /tmp/ccg8jNLS.s:2888   .text:000000000000128c .L0 
     /tmp/ccg8jNLS.s:2890   .text:0000000000001290 .L0 
     /tmp/ccg8jNLS.s:2893   .text:0000000000001294 .L0 
     /tmp/ccg8jNLS.s:2894   .text:0000000000001294 .L0 
     /tmp/ccg8jNLS.s:2896   .text:000000000000129c .L0 
     /tmp/ccg8jNLS.s:2900   .text:00000000000012a0 .L0 
     /tmp/ccg8jNLS.s:2906   .text:00000000000012ac .L0 
     /tmp/ccg8jNLS.s:2907   .text:00000000000012ac .L0 
     /tmp/ccg8jNLS.s:2910   .text:00000000000012b4 .L0 
     /tmp/ccg8jNLS.s:2911   .text:00000000000012b4 .L0 
     /tmp/ccg8jNLS.s:2918   .text:00000000000012c4 .L0 
     /tmp/ccg8jNLS.s:2919   .text:00000000000012c4 .L0 
     /tmp/ccg8jNLS.s:2922   .text:00000000000012d0 .L0 
     /tmp/ccg8jNLS.s:2923   .text:00000000000012d0 .L0 
     /tmp/ccg8jNLS.s:2927   .text:00000000000012dc .L0 
     /tmp/ccg8jNLS.s:2928   .text:00000000000012dc .L0 
     /tmp/ccg8jNLS.s:2932   .text:00000000000012e4 .L0 
     /tmp/ccg8jNLS.s:2933   .text:00000000000012e4 .L0 
     /tmp/ccg8jNLS.s:2937   .text:00000000000012f4 .L0 
     /tmp/ccg8jNLS.s:2941   .text:0000000000001300 .L0 
     /tmp/ccg8jNLS.s:2942   .text:0000000000001300 .L0 
     /tmp/ccg8jNLS.s:2945   .text:0000000000001308 .L0 
     /tmp/ccg8jNLS.s:2946   .text:0000000000001308 .L0 
     /tmp/ccg8jNLS.s:2949   .text:000000000000130c .L0 
     /tmp/ccg8jNLS.s:2953   .text:0000000000001314 .L0 
     /tmp/ccg8jNLS.s:2957   .text:0000000000001318 .L0 
     /tmp/ccg8jNLS.s:2960   .text:0000000000001320 .L0 
     /tmp/ccg8jNLS.s:2961   .text:0000000000001320 .L0 
     /tmp/ccg8jNLS.s:2965   .text:0000000000001330 .L0 
     /tmp/ccg8jNLS.s:2969   .text:000000000000133c .L0 
     /tmp/ccg8jNLS.s:2970   .text:000000000000133c .L0 
     /tmp/ccg8jNLS.s:2975   .text:0000000000001348 .L0 
     /tmp/ccg8jNLS.s:2976   .text:0000000000001348 .L0 
     /tmp/ccg8jNLS.s:2979   .text:0000000000001350 .L0 
     /tmp/ccg8jNLS.s:2983   .text:000000000000135c .L0 
     /tmp/ccg8jNLS.s:2984   .text:000000000000135c .L0 
     /tmp/ccg8jNLS.s:2986   .text:0000000000001360 .L0 
     /tmp/ccg8jNLS.s:2989   .text:0000000000001368 .L0 
     /tmp/ccg8jNLS.s:2990   .text:0000000000001368 .L0 
     /tmp/ccg8jNLS.s:2994   .text:0000000000001378 .L0 
     /tmp/ccg8jNLS.s:2995   .text:0000000000001378 .L0 
     /tmp/ccg8jNLS.s:3001   .text:000000000000138c .L0 
     /tmp/ccg8jNLS.s:3002   .text:000000000000138c .L0 
     /tmp/ccg8jNLS.s:3006   .text:000000000000139c .L0 
     /tmp/ccg8jNLS.s:3007   .text:000000000000139c .L0 
     /tmp/ccg8jNLS.s:3013   .text:00000000000013b0 .L0 
     /tmp/ccg8jNLS.s:3014   .text:00000000000013b0 .L0 
GAS LISTING /tmp/ccg8jNLS.s 			page 157


     /tmp/ccg8jNLS.s:3018   .text:00000000000013c0 .L0 
     /tmp/ccg8jNLS.s:3019   .text:00000000000013c0 .L0 
     /tmp/ccg8jNLS.s:3021   .text:00000000000013c4 .L0 
     /tmp/ccg8jNLS.s:3028   .text:00000000000013d0 .L0 
     /tmp/ccg8jNLS.s:3029   .text:00000000000013d4 .L0 
     /tmp/ccg8jNLS.s:3031   .text:00000000000013d8 .L0 
     /tmp/ccg8jNLS.s:3032   .text:00000000000013d8 .L0 
     /tmp/ccg8jNLS.s:3034   .text:00000000000013dc .L0 
     /tmp/ccg8jNLS.s:3037   .text:00000000000013e0 .L0 
     /tmp/ccg8jNLS.s:3039   .text:00000000000013e4 .L0 
     /tmp/ccg8jNLS.s:3041   .text:00000000000013e8 .L0 
     /tmp/ccg8jNLS.s:3044   .text:00000000000013ec .L0 
     /tmp/ccg8jNLS.s:3046   .text:00000000000013f0 .L0 
     /tmp/ccg8jNLS.s:3048   .text:00000000000013f4 .L0 
     /tmp/ccg8jNLS.s:3050   .text:00000000000013f8 .L0 
     /tmp/ccg8jNLS.s:3056   .text:00000000000013f8 _ZN3TCB7barrierEjPP8MoleculePKc
     /tmp/ccg8jNLS.s:3059   .text:00000000000013f8 .L0 
     /tmp/ccg8jNLS.s:3061   .text:00000000000013f8 .L0 
     /tmp/ccg8jNLS.s:3062   .text:00000000000013fc .L0 
     /tmp/ccg8jNLS.s:3069   .text:0000000000001414 .L0 
     /tmp/ccg8jNLS.s:3070   .text:0000000000001414 .L0 
     /tmp/ccg8jNLS.s:3071   .text:0000000000001414 .L0 
     /tmp/ccg8jNLS.s:3072   .text:0000000000001414 .L0 
     /tmp/ccg8jNLS.s:3073   .text:0000000000001414 .L0 
     /tmp/ccg8jNLS.s:3074   .text:0000000000001414 .L0 
     /tmp/ccg8jNLS.s:3076   .text:0000000000001418 .L0 
     /tmp/ccg8jNLS.s:3081   .text:0000000000001424 .L0 
     /tmp/ccg8jNLS.s:3082   .text:0000000000001424 .L0 
     /tmp/ccg8jNLS.s:3088   .text:0000000000001438 .L0 
     /tmp/ccg8jNLS.s:3089   .text:0000000000001438 .L0 
     /tmp/ccg8jNLS.s:3092   .text:0000000000001440 .L0 
     /tmp/ccg8jNLS.s:3094   .text:0000000000001444 .L0 
     /tmp/ccg8jNLS.s:3097   .text:000000000000144c .L0 
     /tmp/ccg8jNLS.s:3099   .text:0000000000001450 .L0 
     /tmp/ccg8jNLS.s:3100   .text:0000000000001450 .L0 
     /tmp/ccg8jNLS.s:3103   .text:0000000000001458 .L0 
     /tmp/ccg8jNLS.s:3105   .text:000000000000145c .L0 
     /tmp/ccg8jNLS.s:3108   .text:0000000000001464 .L0 
     /tmp/ccg8jNLS.s:3110   .text:0000000000001468 .L0 
     /tmp/ccg8jNLS.s:3111   .text:0000000000001468 .L0 
     /tmp/ccg8jNLS.s:3116   .text:0000000000001478 .L0 
     /tmp/ccg8jNLS.s:3119   .text:0000000000001480 .L0 
     /tmp/ccg8jNLS.s:3120   .text:0000000000001480 .L0 
     /tmp/ccg8jNLS.s:3125   .text:0000000000001490 .L0 
     /tmp/ccg8jNLS.s:3126   .text:0000000000001490 .L0 
     /tmp/ccg8jNLS.s:3131   .text:00000000000014a4 .L0 
     /tmp/ccg8jNLS.s:3132   .text:00000000000014a4 .L0 
     /tmp/ccg8jNLS.s:3135   .text:00000000000014ac .L0 
     /tmp/ccg8jNLS.s:3136   .text:00000000000014ac .L0 
     /tmp/ccg8jNLS.s:3141   .text:00000000000014bc .L0 
     /tmp/ccg8jNLS.s:3143   .text:00000000000014c0 .L0 
     /tmp/ccg8jNLS.s:3144   .text:00000000000014c0 .L0 
     /tmp/ccg8jNLS.s:3148   .text:00000000000014cc .L0 
     /tmp/ccg8jNLS.s:3149   .text:00000000000014cc .L0 
     /tmp/ccg8jNLS.s:3153   .text:00000000000014d8 .L0 
     /tmp/ccg8jNLS.s:3154   .text:00000000000014d8 .L0 
     /tmp/ccg8jNLS.s:3158   .text:00000000000014e4 .L0 
GAS LISTING /tmp/ccg8jNLS.s 			page 158


     /tmp/ccg8jNLS.s:3159   .text:00000000000014e4 .L0 
     /tmp/ccg8jNLS.s:3164   .text:00000000000014f0 .L0 
     /tmp/ccg8jNLS.s:3165   .text:00000000000014f4 .L0 
     /tmp/ccg8jNLS.s:3166   .text:00000000000014f4 .L0 
     /tmp/ccg8jNLS.s:3168   .text:00000000000014f8 .L0 
     /tmp/ccg8jNLS.s:3169   .text:00000000000014f8 .L0 
     /tmp/ccg8jNLS.s:3171   .text:00000000000014fc .L0 
     /tmp/ccg8jNLS.s:3173   .text:0000000000001500 .L0 
     /tmp/ccg8jNLS.s:3176   .text:0000000000001504 .L0 
     /tmp/ccg8jNLS.s:3179   .text:0000000000001508 .L0 
     /tmp/ccg8jNLS.s:3181   .text:000000000000150c .L0 
     /tmp/ccg8jNLS.s:3185   .text:0000000000001510 .L0 
     /tmp/ccg8jNLS.s:3187   .text:0000000000001510 .L0 
     /tmp/ccg8jNLS.s:3188   .text:0000000000001510 .L0 
     /tmp/ccg8jNLS.s:3194   .text:0000000000001524 .L0 
     /tmp/ccg8jNLS.s:3195   .text:0000000000001524 .L0 
     /tmp/ccg8jNLS.s:3199   .text:0000000000001534 .L0 
     /tmp/ccg8jNLS.s:3200   .text:0000000000001538 .L0 
     /tmp/ccg8jNLS.s:3206   .text:0000000000001538 _ZN3TCB10setAtomH20Ev
     /tmp/ccg8jNLS.s:3209   .text:0000000000001538 .L0 
     /tmp/ccg8jNLS.s:3210   .text:0000000000001538 .L0 
     /tmp/ccg8jNLS.s:3211   .text:000000000000153c .L0 
     /tmp/ccg8jNLS.s:3216   .text:000000000000154c .L0 
     /tmp/ccg8jNLS.s:3217   .text:000000000000154c .L0 
     /tmp/ccg8jNLS.s:3218   .text:000000000000154c .L0 
     /tmp/ccg8jNLS.s:3219   .text:000000000000154c .L0 
     /tmp/ccg8jNLS.s:3221   .text:0000000000001550 .L0 
     /tmp/ccg8jNLS.s:3226   .text:0000000000001550 .L0 
     /tmp/ccg8jNLS.s:3227   .text:0000000000001550 .L0 
     /tmp/ccg8jNLS.s:3228   .text:0000000000001550 .L0 
     /tmp/ccg8jNLS.s:3236   .text:000000000000155c .L0 
     /tmp/ccg8jNLS.s:3243   .text:0000000000001568 .L0 
     /tmp/ccg8jNLS.s:3251   .text:0000000000001570 .L0 
     /tmp/ccg8jNLS.s:3257   .text:000000000000157c .L0 
     /tmp/ccg8jNLS.s:3258   .text:000000000000157c .L0 
     /tmp/ccg8jNLS.s:3259   .text:000000000000157c .L0 
     /tmp/ccg8jNLS.s:3267   .text:0000000000001588 .L0 
     /tmp/ccg8jNLS.s:3274   .text:0000000000001594 .L0 
     /tmp/ccg8jNLS.s:3282   .text:000000000000159c .L0 
     /tmp/ccg8jNLS.s:3287   .text:00000000000015a0 .L0 
     /tmp/ccg8jNLS.s:3288   .text:00000000000015a0 .L0 
     /tmp/ccg8jNLS.s:3289   .text:00000000000015a0 .L0 
     /tmp/ccg8jNLS.s:3297   .text:00000000000015ac .L0 
     /tmp/ccg8jNLS.s:3303   .text:00000000000015b4 .L0 
     /tmp/ccg8jNLS.s:3311   .text:00000000000015bc .L0 
     /tmp/ccg8jNLS.s:3316   .text:00000000000015c0 .L0 
     /tmp/ccg8jNLS.s:3317   .text:00000000000015c0 .L0 
     /tmp/ccg8jNLS.s:3318   .text:00000000000015c0 .L0 
     /tmp/ccg8jNLS.s:3326   .text:00000000000015cc .L0 
     /tmp/ccg8jNLS.s:3332   .text:00000000000015d4 .L0 
     /tmp/ccg8jNLS.s:3340   .text:00000000000015dc .L0 
     /tmp/ccg8jNLS.s:3342   .text:00000000000015e0 .L0 
     /tmp/ccg8jNLS.s:3343   .text:00000000000015e0 .L0 
     /tmp/ccg8jNLS.s:3348   .text:00000000000015f0 .L0 
     /tmp/ccg8jNLS.s:3350   .text:00000000000015f4 .L0 
     /tmp/ccg8jNLS.s:3351   .text:00000000000015f4 .L0 
     /tmp/ccg8jNLS.s:3355   .text:0000000000001600 .L0 
GAS LISTING /tmp/ccg8jNLS.s 			page 159


     /tmp/ccg8jNLS.s:3357   .text:0000000000001604 .L0 
     /tmp/ccg8jNLS.s:3358   .text:0000000000001604 .L0 
     /tmp/ccg8jNLS.s:3360   .text:0000000000001608 .L0 
     /tmp/ccg8jNLS.s:3364   .text:0000000000001614 .L0 
     /tmp/ccg8jNLS.s:3366   .text:0000000000001618 .L0 
     /tmp/ccg8jNLS.s:3367   .text:000000000000161c .L0 
     /tmp/ccg8jNLS.s:3369   .text:0000000000001620 .L0 
     /tmp/ccg8jNLS.s:3370   .text:0000000000001620 .L0 
     /tmp/ccg8jNLS.s:3372   .text:0000000000001624 .L0 
     /tmp/ccg8jNLS.s:3374   .text:0000000000001628 .L0 
     /tmp/ccg8jNLS.s:3376   .text:000000000000162c .L0 
     /tmp/ccg8jNLS.s:3378   .text:0000000000001630 .L0 
     /tmp/ccg8jNLS.s:3392   .text:0000000000001630 _ZN3TCB6oxygenEj
     /tmp/ccg8jNLS.s:3395   .text:0000000000001630 .L0 
     /tmp/ccg8jNLS.s:3397   .text:0000000000001630 .L0 
     /tmp/ccg8jNLS.s:3398   .text:0000000000001634 .L0 
     /tmp/ccg8jNLS.s:3402   .text:0000000000001640 .L0 
     /tmp/ccg8jNLS.s:3403   .text:0000000000001640 .L0 
     /tmp/ccg8jNLS.s:3404   .text:0000000000001640 .L0 
     /tmp/ccg8jNLS.s:3406   .text:0000000000001644 .L0 
     /tmp/ccg8jNLS.s:3409   .text:0000000000001648 .L0 
     /tmp/ccg8jNLS.s:3410   .text:0000000000001648 .L0 
     /tmp/ccg8jNLS.s:3412   .text:0000000000001650 .L0 
     /tmp/ccg8jNLS.s:3416   .text:0000000000001654 .L0 
     /tmp/ccg8jNLS.s:3417   .text:0000000000001654 .L0 
     /tmp/ccg8jNLS.s:3421   .text:0000000000001664 .L0 
     /tmp/ccg8jNLS.s:3422   .text:0000000000001664 .L0 
     /tmp/ccg8jNLS.s:3427   .text:0000000000001674 .L0 
     /tmp/ccg8jNLS.s:3428   .text:0000000000001674 .L0 
     /tmp/ccg8jNLS.s:3434   .text:000000000000168c .L0 
     /tmp/ccg8jNLS.s:3435   .text:000000000000168c .L0 
     /tmp/ccg8jNLS.s:3437   .text:0000000000001690 .L0 
     /tmp/ccg8jNLS.s:3439   .text:0000000000001694 .L0 
     /tmp/ccg8jNLS.s:3445   .text:00000000000016a8 .L0 
     /tmp/ccg8jNLS.s:3446   .text:00000000000016a8 .L0 
     /tmp/ccg8jNLS.s:3450   .text:00000000000016b8 .L0 
     /tmp/ccg8jNLS.s:3451   .text:00000000000016b8 .L0 
     /tmp/ccg8jNLS.s:3454   .text:00000000000016c0 .L0 
     /tmp/ccg8jNLS.s:3460   .text:00000000000016d4 .L0 
     /tmp/ccg8jNLS.s:3461   .text:00000000000016d4 .L0 
     /tmp/ccg8jNLS.s:3465   .text:00000000000016e4 .L0 
     /tmp/ccg8jNLS.s:3466   .text:00000000000016e4 .L0 
     /tmp/ccg8jNLS.s:3469   .text:00000000000016ec .L0 
     /tmp/ccg8jNLS.s:3475   .text:0000000000001700 .L0 
     /tmp/ccg8jNLS.s:3476   .text:0000000000001700 .L0 
     /tmp/ccg8jNLS.s:3480   .text:0000000000001710 .L0 
     /tmp/ccg8jNLS.s:3481   .text:0000000000001710 .L0 
     /tmp/ccg8jNLS.s:3483   .text:0000000000001714 .L0 
     /tmp/ccg8jNLS.s:3485   .text:0000000000001718 .L0 
     /tmp/ccg8jNLS.s:3489   .text:0000000000001724 .L0 
     /tmp/ccg8jNLS.s:3490   .text:0000000000001724 .L0 
     /tmp/ccg8jNLS.s:3494   .text:0000000000001734 .L0 
     /tmp/ccg8jNLS.s:3495   .text:0000000000001734 .L0 
     /tmp/ccg8jNLS.s:3498   .text:000000000000173c .L0 
     /tmp/ccg8jNLS.s:3502   .text:0000000000001748 .L0 
     /tmp/ccg8jNLS.s:3503   .text:0000000000001748 .L0 
     /tmp/ccg8jNLS.s:3507   .text:0000000000001758 .L0 
GAS LISTING /tmp/ccg8jNLS.s 			page 160


     /tmp/ccg8jNLS.s:3508   .text:0000000000001758 .L0 
     /tmp/ccg8jNLS.s:3511   .text:0000000000001760 .L0 
     /tmp/ccg8jNLS.s:3515   .text:000000000000176c .L0 
     /tmp/ccg8jNLS.s:3516   .text:000000000000176c .L0 
     /tmp/ccg8jNLS.s:3520   .text:000000000000177c .L0 
     /tmp/ccg8jNLS.s:3521   .text:0000000000001780 .L0 
     /tmp/ccg8jNLS.s:3522   .text:0000000000001780 .L0 
     /tmp/ccg8jNLS.s:3524   .text:0000000000001784 .L0 
     /tmp/ccg8jNLS.s:3525   .text:0000000000001784 .L0 
     /tmp/ccg8jNLS.s:3527   .text:0000000000001788 .L0 
     /tmp/ccg8jNLS.s:3529   .text:000000000000178c .L0 
     /tmp/ccg8jNLS.s:3533   .text:0000000000001790 .L0 
     /tmp/ccg8jNLS.s:3535   .text:0000000000001790 .L0 
     /tmp/ccg8jNLS.s:3536   .text:0000000000001790 .L0 
     /tmp/ccg8jNLS.s:3539   .text:0000000000001798 .L0 
     /tmp/ccg8jNLS.s:3540   .text:0000000000001798 .L0 
     /tmp/ccg8jNLS.s:3543   .text:00000000000017a8 .L0 
     /tmp/ccg8jNLS.s:3554   .text:00000000000017a8 _ZN3TCB8hydrogenEj
     /tmp/ccg8jNLS.s:3557   .text:00000000000017a8 .L0 
     /tmp/ccg8jNLS.s:3559   .text:00000000000017a8 .L0 
     /tmp/ccg8jNLS.s:3560   .text:00000000000017ac .L0 
     /tmp/ccg8jNLS.s:3564   .text:00000000000017b8 .L0 
     /tmp/ccg8jNLS.s:3565   .text:00000000000017b8 .L0 
     /tmp/ccg8jNLS.s:3566   .text:00000000000017b8 .L0 
     /tmp/ccg8jNLS.s:3568   .text:00000000000017bc .L0 
     /tmp/ccg8jNLS.s:3571   .text:00000000000017c0 .L0 
     /tmp/ccg8jNLS.s:3572   .text:00000000000017c0 .L0 
     /tmp/ccg8jNLS.s:3574   .text:00000000000017c8 .L0 
     /tmp/ccg8jNLS.s:3578   .text:00000000000017cc .L0 
     /tmp/ccg8jNLS.s:3579   .text:00000000000017cc .L0 
     /tmp/ccg8jNLS.s:3583   .text:00000000000017dc .L0 
     /tmp/ccg8jNLS.s:3584   .text:00000000000017dc .L0 
     /tmp/ccg8jNLS.s:3589   .text:00000000000017ec .L0 
     /tmp/ccg8jNLS.s:3590   .text:00000000000017ec .L0 
     /tmp/ccg8jNLS.s:3596   .text:0000000000001804 .L0 
     /tmp/ccg8jNLS.s:3597   .text:0000000000001804 .L0 
     /tmp/ccg8jNLS.s:3599   .text:0000000000001808 .L0 
     /tmp/ccg8jNLS.s:3601   .text:000000000000180c .L0 
     /tmp/ccg8jNLS.s:3607   .text:0000000000001820 .L0 
     /tmp/ccg8jNLS.s:3608   .text:0000000000001820 .L0 
     /tmp/ccg8jNLS.s:3612   .text:0000000000001830 .L0 
     /tmp/ccg8jNLS.s:3613   .text:0000000000001830 .L0 
     /tmp/ccg8jNLS.s:3616   .text:0000000000001838 .L0 
     /tmp/ccg8jNLS.s:3622   .text:000000000000184c .L0 
     /tmp/ccg8jNLS.s:3623   .text:000000000000184c .L0 
     /tmp/ccg8jNLS.s:3627   .text:000000000000185c .L0 
     /tmp/ccg8jNLS.s:3628   .text:000000000000185c .L0 
     /tmp/ccg8jNLS.s:3631   .text:0000000000001864 .L0 
     /tmp/ccg8jNLS.s:3637   .text:0000000000001878 .L0 
     /tmp/ccg8jNLS.s:3638   .text:0000000000001878 .L0 
     /tmp/ccg8jNLS.s:3642   .text:0000000000001888 .L0 
     /tmp/ccg8jNLS.s:3643   .text:0000000000001888 .L0 
     /tmp/ccg8jNLS.s:3645   .text:000000000000188c .L0 
     /tmp/ccg8jNLS.s:3647   .text:0000000000001890 .L0 
     /tmp/ccg8jNLS.s:3651   .text:000000000000189c .L0 
     /tmp/ccg8jNLS.s:3652   .text:000000000000189c .L0 
     /tmp/ccg8jNLS.s:3656   .text:00000000000018ac .L0 
GAS LISTING /tmp/ccg8jNLS.s 			page 161


     /tmp/ccg8jNLS.s:3657   .text:00000000000018ac .L0 
     /tmp/ccg8jNLS.s:3660   .text:00000000000018b4 .L0 
     /tmp/ccg8jNLS.s:3664   .text:00000000000018c0 .L0 
     /tmp/ccg8jNLS.s:3665   .text:00000000000018c0 .L0 
     /tmp/ccg8jNLS.s:3669   .text:00000000000018d0 .L0 
     /tmp/ccg8jNLS.s:3670   .text:00000000000018d0 .L0 
     /tmp/ccg8jNLS.s:3673   .text:00000000000018d8 .L0 
     /tmp/ccg8jNLS.s:3677   .text:00000000000018e4 .L0 
     /tmp/ccg8jNLS.s:3678   .text:00000000000018e4 .L0 
     /tmp/ccg8jNLS.s:3682   .text:00000000000018f4 .L0 
     /tmp/ccg8jNLS.s:3683   .text:00000000000018f8 .L0 
     /tmp/ccg8jNLS.s:3684   .text:00000000000018f8 .L0 
     /tmp/ccg8jNLS.s:3686   .text:00000000000018fc .L0 
     /tmp/ccg8jNLS.s:3687   .text:00000000000018fc .L0 
     /tmp/ccg8jNLS.s:3689   .text:0000000000001900 .L0 
     /tmp/ccg8jNLS.s:3691   .text:0000000000001904 .L0 
     /tmp/ccg8jNLS.s:3695   .text:0000000000001908 .L0 
     /tmp/ccg8jNLS.s:3697   .text:0000000000001908 .L0 
     /tmp/ccg8jNLS.s:3698   .text:0000000000001908 .L0 
     /tmp/ccg8jNLS.s:3701   .text:0000000000001910 .L0 
     /tmp/ccg8jNLS.s:3702   .text:0000000000001910 .L0 
     /tmp/ccg8jNLS.s:3705   .text:0000000000001920 .L0 
     /tmp/ccg8jNLS.s:3711   .text:0000000000001920 _ZN3TCB16setDiningSavagesEv
     /tmp/ccg8jNLS.s:3714   .text:0000000000001920 .L0 
     /tmp/ccg8jNLS.s:3715   .text:0000000000001920 .L0 
     /tmp/ccg8jNLS.s:3716   .text:0000000000001920 .L0 
     /tmp/ccg8jNLS.s:3717   .text:0000000000001920 .L0 
     /tmp/ccg8jNLS.s:3719   .text:0000000000001928 .L0 
     /tmp/ccg8jNLS.s:3723   .text:0000000000001930 .L0 
     /tmp/ccg8jNLS.s:3724   .text:0000000000001934 .L0 
     /tmp/ccg8jNLS.s:3728   .text:0000000000001940 .L0 
     /tmp/ccg8jNLS.s:3729   .text:0000000000001940 .L0 
     /tmp/ccg8jNLS.s:3730   .text:0000000000001940 .L0 
     /tmp/ccg8jNLS.s:3732   .text:0000000000001944 .L0 
     /tmp/ccg8jNLS.s:3734   .text:0000000000001944 .L0 
     /tmp/ccg8jNLS.s:3735   .text:0000000000001944 .L0 
     /tmp/ccg8jNLS.s:3742   .text:0000000000001954 .L0 
     /tmp/ccg8jNLS.s:3743   .text:0000000000001954 .L0 
     /tmp/ccg8jNLS.s:3744   .text:0000000000001954 .L0 
     /tmp/ccg8jNLS.s:3752   .text:0000000000001960 .L0 
     /tmp/ccg8jNLS.s:3759   .text:000000000000196c .L0 
     /tmp/ccg8jNLS.s:3767   .text:0000000000001974 .L0 
     /tmp/ccg8jNLS.s:3772   .text:0000000000001978 .L0 
     /tmp/ccg8jNLS.s:3773   .text:0000000000001978 .L0 
     /tmp/ccg8jNLS.s:3774   .text:0000000000001978 .L0 
     /tmp/ccg8jNLS.s:3782   .text:0000000000001984 .L0 
     /tmp/ccg8jNLS.s:3788   .text:000000000000198c .L0 
     /tmp/ccg8jNLS.s:3796   .text:0000000000001994 .L0 
     /tmp/ccg8jNLS.s:3801   .text:0000000000001998 .L0 
     /tmp/ccg8jNLS.s:3802   .text:0000000000001998 .L0 
     /tmp/ccg8jNLS.s:3803   .text:0000000000001998 .L0 
     /tmp/ccg8jNLS.s:3811   .text:00000000000019a4 .L0 
     /tmp/ccg8jNLS.s:3817   .text:00000000000019ac .L0 
     /tmp/ccg8jNLS.s:3825   .text:00000000000019b4 .L0 
     /tmp/ccg8jNLS.s:3827   .text:00000000000019b8 .L0 
     /tmp/ccg8jNLS.s:3828   .text:00000000000019bc .L0 
     /tmp/ccg8jNLS.s:3830   .text:00000000000019c0 .L0 
GAS LISTING /tmp/ccg8jNLS.s 			page 162


     /tmp/ccg8jNLS.s:3831   .text:00000000000019c0 .L0 
     /tmp/ccg8jNLS.s:3833   .text:00000000000019c4 .L0 
     /tmp/ccg8jNLS.s:3835   .text:00000000000019c8 .L0 
     /tmp/ccg8jNLS.s:3837   .text:00000000000019cc .L0 
     /tmp/ccg8jNLS.s:3848   .text:00000000000019cc _ZN3TCB6savageEi
     /tmp/ccg8jNLS.s:3851   .text:00000000000019cc .L0 
     /tmp/ccg8jNLS.s:3853   .text:00000000000019cc .L0 
     /tmp/ccg8jNLS.s:3854   .text:00000000000019d0 .L0 
     /tmp/ccg8jNLS.s:3858   .text:00000000000019dc .L0 
     /tmp/ccg8jNLS.s:3859   .text:00000000000019dc .L0 
     /tmp/ccg8jNLS.s:3860   .text:00000000000019dc .L0 
     /tmp/ccg8jNLS.s:3862   .text:00000000000019e0 .L0 
     /tmp/ccg8jNLS.s:3864   .text:00000000000019e0 .L0 
     /tmp/ccg8jNLS.s:3865   .text:00000000000019e0 .L0 
     /tmp/ccg8jNLS.s:3868   .text:00000000000019e8 .L0 
     /tmp/ccg8jNLS.s:3869   .text:00000000000019e8 .L0 
     /tmp/ccg8jNLS.s:3874   .text:00000000000019fc .L0 
     /tmp/ccg8jNLS.s:3875   .text:00000000000019fc .L0 
     /tmp/ccg8jNLS.s:3877   .text:0000000000001a00 .L0 
     /tmp/ccg8jNLS.s:3880   .text:0000000000001a04 .L0 
     /tmp/ccg8jNLS.s:3881   .text:0000000000001a04 .L0 
     /tmp/ccg8jNLS.s:3886   .text:0000000000001a18 .L0 
     /tmp/ccg8jNLS.s:3887   .text:0000000000001a18 .L0 
     /tmp/ccg8jNLS.s:3891   .text:0000000000001a24 .L0 
     /tmp/ccg8jNLS.s:3892   .text:0000000000001a24 .L0 
     /tmp/ccg8jNLS.s:3896   .text:0000000000001a34 .L0 
     /tmp/ccg8jNLS.s:3897   .text:0000000000001a38 .L0 
     /tmp/ccg8jNLS.s:3898   .text:0000000000001a38 .L0 
     /tmp/ccg8jNLS.s:3900   .text:0000000000001a3c .L0 
     /tmp/ccg8jNLS.s:3901   .text:0000000000001a3c .L0 
     /tmp/ccg8jNLS.s:3903   .text:0000000000001a40 .L0 
     /tmp/ccg8jNLS.s:3905   .text:0000000000001a44 .L0 
     /tmp/ccg8jNLS.s:3908   .text:0000000000001a48 .L0 
     /tmp/ccg8jNLS.s:3910   .text:0000000000001a48 .L0 
     /tmp/ccg8jNLS.s:3911   .text:0000000000001a48 .L0 
     /tmp/ccg8jNLS.s:3915   .text:0000000000001a54 .L0 
     /tmp/ccg8jNLS.s:3916   .text:0000000000001a54 .L0 
     /tmp/ccg8jNLS.s:3920   .text:0000000000001a64 .L0 
     /tmp/ccg8jNLS.s:3931   .text:0000000000001a64 _ZN3TCB4cookEv
     /tmp/ccg8jNLS.s:3934   .text:0000000000001a64 .L0 
     /tmp/ccg8jNLS.s:3935   .text:0000000000001a64 .L0 
     /tmp/ccg8jNLS.s:3936   .text:0000000000001a68 .L0 
     /tmp/ccg8jNLS.s:3940   .text:0000000000001a74 .L0 
     /tmp/ccg8jNLS.s:3941   .text:0000000000001a74 .L0 
     /tmp/ccg8jNLS.s:3942   .text:0000000000001a74 .L0 
     /tmp/ccg8jNLS.s:3944   .text:0000000000001a78 .L0 
     /tmp/ccg8jNLS.s:3946   .text:0000000000001a78 .L0 
     /tmp/ccg8jNLS.s:3947   .text:0000000000001a78 .L0 
     /tmp/ccg8jNLS.s:3950   .text:0000000000001a80 .L0 
     /tmp/ccg8jNLS.s:3951   .text:0000000000001a80 .L0 
     /tmp/ccg8jNLS.s:3956   .text:0000000000001a94 .L0 
     /tmp/ccg8jNLS.s:3957   .text:0000000000001a94 .L0 
     /tmp/ccg8jNLS.s:3961   .text:0000000000001aa4 .L0 
     /tmp/ccg8jNLS.s:3962   .text:0000000000001aa4 .L0 
     /tmp/ccg8jNLS.s:3965   .text:0000000000001aac .L0 
     /tmp/ccg8jNLS.s:3966   .text:0000000000001aac .L0 
     /tmp/ccg8jNLS.s:3970   .text:0000000000001ab8 .L0 
GAS LISTING /tmp/ccg8jNLS.s 			page 163


     /tmp/ccg8jNLS.s:3971   .text:0000000000001abc .L0 
     /tmp/ccg8jNLS.s:3973   .text:0000000000001ac0 .L0 
     /tmp/ccg8jNLS.s:3974   .text:0000000000001ac0 .L0 
     /tmp/ccg8jNLS.s:3976   .text:0000000000001ac4 .L0 
     /tmp/ccg8jNLS.s:3978   .text:0000000000001ac8 .L0 
     /tmp/ccg8jNLS.s:3980   .text:0000000000001acc .L0 
     /tmp/ccg8jNLS.s:3994   .text:0000000000001acc _ZN3TCB21parentHuntForChildrenEj
     /tmp/ccg8jNLS.s:3997   .text:0000000000001acc .L0 
     /tmp/ccg8jNLS.s:3999   .text:0000000000001acc .L0 
     /tmp/ccg8jNLS.s:4000   .text:0000000000001ad0 .L0 
     /tmp/ccg8jNLS.s:4005   .text:0000000000001ae0 .L0 
     /tmp/ccg8jNLS.s:4006   .text:0000000000001ae0 .L0 
     /tmp/ccg8jNLS.s:4007   .text:0000000000001ae0 .L0 
     /tmp/ccg8jNLS.s:4008   .text:0000000000001ae0 .L0 
     /tmp/ccg8jNLS.s:4010   .text:0000000000001ae4 .L0 
     /tmp/ccg8jNLS.s:4013   .text:0000000000001ae8 .L0 
     /tmp/ccg8jNLS.s:4014   .text:0000000000001ae8 .L0 
     /tmp/ccg8jNLS.s:4020   .text:0000000000001afc .L0 
     /tmp/ccg8jNLS.s:4021   .text:0000000000001afc .L0 
     /tmp/ccg8jNLS.s:4025   .text:0000000000001b08 .L0 
     /tmp/ccg8jNLS.s:4026   .text:0000000000001b08 .L0 
     /tmp/ccg8jNLS.s:4030   .text:0000000000001b18 .L0 
     /tmp/ccg8jNLS.s:4031   .text:0000000000001b18 .L0 
     /tmp/ccg8jNLS.s:4037   .text:0000000000001b2c .L0 
     /tmp/ccg8jNLS.s:4038   .text:0000000000001b2c .L0 
     /tmp/ccg8jNLS.s:4043   .text:0000000000001b3c .L0 
     /tmp/ccg8jNLS.s:4044   .text:0000000000001b3c .L0 
     /tmp/ccg8jNLS.s:4050   .text:0000000000001b44 .L0 
     /tmp/ccg8jNLS.s:4051   .text:0000000000001b44 .L0 
     /tmp/ccg8jNLS.s:4055   .text:0000000000001b4c .L0 
     /tmp/ccg8jNLS.s:4059   .text:0000000000001b50 .L0 
     /tmp/ccg8jNLS.s:4065   .text:0000000000001b5c .L0 
     /tmp/ccg8jNLS.s:4069   .text:0000000000001b60 .L0 
     /tmp/ccg8jNLS.s:4073   .text:0000000000001b6c .L0 
     /tmp/ccg8jNLS.s:4081   .text:0000000000001b74 .L0 
     /tmp/ccg8jNLS.s:4082   .text:0000000000001b74 .L0 
     /tmp/ccg8jNLS.s:4083   .text:0000000000001b74 .L0 
     /tmp/ccg8jNLS.s:4087   .text:0000000000001b84 .L0 
     /tmp/ccg8jNLS.s:4088   .text:0000000000001b84 .L0 
     /tmp/ccg8jNLS.s:4093   .text:0000000000001b94 .L0 
     /tmp/ccg8jNLS.s:4094   .text:0000000000001b94 .L0 
     /tmp/ccg8jNLS.s:4098   .text:0000000000001ba0 .L0 
     /tmp/ccg8jNLS.s:4099   .text:0000000000001ba0 .L0 
     /tmp/ccg8jNLS.s:4103   .text:0000000000001bac .L0 
     /tmp/ccg8jNLS.s:4104   .text:0000000000001bb0 .L0 
     /tmp/ccg8jNLS.s:4106   .text:0000000000001bb4 .L0 
     /tmp/ccg8jNLS.s:4107   .text:0000000000001bb4 .L0 
     /tmp/ccg8jNLS.s:4109   .text:0000000000001bb8 .L0 
     /tmp/ccg8jNLS.s:4111   .text:0000000000001bbc .L0 
     /tmp/ccg8jNLS.s:4113   .text:0000000000001bc0 .L0 
     /tmp/ccg8jNLS.s:4115   .text:0000000000001bc4 .L0 
     /tmp/ccg8jNLS.s:4129   .text:0000000000001bc4 _ZN3TCB23parentForHuntForHimselfEj
     /tmp/ccg8jNLS.s:4132   .text:0000000000001bc4 .L0 
     /tmp/ccg8jNLS.s:4134   .text:0000000000001bc4 .L0 
     /tmp/ccg8jNLS.s:4135   .text:0000000000001bc8 .L0 
     /tmp/ccg8jNLS.s:4140   .text:0000000000001bd8 .L0 
     /tmp/ccg8jNLS.s:4141   .text:0000000000001bd8 .L0 
GAS LISTING /tmp/ccg8jNLS.s 			page 164


     /tmp/ccg8jNLS.s:4142   .text:0000000000001bd8 .L0 
     /tmp/ccg8jNLS.s:4143   .text:0000000000001bd8 .L0 
     /tmp/ccg8jNLS.s:4145   .text:0000000000001bdc .L0 
     /tmp/ccg8jNLS.s:4148   .text:0000000000001be0 .L0 
     /tmp/ccg8jNLS.s:4149   .text:0000000000001be0 .L0 
     /tmp/ccg8jNLS.s:4154   .text:0000000000001bf0 .L0 
     /tmp/ccg8jNLS.s:4155   .text:0000000000001bf0 .L0 
     /tmp/ccg8jNLS.s:4159   .text:0000000000001c00 .L0 
     /tmp/ccg8jNLS.s:4160   .text:0000000000001c00 .L0 
     /tmp/ccg8jNLS.s:4167   .text:0000000000001c18 .L0 
     /tmp/ccg8jNLS.s:4168   .text:0000000000001c18 .L0 
     /tmp/ccg8jNLS.s:4173   .text:0000000000001c28 .L0 
     /tmp/ccg8jNLS.s:4174   .text:0000000000001c28 .L0 
     /tmp/ccg8jNLS.s:4180   .text:0000000000001c30 .L0 
     /tmp/ccg8jNLS.s:4181   .text:0000000000001c30 .L0 
     /tmp/ccg8jNLS.s:4185   .text:0000000000001c38 .L0 
     /tmp/ccg8jNLS.s:4189   .text:0000000000001c3c .L0 
     /tmp/ccg8jNLS.s:4195   .text:0000000000001c48 .L0 
     /tmp/ccg8jNLS.s:4199   .text:0000000000001c4c .L0 
     /tmp/ccg8jNLS.s:4203   .text:0000000000001c58 .L0 
     /tmp/ccg8jNLS.s:4211   .text:0000000000001c60 .L0 
     /tmp/ccg8jNLS.s:4212   .text:0000000000001c60 .L0 
     /tmp/ccg8jNLS.s:4213   .text:0000000000001c60 .L0 
     /tmp/ccg8jNLS.s:4217   .text:0000000000001c70 .L0 
     /tmp/ccg8jNLS.s:4218   .text:0000000000001c70 .L0 
     /tmp/ccg8jNLS.s:4224   .text:0000000000001c84 .L0 
     /tmp/ccg8jNLS.s:4225   .text:0000000000001c84 .L0 
     /tmp/ccg8jNLS.s:4229   .text:0000000000001c94 .L0 
     /tmp/ccg8jNLS.s:4230   .text:0000000000001c94 .L0 
     /tmp/ccg8jNLS.s:4234   .text:0000000000001ca4 .L0 
     /tmp/ccg8jNLS.s:4235   .text:0000000000001ca8 .L0 
     /tmp/ccg8jNLS.s:4237   .text:0000000000001cac .L0 
     /tmp/ccg8jNLS.s:4238   .text:0000000000001cac .L0 
     /tmp/ccg8jNLS.s:4240   .text:0000000000001cb0 .L0 
     /tmp/ccg8jNLS.s:4243   .text:0000000000001cb4 .L0 
     /tmp/ccg8jNLS.s:4245   .text:0000000000001cb8 .L0 
     /tmp/ccg8jNLS.s:4247   .text:0000000000001cbc .L0 
     /tmp/ccg8jNLS.s:4253   .text:0000000000001cbc _ZN3TCB14setHungryBirdsEv
     /tmp/ccg8jNLS.s:4256   .text:0000000000001cbc .L0 
     /tmp/ccg8jNLS.s:4257   .text:0000000000001cbc .L0 
     /tmp/ccg8jNLS.s:4258   .text:0000000000001cbc .L0 
     /tmp/ccg8jNLS.s:4259   .text:0000000000001cbc .L0 
     /tmp/ccg8jNLS.s:4261   .text:0000000000001cc4 .L0 
     /tmp/ccg8jNLS.s:4265   .text:0000000000001ccc .L0 
     /tmp/ccg8jNLS.s:4266   .text:0000000000001cd0 .L0 
     /tmp/ccg8jNLS.s:4271   .text:0000000000001ce0 .L0 
     /tmp/ccg8jNLS.s:4272   .text:0000000000001ce0 .L0 
     /tmp/ccg8jNLS.s:4273   .text:0000000000001ce0 .L0 
     /tmp/ccg8jNLS.s:4274   .text:0000000000001ce0 .L0 
     /tmp/ccg8jNLS.s:4276   .text:0000000000001ce4 .L0 
     /tmp/ccg8jNLS.s:4281   .text:0000000000001ce4 .L0 
     /tmp/ccg8jNLS.s:4282   .text:0000000000001ce4 .L0 
     /tmp/ccg8jNLS.s:4283   .text:0000000000001ce4 .L0 
     /tmp/ccg8jNLS.s:4291   .text:0000000000001cf0 .L0 
     /tmp/ccg8jNLS.s:4298   .text:0000000000001cfc .L0 
     /tmp/ccg8jNLS.s:4306   .text:0000000000001d04 .L0 
     /tmp/ccg8jNLS.s:4312   .text:0000000000001d10 .L0 
GAS LISTING /tmp/ccg8jNLS.s 			page 165


     /tmp/ccg8jNLS.s:4313   .text:0000000000001d10 .L0 
     /tmp/ccg8jNLS.s:4314   .text:0000000000001d10 .L0 
     /tmp/ccg8jNLS.s:4322   .text:0000000000001d1c .L0 
     /tmp/ccg8jNLS.s:4328   .text:0000000000001d24 .L0 
     /tmp/ccg8jNLS.s:4336   .text:0000000000001d2c .L0 
     /tmp/ccg8jNLS.s:4341   .text:0000000000001d30 .L0 
     /tmp/ccg8jNLS.s:4342   .text:0000000000001d30 .L0 
     /tmp/ccg8jNLS.s:4343   .text:0000000000001d30 .L0 
     /tmp/ccg8jNLS.s:4351   .text:0000000000001d3c .L0 
     /tmp/ccg8jNLS.s:4357   .text:0000000000001d44 .L0 
     /tmp/ccg8jNLS.s:4365   .text:0000000000001d4c .L0 
     /tmp/ccg8jNLS.s:4367   .text:0000000000001d50 .L0 
     /tmp/ccg8jNLS.s:4368   .text:0000000000001d50 .L0 
     /tmp/ccg8jNLS.s:4370   .text:0000000000001d54 .L0 
     /tmp/ccg8jNLS.s:4371   .text:0000000000001d58 .L0 
     /tmp/ccg8jNLS.s:4373   .text:0000000000001d5c .L0 
     /tmp/ccg8jNLS.s:4374   .text:0000000000001d5c .L0 
     /tmp/ccg8jNLS.s:4376   .text:0000000000001d60 .L0 
     /tmp/ccg8jNLS.s:4378   .text:0000000000001d64 .L0 
     /tmp/ccg8jNLS.s:4380   .text:0000000000001d68 .L0 
     /tmp/ccg8jNLS.s:4382   .text:0000000000001d6c .L0 
     /tmp/ccg8jNLS.s:4396   .text:0000000000001d6c _ZN3TCB9birdChildEj
     /tmp/ccg8jNLS.s:4399   .text:0000000000001d6c .L0 
     /tmp/ccg8jNLS.s:4401   .text:0000000000001d6c .L0 
     /tmp/ccg8jNLS.s:4402   .text:0000000000001d70 .L0 
     /tmp/ccg8jNLS.s:4407   .text:0000000000001d80 .L0 
     /tmp/ccg8jNLS.s:4408   .text:0000000000001d80 .L0 
     /tmp/ccg8jNLS.s:4409   .text:0000000000001d80 .L0 
     /tmp/ccg8jNLS.s:4410   .text:0000000000001d80 .L0 
     /tmp/ccg8jNLS.s:4412   .text:0000000000001d84 .L0 
     /tmp/ccg8jNLS.s:4415   .text:0000000000001d88 .L0 
     /tmp/ccg8jNLS.s:4416   .text:0000000000001d88 .L0 
     /tmp/ccg8jNLS.s:4419   .text:0000000000001d90 .L0 
     /tmp/ccg8jNLS.s:4420   .text:0000000000001d90 .L0 
     /tmp/ccg8jNLS.s:4425   .text:0000000000001da4 .L0 
     /tmp/ccg8jNLS.s:4426   .text:0000000000001da4 .L0 
     /tmp/ccg8jNLS.s:4430   .text:0000000000001db0 .L0 
     /tmp/ccg8jNLS.s:4431   .text:0000000000001db0 .L0 
     /tmp/ccg8jNLS.s:4435   .text:0000000000001dc0 .L0 
     /tmp/ccg8jNLS.s:4436   .text:0000000000001dc0 .L0 
     /tmp/ccg8jNLS.s:4442   .text:0000000000001dd4 .L0 
     /tmp/ccg8jNLS.s:4443   .text:0000000000001dd4 .L0 
     /tmp/ccg8jNLS.s:4447   .text:0000000000001de4 .L0 
     /tmp/ccg8jNLS.s:4448   .text:0000000000001de4 .L0 
     /tmp/ccg8jNLS.s:4450   .text:0000000000001de8 .L0 
     /tmp/ccg8jNLS.s:4452   .text:0000000000001dec .L0 
     /tmp/ccg8jNLS.s:4453   .text:0000000000001dec .L0 
     /tmp/ccg8jNLS.s:4457   .text:0000000000001dfc .L0 
     /tmp/ccg8jNLS.s:4458   .text:0000000000001dfc .L0 
     /tmp/ccg8jNLS.s:4463   .text:0000000000001e0c .L0 
     /tmp/ccg8jNLS.s:4464   .text:0000000000001e10 .L0 
     /tmp/ccg8jNLS.s:4465   .text:0000000000001e10 .L0 
     /tmp/ccg8jNLS.s:4467   .text:0000000000001e14 .L0 
     /tmp/ccg8jNLS.s:4468   .text:0000000000001e14 .L0 
     /tmp/ccg8jNLS.s:4470   .text:0000000000001e18 .L0 
     /tmp/ccg8jNLS.s:4472   .text:0000000000001e1c .L0 
     /tmp/ccg8jNLS.s:4474   .text:0000000000001e20 .L0 
GAS LISTING /tmp/ccg8jNLS.s 			page 166


     /tmp/ccg8jNLS.s:4477   .text:0000000000001e24 .L0 
     /tmp/ccg8jNLS.s:4479   .text:0000000000001e24 .L0 
     /tmp/ccg8jNLS.s:4480   .text:0000000000001e24 .L0 
     /tmp/ccg8jNLS.s:4484   .text:0000000000001e34 .L0 
     /tmp/ccg8jNLS.s:4485   .text:0000000000001e38 .L0 
     /tmp/ccg8jNLS.s:4491   .text:0000000000001e38 _ZN3TCB10birdParentEj
     /tmp/ccg8jNLS.s:4494   .text:0000000000001e38 .L0 
     /tmp/ccg8jNLS.s:4496   .text:0000000000001e38 .L0 
     /tmp/ccg8jNLS.s:4497   .text:0000000000001e3c .L0 
     /tmp/ccg8jNLS.s:4501   .text:0000000000001e48 .L0 
     /tmp/ccg8jNLS.s:4502   .text:0000000000001e48 .L0 
     /tmp/ccg8jNLS.s:4503   .text:0000000000001e48 .L0 
     /tmp/ccg8jNLS.s:4505   .text:0000000000001e4c .L0 
     /tmp/ccg8jNLS.s:4508   .text:0000000000001e50 .L0 
     /tmp/ccg8jNLS.s:4509   .text:0000000000001e50 .L0 
     /tmp/ccg8jNLS.s:4512   .text:0000000000001e58 .L0 
     /tmp/ccg8jNLS.s:4513   .text:0000000000001e58 .L0 
     /tmp/ccg8jNLS.s:4517   .text:0000000000001e64 .L0 
     /tmp/ccg8jNLS.s:4518   .text:0000000000001e64 .L0 
     /tmp/ccg8jNLS.s:4522   .text:0000000000001e70 .L0 
     /tmp/ccg8jNLS.s:4523   .text:0000000000001e74 .L0 
     /tmp/ccg8jNLS.s:4525   .text:0000000000001e78 .L0 
     /tmp/ccg8jNLS.s:4526   .text:0000000000001e78 .L0 
     /tmp/ccg8jNLS.s:4528   .text:0000000000001e7c .L0 
     /tmp/ccg8jNLS.s:4530   .text:0000000000001e80 .L0 
     /tmp/ccg8jNLS.s:4532   .text:0000000000001e84 .L0 
     /tmp/ccg8jNLS.s:4538   .text:0000000000001e84 _ZN3TCB11setPceleMedEv
     /tmp/ccg8jNLS.s:4541   .text:0000000000001e84 .L0 
     /tmp/ccg8jNLS.s:4542   .text:0000000000001e84 .L0 
     /tmp/ccg8jNLS.s:4543   .text:0000000000001e84 .L0 
     /tmp/ccg8jNLS.s:4544   .text:0000000000001e84 .L0 
     /tmp/ccg8jNLS.s:4546   .text:0000000000001e8c .L0 
     /tmp/ccg8jNLS.s:4550   .text:0000000000001e94 .L0 
     /tmp/ccg8jNLS.s:4551   .text:0000000000001e98 .L0 
     /tmp/ccg8jNLS.s:4555   .text:0000000000001ea4 .L0 
     /tmp/ccg8jNLS.s:4556   .text:0000000000001ea4 .L0 
     /tmp/ccg8jNLS.s:4557   .text:0000000000001ea4 .L0 
     /tmp/ccg8jNLS.s:4559   .text:0000000000001ea8 .L0 
     /tmp/ccg8jNLS.s:4561   .text:0000000000001ea8 .L0 
     /tmp/ccg8jNLS.s:4562   .text:0000000000001ea8 .L0 
     /tmp/ccg8jNLS.s:4569   .text:0000000000001eb8 .L0 
     /tmp/ccg8jNLS.s:4570   .text:0000000000001eb8 .L0 
     /tmp/ccg8jNLS.s:4571   .text:0000000000001eb8 .L0 
     /tmp/ccg8jNLS.s:4579   .text:0000000000001ec4 .L0 
     /tmp/ccg8jNLS.s:4586   .text:0000000000001ed0 .L0 
     /tmp/ccg8jNLS.s:4594   .text:0000000000001ed8 .L0 
     /tmp/ccg8jNLS.s:4599   .text:0000000000001edc .L0 
     /tmp/ccg8jNLS.s:4600   .text:0000000000001edc .L0 
     /tmp/ccg8jNLS.s:4601   .text:0000000000001edc .L0 
     /tmp/ccg8jNLS.s:4609   .text:0000000000001ee8 .L0 
     /tmp/ccg8jNLS.s:4615   .text:0000000000001ef0 .L0 
     /tmp/ccg8jNLS.s:4623   .text:0000000000001ef8 .L0 
     /tmp/ccg8jNLS.s:4625   .text:0000000000001efc .L0 
     /tmp/ccg8jNLS.s:4626   .text:0000000000001f00 .L0 
     /tmp/ccg8jNLS.s:4628   .text:0000000000001f04 .L0 
     /tmp/ccg8jNLS.s:4629   .text:0000000000001f04 .L0 
     /tmp/ccg8jNLS.s:4631   .text:0000000000001f08 .L0 
GAS LISTING /tmp/ccg8jNLS.s 			page 167


     /tmp/ccg8jNLS.s:4633   .text:0000000000001f0c .L0 
     /tmp/ccg8jNLS.s:4635   .text:0000000000001f10 .L0 
     /tmp/ccg8jNLS.s:4652   .text:0000000000001f10 _ZN3TCB7honeybeEj
     /tmp/ccg8jNLS.s:4655   .text:0000000000001f10 .L0 
     /tmp/ccg8jNLS.s:4657   .text:0000000000001f10 .L0 
     /tmp/ccg8jNLS.s:4658   .text:0000000000001f14 .L0 
     /tmp/ccg8jNLS.s:4663   .text:0000000000001f24 .L0 
     /tmp/ccg8jNLS.s:4664   .text:0000000000001f24 .L0 
     /tmp/ccg8jNLS.s:4665   .text:0000000000001f24 .L0 
     /tmp/ccg8jNLS.s:4666   .text:0000000000001f24 .L0 
     /tmp/ccg8jNLS.s:4668   .text:0000000000001f28 .L0 
     /tmp/ccg8jNLS.s:4671   .text:0000000000001f2c .L0 
     /tmp/ccg8jNLS.s:4672   .text:0000000000001f2c .L0 
     /tmp/ccg8jNLS.s:4675   .text:0000000000001f34 .L0 
     /tmp/ccg8jNLS.s:4676   .text:0000000000001f34 .L0 
     /tmp/ccg8jNLS.s:4680   .text:0000000000001f44 .L0 
     /tmp/ccg8jNLS.s:4681   .text:0000000000001f44 .L0 
     /tmp/ccg8jNLS.s:4688   .text:0000000000001f5c .L0 
     /tmp/ccg8jNLS.s:4689   .text:0000000000001f5c .L0 
     /tmp/ccg8jNLS.s:4694   .text:0000000000001f6c .L0 
     /tmp/ccg8jNLS.s:4695   .text:0000000000001f6c .L0 
     /tmp/ccg8jNLS.s:4701   .text:0000000000001f74 .L0 
     /tmp/ccg8jNLS.s:4702   .text:0000000000001f74 .L0 
     /tmp/ccg8jNLS.s:4706   .text:0000000000001f7c .L0 
     /tmp/ccg8jNLS.s:4710   .text:0000000000001f80 .L0 
     /tmp/ccg8jNLS.s:4715   .text:0000000000001f88 .L0 
     /tmp/ccg8jNLS.s:4719   .text:0000000000001f8c .L0 
     /tmp/ccg8jNLS.s:4722   .text:0000000000001f94 .L0 
     /tmp/ccg8jNLS.s:4730   .text:0000000000001f9c .L0 
     /tmp/ccg8jNLS.s:4731   .text:0000000000001f9c .L0 
     /tmp/ccg8jNLS.s:4737   .text:0000000000001fb0 .L0 
     /tmp/ccg8jNLS.s:4738   .text:0000000000001fb0 .L0 
     /tmp/ccg8jNLS.s:4742   .text:0000000000001fc0 .L0 
     /tmp/ccg8jNLS.s:4743   .text:0000000000001fc0 .L0 
     /tmp/ccg8jNLS.s:4749   .text:0000000000001fd4 .L0 
     /tmp/ccg8jNLS.s:4750   .text:0000000000001fd4 .L0 
     /tmp/ccg8jNLS.s:4754   .text:0000000000001fe4 .L0 
     /tmp/ccg8jNLS.s:4755   .text:0000000000001fe4 .L0 
     /tmp/ccg8jNLS.s:4760   .text:0000000000001ff4 .L0 
     /tmp/ccg8jNLS.s:4763   .text:0000000000001ffc .L0 
     /tmp/ccg8jNLS.s:4764   .text:0000000000001ffc .L0 
     /tmp/ccg8jNLS.s:4769   .text:000000000000200c .L0 
     /tmp/ccg8jNLS.s:4770   .text:0000000000002010 .L0 
     /tmp/ccg8jNLS.s:4771   .text:0000000000002010 .L0 
     /tmp/ccg8jNLS.s:4773   .text:0000000000002014 .L0 
     /tmp/ccg8jNLS.s:4774   .text:0000000000002014 .L0 
     /tmp/ccg8jNLS.s:4776   .text:0000000000002018 .L0 
     /tmp/ccg8jNLS.s:4778   .text:000000000000201c .L0 
     /tmp/ccg8jNLS.s:4780   .text:0000000000002020 .L0 
     /tmp/ccg8jNLS.s:4783   .text:0000000000002024 .L0 
     /tmp/ccg8jNLS.s:4785   .text:0000000000002024 .L0 
     /tmp/ccg8jNLS.s:4786   .text:0000000000002024 .L0 
     /tmp/ccg8jNLS.s:4790   .text:0000000000002034 .L0 
     /tmp/ccg8jNLS.s:4791   .text:0000000000002034 .L0 
     /tmp/ccg8jNLS.s:4795   .text:0000000000002048 .L0 
     /tmp/ccg8jNLS.s:4812   .text:0000000000002048 _ZN3TCB4medaEv
     /tmp/ccg8jNLS.s:4815   .text:0000000000002048 .L0 
GAS LISTING /tmp/ccg8jNLS.s 			page 168


     /tmp/ccg8jNLS.s:4816   .text:0000000000002048 .L0 
     /tmp/ccg8jNLS.s:4817   .text:000000000000204c .L0 
     /tmp/ccg8jNLS.s:4820   .text:0000000000002054 .L0 
     /tmp/ccg8jNLS.s:4821   .text:0000000000002054 .L0 
     /tmp/ccg8jNLS.s:4823   .text:0000000000002058 .L0 
     /tmp/ccg8jNLS.s:4825   .text:0000000000002058 .L0 
     /tmp/ccg8jNLS.s:4826   .text:0000000000002058 .L0 
     /tmp/ccg8jNLS.s:4829   .text:0000000000002060 .L0 
     /tmp/ccg8jNLS.s:4830   .text:0000000000002060 .L0 
     /tmp/ccg8jNLS.s:4834   .text:0000000000002070 .L0 
     /tmp/ccg8jNLS.s:4835   .text:0000000000002070 .L0 
     /tmp/ccg8jNLS.s:4839   .text:0000000000002080 .L0 
     /tmp/ccg8jNLS.s:4840   .text:0000000000002080 .L0 
     /tmp/ccg8jNLS.s:4844   .text:0000000000002090 .L0 
     /tmp/ccg8jNLS.s:4845   .text:0000000000002090 .L0 
     /tmp/ccg8jNLS.s:4850   .text:00000000000020a0 .L0 
     /tmp/ccg8jNLS.s:4851   .text:00000000000020a0 .L0 
     /tmp/ccg8jNLS.s:4856   .text:00000000000020a8 .L0 
     /tmp/ccg8jNLS.s:4860   .text:00000000000020ac .L0 
     /tmp/ccg8jNLS.s:4865   .text:00000000000020b8 .L0 
     /tmp/ccg8jNLS.s:4869   .text:00000000000020bc .L0 
     /tmp/ccg8jNLS.s:4872   .text:00000000000020c4 .L0 
     /tmp/ccg8jNLS.s:4879   .text:00000000000020cc .L0 
     /tmp/ccg8jNLS.s:4880   .text:00000000000020cc .L0 
     /tmp/ccg8jNLS.s:4884   .text:00000000000020dc .L0 
     /tmp/ccg8jNLS.s:4885   .text:00000000000020dc .L0 
     /tmp/ccg8jNLS.s:4888   .text:00000000000020e8 .L0 
     /tmp/ccg8jNLS.s:4889   .text:00000000000020e8 .L0 
     /tmp/ccg8jNLS.s:4893   .text:00000000000020f4 .L0 
     /tmp/ccg8jNLS.s:4894   .text:00000000000020f8 .L0 
     /tmp/ccg8jNLS.s:4896   .text:00000000000020fc .L0 
     /tmp/ccg8jNLS.s:4897   .text:00000000000020fc .L0 
     /tmp/ccg8jNLS.s:4899   .text:0000000000002100 .L0 
     /tmp/ccg8jNLS.s:4901   .text:0000000000002104 .L0 
     /tmp/ccg8jNLS.s:4906   .text:0000000000002104 _GLOBAL__sub_I__ZN3TCB7waitingE
     /tmp/ccg8jNLS.s:4909   .text:0000000000002104 .L0 
     /tmp/ccg8jNLS.s:4910   .text:0000000000002104 .L0 
     /tmp/ccg8jNLS.s:4911   .text:0000000000002108 .L0 
     /tmp/ccg8jNLS.s:4914   .text:0000000000002110 .L0 
     /tmp/ccg8jNLS.s:4915   .text:0000000000002110 .L0 
     /tmp/ccg8jNLS.s:4917   .text:0000000000002114 .L0 
     /tmp/ccg8jNLS.s:4919   .text:0000000000002114 .L0 
     /tmp/ccg8jNLS.s:4925   .text:000000000000212c .L0 
     /tmp/ccg8jNLS.s:4927   .text:0000000000002130 .L0 
     /tmp/ccg8jNLS.s:4928   .text:0000000000002130 .L0 
     /tmp/ccg8jNLS.s:4930   .text:0000000000002134 .L0 
     /tmp/ccg8jNLS.s:4932   .text:0000000000002138 .L0 
     /tmp/ccg8jNLS.s:5110   .bss:0000000000000130 writeIndex
     /tmp/ccg8jNLS.s:5204   .bss:0000000000000210 _ZN3TCB4bearE
     /tmp/ccg8jNLS.s:5200   .bss:0000000000000208 _ZN3TCB3mtxE
     /tmp/ccg8jNLS.s:5195   .bss:0000000000000201 _ZN3TCB11fsMedaPceleE
     /tmp/ccg8jNLS.s:5208   .bss:0000000000000218 _ZN3TCB7kosnicaE
     /tmp/ccg8jNLS.s:5182   .bss:00000000000001f0 _ZN3TCB4pot1E
     /tmp/ccg8jNLS.s:5178   .bss:00000000000001e8 _ZN3TCB11mutexParentE
     /tmp/ccg8jNLS.s:5187   .bss:00000000000001f8 _ZN3TCB10mutexChildE
     /tmp/ccg8jNLS.s:5174   .bss:00000000000001e0 _ZN3TCB7parenttE
     /tmp/ccg8jNLS.s:5191   .bss:0000000000000200 _ZN3TCB12setHngryBirdE
GAS LISTING /tmp/ccg8jNLS.s 			page 169


     /tmp/ccg8jNLS.s:5152   .bss:00000000000001b9 _ZN3TCB14fsDiningSavageE
     /tmp/ccg8jNLS.s:5169   .bss:00000000000001d8 _ZN3TCB3potE
     /tmp/ccg8jNLS.s:5165   .bss:00000000000001d0 _ZN3TCB7semCookE
     /tmp/ccg8jNLS.s:5161   .bss:00000000000001c8 _ZN3TCB9semSavageE
     /tmp/ccg8jNLS.s:5157   .bss:00000000000001c0 _ZN3TCB5mutexE
     /tmp/ccg8jNLS.s:5136   .bss:00000000000001a0 _ZN3TCB5door2E
     /tmp/ccg8jNLS.s:5123   .bss:0000000000000188 _ZN3TCB5door1E
     /tmp/ccg8jNLS.s:5144   .bss:00000000000001b0 _ZN3TCB6oxySemE
     /tmp/ccg8jNLS.s:5140   .bss:00000000000001a8 _ZN3TCB8hydroSemE
     /tmp/ccg8jNLS.s:5131   .bss:0000000000000198 _ZN3TCB5countE
     /tmp/ccg8jNLS.s:5127   .bss:0000000000000190 _ZN3TCB8moleculeE
     /tmp/ccg8jNLS.s:5148   .bss:00000000000001b8 _ZN3TCB5fsH20E
     /tmp/ccg8jNLS.s:5080   .bss:0000000000000080 _ZN3TCB10secondDoorE
     /tmp/ccg8jNLS.s:5076   .bss:0000000000000078 _ZN3TCB9firstDoorE
     /tmp/ccg8jNLS.s:5029   .bss:0000000000000034 _ZN3TCB11setBarrier2E
     /tmp/ccg8jNLS.s:5084   .bss:0000000000000088 _ZN3TCB5callsE
     /tmp/ccg8jNLS.s:5034   .bss:0000000000000038 _ZN3TCB11threadCountE
     /tmp/ccg8jNLS.s:5008   .bss:000000000000001c _ZN3TCB7currThrE
     /tmp/ccg8jNLS.s:5003   .bss:0000000000000018 _ZN3TCB8setMaxThE
     /tmp/ccg8jNLS.s:5012   .bss:0000000000000020 _ZN3TCB13semMaxThreadsE
     /tmp/ccg8jNLS.s:5106   .bss:000000000000012c _ZN3TCB7newItemE
     /tmp/ccg8jNLS.s:5101   .bss:0000000000000128 _ZN3TCB10prodConsumE
     /tmp/ccg8jNLS.s:5097   .bss:00000000000000d8 mutexC
     /tmp/ccg8jNLS.s:5093   .bss:0000000000000098 full
     /tmp/ccg8jNLS.s:5089   .bss:0000000000000090 emptyy
     /tmp/ccg8jNLS.s:5119   .bss:0000000000000160 consumerCnt
     /tmp/ccg8jNLS.s:5115   .bss:0000000000000138 buffer
     /tmp/ccg8jNLS.s:5025   .bss:0000000000000030 _ZN3TCB12numOFthreadsE
     /tmp/ccg8jNLS.s:5072   .bss:0000000000000074 _ZN3TCB8numCallsE
     /tmp/ccg8jNLS.s:5020   .bss:000000000000002c _ZN3TCB9fsBarrierE
     /tmp/ccg8jNLS.s:4995   .bss:0000000000000000 _ZN3TCB10ListBarierE
     /tmp/ccg8jNLS.s:5059   .bss:0000000000000068 _ZN3TCB8firstSetE
     /tmp/ccg8jNLS.s:5055   .bss:0000000000000060 _ZN3TCB5entryE
     /tmp/ccg8jNLS.s:5051   .bss:0000000000000058 _ZN3TCB10mutexWomenE
     /tmp/ccg8jNLS.s:5047   .bss:0000000000000050 _ZN3TCB8mutexMenE
     /tmp/ccg8jNLS.s:5043   .bss:0000000000000048 _ZN3TCB6toiletE
     /tmp/ccg8jNLS.s:5039   .bss:0000000000000040 _ZN3TCB5emptyE
     /tmp/ccg8jNLS.s:5064   .bss:000000000000006c _ZN3TCB8numOfManE
     /tmp/ccg8jNLS.s:5068   .bss:0000000000000070 _ZN3TCB10numOfWomanE
     /tmp/ccg8jNLS.s:5016   .bss:0000000000000028 _ZN3TCB2IDE
     /tmp/ccg8jNLS.s:4999   .bss:0000000000000010 _ZN3TCB7runningE
     /tmp/ccg8jNLS.s:5212   .bss:000000000000021c _ZN3TCB7waitingE
     /tmp/ccg8jNLS.s:4992   .bss:0000000000000000 .LANCHOR0
     /tmp/ccg8jNLS.s:5222   .text:0000000000002138 .L0 
     /tmp/ccg8jNLS.s:43     .text:000000000000002c .L0 
     /tmp/ccg8jNLS.s:78     .text:000000000000005c .L0 
     /tmp/ccg8jNLS.s:97     .text:0000000000000088 .L0 
     /tmp/ccg8jNLS.s:100    .text:0000000000000094 .L0 
     /tmp/ccg8jNLS.s:129    .text:00000000000000c8 .L0 
     /tmp/ccg8jNLS.s:140    .text:00000000000000e4 .L0 
     /tmp/ccg8jNLS.s:228    .text:000000000000013c .L0 
     /tmp/ccg8jNLS.s:277    .text:0000000000000174 .L0 
     /tmp/ccg8jNLS.s:316    .text:00000000000001a0 .L0 
     /tmp/ccg8jNLS.s:200    .rodata.str1.8:0000000000000000 .LC0
     /tmp/ccg8jNLS.s:364    .text:00000000000001e0 .L0 
     /tmp/ccg8jNLS.s:369    .text:00000000000001f0 .L0 
     /tmp/ccg8jNLS.s:203    .rodata.str1.8:0000000000000028 .LC1
GAS LISTING /tmp/ccg8jNLS.s 			page 170


     /tmp/ccg8jNLS.s:386    .text:0000000000000210 .L0 
     /tmp/ccg8jNLS.s:206    .rodata.str1.8:0000000000000030 .LC2
     /tmp/ccg8jNLS.s:391    .text:0000000000000220 .L0 
     /tmp/ccg8jNLS.s:411    .text:0000000000000248 .L0 
     /tmp/ccg8jNLS.s:468    .text:000000000000028c .L0 
     /tmp/ccg8jNLS.s:673    .text:000000000000038c .L0 
     /tmp/ccg8jNLS.s:698    .text:00000000000003bc .L0 
     /tmp/ccg8jNLS.s:720    .text:0000000000000408 .L0 
     /tmp/ccg8jNLS.s:732    .text:0000000000000424 .L0 
     /tmp/ccg8jNLS.s:736    .text:0000000000000430 .L0 
     /tmp/ccg8jNLS.s:742    .text:0000000000000444 .L0 
     /tmp/ccg8jNLS.s:747    .text:0000000000000450 .L0 
     /tmp/ccg8jNLS.s:751    .text:000000000000045c .L0 
     /tmp/ccg8jNLS.s:793    .text:00000000000004a4 .L0 
     /tmp/ccg8jNLS.s:1010   .text:00000000000005c0 .L0 
     /tmp/ccg8jNLS.s:1185   .text:0000000000000684 .L0 
     /tmp/ccg8jNLS.s:1192   .text:0000000000000690 .L0 
     /tmp/ccg8jNLS.s:1147   .rodata.str1.8:0000000000000038 .LC3
     /tmp/ccg8jNLS.s:1203   .text:00000000000006b0 .L0 
     /tmp/ccg8jNLS.s:1150   .rodata.str1.8:0000000000000060 .LC4
     /tmp/ccg8jNLS.s:1208   .text:00000000000006c0 .L0 
     /tmp/ccg8jNLS.s:1221   .text:00000000000006e8 .L0 
     /tmp/ccg8jNLS.s:1236   .text:0000000000000710 .L0 
     /tmp/ccg8jNLS.s:1156   .rodata.str1.8:0000000000000098 .LC6
     /tmp/ccg8jNLS.s:1260   .text:000000000000074c .L0 
     /tmp/ccg8jNLS.s:1265   .text:000000000000075c .L0 
     /tmp/ccg8jNLS.s:1277   .text:0000000000000780 .L0 
     /tmp/ccg8jNLS.s:1159   .rodata.str1.8:00000000000000b0 .LC7
     /tmp/ccg8jNLS.s:1296   .text:00000000000007b0 .L0 
     /tmp/ccg8jNLS.s:1301   .text:00000000000007c0 .L0 
     /tmp/ccg8jNLS.s:1313   .text:00000000000007e4 .L0 
     /tmp/ccg8jNLS.s:1327   .text:0000000000000808 .L0 
     /tmp/ccg8jNLS.s:1358   .text:0000000000000844 .L0 
     /tmp/ccg8jNLS.s:1363   .text:0000000000000850 .L0 
     /tmp/ccg8jNLS.s:1153   .rodata.str1.8:0000000000000068 .LC5
     /tmp/ccg8jNLS.s:1368   .text:0000000000000860 .L0 
     /tmp/ccg8jNLS.s:1373   .text:0000000000000870 .L0 
     /tmp/ccg8jNLS.s:1385   .text:0000000000000894 .L0 
     /tmp/ccg8jNLS.s:1392   .text:00000000000008a8 .L0 
     /tmp/ccg8jNLS.s:1440   .text:00000000000008e0 .L0 
     /tmp/ccg8jNLS.s:1447   .text:00000000000008ec .L0 
     /tmp/ccg8jNLS.s:1405   .rodata.str1.8:00000000000000c8 .LC8
     /tmp/ccg8jNLS.s:1458   .text:000000000000090c .L0 
     /tmp/ccg8jNLS.s:1463   .text:000000000000091c .L0 
     /tmp/ccg8jNLS.s:1476   .text:0000000000000944 .L0 
     /tmp/ccg8jNLS.s:1491   .text:000000000000096c .L0 
     /tmp/ccg8jNLS.s:1411   .rodata.str1.8:0000000000000120 .LC10
     /tmp/ccg8jNLS.s:1515   .text:00000000000009a8 .L0 
     /tmp/ccg8jNLS.s:1520   .text:00000000000009b8 .L0 
     /tmp/ccg8jNLS.s:1532   .text:00000000000009dc .L0 
     /tmp/ccg8jNLS.s:1414   .rodata.str1.8:0000000000000138 .LC11
     /tmp/ccg8jNLS.s:1551   .text:0000000000000a0c .L0 
     /tmp/ccg8jNLS.s:1556   .text:0000000000000a1c .L0 
     /tmp/ccg8jNLS.s:1568   .text:0000000000000a40 .L0 
     /tmp/ccg8jNLS.s:1582   .text:0000000000000a64 .L0 
     /tmp/ccg8jNLS.s:1613   .text:0000000000000aa0 .L0 
     /tmp/ccg8jNLS.s:1618   .text:0000000000000aac .L0 
GAS LISTING /tmp/ccg8jNLS.s 			page 171


     /tmp/ccg8jNLS.s:1408   .rodata.str1.8:00000000000000f0 .LC9
     /tmp/ccg8jNLS.s:1623   .text:0000000000000abc .L0 
     /tmp/ccg8jNLS.s:1628   .text:0000000000000acc .L0 
     /tmp/ccg8jNLS.s:1640   .text:0000000000000af0 .L0 
     /tmp/ccg8jNLS.s:1647   .text:0000000000000b04 .L0 
     /tmp/ccg8jNLS.s:1679   .text:0000000000000b38 .L0 
     /tmp/ccg8jNLS.s:1684   .text:0000000000000b44 .L0 
     /tmp/ccg8jNLS.s:1695   .text:0000000000000b60 .L0 
     /tmp/ccg8jNLS.s:1723   .text:0000000000000b90 .L0 
     /tmp/ccg8jNLS.s:1754   .text:0000000000000bb4 .L0 
     /tmp/ccg8jNLS.s:1772   .text:0000000000000bcc .L0 
     /tmp/ccg8jNLS.s:1784   .text:0000000000000bdc .L0 
     /tmp/ccg8jNLS.s:1818   .text:0000000000000c10 .L0 
     /tmp/ccg8jNLS.s:1845   .text:0000000000000c30 .L0 
     /tmp/ccg8jNLS.s:1990   .text:0000000000000cdc .L0 
     /tmp/ccg8jNLS.s:1965   .rodata.str1.8:0000000000000150 .LC12
     /tmp/ccg8jNLS.s:1996   .text:0000000000000cf0 .L0 
     /tmp/ccg8jNLS.s:1968   .rodata.str1.8:0000000000000168 .LC13
     /tmp/ccg8jNLS.s:2007   .text:0000000000000d10 .L0 
     /tmp/ccg8jNLS.s:2040   .rodata.str1.8:0000000000000188 .LC14
     /tmp/ccg8jNLS.s:2074   .text:0000000000000d74 .L0 
     /tmp/ccg8jNLS.s:2043   .rodata.str1.8:0000000000000198 .LC15
     /tmp/ccg8jNLS.s:2084   .text:0000000000000d90 .L0 
     /tmp/ccg8jNLS.s:2237   .text:0000000000000e5c .L0 
     /tmp/ccg8jNLS.s:2257   .text:0000000000000e84 .L0 
     /tmp/ccg8jNLS.s:2321   .text:0000000000000ed4 .L0 
     /tmp/ccg8jNLS.s:2339   .text:0000000000000ef8 .L0 
     /tmp/ccg8jNLS.s:2446   .text:0000000000000f8c .L0 
     /tmp/ccg8jNLS.s:2463   .text:0000000000000fb8 .L0 
     /tmp/ccg8jNLS.s:2469   .text:0000000000000fc8 .L0 
     /tmp/ccg8jNLS.s:2507   .text:0000000000001018 .L0 
     /tmp/ccg8jNLS.s:2514   .text:000000000000102c .L0 
     /tmp/ccg8jNLS.s:2570   .text:0000000000001074 .L0 
     /tmp/ccg8jNLS.s:2607   .text:00000000000010a4 .L0 
     /tmp/ccg8jNLS.s:2656   .text:00000000000010f0 .L0 
     /tmp/ccg8jNLS.s:2714   .text:000000000000113c .L0 
     /tmp/ccg8jNLS.s:2731   .text:000000000000115c .L0 
     /tmp/ccg8jNLS.s:2741   .text:000000000000116c .L0 
     /tmp/ccg8jNLS.s:2770   .text:00000000000011a4 .L0 
     /tmp/ccg8jNLS.s:2683   .rodata.str1.8:00000000000001b8 .LC16
     /tmp/ccg8jNLS.s:2789   .text:00000000000011d8 .L0 
     /tmp/ccg8jNLS.s:2686   .rodata.str1.8:00000000000001c0 .LC17
     /tmp/ccg8jNLS.s:2801   .text:00000000000011fc .L0 
     /tmp/ccg8jNLS.s:2813   .text:0000000000001220 .L0 
     /tmp/ccg8jNLS.s:2894   .text:0000000000001294 .L0 
     /tmp/ccg8jNLS.s:2912   .text:00000000000012b8 .L0 
     /tmp/ccg8jNLS.s:2919   .text:00000000000012c4 .L0 
     /tmp/ccg8jNLS.s:2934   .text:00000000000012e8 .L0 
     /tmp/ccg8jNLS.s:2961   .text:0000000000001320 .L0 
     /tmp/ccg8jNLS.s:2857   .rodata.str1.8:00000000000001d8 .LC18
     /tmp/ccg8jNLS.s:2990   .text:0000000000001368 .L0 
     /tmp/ccg8jNLS.s:2860   .rodata.str1.8:00000000000001f0 .LC19
     /tmp/ccg8jNLS.s:3002   .text:000000000000138c .L0 
     /tmp/ccg8jNLS.s:3014   .text:00000000000013b0 .L0 
     /tmp/ccg8jNLS.s:3082   .text:0000000000001424 .L0 
     /tmp/ccg8jNLS.s:3120   .text:0000000000001480 .L0 
     /tmp/ccg8jNLS.s:3126   .text:0000000000001490 .L0 
GAS LISTING /tmp/ccg8jNLS.s 			page 172


     /tmp/ccg8jNLS.s:3188   .text:0000000000001510 .L0 
     /tmp/ccg8jNLS.s:3195   .text:0000000000001524 .L0 
     /tmp/ccg8jNLS.s:3251   .text:0000000000001570 .L0 
     /tmp/ccg8jNLS.s:3410   .text:0000000000001648 .L0 
     /tmp/ccg8jNLS.s:3417   .text:0000000000001654 .L0 
     /tmp/ccg8jNLS.s:3383   .rodata.str1.8:0000000000000200 .LC20
     /tmp/ccg8jNLS.s:3428   .text:0000000000001674 .L0 
     /tmp/ccg8jNLS.s:3386   .rodata.str1.8:0000000000000208 .LC21
     /tmp/ccg8jNLS.s:3446   .text:00000000000016a8 .L0 
     /tmp/ccg8jNLS.s:3461   .text:00000000000016d4 .L0 
     /tmp/ccg8jNLS.s:3476   .text:0000000000001700 .L0 
     /tmp/ccg8jNLS.s:3490   .text:0000000000001724 .L0 
     /tmp/ccg8jNLS.s:3503   .text:0000000000001748 .L0 
     /tmp/ccg8jNLS.s:3516   .text:000000000000176c .L0 
     /tmp/ccg8jNLS.s:3541   .text:000000000000179c .L0 
     /tmp/ccg8jNLS.s:3572   .text:00000000000017c0 .L0 
     /tmp/ccg8jNLS.s:3579   .text:00000000000017cc .L0 
     /tmp/ccg8jNLS.s:3548   .rodata.str1.8:0000000000000210 .LC22
     /tmp/ccg8jNLS.s:3590   .text:00000000000017ec .L0 
     /tmp/ccg8jNLS.s:3608   .text:0000000000001820 .L0 
     /tmp/ccg8jNLS.s:3623   .text:000000000000184c .L0 
     /tmp/ccg8jNLS.s:3638   .text:0000000000001878 .L0 
     /tmp/ccg8jNLS.s:3652   .text:000000000000189c .L0 
     /tmp/ccg8jNLS.s:3665   .text:00000000000018c0 .L0 
     /tmp/ccg8jNLS.s:3678   .text:00000000000018e4 .L0 
     /tmp/ccg8jNLS.s:3703   .text:0000000000001914 .L0 
     /tmp/ccg8jNLS.s:3717   .text:0000000000001920 .L0 
     /tmp/ccg8jNLS.s:3735   .text:0000000000001944 .L0 
     /tmp/ccg8jNLS.s:3869   .text:00000000000019e8 .L0 
     /tmp/ccg8jNLS.s:3881   .text:0000000000001a04 .L0 
     /tmp/ccg8jNLS.s:3842   .rodata.str1.8:0000000000000218 .LC23
     /tmp/ccg8jNLS.s:3892   .text:0000000000001a24 .L0 
     /tmp/ccg8jNLS.s:3951   .text:0000000000001a80 .L0 
     /tmp/ccg8jNLS.s:3925   .rodata.str1.8:0000000000000228 .LC24
     /tmp/ccg8jNLS.s:3957   .text:0000000000001a94 .L0 
     /tmp/ccg8jNLS.s:4014   .text:0000000000001ae8 .L0 
     /tmp/ccg8jNLS.s:3985   .rodata.str1.8:0000000000000240 .LC25
     /tmp/ccg8jNLS.s:4026   .text:0000000000001b08 .L0 
     /tmp/ccg8jNLS.s:4038   .text:0000000000001b2c .L0 
     /tmp/ccg8jNLS.s:3988   .rodata.str1.8:0000000000000260 .LC26
     /tmp/ccg8jNLS.s:4083   .text:0000000000001b74 .L0 
     /tmp/ccg8jNLS.s:4088   .text:0000000000001b84 .L0 
     /tmp/ccg8jNLS.s:4149   .text:0000000000001be0 .L0 
     /tmp/ccg8jNLS.s:4120   .rodata.str1.8:0000000000000280 .LC27
     /tmp/ccg8jNLS.s:4155   .text:0000000000001bf0 .L0 
     /tmp/ccg8jNLS.s:4168   .text:0000000000001c18 .L0 
     /tmp/ccg8jNLS.s:4123   .rodata.str1.8:00000000000002a0 .LC28
     /tmp/ccg8jNLS.s:4213   .text:0000000000001c60 .L0 
     /tmp/ccg8jNLS.s:4225   .text:0000000000001c84 .L0 
     /tmp/ccg8jNLS.s:4230   .text:0000000000001c94 .L0 
     /tmp/ccg8jNLS.s:4259   .text:0000000000001cbc .L0 
     /tmp/ccg8jNLS.s:4306   .text:0000000000001d04 .L0 
     /tmp/ccg8jNLS.s:4420   .text:0000000000001d90 .L0 
     /tmp/ccg8jNLS.s:4387   .rodata.str1.8:00000000000002b8 .LC29
     /tmp/ccg8jNLS.s:4431   .text:0000000000001db0 .L0 
     /tmp/ccg8jNLS.s:4443   .text:0000000000001dd4 .L0 
     /tmp/ccg8jNLS.s:4390   .rodata.str1.8:00000000000002d0 .LC30
GAS LISTING /tmp/ccg8jNLS.s 			page 173


     /tmp/ccg8jNLS.s:4453   .text:0000000000001dec .L0 
     /tmp/ccg8jNLS.s:4458   .text:0000000000001dfc .L0 
     /tmp/ccg8jNLS.s:4480   .text:0000000000001e24 .L0 
     /tmp/ccg8jNLS.s:4544   .text:0000000000001e84 .L0 
     /tmp/ccg8jNLS.s:4562   .text:0000000000001ea8 .L0 
     /tmp/ccg8jNLS.s:4640   .rodata.str1.8:00000000000002f8 .LC31
     /tmp/ccg8jNLS.s:4676   .text:0000000000001f34 .L0 
     /tmp/ccg8jNLS.s:4689   .text:0000000000001f5c .L0 
     /tmp/ccg8jNLS.s:4731   .text:0000000000001f9c .L0 
     /tmp/ccg8jNLS.s:4643   .rodata.str1.8:0000000000000310 .LC32
     /tmp/ccg8jNLS.s:4738   .text:0000000000001fb0 .L0 
     /tmp/ccg8jNLS.s:4750   .text:0000000000001fd4 .L0 
     /tmp/ccg8jNLS.s:4764   .text:0000000000001ffc .L0 
     /tmp/ccg8jNLS.s:4646   .rodata.str1.8:0000000000000338 .LC33
     /tmp/ccg8jNLS.s:4786   .text:0000000000002024 .L0 
     /tmp/ccg8jNLS.s:4791   .text:0000000000002034 .L0 
     /tmp/ccg8jNLS.s:4800   .rodata.str1.8:0000000000000360 .LC34
     /tmp/ccg8jNLS.s:4830   .text:0000000000002060 .L0 
     /tmp/ccg8jNLS.s:4835   .text:0000000000002070 .L0 
     /tmp/ccg8jNLS.s:4803   .rodata.str1.8:0000000000000370 .LC35
     /tmp/ccg8jNLS.s:4840   .text:0000000000002080 .L0 
     /tmp/ccg8jNLS.s:4845   .text:0000000000002090 .L0 
     /tmp/ccg8jNLS.s:4806   .rodata.str1.8:0000000000000388 .LC36
     /tmp/ccg8jNLS.s:4880   .text:00000000000020cc .L0 
     /tmp/ccg8jNLS.s:4885   .text:00000000000020dc .L0 
     /tmp/ccg8jNLS.s:31     .text:0000000000000020 .L4
     /tmp/ccg8jNLS.s:23     .text:0000000000000014 .L1
     /tmp/ccg8jNLS.s:95     .text:0000000000000088 .L6
     /tmp/ccg8jNLS.s:120    .text:00000000000000bc .L9
     /tmp/ccg8jNLS.s:103    .text:00000000000000a0 .L7
     /tmp/ccg8jNLS.s:137    .text:00000000000000e4 .L10
     /tmp/ccg8jNLS.s:253    .text:0000000000000154 .L14
     /tmp/ccg8jNLS.s:335    .text:00000000000001c4 .L21
     /tmp/ccg8jNLS.s:271    .text:000000000000016c .L15
     /tmp/ccg8jNLS.s:267    .text:0000000000000168 .L16
     /tmp/ccg8jNLS.s:343    .text:00000000000001d4 .L17
     /tmp/ccg8jNLS.s:321    .text:00000000000001b0 .L13
     /tmp/ccg8jNLS.s:359    .text:00000000000001e0 .L22
     /tmp/ccg8jNLS.s:303    .text:000000000000018c .L18
     /tmp/ccg8jNLS.s:451    .text:0000000000000270 .L30
     /tmp/ccg8jNLS.s:523    .text:00000000000002d8 .L25
     /tmp/ccg8jNLS.s:504    .text:00000000000002c0 .L23
     /tmp/ccg8jNLS.s:590    .text:0000000000000324 .L34
     /tmp/ccg8jNLS.s:620    .text:0000000000000344 .L31
     /tmp/ccg8jNLS.s:567    .text:0000000000000308 .L33
     /tmp/ccg8jNLS.s:561    .text:0000000000000304 .L36
     /tmp/ccg8jNLS.s:779    .text:0000000000000494 .L45
     /tmp/ccg8jNLS.s:785    .text:000000000000049c .L48
     /tmp/ccg8jNLS.s:761    .text:000000000000047c .L37
     /tmp/ccg8jNLS.s:730    .text:0000000000000424 .L41
     /tmp/ccg8jNLS.s:740    .text:0000000000000444 .L42
     /tmp/ccg8jNLS.s:790    .text:00000000000004a4 .L49
     /tmp/ccg8jNLS.s:755    .text:0000000000000470 .L44
     /tmp/ccg8jNLS.s:670    .text:0000000000000388 .L38
     /tmp/ccg8jNLS.s:678    .text:000000000000039c .L39
     /tmp/ccg8jNLS.s:745    .text:0000000000000450 .L43
     /tmp/ccg8jNLS.s:881    .text:0000000000000540 .L56
GAS LISTING /tmp/ccg8jNLS.s 			page 174


     /tmp/ccg8jNLS.s:1349   .text:0000000000000838 .L66
     /tmp/ccg8jNLS.s:1360   .text:0000000000000850 .L67
     /tmp/ccg8jNLS.s:1389   .text:00000000000008a8 .L68
     /tmp/ccg8jNLS.s:1189   .text:0000000000000690 .L62
     /tmp/ccg8jNLS.s:1233   .text:0000000000000710 .L63
     /tmp/ccg8jNLS.s:1324   .text:0000000000000808 .L64
     /tmp/ccg8jNLS.s:1604   .text:0000000000000a94 .L74
     /tmp/ccg8jNLS.s:1615   .text:0000000000000aac .L75
     /tmp/ccg8jNLS.s:1644   .text:0000000000000b04 .L76
     /tmp/ccg8jNLS.s:1444   .text:00000000000008ec .L70
     /tmp/ccg8jNLS.s:1488   .text:000000000000096c .L71
     /tmp/ccg8jNLS.s:1579   .text:0000000000000a64 .L72
     /tmp/ccg8jNLS.s:1692   .text:0000000000000b60 .L78
     /tmp/ccg8jNLS.s:1777   .text:0000000000000bdc .L79
     /tmp/ccg8jNLS.s:1747   .text:0000000000000bb4 .L82
     /tmp/ccg8jNLS.s:1820   .text:0000000000000c18 .L77
     /tmp/ccg8jNLS.s:1724   .text:0000000000000b98 .L81
     /tmp/ccg8jNLS.s:1718   .text:0000000000000b90 .L85
     /tmp/ccg8jNLS.s:1839   .text:0000000000000c30 .L83
     /tmp/ccg8jNLS.s:1871   .text:0000000000000c50 .L92
     /tmp/ccg8jNLS.s:2161   .text:0000000000000e0c .L102
     /tmp/ccg8jNLS.s:2202   .text:0000000000000e3c .L99
     /tmp/ccg8jNLS.s:2143   .text:0000000000000df0 .L100
     /tmp/ccg8jNLS.s:2140   .text:0000000000000dec .L98
     /tmp/ccg8jNLS.s:2241   .text:0000000000000e6c .L109
     /tmp/ccg8jNLS.s:2325   .text:0000000000000ee4 .L116
     /tmp/ccg8jNLS.s:2503   .text:0000000000001018 .L123
     /tmp/ccg8jNLS.s:2511   .text:000000000000102c .L120
     /tmp/ccg8jNLS.s:2466   .text:0000000000000fc8 .L119
     /tmp/ccg8jNLS.s:2490   .text:0000000000001004 .L117
     /tmp/ccg8jNLS.s:2613   .text:00000000000010b8 .L126
     /tmp/ccg8jNLS.s:2578   .text:0000000000001084 .L130
     /tmp/ccg8jNLS.s:2664   .text:0000000000001108 .L124
     /tmp/ccg8jNLS.s:2622   .text:00000000000010c4 .L125
     /tmp/ccg8jNLS.s:2723   .text:0000000000001150 .L138
     /tmp/ccg8jNLS.s:2763   .text:000000000000119c .L136
     /tmp/ccg8jNLS.s:2718   .text:0000000000001148 .L132
     /tmp/ccg8jNLS.s:2734   .text:0000000000001168 .L139
     /tmp/ccg8jNLS.s:2832   .text:000000000000124c .L131
     /tmp/ccg8jNLS.s:2754   .text:0000000000001190 .L135
     /tmp/ccg8jNLS.s:2904   .text:00000000000012ac .L146
     /tmp/ccg8jNLS.s:2955   .text:0000000000001318 .L144
     /tmp/ccg8jNLS.s:2898   .text:00000000000012a0 .L141
     /tmp/ccg8jNLS.s:3025   .text:00000000000013d0 .L140
     /tmp/ccg8jNLS.s:2930   .text:00000000000012e4 .L143
     /tmp/ccg8jNLS.s:2915   .text:00000000000012c4 .L147
     /tmp/ccg8jNLS.s:3184   .text:0000000000001510 .L154
     /tmp/ccg8jNLS.s:3192   .text:0000000000001524 .L151
     /tmp/ccg8jNLS.s:3123   .text:0000000000001490 .L150
     /tmp/ccg8jNLS.s:3162   .text:00000000000014f0 .L148
     /tmp/ccg8jNLS.s:3532   .text:0000000000001790 .L160
     /tmp/ccg8jNLS.s:3414   .text:0000000000001654 .L158
     /tmp/ccg8jNLS.s:3694   .text:0000000000001908 .L164
     /tmp/ccg8jNLS.s:3576   .text:00000000000017cc .L162
     /tmp/ccg8jNLS.s:3721   .text:0000000000001930 .L171
     /tmp/ccg8jNLS.s:3907   .text:0000000000001a48 .L175
     /tmp/ccg8jNLS.s:3878   .text:0000000000001a04 .L173
GAS LISTING /tmp/ccg8jNLS.s 			page 175


     /tmp/ccg8jNLS.s:4057   .text:0000000000001b50 .L182
     /tmp/ccg8jNLS.s:4076   .text:0000000000001b74 .L179
     /tmp/ccg8jNLS.s:4047   .text:0000000000001b44 .L180
     /tmp/ccg8jNLS.s:4066   .text:0000000000001b60 .L181
     /tmp/ccg8jNLS.s:4187   .text:0000000000001c3c .L188
     /tmp/ccg8jNLS.s:4206   .text:0000000000001c60 .L185
     /tmp/ccg8jNLS.s:4177   .text:0000000000001c30 .L186
     /tmp/ccg8jNLS.s:4196   .text:0000000000001c4c .L187
     /tmp/ccg8jNLS.s:4263   .text:0000000000001ccc .L196
     /tmp/ccg8jNLS.s:4476   .text:0000000000001e24 .L198
     /tmp/ccg8jNLS.s:4461   .text:0000000000001e0c .L197
     /tmp/ccg8jNLS.s:4548   .text:0000000000001e94 .L209
     /tmp/ccg8jNLS.s:4708   .text:0000000000001f80 .L214
     /tmp/ccg8jNLS.s:4725   .text:0000000000001f9c .L211
     /tmp/ccg8jNLS.s:4698   .text:0000000000001f74 .L212
     /tmp/ccg8jNLS.s:4716   .text:0000000000001f8c .L213
     /tmp/ccg8jNLS.s:4782   .text:0000000000002024 .L218
     /tmp/ccg8jNLS.s:4767   .text:000000000000200c .L210
     /tmp/ccg8jNLS.s:4858   .text:00000000000020ac .L223
     /tmp/ccg8jNLS.s:4875   .text:00000000000020cc .L220
     /tmp/ccg8jNLS.s:4854   .text:00000000000020a8 .L221
     /tmp/ccg8jNLS.s:4866   .text:00000000000020bc .L222
     /tmp/ccg8jNLS.s:849    .text:0000000000000500 .LEHB0
     /tmp/ccg8jNLS.s:813    .text:00000000000004c8 .LFB56
     /tmp/ccg8jNLS.s:852    .text:0000000000000508 .LEHE0
     /tmp/ccg8jNLS.s:861    .text:0000000000000518 .LEHB1
     /tmp/ccg8jNLS.s:864    .text:0000000000000520 .LEHE1
     /tmp/ccg8jNLS.s:866    .text:0000000000000524 .L52
     /tmp/ccg8jNLS.s:877    .text:0000000000000538 .LEHB2
     /tmp/ccg8jNLS.s:880    .text:0000000000000540 .LEHE2
     /tmp/ccg8jNLS.s:12592  .debug_abbrev:0000000000000000 .Ldebug_abbrev0
     /tmp/ccg8jNLS.s:17325  .debug_str:0000000000001401 .LASF394
     /tmp/ccg8jNLS.s:16767  .debug_str:00000000000003db .LASF395
     /tmp/ccg8jNLS.s:17255  .debug_str:00000000000011e9 .LASF396
     /tmp/ccg8jNLS.s:5      .text:0000000000000000 .Ltext0
     /tmp/ccg8jNLS.s:5215   .text:0000000000002138 .Letext0
     /tmp/ccg8jNLS.s:16645  .debug_line:0000000000000000 .Ldebug_line0
     /tmp/ccg8jNLS.s:16703  .debug_str:00000000000001d8 .LASF0
     /tmp/ccg8jNLS.s:17405  .debug_str:0000000000001701 .LASF1
     /tmp/ccg8jNLS.s:17329  .debug_str:00000000000014d6 .LASF2
     /tmp/ccg8jNLS.s:17271  .debug_str:000000000000125d .LASF4
     /tmp/ccg8jNLS.s:17285  .debug_str:00000000000012c4 .LASF3
     /tmp/ccg8jNLS.s:16911  .debug_str:00000000000007dd .LASF5
     /tmp/ccg8jNLS.s:17025  .debug_str:0000000000000b39 .LASF6
     /tmp/ccg8jNLS.s:16989  .debug_str:0000000000000a41 .LASF7
     /tmp/ccg8jNLS.s:17195  .debug_str:000000000000104c .LASF8
     /tmp/ccg8jNLS.s:16749  .debug_str:000000000000031a .LASF9
     /tmp/ccg8jNLS.s:17391  .debug_str:0000000000001698 .LASF10
     /tmp/ccg8jNLS.s:16915  .debug_str:00000000000007e9 .LASF11
     /tmp/ccg8jNLS.s:16817  .debug_str:0000000000000568 .LASF12
     /tmp/ccg8jNLS.s:17029  .debug_str:0000000000000b4d .LASF13
     /tmp/ccg8jNLS.s:16923  .debug_str:000000000000082c .LASF14
     /tmp/ccg8jNLS.s:17251  .debug_str:00000000000011c7 .LASF15
     /tmp/ccg8jNLS.s:16931  .debug_str:0000000000000865 .LASF16
     /tmp/ccg8jNLS.s:16877  .debug_str:0000000000000701 .LASF17
     /tmp/ccg8jNLS.s:17189  .debug_str:000000000000101d .LASF24
     /tmp/ccg8jNLS.s:16881  .debug_str:0000000000000727 .LASF397
GAS LISTING /tmp/ccg8jNLS.s 			page 176


     /tmp/ccg8jNLS.s:16705  .debug_str:00000000000001e5 .LASF18
     /tmp/ccg8jNLS.s:17093  .debug_str:0000000000000d0c .LASF19
     /tmp/ccg8jNLS.s:16655  .debug_str:0000000000000053 .LASF20
     /tmp/ccg8jNLS.s:17043  .debug_str:0000000000000bac .LASF22
     /tmp/ccg8jNLS.s:16667  .debug_str:00000000000000bc .LASF21
     /tmp/ccg8jNLS.s:16729  .debug_str:0000000000000282 .LASF23
     /tmp/ccg8jNLS.s:16715  .debug_str:0000000000000222 .LASF28
     /tmp/ccg8jNLS.s:16759  .debug_str:0000000000000366 .LASF26
     /tmp/ccg8jNLS.s:17091  .debug_str:0000000000000d02 .LASF25
     /tmp/ccg8jNLS.s:16769  .debug_str:00000000000003e7 .LASF27
     /tmp/ccg8jNLS.s:17283  .debug_str:00000000000012bf .LASF95
     /tmp/ccg8jNLS.s:17145  .debug_str:0000000000000ec0 .LASF97
     /tmp/ccg8jNLS.s:16827  .debug_str:00000000000005a8 .LASF29
     /tmp/ccg8jNLS.s:16779  .debug_str:0000000000000434 .LASF30
     /tmp/ccg8jNLS.s:17289  .debug_str:00000000000012ed .LASF31
     /tmp/ccg8jNLS.s:17055  .debug_str:0000000000000c1a .LASF33
     /tmp/ccg8jNLS.s:17415  .debug_str:000000000000173c .LASF32
     /tmp/ccg8jNLS.s:16951  .debug_str:0000000000000914 .LASF34
     /tmp/ccg8jNLS.s:16853  .debug_str:000000000000064d .LASF99
     /tmp/ccg8jNLS.s:17071  .debug_str:0000000000000c98 .LASF35
     /tmp/ccg8jNLS.s:16825  .debug_str:000000000000059e .LASF36
     /tmp/ccg8jNLS.s:17187  .debug_str:000000000000100c .LASF37
     /tmp/ccg8jNLS.s:16965  .debug_str:0000000000000999 .LASF398
     /tmp/ccg8jNLS.s:17313  .debug_str:00000000000013b3 .LASF127
     /tmp/ccg8jNLS.s:16725  .debug_str:000000000000026e .LASF38
     /tmp/ccg8jNLS.s:17433  .debug_str:00000000000017c8 .LASF40
     /tmp/ccg8jNLS.s:17011  .debug_str:0000000000000ade .LASF39
     /tmp/ccg8jNLS.s:16761  .debug_str:0000000000000381 .LASF110
     /tmp/ccg8jNLS.s:17351  .debug_str:000000000000156d .LASF41
     /tmp/ccg8jNLS.s:16943  .debug_str:00000000000008d0 .LASF42
     /tmp/ccg8jNLS.s:17191  .debug_str:000000000000102d .LASF43
     /tmp/ccg8jNLS.s:17095  .debug_str:0000000000000d11 .LASF44
     /tmp/ccg8jNLS.s:17277  .debug_str:0000000000001287 .LASF399
     /tmp/ccg8jNLS.s:16751  .debug_str:000000000000032a .LASF45
     /tmp/ccg8jNLS.s:16935  .debug_str:0000000000000886 .LASF46
     /tmp/ccg8jNLS.s:17045  .debug_str:0000000000000bcd .LASF47
     /tmp/ccg8jNLS.s:17049  .debug_str:0000000000000bdb .LASF48
     /tmp/ccg8jNLS.s:17139  .debug_str:0000000000000e98 .LASF49
     /tmp/ccg8jNLS.s:16723  .debug_str:000000000000024f .LASF50
     /tmp/ccg8jNLS.s:16685  .debug_str:0000000000000163 .LASF51
     /tmp/ccg8jNLS.s:16651  .debug_str:0000000000000027 .LASF52
     /tmp/ccg8jNLS.s:16673  .debug_str:00000000000000ec .LASF53
     /tmp/ccg8jNLS.s:16947  .debug_str:00000000000008ec .LASF54
     /tmp/ccg8jNLS.s:16859  .debug_str:000000000000066f .LASF55
     /tmp/ccg8jNLS.s:17437  .debug_str:00000000000017da .LASF56
     /tmp/ccg8jNLS.s:17185  .debug_str:0000000000001004 .LASF57
     /tmp/ccg8jNLS.s:17141  .debug_str:0000000000000ea4 .LASF58
     /tmp/ccg8jNLS.s:16955  .debug_str:000000000000095b .LASF59
     /tmp/ccg8jNLS.s:16653  .debug_str:0000000000000043 .LASF60
     /tmp/ccg8jNLS.s:17169  .debug_str:0000000000000f9c .LASF61
     /tmp/ccg8jNLS.s:17135  .debug_str:0000000000000e70 .LASF62
     /tmp/ccg8jNLS.s:16717  .debug_str:0000000000000227 .LASF63
     /tmp/ccg8jNLS.s:16871  .debug_str:00000000000006d0 .LASF64
     /tmp/ccg8jNLS.s:17249  .debug_str:00000000000011ba .LASF65
     /tmp/ccg8jNLS.s:17121  .debug_str:0000000000000dce .LASF66
     /tmp/ccg8jNLS.s:17297  .debug_str:000000000000132c .LASF67
     /tmp/ccg8jNLS.s:16937  .debug_str:00000000000008a4 .LASF400
GAS LISTING /tmp/ccg8jNLS.s 			page 177


     /tmp/ccg8jNLS.s:17229  .debug_str:000000000000115d .LASF68
     /tmp/ccg8jNLS.s:17417  .debug_str:000000000000174c .LASF69
     /tmp/ccg8jNLS.s:17111  .debug_str:0000000000000d9b .LASF70
     /tmp/ccg8jNLS.s:16979  .debug_str:0000000000000a08 .LASF71
     /tmp/ccg8jNLS.s:17453  .debug_str:0000000000001856 .LASF72
     /tmp/ccg8jNLS.s:16969  .debug_str:00000000000009b9 .LASF73
     /tmp/ccg8jNLS.s:17287  .debug_str:00000000000012d6 .LASF74
     /tmp/ccg8jNLS.s:17223  .debug_str:0000000000001133 .LASF75
     /tmp/ccg8jNLS.s:17439  .debug_str:00000000000017f5 .LASF76
     /tmp/ccg8jNLS.s:16973  .debug_str:00000000000009de .LASF77
     /tmp/ccg8jNLS.s:16993  .debug_str:0000000000000a6c .LASF78
     /tmp/ccg8jNLS.s:17361  .debug_str:00000000000015b0 .LASF79
     /tmp/ccg8jNLS.s:16699  .debug_str:00000000000001b8 .LASF80
     /tmp/ccg8jNLS.s:17149  .debug_str:0000000000000eed .LASF81
     /tmp/ccg8jNLS.s:17369  .debug_str:00000000000015de .LASF82
     /tmp/ccg8jNLS.s:16851  .debug_str:0000000000000642 .LASF83
     /tmp/ccg8jNLS.s:16757  .debug_str:0000000000000350 .LASF84
     /tmp/ccg8jNLS.s:16855  .debug_str:000000000000065d .LASF85
     /tmp/ccg8jNLS.s:17383  .debug_str:0000000000001663 .LASF86
     /tmp/ccg8jNLS.s:17031  .debug_str:0000000000000b5d .LASF87
     /tmp/ccg8jNLS.s:17299  .debug_str:0000000000001354 .LASF88
     /tmp/ccg8jNLS.s:16933  .debug_str:000000000000087b .LASF89
     /tmp/ccg8jNLS.s:16861  .debug_str:0000000000000678 .LASF90
     /tmp/ccg8jNLS.s:16701  .debug_str:00000000000001ca .LASF91
     /tmp/ccg8jNLS.s:16765  .debug_str:00000000000003c2 .LASF92
     /tmp/ccg8jNLS.s:17281  .debug_str:00000000000012b5 .LASF93
     /tmp/ccg8jNLS.s:17161  .debug_str:0000000000000f4b .LASF94
     /tmp/ccg8jNLS.s:16773  .debug_str:0000000000000416 .LASF401
     /tmp/ccg8jNLS.s:17047  .debug_str:0000000000000bd5 .LASF96
     /tmp/ccg8jNLS.s:16845  .debug_str:0000000000000616 .LASF98
     /tmp/ccg8jNLS.s:17309  .debug_str:00000000000013a6 .LASF100
     /tmp/ccg8jNLS.s:17333  .debug_str:00000000000014f3 .LASF402
     /tmp/ccg8jNLS.s:17265  .debug_str:0000000000001240 .LASF101
     /tmp/ccg8jNLS.s:17059  .debug_str:0000000000000c44 .LASF102
     /tmp/ccg8jNLS.s:16925  .debug_str:000000000000083c .LASF103
     /tmp/ccg8jNLS.s:16889  .debug_str:000000000000075d .LASF104
     /tmp/ccg8jNLS.s:17411  .debug_str:000000000000172d .LASF105
     /tmp/ccg8jNLS.s:17403  .debug_str:00000000000016f9 .LASF106
     /tmp/ccg8jNLS.s:16665  .debug_str:00000000000000aa .LASF107
     /tmp/ccg8jNLS.s:17425  .debug_str:000000000000178a .LASF108
     /tmp/ccg8jNLS.s:17451  .debug_str:0000000000001848 .LASF112
     /tmp/ccg8jNLS.s:17337  .debug_str:0000000000001511 .LASF114
     /tmp/ccg8jNLS.s:17381  .debug_str:0000000000001655 .LASF109
     /tmp/ccg8jNLS.s:17131  .debug_str:0000000000000e2e .LASF111
     /tmp/ccg8jNLS.s:17035  .debug_str:0000000000000b7a .LASF113
     /tmp/ccg8jNLS.s:17129  .debug_str:0000000000000e1b .LASF115
     /tmp/ccg8jNLS.s:17247  .debug_str:00000000000011b5 .LASF116
     /tmp/ccg8jNLS.s:16917  .debug_str:00000000000007f8 .LASF117
     /tmp/ccg8jNLS.s:17303  .debug_str:0000000000001386 .LASF118
     /tmp/ccg8jNLS.s:17213  .debug_str:00000000000010ed .LASF119
     /tmp/ccg8jNLS.s:17305  .debug_str:0000000000001393 .LASF120
     /tmp/ccg8jNLS.s:16839  .debug_str:00000000000005e5 .LASF121
     /tmp/ccg8jNLS.s:17319  .debug_str:00000000000013e2 .LASF122
     /tmp/ccg8jNLS.s:16961  .debug_str:0000000000000982 .LASF123
     /tmp/ccg8jNLS.s:17317  .debug_str:00000000000013dc .LASF124
     /tmp/ccg8jNLS.s:17445  .debug_str:0000000000001828 .LASF125
     /tmp/ccg8jNLS.s:17179  .debug_str:0000000000000fea .LASF126
GAS LISTING /tmp/ccg8jNLS.s 			page 178


     /tmp/ccg8jNLS.s:17431  .debug_str:00000000000017ba .LASF128
     /tmp/ccg8jNLS.s:16735  .debug_str:00000000000002b7 .LASF129
     /tmp/ccg8jNLS.s:17089  .debug_str:0000000000000cf2 .LASF130
     /tmp/ccg8jNLS.s:17113  .debug_str:0000000000000da7 .LASF131
     /tmp/ccg8jNLS.s:16907  .debug_str:00000000000007b7 .LASF132
     /tmp/ccg8jNLS.s:17217  .debug_str:000000000000110f .LASF133
     /tmp/ccg8jNLS.s:16807  .debug_str:0000000000000500 .LASF134
     /tmp/ccg8jNLS.s:16831  .debug_str:00000000000005bc .LASF135
     /tmp/ccg8jNLS.s:16975  .debug_str:00000000000009e9 .LASF136
     /tmp/ccg8jNLS.s:17073  .debug_str:0000000000000c9d .LASF137
     /tmp/ccg8jNLS.s:16883  .debug_str:0000000000000733 .LASF138
     /tmp/ccg8jNLS.s:17267  .debug_str:0000000000001246 .LASF139
     /tmp/ccg8jNLS.s:17387  .debug_str:000000000000168e .LASF140
     /tmp/ccg8jNLS.s:17359  .debug_str:00000000000015ab .LASF141
     /tmp/ccg8jNLS.s:17435  .debug_str:00000000000017cd .LASF142
     /tmp/ccg8jNLS.s:16687  .debug_str:000000000000016d .LASF143
     /tmp/ccg8jNLS.s:16799  .debug_str:00000000000004b4 .LASF144
     /tmp/ccg8jNLS.s:16649  .debug_str:0000000000000016 .LASF145
     /tmp/ccg8jNLS.s:16995  .debug_str:0000000000000a82 .LASF146
     /tmp/ccg8jNLS.s:17397  .debug_str:00000000000016c7 .LASF147
     /tmp/ccg8jNLS.s:17053  .debug_str:0000000000000c13 .LASF148
     /tmp/ccg8jNLS.s:17227  .debug_str:000000000000114c .LASF149
     /tmp/ccg8jNLS.s:17183  .debug_str:0000000000000ffc .LASF150
     /tmp/ccg8jNLS.s:17407  .debug_str:0000000000001714 .LASF151
     /tmp/ccg8jNLS.s:17181  .debug_str:0000000000000ff5 .LASF152
     /tmp/ccg8jNLS.s:17063  .debug_str:0000000000000c53 .LASF153
     /tmp/ccg8jNLS.s:17115  .debug_str:0000000000000db9 .LASF154
     /tmp/ccg8jNLS.s:17293  .debug_str:000000000000130a .LASF155
     /tmp/ccg8jNLS.s:16681  .debug_str:0000000000000145 .LASF156
     /tmp/ccg8jNLS.s:17343  .debug_str:0000000000001542 .LASF157
     /tmp/ccg8jNLS.s:16709  .debug_str:00000000000001ff .LASF158
     /tmp/ccg8jNLS.s:17291  .debug_str:0000000000001302 .LASF159
     /tmp/ccg8jNLS.s:17163  .debug_str:0000000000000f64 .LASF160
     /tmp/ccg8jNLS.s:17175  .debug_str:0000000000000fc9 .LASF161
     /tmp/ccg8jNLS.s:17393  .debug_str:00000000000016a6 .LASF162
     /tmp/ccg8jNLS.s:17015  .debug_str:0000000000000af2 .LASF163
     /tmp/ccg8jNLS.s:17355  .debug_str:0000000000001592 .LASF164
     /tmp/ccg8jNLS.s:17193  .debug_str:0000000000001041 .LASF165
     /tmp/ccg8jNLS.s:16747  .debug_str:0000000000000310 .LASF166
     /tmp/ccg8jNLS.s:16663  .debug_str:0000000000000096 .LASF167
     /tmp/ccg8jNLS.s:16977  .debug_str:00000000000009fb .LASF168
     /tmp/ccg8jNLS.s:16991  .debug_str:0000000000000a54 .LASF169
     /tmp/ccg8jNLS.s:17155  .debug_str:0000000000000f08 .LASF170
     /tmp/ccg8jNLS.s:16675  .debug_str:00000000000000f7 .LASF171
     /tmp/ccg8jNLS.s:17109  .debug_str:0000000000000d7d .LASF172
     /tmp/ccg8jNLS.s:17065  .debug_str:0000000000000c66 .LASF173
     /tmp/ccg8jNLS.s:16669  .debug_str:00000000000000c5 .LASF174
     /tmp/ccg8jNLS.s:17003  .debug_str:0000000000000ab3 .LASF175
     /tmp/ccg8jNLS.s:17125  .debug_str:0000000000000df2 .LASF176
     /tmp/ccg8jNLS.s:16901  .debug_str:0000000000000796 .LASF177
     /tmp/ccg8jNLS.s:16893  .debug_str:000000000000076b .LASF178
     /tmp/ccg8jNLS.s:16833  .debug_str:00000000000005c4 .LASF179
     /tmp/ccg8jNLS.s:17345  .debug_str:0000000000001550 .LASF180
     /tmp/ccg8jNLS.s:16787  .debug_str:000000000000046a .LASF181
     /tmp/ccg8jNLS.s:17241  .debug_str:0000000000001191 .LASF182
     /tmp/ccg8jNLS.s:17209  .debug_str:00000000000010e1 .LASF183
     /tmp/ccg8jNLS.s:17211  .debug_str:00000000000010e7 .LASF184
GAS LISTING /tmp/ccg8jNLS.s 			page 179


     /tmp/ccg8jNLS.s:16849  .debug_str:000000000000063b .LASF185
     /tmp/ccg8jNLS.s:16921  .debug_str:000000000000081b .LASF186
     /tmp/ccg8jNLS.s:16727  .debug_str:0000000000000279 .LASF187
     /tmp/ccg8jNLS.s:16959  .debug_str:000000000000096f .LASF188
     /tmp/ccg8jNLS.s:16803  .debug_str:00000000000004cb .LASF189
     /tmp/ccg8jNLS.s:16731  .debug_str:00000000000002a3 .LASF190
     /tmp/ccg8jNLS.s:16873  .debug_str:00000000000006e3 .LASF191
     /tmp/ccg8jNLS.s:17151  .debug_str:0000000000000efd .LASF192
     /tmp/ccg8jNLS.s:16821  .debug_str:0000000000000593 .LASF193
     /tmp/ccg8jNLS.s:16949  .debug_str:000000000000090a .LASF194
     /tmp/ccg8jNLS.s:17311  .debug_str:00000000000013ab .LASF195
     /tmp/ccg8jNLS.s:17233  .debug_str:0000000000001175 .LASF196
     /tmp/ccg8jNLS.s:17321  .debug_str:00000000000013eb .LASF197
     /tmp/ccg8jNLS.s:16721  .debug_str:000000000000024a .LASF198
     /tmp/ccg8jNLS.s:16793  .debug_str:000000000000048e .LASF199
     /tmp/ccg8jNLS.s:16841  .debug_str:00000000000005ec .LASF200
     /tmp/ccg8jNLS.s:16691  .debug_str:000000000000017c .LASF201
     /tmp/ccg8jNLS.s:17379  .debug_str:0000000000001646 .LASF202
     /tmp/ccg8jNLS.s:17117  .debug_str:0000000000000dc1 .LASF203
     /tmp/ccg8jNLS.s:16887  .debug_str:0000000000000752 .LASF204
     /tmp/ccg8jNLS.s:16963  .debug_str:000000000000098d .LASF205
     /tmp/ccg8jNLS.s:17157  .debug_str:0000000000000f14 .LASF206
     /tmp/ccg8jNLS.s:17413  .debug_str:0000000000001732 .LASF207
     /tmp/ccg8jNLS.s:17429  .debug_str:00000000000017a6 .LASF208
     /tmp/ccg8jNLS.s:17085  .debug_str:0000000000000ce2 .LASF209
     /tmp/ccg8jNLS.s:17253  .debug_str:00000000000011d3 .LASF210
     /tmp/ccg8jNLS.s:16945  .debug_str:00000000000008d6 .LASF211
     /tmp/ccg8jNLS.s:16763  .debug_str:00000000000003a1 .LASF212
     /tmp/ccg8jNLS.s:17165  .debug_str:0000000000000f72 .LASF213
     /tmp/ccg8jNLS.s:16677  .debug_str:000000000000010a .LASF214
     /tmp/ccg8jNLS.s:17077  .debug_str:0000000000000cad .LASF215
     /tmp/ccg8jNLS.s:17133  .debug_str:0000000000000e56 .LASF216
     /tmp/ccg8jNLS.s:17363  .debug_str:00000000000015b7 .LASF217
     /tmp/ccg8jNLS.s:17399  .debug_str:00000000000016d9 .LASF218
     /tmp/ccg8jNLS.s:16737  .debug_str:00000000000002bd .LASF219
     /tmp/ccg8jNLS.s:17389  .debug_str:0000000000001693 .LASF220
     /tmp/ccg8jNLS.s:16967  .debug_str:00000000000009ad .LASF221
     /tmp/ccg8jNLS.s:17385  .debug_str:0000000000001677 .LASF224
     /tmp/ccg8jNLS.s:16775  .debug_str:0000000000000424 .LASF222
     /tmp/ccg8jNLS.s:17167  .debug_str:0000000000000f8a .LASF403
     /tmp/ccg8jNLS.s:16785  .debug_str:0000000000000465 .LASF223
     /tmp/ccg8jNLS.s:16659  .debug_str:0000000000000072 .LASF225
     /tmp/ccg8jNLS.s:17419  .debug_str:0000000000001751 .LASF226
     /tmp/ccg8jNLS.s:17263  .debug_str:0000000000001239 .LASF227
     /tmp/ccg8jNLS.s:17371  .debug_str:00000000000015f9 .LASF228
     /tmp/ccg8jNLS.s:17335  .debug_str:0000000000001509 .LASF229
     /tmp/ccg8jNLS.s:16869  .debug_str:00000000000006c7 .LASF230
     /tmp/ccg8jNLS.s:17323  .debug_str:00000000000013fc .LASF231
     /tmp/ccg8jNLS.s:16983  .debug_str:0000000000000a24 .LASF232
     /tmp/ccg8jNLS.s:17347  .debug_str:0000000000001559 .LASF233
     /tmp/ccg8jNLS.s:16789  .debug_str:0000000000000473 .LASF234
     /tmp/ccg8jNLS.s:16891  .debug_str:0000000000000765 .LASF235
     /tmp/ccg8jNLS.s:17239  .debug_str:000000000000118b .LASF236
     /tmp/ccg8jNLS.s:16971  .debug_str:00000000000009c5 .LASF237
     /tmp/ccg8jNLS.s:16777  .debug_str:000000000000042c .LASF238
     /tmp/ccg8jNLS.s:16939  .debug_str:00000000000008a9 .LASF239
     /tmp/ccg8jNLS.s:17243  .debug_str:0000000000001198 .LASF240
GAS LISTING /tmp/ccg8jNLS.s 			page 180


     /tmp/ccg8jNLS.s:16657  .debug_str:000000000000005d .LASF241
     /tmp/ccg8jNLS.s:17203  .debug_str:000000000000109f .LASF242
     /tmp/ccg8jNLS.s:16719  .debug_str:0000000000000234 .LASF243
     /tmp/ccg8jNLS.s:17395  .debug_str:00000000000016b2 .LASF244
     /tmp/ccg8jNLS.s:17119  .debug_str:0000000000000dc9 .LASF245
     /tmp/ccg8jNLS.s:17401  .debug_str:00000000000016e1 .LASF246
     /tmp/ccg8jNLS.s:16689  .debug_str:0000000000000175 .LASF247
     /tmp/ccg8jNLS.s:16865  .debug_str:00000000000006a2 .LASF248
     /tmp/ccg8jNLS.s:16755  .debug_str:0000000000000348 .LASF249
     /tmp/ccg8jNLS.s:17051  .debug_str:0000000000000bf8 .LASF250
     /tmp/ccg8jNLS.s:17215  .debug_str:0000000000001105 .LASF251
     /tmp/ccg8jNLS.s:16811  .debug_str:000000000000051a .LASF252
     /tmp/ccg8jNLS.s:17173  .debug_str:0000000000000fba .LASF253
     /tmp/ccg8jNLS.s:17261  .debug_str:0000000000001216 .LASF254
     /tmp/ccg8jNLS.s:16999  .debug_str:0000000000000a99 .LASF255
     /tmp/ccg8jNLS.s:16843  .debug_str:00000000000005fd .LASF256
     /tmp/ccg8jNLS.s:16929  .debug_str:0000000000000858 .LASF257
     /tmp/ccg8jNLS.s:17427  .debug_str:0000000000001791 .LASF258
     /tmp/ccg8jNLS.s:16957  .debug_str:0000000000000967 .LASF259
     /tmp/ccg8jNLS.s:16741  .debug_str:00000000000002d4 .LASF260
     /tmp/ccg8jNLS.s:17005  .debug_str:0000000000000abc .LASF261
     /tmp/ccg8jNLS.s:17375  .debug_str:0000000000001619 .LASF262
     /tmp/ccg8jNLS.s:16795  .debug_str:000000000000049d .LASF263
     /tmp/ccg8jNLS.s:16997  .debug_str:0000000000000a8a .LASF404
     /tmp/ccg8jNLS.s:16985  .debug_str:0000000000000a29 .LASF264
     /tmp/ccg8jNLS.s:16695  .debug_str:000000000000019f .LASF265
     /tmp/ccg8jNLS.s:16941  .debug_str:00000000000008c4 .LASF266
     /tmp/ccg8jNLS.s:17199  .debug_str:0000000000001081 .LASF267
     /tmp/ccg8jNLS.s:17373  .debug_str:0000000000001601 .LASF268
     /tmp/ccg8jNLS.s:17443  .debug_str:000000000000181f .LASF269
     /tmp/ccg8jNLS.s:17099  .debug_str:0000000000000d38 .LASF273
     /tmp/ccg8jNLS.s:17235  .debug_str:000000000000117c .LASF270
     /tmp/ccg8jNLS.s:16743  .debug_str:00000000000002ef .LASF271
     /tmp/ccg8jNLS.s:16837  .debug_str:00000000000005de .LASF272
     /tmp/ccg8jNLS.s:16863  .debug_str:000000000000068f .LASF274
     /tmp/ccg8jNLS.s:16905  .debug_str:00000000000007b0 .LASF275
     /tmp/ccg8jNLS.s:17301  .debug_str:0000000000001373 .LASF276
     /tmp/ccg8jNLS.s:17349  .debug_str:0000000000001565 .LASF277
     /tmp/ccg8jNLS.s:16835  .debug_str:00000000000005ca .LASF278
     /tmp/ccg8jNLS.s:17245  .debug_str:00000000000011ad .LASF279
     /tmp/ccg8jNLS.s:16791  .debug_str:000000000000047a .LASF280
     /tmp/ccg8jNLS.s:17177  .debug_str:0000000000000fe2 .LASF281
     /tmp/ccg8jNLS.s:16671  .debug_str:00000000000000d8 .LASF282
     /tmp/ccg8jNLS.s:17037  .debug_str:0000000000000b83 .LASF283
     /tmp/ccg8jNLS.s:17001  .debug_str:0000000000000a9f .LASF284
     /tmp/ccg8jNLS.s:17339  .debug_str:000000000000152a .LASF285
     /tmp/ccg8jNLS.s:17107  .debug_str:0000000000000d6a .LASF286
     /tmp/ccg8jNLS.s:16899  .debug_str:000000000000078f .LASF287
     /tmp/ccg8jNLS.s:16683  .debug_str:0000000000000150 .LASF288
     /tmp/ccg8jNLS.s:17081  .debug_str:0000000000000cce .LASF289
     /tmp/ccg8jNLS.s:17423  .debug_str:0000000000001778 .LASF290
     /tmp/ccg8jNLS.s:17007  .debug_str:0000000000000ac2 .LASF291
     /tmp/ccg8jNLS.s:17021  .debug_str:0000000000000b20 .LASF292
     /tmp/ccg8jNLS.s:17219  .debug_str:0000000000001118 .LASF293
     /tmp/ccg8jNLS.s:16813  .debug_str:0000000000000537 .LASF294
     /tmp/ccg8jNLS.s:16739  .debug_str:00000000000002c9 .LASF295
     /tmp/ccg8jNLS.s:17457  .debug_str:0000000000001884 .LASF296
GAS LISTING /tmp/ccg8jNLS.s 			page 181


     /tmp/ccg8jNLS.s:17259  .debug_str:000000000000120c .LASF297
     /tmp/ccg8jNLS.s:16885  .debug_str:000000000000073c .LASF298
     /tmp/ccg8jNLS.s:17269  .debug_str:0000000000001253 .LASF299
     /tmp/ccg8jNLS.s:17009  .debug_str:0000000000000ac8 .LASF300
     /tmp/ccg8jNLS.s:17225  .debug_str:000000000000113d .LASF301
     /tmp/ccg8jNLS.s:16819  .debug_str:0000000000000577 .LASF302
     /tmp/ccg8jNLS.s:16913  .debug_str:00000000000007e4 .LASF303
     /tmp/ccg8jNLS.s:17295  .debug_str:000000000000131b .LASF304
     /tmp/ccg8jNLS.s:16823  .debug_str:0000000000000599 .LASF305
     /tmp/ccg8jNLS.s:17275  .debug_str:0000000000001276 .LASF306
     /tmp/ccg8jNLS.s:17307  .debug_str:0000000000001399 .LASF307
     /tmp/ccg8jNLS.s:17067  .debug_str:0000000000000c6f .LASF308
     /tmp/ccg8jNLS.s:16707  .debug_str:00000000000001ea .LASF309
     /tmp/ccg8jNLS.s:17197  .debug_str:000000000000105f .LASF310
     /tmp/ccg8jNLS.s:16981  .debug_str:0000000000000a13 .LASF311
     /tmp/ccg8jNLS.s:17147  .debug_str:0000000000000edc .LASF312
     /tmp/ccg8jNLS.s:16987  .debug_str:0000000000000a35 .LASF313
     /tmp/ccg8jNLS.s:16805  .debug_str:00000000000004eb .LASF314
     /tmp/ccg8jNLS.s:17019  .debug_str:0000000000000b0e .LASF315
     /tmp/ccg8jNLS.s:17331  .debug_str:00000000000014e4 .LASF316
     /tmp/ccg8jNLS.s:17231  .debug_str:0000000000001165 .LASF317
     /tmp/ccg8jNLS.s:16919  .debug_str:0000000000000809 .LASF318
     /tmp/ccg8jNLS.s:16661  .debug_str:0000000000000081 .LASF319
     /tmp/ccg8jNLS.s:16809  .debug_str:000000000000050b .LASF320
     /tmp/ccg8jNLS.s:17447  .debug_str:0000000000001831 .LASF321
     /tmp/ccg8jNLS.s:17441  .debug_str:000000000000180a .LASF322
     /tmp/ccg8jNLS.s:16927  .debug_str:0000000000000845 .LASF323
     /tmp/ccg8jNLS.s:17079  .debug_str:0000000000000cbc .LASF324
     /tmp/ccg8jNLS.s:17455  .debug_str:000000000000186d .LASF325
     /tmp/ccg8jNLS.s:16733  .debug_str:00000000000002ae .LASF326
     /tmp/ccg8jNLS.s:16693  .debug_str:0000000000000198 .LASF327
     /tmp/ccg8jNLS.s:16697  .debug_str:00000000000001ac .LASF328
     /tmp/ccg8jNLS.s:16897  .debug_str:0000000000000788 .LASF329
     /tmp/ccg8jNLS.s:16711  .debug_str:0000000000000208 .LASF330
     /tmp/ccg8jNLS.s:17023  .debug_str:0000000000000b32 .LASF331
     /tmp/ccg8jNLS.s:16713  .debug_str:000000000000020d .LASF332
     /tmp/ccg8jNLS.s:17315  .debug_str:00000000000013cb .LASF333
     /tmp/ccg8jNLS.s:17137  .debug_str:0000000000000e80 .LASF334
     /tmp/ccg8jNLS.s:17273  .debug_str:0000000000001264 .LASF335
     /tmp/ccg8jNLS.s:16781  .debug_str:0000000000000445 .LASF336
     /tmp/ccg8jNLS.s:17127  .debug_str:0000000000000e05 .LASF337
     /tmp/ccg8jNLS.s:17365  .debug_str:00000000000015bc .LASF338
     /tmp/ccg8jNLS.s:17039  .debug_str:0000000000000b8b .LASF339
     /tmp/ccg8jNLS.s:16771  .debug_str:0000000000000403 .LASF340
     /tmp/ccg8jNLS.s:17123  .debug_str:0000000000000ddd .LASF341
     /tmp/ccg8jNLS.s:17143  .debug_str:0000000000000eb1 .LASF342
     /tmp/ccg8jNLS.s:17171  .debug_str:0000000000000fa8 .LASF343
     /tmp/ccg8jNLS.s:17257  .debug_str:00000000000011fd .LASF344
     /tmp/ccg8jNLS.s:16801  .debug_str:00000000000004b9 .LASF345
     /tmp/ccg8jNLS.s:17221  .debug_str:0000000000001123 .LASF346
     /tmp/ccg8jNLS.s:17013  .debug_str:0000000000000ae3 .LASF347
     /tmp/ccg8jNLS.s:17357  .debug_str:000000000000159c .LASF348
     /tmp/ccg8jNLS.s:17069  .debug_str:0000000000000c89 .LASF349
     /tmp/ccg8jNLS.s:17367  .debug_str:00000000000015cb .LASF350
     /tmp/ccg8jNLS.s:17341  .debug_str:0000000000001531 .LASF351
     /tmp/ccg8jNLS.s:17027  .debug_str:0000000000000b40 .LASF352
     /tmp/ccg8jNLS.s:16815  .debug_str:000000000000054f .LASF353
GAS LISTING /tmp/ccg8jNLS.s 			page 182


     /tmp/ccg8jNLS.s:17421  .debug_str:0000000000001761 .LASF354
     /tmp/ccg8jNLS.s:16797  .debug_str:00000000000004a3 .LASF355
     /tmp/ccg8jNLS.s:16753  .debug_str:0000000000000333 .LASF356
     /tmp/ccg8jNLS.s:17017  .debug_str:0000000000000af8 .LASF357
     /tmp/ccg8jNLS.s:17083  .debug_str:0000000000000cd4 .LASF358
     /tmp/ccg8jNLS.s:17327  .debug_str:00000000000014c5 .LASF359
     /tmp/ccg8jNLS.s:16647  .debug_str:0000000000000000 .LASF360
     /tmp/ccg8jNLS.s:17101  .debug_str:0000000000000d4d .LASF361
     /tmp/ccg8jNLS.s:16953  .debug_str:000000000000094d .LASF362
     /tmp/ccg8jNLS.s:17105  .debug_str:0000000000000d5f .LASF363
     /tmp/ccg8jNLS.s:17353  .debug_str:0000000000001572 .LASF364
     /tmp/ccg8jNLS.s:4907   .text:0000000000002104 .LFB105
     /tmp/ccg8jNLS.s:4933   .text:0000000000002138 .LFE105
     /tmp/ccg8jNLS.s:4923   .text:0000000000002128 .LVL500
     /tmp/ccg8jNLS.s:17159  .debug_str:0000000000000f21 .LASF365
     /tmp/ccg8jNLS.s:9      .text:0000000000000000 .LFB104
     /tmp/ccg8jNLS.s:53     .text:0000000000000040 .LFE104
     /tmp/ccg8jNLS.s:16903  .debug_str:00000000000007a1 .LASF366
     /tmp/ccg8jNLS.s:17041  .debug_str:0000000000000ba1 .LASF367
     /tmp/ccg8jNLS.s:38     .text:000000000000002c .LBB283
     /tmp/ccg8jNLS.s:49     .text:000000000000003c .LBE283
     /tmp/ccg8jNLS.s:14506  .debug_loc:0000000000000000 .LLST0
     /tmp/ccg8jNLS.s:17153  .debug_str:0000000000000f03 .LASF368
     /tmp/ccg8jNLS.s:17207  .debug_str:00000000000010c1 .LASF370
     /tmp/ccg8jNLS.s:16829  .debug_str:00000000000005b7 .LASF369
     /tmp/ccg8jNLS.s:17377  .debug_str:0000000000001632 .LASF371
     /tmp/ccg8jNLS.s:4539   .text:0000000000001e84 .LFB94
     /tmp/ccg8jNLS.s:4636   .text:0000000000001f10 .LFE94
     /tmp/ccg8jNLS.s:4567   .text:0000000000001eb8 .LBB514
     /tmp/ccg8jNLS.s:4575   .text:0000000000001ec4 .LBE514
     /tmp/ccg8jNLS.s:14515  .debug_loc:000000000000002c .LLST184
     /tmp/ccg8jNLS.s:4573   .text:0000000000001ec4 .LVL464
     /tmp/ccg8jNLS.s:4576   .text:0000000000001ec4 .LBB516
     /tmp/ccg8jNLS.s:4592   .text:0000000000001ed8 .LBE516
     /tmp/ccg8jNLS.s:14523  .debug_loc:0000000000000050 .LLST185
     /tmp/ccg8jNLS.s:14531  .debug_loc:0000000000000074 .LLST186
     /tmp/ccg8jNLS.s:4583   .text:0000000000001ed0 .LBB518
     /tmp/ccg8jNLS.s:4590   .text:0000000000001ed8 .LBE518
     /tmp/ccg8jNLS.s:14538  .debug_loc:0000000000000097 .LLST187
     /tmp/ccg8jNLS.s:4597   .text:0000000000001edc .LBB520
     /tmp/ccg8jNLS.s:4605   .text:0000000000001ee8 .LBE520
     /tmp/ccg8jNLS.s:14547  .debug_loc:00000000000000bc .LLST188
     /tmp/ccg8jNLS.s:4603   .text:0000000000001ee8 .LVL468
     /tmp/ccg8jNLS.s:4606   .text:0000000000001ee8 .LBB522
     /tmp/ccg8jNLS.s:4621   .text:0000000000001ef8 .LBE522
     /tmp/ccg8jNLS.s:14555  .debug_loc:00000000000000e0 .LLST189
     /tmp/ccg8jNLS.s:14563  .debug_loc:0000000000000104 .LLST190
     /tmp/ccg8jNLS.s:4612   .text:0000000000001ef0 .LBB524
     /tmp/ccg8jNLS.s:4619   .text:0000000000001ef8 .LBE524
     /tmp/ccg8jNLS.s:14570  .debug_loc:0000000000000127 .LLST191
     /tmp/ccg8jNLS.s:4813   .text:0000000000002048 .LFB93
     /tmp/ccg8jNLS.s:4902   .text:0000000000002104 .LFE93
     /tmp/ccg8jNLS.s:4849   .text:00000000000020a0 .LBB530
     /tmp/ccg8jNLS.s:4877   .text:00000000000020cc .LBE530
     /tmp/ccg8jNLS.s:14579  .debug_loc:000000000000014c .LLST195
     /tmp/ccg8jNLS.s:4863   .text:00000000000020b8 .LBB531
     /tmp/ccg8jNLS.s:4876   .text:00000000000020cc .LBE531
GAS LISTING /tmp/ccg8jNLS.s 			page 183


     /tmp/ccg8jNLS.s:14591  .debug_loc:0000000000000183 .LLST196
     /tmp/ccg8jNLS.s:4827   .text:0000000000002060 .LVL489
     /tmp/ccg8jNLS.s:4832   .text:0000000000002070 .LVL490
     /tmp/ccg8jNLS.s:4837   .text:0000000000002080 .LVL491
     /tmp/ccg8jNLS.s:4842   .text:0000000000002090 .LVL492
     /tmp/ccg8jNLS.s:4847   .text:00000000000020a0 .LVL493
     /tmp/ccg8jNLS.s:4882   .text:00000000000020dc .LVL498
     /tmp/ccg8jNLS.s:4891   .text:00000000000020f4 .LVL499
     /tmp/ccg8jNLS.s:4653   .text:0000000000001f10 .LFB92
     /tmp/ccg8jNLS.s:4796   .text:0000000000002048 .LFE92
     /tmp/ccg8jNLS.s:14602  .debug_loc:00000000000001b9 .LLST192
     /tmp/ccg8jNLS.s:4693   .text:0000000000001f6c .LBB526
     /tmp/ccg8jNLS.s:4728   .text:0000000000001f9c .LBE526
     /tmp/ccg8jNLS.s:14616  .debug_loc:00000000000001f2 .LLST193
     /tmp/ccg8jNLS.s:4713   .text:0000000000001f88 .LBB528
     /tmp/ccg8jNLS.s:4726   .text:0000000000001f9c .LBE528
     /tmp/ccg8jNLS.s:14628  .debug_loc:0000000000000229 .LLST194
     /tmp/ccg8jNLS.s:4703   .text:0000000000001f7c .LVL477
     /tmp/ccg8jNLS.s:4673   .text:0000000000001f34 .LVL472
     /tmp/ccg8jNLS.s:4678   .text:0000000000001f44 .LVL473
     /tmp/ccg8jNLS.s:4686   .text:0000000000001f5c .LVL474
     /tmp/ccg8jNLS.s:4691   .text:0000000000001f6c .LVL475
     /tmp/ccg8jNLS.s:4735   .text:0000000000001fb0 .LVL482
     /tmp/ccg8jNLS.s:4740   .text:0000000000001fc0 .LVL483
     /tmp/ccg8jNLS.s:4747   .text:0000000000001fd4 .LVL484
     /tmp/ccg8jNLS.s:4752   .text:0000000000001fe4 .LVL485
     /tmp/ccg8jNLS.s:4766   .text:000000000000200c .LVL486
     /tmp/ccg8jNLS.s:4788   .text:0000000000002034 .LVL487
     /tmp/ccg8jNLS.s:4793   .text:0000000000002044 .LVL488
     /tmp/ccg8jNLS.s:4254   .text:0000000000001cbc .LFB91
     /tmp/ccg8jNLS.s:4383   .text:0000000000001d6c .LFE91
     /tmp/ccg8jNLS.s:4279   .text:0000000000001ce4 .LBB496
     /tmp/ccg8jNLS.s:4287   .text:0000000000001cf0 .LBE496
     /tmp/ccg8jNLS.s:14639  .debug_loc:000000000000025f .LLST170
     /tmp/ccg8jNLS.s:4285   .text:0000000000001cf0 .LVL439
     /tmp/ccg8jNLS.s:4288   .text:0000000000001cf0 .LBB498
     /tmp/ccg8jNLS.s:4304   .text:0000000000001d04 .LBE498
     /tmp/ccg8jNLS.s:14647  .debug_loc:0000000000000283 .LLST171
     /tmp/ccg8jNLS.s:14655  .debug_loc:00000000000002a7 .LLST172
     /tmp/ccg8jNLS.s:4295   .text:0000000000001cfc .LBB500
     /tmp/ccg8jNLS.s:4302   .text:0000000000001d04 .LBE500
     /tmp/ccg8jNLS.s:14662  .debug_loc:00000000000002ca .LLST173
     /tmp/ccg8jNLS.s:4310   .text:0000000000001d10 .LBB502
     /tmp/ccg8jNLS.s:4318   .text:0000000000001d1c .LBE502
     /tmp/ccg8jNLS.s:14671  .debug_loc:00000000000002ef .LLST174
     /tmp/ccg8jNLS.s:4316   .text:0000000000001d1c .LVL443
     /tmp/ccg8jNLS.s:4319   .text:0000000000001d1c .LBB504
     /tmp/ccg8jNLS.s:4334   .text:0000000000001d2c .LBE504
     /tmp/ccg8jNLS.s:14679  .debug_loc:0000000000000313 .LLST175
     /tmp/ccg8jNLS.s:14687  .debug_loc:0000000000000337 .LLST176
     /tmp/ccg8jNLS.s:4325   .text:0000000000001d24 .LBB506
     /tmp/ccg8jNLS.s:4332   .text:0000000000001d2c .LBE506
     /tmp/ccg8jNLS.s:14694  .debug_loc:000000000000035a .LLST177
     /tmp/ccg8jNLS.s:4339   .text:0000000000001d30 .LBB508
     /tmp/ccg8jNLS.s:4347   .text:0000000000001d3c .LBE508
     /tmp/ccg8jNLS.s:14703  .debug_loc:000000000000037f .LLST178
     /tmp/ccg8jNLS.s:4345   .text:0000000000001d3c .LVL447
GAS LISTING /tmp/ccg8jNLS.s 			page 184


     /tmp/ccg8jNLS.s:4348   .text:0000000000001d3c .LBB510
     /tmp/ccg8jNLS.s:4363   .text:0000000000001d4c .LBE510
     /tmp/ccg8jNLS.s:14711  .debug_loc:00000000000003a3 .LLST179
     /tmp/ccg8jNLS.s:14719  .debug_loc:00000000000003c7 .LLST180
     /tmp/ccg8jNLS.s:4354   .text:0000000000001d44 .LBB512
     /tmp/ccg8jNLS.s:4361   .text:0000000000001d4c .LBE512
     /tmp/ccg8jNLS.s:14726  .debug_loc:00000000000003ea .LLST181
     /tmp/ccg8jNLS.s:4130   .text:0000000000001bc4 .LFB90
     /tmp/ccg8jNLS.s:4248   .text:0000000000001cbc .LFE90
     /tmp/ccg8jNLS.s:14735  .debug_loc:000000000000040f .LLST167
     /tmp/ccg8jNLS.s:4172   .text:0000000000001c28 .LBB492
     /tmp/ccg8jNLS.s:4209   .text:0000000000001c60 .LBE492
     /tmp/ccg8jNLS.s:14749  .debug_loc:0000000000000448 .LLST168
     /tmp/ccg8jNLS.s:4193   .text:0000000000001c48 .LBB494
     /tmp/ccg8jNLS.s:4207   .text:0000000000001c60 .LBE494
     /tmp/ccg8jNLS.s:14761  .debug_loc:000000000000047f .LLST169
     /tmp/ccg8jNLS.s:4182   .text:0000000000001c38 .LVL429
     /tmp/ccg8jNLS.s:4152   .text:0000000000001bf0 .LVL424
     /tmp/ccg8jNLS.s:4157   .text:0000000000001c00 .LVL425
     /tmp/ccg8jNLS.s:4165   .text:0000000000001c18 .LVL426
     /tmp/ccg8jNLS.s:4170   .text:0000000000001c28 .LVL427
     /tmp/ccg8jNLS.s:4215   .text:0000000000001c70 .LVL433
     /tmp/ccg8jNLS.s:4222   .text:0000000000001c84 .LVL434
     /tmp/ccg8jNLS.s:4227   .text:0000000000001c94 .LVL435
     /tmp/ccg8jNLS.s:4232   .text:0000000000001ca4 .LVL436
     /tmp/ccg8jNLS.s:3995   .text:0000000000001acc .LFB89
     /tmp/ccg8jNLS.s:4116   .text:0000000000001bc4 .LFE89
     /tmp/ccg8jNLS.s:14772  .debug_loc:00000000000004b5 .LLST164
     /tmp/ccg8jNLS.s:4042   .text:0000000000001b3c .LBB488
     /tmp/ccg8jNLS.s:4079   .text:0000000000001b74 .LBE488
     /tmp/ccg8jNLS.s:14786  .debug_loc:00000000000004ee .LLST165
     /tmp/ccg8jNLS.s:4063   .text:0000000000001b5c .LBB490
     /tmp/ccg8jNLS.s:4077   .text:0000000000001b74 .LBE490
     /tmp/ccg8jNLS.s:14798  .debug_loc:0000000000000525 .LLST166
     /tmp/ccg8jNLS.s:4052   .text:0000000000001b4c .LVL414
     /tmp/ccg8jNLS.s:4018   .text:0000000000001afc .LVL408
     /tmp/ccg8jNLS.s:4023   .text:0000000000001b08 .LVL409
     /tmp/ccg8jNLS.s:4028   .text:0000000000001b18 .LVL410
     /tmp/ccg8jNLS.s:4035   .text:0000000000001b2c .LVL411
     /tmp/ccg8jNLS.s:4040   .text:0000000000001b3c .LVL412
     /tmp/ccg8jNLS.s:4085   .text:0000000000001b84 .LVL418
     /tmp/ccg8jNLS.s:4096   .text:0000000000001ba0 .LVL420
     /tmp/ccg8jNLS.s:4101   .text:0000000000001bac .LVL421
     /tmp/ccg8jNLS.s:4492   .text:0000000000001e38 .LFB88
     /tmp/ccg8jNLS.s:4533   .text:0000000000001e84 .LFE88
     /tmp/ccg8jNLS.s:14809  .debug_loc:000000000000055b .LLST183
     /tmp/ccg8jNLS.s:4510   .text:0000000000001e58 .LVL460
     /tmp/ccg8jNLS.s:4515   .text:0000000000001e64 .LVL461
     /tmp/ccg8jNLS.s:4520   .text:0000000000001e70 .LVL462
     /tmp/ccg8jNLS.s:4397   .text:0000000000001d6c .LFB87
     /tmp/ccg8jNLS.s:4486   .text:0000000000001e38 .LFE87
     /tmp/ccg8jNLS.s:14823  .debug_loc:0000000000000594 .LLST182
     /tmp/ccg8jNLS.s:4417   .text:0000000000001d90 .LVL451
     /tmp/ccg8jNLS.s:4423   .text:0000000000001da4 .LVL452
     /tmp/ccg8jNLS.s:4433   .text:0000000000001dc0 .LVL453
     /tmp/ccg8jNLS.s:4440   .text:0000000000001dd4 .LVL454
     /tmp/ccg8jNLS.s:4445   .text:0000000000001de4 .LVL455
GAS LISTING /tmp/ccg8jNLS.s 			page 185


     /tmp/ccg8jNLS.s:4455   .text:0000000000001dfc .LVL456
     /tmp/ccg8jNLS.s:4460   .text:0000000000001e0c .LVL457
     /tmp/ccg8jNLS.s:4482   .text:0000000000001e34 .LVL458
     /tmp/ccg8jNLS.s:3712   .text:0000000000001920 .LFB86
     /tmp/ccg8jNLS.s:3838   .text:00000000000019cc .LFE86
     /tmp/ccg8jNLS.s:3740   .text:0000000000001954 .LBB470
     /tmp/ccg8jNLS.s:3748   .text:0000000000001960 .LBE470
     /tmp/ccg8jNLS.s:14837  .debug_loc:00000000000005cd .LLST151
     /tmp/ccg8jNLS.s:3746   .text:0000000000001960 .LVL384
     /tmp/ccg8jNLS.s:3749   .text:0000000000001960 .LBB472
     /tmp/ccg8jNLS.s:3765   .text:0000000000001974 .LBE472
     /tmp/ccg8jNLS.s:14845  .debug_loc:00000000000005f1 .LLST152
     /tmp/ccg8jNLS.s:14853  .debug_loc:0000000000000615 .LLST153
     /tmp/ccg8jNLS.s:3756   .text:000000000000196c .LBB474
     /tmp/ccg8jNLS.s:3763   .text:0000000000001974 .LBE474
     /tmp/ccg8jNLS.s:14860  .debug_loc:0000000000000638 .LLST154
     /tmp/ccg8jNLS.s:3770   .text:0000000000001978 .LBB476
     /tmp/ccg8jNLS.s:3778   .text:0000000000001984 .LBE476
     /tmp/ccg8jNLS.s:14869  .debug_loc:000000000000065d .LLST155
     /tmp/ccg8jNLS.s:3776   .text:0000000000001984 .LVL388
     /tmp/ccg8jNLS.s:3779   .text:0000000000001984 .LBB478
     /tmp/ccg8jNLS.s:3794   .text:0000000000001994 .LBE478
     /tmp/ccg8jNLS.s:14877  .debug_loc:0000000000000681 .LLST156
     /tmp/ccg8jNLS.s:14885  .debug_loc:00000000000006a5 .LLST157
     /tmp/ccg8jNLS.s:3785   .text:000000000000198c .LBB480
     /tmp/ccg8jNLS.s:3792   .text:0000000000001994 .LBE480
     /tmp/ccg8jNLS.s:14892  .debug_loc:00000000000006c8 .LLST158
     /tmp/ccg8jNLS.s:3799   .text:0000000000001998 .LBB482
     /tmp/ccg8jNLS.s:3807   .text:00000000000019a4 .LBE482
     /tmp/ccg8jNLS.s:14901  .debug_loc:00000000000006ed .LLST159
     /tmp/ccg8jNLS.s:3805   .text:00000000000019a4 .LVL392
     /tmp/ccg8jNLS.s:3808   .text:00000000000019a4 .LBB484
     /tmp/ccg8jNLS.s:3823   .text:00000000000019b4 .LBE484
     /tmp/ccg8jNLS.s:14909  .debug_loc:0000000000000711 .LLST160
     /tmp/ccg8jNLS.s:14917  .debug_loc:0000000000000735 .LLST161
     /tmp/ccg8jNLS.s:3814   .text:00000000000019ac .LBB486
     /tmp/ccg8jNLS.s:3821   .text:00000000000019b4 .LBE486
     /tmp/ccg8jNLS.s:14924  .debug_loc:0000000000000758 .LLST162
     /tmp/ccg8jNLS.s:3932   .text:0000000000001a64 .LFB85
     /tmp/ccg8jNLS.s:3981   .text:0000000000001acc .LFE85
     /tmp/ccg8jNLS.s:3948   .text:0000000000001a80 .LVL402
     /tmp/ccg8jNLS.s:3954   .text:0000000000001a94 .LVL403
     /tmp/ccg8jNLS.s:3959   .text:0000000000001aa4 .LVL404
     /tmp/ccg8jNLS.s:3968   .text:0000000000001ab8 .LVL405
     /tmp/ccg8jNLS.s:3849   .text:00000000000019cc .LFB84
     /tmp/ccg8jNLS.s:3921   .text:0000000000001a64 .LFE84
     /tmp/ccg8jNLS.s:14933  .debug_loc:000000000000077d .LLST163
     /tmp/ccg8jNLS.s:3866   .text:00000000000019e8 .LVL396
     /tmp/ccg8jNLS.s:3872   .text:00000000000019fc .LVL397
     /tmp/ccg8jNLS.s:3889   .text:0000000000001a24 .LVL398
     /tmp/ccg8jNLS.s:3894   .text:0000000000001a34 .LVL399
     /tmp/ccg8jNLS.s:3913   .text:0000000000001a54 .LVL400
     /tmp/ccg8jNLS.s:3918   .text:0000000000001a60 .LVL401
     /tmp/ccg8jNLS.s:3207   .text:0000000000001538 .LFB83
     /tmp/ccg8jNLS.s:3379   .text:0000000000001630 .LFE83
     /tmp/ccg8jNLS.s:3224   .text:0000000000001550 .LBB446
     /tmp/ccg8jNLS.s:3232   .text:000000000000155c .LBE446
GAS LISTING /tmp/ccg8jNLS.s 			page 186


     /tmp/ccg8jNLS.s:14947  .debug_loc:00000000000007b6 .LLST133
     /tmp/ccg8jNLS.s:3230   .text:000000000000155c .LVL327
     /tmp/ccg8jNLS.s:3233   .text:000000000000155c .LBB448
     /tmp/ccg8jNLS.s:3249   .text:0000000000001570 .LBE448
     /tmp/ccg8jNLS.s:14955  .debug_loc:00000000000007da .LLST134
     /tmp/ccg8jNLS.s:14963  .debug_loc:00000000000007fe .LLST135
     /tmp/ccg8jNLS.s:3240   .text:0000000000001568 .LBB450
     /tmp/ccg8jNLS.s:3247   .text:0000000000001570 .LBE450
     /tmp/ccg8jNLS.s:14970  .debug_loc:0000000000000821 .LLST136
     /tmp/ccg8jNLS.s:3255   .text:000000000000157c .LBB452
     /tmp/ccg8jNLS.s:3263   .text:0000000000001588 .LBE452
     /tmp/ccg8jNLS.s:14979  .debug_loc:0000000000000846 .LLST137
     /tmp/ccg8jNLS.s:3261   .text:0000000000001588 .LVL331
     /tmp/ccg8jNLS.s:3264   .text:0000000000001588 .LBB454
     /tmp/ccg8jNLS.s:3280   .text:000000000000159c .LBE454
     /tmp/ccg8jNLS.s:14987  .debug_loc:000000000000086a .LLST138
     /tmp/ccg8jNLS.s:14995  .debug_loc:000000000000088e .LLST139
     /tmp/ccg8jNLS.s:3271   .text:0000000000001594 .LBB456
     /tmp/ccg8jNLS.s:3278   .text:000000000000159c .LBE456
     /tmp/ccg8jNLS.s:15002  .debug_loc:00000000000008b1 .LLST140
     /tmp/ccg8jNLS.s:3285   .text:00000000000015a0 .LBB458
     /tmp/ccg8jNLS.s:3293   .text:00000000000015ac .LBE458
     /tmp/ccg8jNLS.s:15011  .debug_loc:00000000000008d6 .LLST141
     /tmp/ccg8jNLS.s:3291   .text:00000000000015ac .LVL335
     /tmp/ccg8jNLS.s:3294   .text:00000000000015ac .LBB460
     /tmp/ccg8jNLS.s:3309   .text:00000000000015bc .LBE460
     /tmp/ccg8jNLS.s:15019  .debug_loc:00000000000008fa .LLST142
     /tmp/ccg8jNLS.s:15027  .debug_loc:000000000000091e .LLST143
     /tmp/ccg8jNLS.s:3300   .text:00000000000015b4 .LBB462
     /tmp/ccg8jNLS.s:3307   .text:00000000000015bc .LBE462
     /tmp/ccg8jNLS.s:15034  .debug_loc:0000000000000941 .LLST144
     /tmp/ccg8jNLS.s:3314   .text:00000000000015c0 .LBB464
     /tmp/ccg8jNLS.s:3322   .text:00000000000015cc .LBE464
     /tmp/ccg8jNLS.s:15043  .debug_loc:0000000000000966 .LLST145
     /tmp/ccg8jNLS.s:3320   .text:00000000000015cc .LVL339
     /tmp/ccg8jNLS.s:3323   .text:00000000000015cc .LBB466
     /tmp/ccg8jNLS.s:3338   .text:00000000000015dc .LBE466
     /tmp/ccg8jNLS.s:15051  .debug_loc:000000000000098a .LLST146
     /tmp/ccg8jNLS.s:15059  .debug_loc:00000000000009ae .LLST147
     /tmp/ccg8jNLS.s:3329   .text:00000000000015d4 .LBB468
     /tmp/ccg8jNLS.s:3336   .text:00000000000015dc .LBE468
     /tmp/ccg8jNLS.s:15066  .debug_loc:00000000000009d1 .LLST148
     /tmp/ccg8jNLS.s:3345   .text:00000000000015ec .LVL342
     /tmp/ccg8jNLS.s:3353   .text:0000000000001600 .LVL343
     /tmp/ccg8jNLS.s:3362   .text:0000000000001614 .LVL344
     /tmp/ccg8jNLS.s:3057   .text:00000000000013f8 .LFB82
     /tmp/ccg8jNLS.s:3201   .text:0000000000001538 .LFE82
     /tmp/ccg8jNLS.s:15075  .debug_loc:00000000000009f6 .LLST130
     /tmp/ccg8jNLS.s:16857  .debug_str:0000000000000667 .LASF372
     /tmp/ccg8jNLS.s:15089  .debug_loc:0000000000000a2f .LLST131
     /tmp/ccg8jNLS.s:16875  .debug_str:00000000000006f9 .LASF373
     /tmp/ccg8jNLS.s:15111  .debug_loc:0000000000000a8e .LLST132
     /tmp/ccg8jNLS.s:3086   .text:0000000000001438 .LVL314
     /tmp/ccg8jNLS.s:3122   .text:0000000000001490 .LVL315
     /tmp/ccg8jNLS.s:3129   .text:00000000000014a4 .LVL316
     /tmp/ccg8jNLS.s:3146   .text:00000000000014cc .LVL317
     /tmp/ccg8jNLS.s:3151   .text:00000000000014d8 .LVL318
GAS LISTING /tmp/ccg8jNLS.s 			page 187


     /tmp/ccg8jNLS.s:3156   .text:00000000000014e4 .LVL319
     /tmp/ccg8jNLS.s:3161   .text:00000000000014f0 .LVL320
     /tmp/ccg8jNLS.s:3190   .text:0000000000001520 .LVL324
     /tmp/ccg8jNLS.s:3197   .text:0000000000001534 .LVL325
     /tmp/ccg8jNLS.s:3555   .text:00000000000017a8 .LFB81
     /tmp/ccg8jNLS.s:3706   .text:0000000000001920 .LFE81
     /tmp/ccg8jNLS.s:15133  .debug_loc:0000000000000aed .LLST150
     /tmp/ccg8jNLS.s:3581   .text:00000000000017dc .LVL366
     /tmp/ccg8jNLS.s:3586   .text:00000000000017e8 .LVL367
     /tmp/ccg8jNLS.s:3594   .text:0000000000001804 .LVL368
     /tmp/ccg8jNLS.s:3605   .text:0000000000001820 .LVL369
     /tmp/ccg8jNLS.s:3610   .text:0000000000001830 .LVL370
     /tmp/ccg8jNLS.s:3620   .text:000000000000184c .LVL371
     /tmp/ccg8jNLS.s:3625   .text:000000000000185c .LVL372
     /tmp/ccg8jNLS.s:3635   .text:0000000000001878 .LVL373
     /tmp/ccg8jNLS.s:3640   .text:0000000000001888 .LVL374
     /tmp/ccg8jNLS.s:3649   .text:000000000000189c .LVL375
     /tmp/ccg8jNLS.s:3654   .text:00000000000018ac .LVL376
     /tmp/ccg8jNLS.s:3662   .text:00000000000018c0 .LVL377
     /tmp/ccg8jNLS.s:3667   .text:00000000000018d0 .LVL378
     /tmp/ccg8jNLS.s:3675   .text:00000000000018e4 .LVL379
     /tmp/ccg8jNLS.s:3680   .text:00000000000018f4 .LVL380
     /tmp/ccg8jNLS.s:3699   .text:0000000000001910 .LVL382
     /tmp/ccg8jNLS.s:3393   .text:0000000000001630 .LFB80
     /tmp/ccg8jNLS.s:3544   .text:00000000000017a8 .LFE80
     /tmp/ccg8jNLS.s:15158  .debug_loc:0000000000000b4f .LLST149
     /tmp/ccg8jNLS.s:3419   .text:0000000000001664 .LVL347
     /tmp/ccg8jNLS.s:3424   .text:0000000000001670 .LVL348
     /tmp/ccg8jNLS.s:3432   .text:000000000000168c .LVL349
     /tmp/ccg8jNLS.s:3443   .text:00000000000016a8 .LVL350
     /tmp/ccg8jNLS.s:3448   .text:00000000000016b8 .LVL351
     /tmp/ccg8jNLS.s:3458   .text:00000000000016d4 .LVL352
     /tmp/ccg8jNLS.s:3463   .text:00000000000016e4 .LVL353
     /tmp/ccg8jNLS.s:3473   .text:0000000000001700 .LVL354
     /tmp/ccg8jNLS.s:3478   .text:0000000000001710 .LVL355
     /tmp/ccg8jNLS.s:3487   .text:0000000000001724 .LVL356
     /tmp/ccg8jNLS.s:3492   .text:0000000000001734 .LVL357
     /tmp/ccg8jNLS.s:3500   .text:0000000000001748 .LVL358
     /tmp/ccg8jNLS.s:3505   .text:0000000000001758 .LVL359
     /tmp/ccg8jNLS.s:3513   .text:000000000000176c .LVL360
     /tmp/ccg8jNLS.s:3518   .text:000000000000177c .LVL361
     /tmp/ccg8jNLS.s:3537   .text:0000000000001798 .LVL363
     /tmp/ccg8jNLS.s:2526   .text:0000000000001040 .LFB79
     /tmp/ccg8jNLS.s:2679   .text:000000000000111c .LFE79
     /tmp/ccg8jNLS.s:15183  .debug_loc:0000000000000bb1 .LLST106
     /tmp/ccg8jNLS.s:2573   .text:000000000000107c .LBB426
     /tmp/ccg8jNLS.s:2617   .text:00000000000010c0 .LBE426
     /tmp/ccg8jNLS.s:15197  .debug_loc:0000000000000bea .LLST111
     /tmp/ccg8jNLS.s:2580   .text:0000000000001084 .LBB427
     /tmp/ccg8jNLS.s:2588   .text:0000000000001090 .LBE427
     /tmp/ccg8jNLS.s:15209  .debug_loc:0000000000000c21 .LLST112
     /tmp/ccg8jNLS.s:2586   .text:0000000000001090 .LVL259
     /tmp/ccg8jNLS.s:2589   .text:0000000000001090 .LBB429
     /tmp/ccg8jNLS.s:2604   .text:00000000000010a0 .LBE429
     /tmp/ccg8jNLS.s:15217  .debug_loc:0000000000000c45 .LLST113
     /tmp/ccg8jNLS.s:15225  .debug_loc:0000000000000c69 .LLST114
     /tmp/ccg8jNLS.s:2595   .text:0000000000001098 .LBB431
GAS LISTING /tmp/ccg8jNLS.s 			page 188


     /tmp/ccg8jNLS.s:2602   .text:00000000000010a0 .LBE431
     /tmp/ccg8jNLS.s:15232  .debug_loc:0000000000000c8c .LLST115
     /tmp/ccg8jNLS.s:2618   .text:00000000000010c0 .LBB433
     /tmp/ccg8jNLS.s:2665   .text:0000000000001108 .LBE433
     /tmp/ccg8jNLS.s:15241  .debug_loc:0000000000000cb1 .LLST116
     /tmp/ccg8jNLS.s:2628   .text:00000000000010cc .LBB434
     /tmp/ccg8jNLS.s:2636   .text:00000000000010d8 .LBE434
     /tmp/ccg8jNLS.s:15252  .debug_loc:0000000000000ce7 .LLST117
     /tmp/ccg8jNLS.s:2634   .text:00000000000010d8 .LVL265
     /tmp/ccg8jNLS.s:2637   .text:00000000000010d8 .LBB436
     /tmp/ccg8jNLS.s:2653   .text:00000000000010ec .LBE436
     /tmp/ccg8jNLS.s:15260  .debug_loc:0000000000000d0b .LLST118
     /tmp/ccg8jNLS.s:15268  .debug_loc:0000000000000d2f .LLST119
     /tmp/ccg8jNLS.s:2644   .text:00000000000010e4 .LBB438
     /tmp/ccg8jNLS.s:2651   .text:00000000000010ec .LBE438
     /tmp/ccg8jNLS.s:15275  .debug_loc:0000000000000d52 .LLST120
     /tmp/ccg8jNLS.s:2542   .text:0000000000001054 .LBB420
     /tmp/ccg8jNLS.s:2551   .text:0000000000001060 .LBE420
     /tmp/ccg8jNLS.s:15284  .debug_loc:0000000000000d77 .LLST107
     /tmp/ccg8jNLS.s:2549   .text:0000000000001060 .LVL254
     /tmp/ccg8jNLS.s:2552   .text:0000000000001060 .LBB422
     /tmp/ccg8jNLS.s:2568   .text:0000000000001074 .LBE422
     /tmp/ccg8jNLS.s:15292  .debug_loc:0000000000000d9b .LLST108
     /tmp/ccg8jNLS.s:15300  .debug_loc:0000000000000dbf .LLST109
     /tmp/ccg8jNLS.s:2559   .text:000000000000106c .LBB424
     /tmp/ccg8jNLS.s:2566   .text:0000000000001074 .LBE424
     /tmp/ccg8jNLS.s:15307  .debug_loc:0000000000000de2 .LLST110
     /tmp/ccg8jNLS.s:2867   .text:0000000000001268 .LFB78
     /tmp/ccg8jNLS.s:3051   .text:00000000000013f8 .LFE78
     /tmp/ccg8jNLS.s:15316  .debug_loc:0000000000000e07 .LLST125
     /tmp/ccg8jNLS.s:15341  .debug_loc:0000000000000e69 .LLST126
     /tmp/ccg8jNLS.s:17449  .debug_str:0000000000001843 .LASF374
     /tmp/ccg8jNLS.s:15366  .debug_loc:0000000000000ecb .LLST127
     /tmp/ccg8jNLS.s:17033  .debug_str:0000000000000b70 .LASF375
     /tmp/ccg8jNLS.s:15377  .debug_loc:0000000000000f01 .LLST128
     /tmp/ccg8jNLS.s:2916   .text:00000000000012c4 .LBB445
     /tmp/ccg8jNLS.s:3026   .text:00000000000013d0 .LBE445
     /tmp/ccg8jNLS.s:15394  .debug_loc:0000000000000f4c .LLST129
     /tmp/ccg8jNLS.s:2925   .text:00000000000012dc .LVL294
     /tmp/ccg8jNLS.s:2929   .text:00000000000012e4 .LVL295
     /tmp/ccg8jNLS.s:2939   .text:0000000000001300 .LVL296
     /tmp/ccg8jNLS.s:2943   .text:0000000000001308 .LVL297
     /tmp/ccg8jNLS.s:2967   .text:000000000000133c .LVL301
     /tmp/ccg8jNLS.s:2981   .text:000000000000135c .LVL303
     /tmp/ccg8jNLS.s:2992   .text:0000000000001378 .LVL304
     /tmp/ccg8jNLS.s:2999   .text:000000000000138c .LVL305
     /tmp/ccg8jNLS.s:3004   .text:000000000000139c .LVL306
     /tmp/ccg8jNLS.s:3011   .text:00000000000013b0 .LVL307
     /tmp/ccg8jNLS.s:3016   .text:00000000000013c0 .LVL308
     /tmp/ccg8jNLS.s:2908   .text:00000000000012b4 .LVL292
     /tmp/ccg8jNLS.s:2693   .text:000000000000111c .LFB77
     /tmp/ccg8jNLS.s:2853   .text:0000000000001268 .LFE77
     /tmp/ccg8jNLS.s:15401  .debug_loc:0000000000000f6f .LLST121
     /tmp/ccg8jNLS.s:15426  .debug_loc:0000000000000fd1 .LLST122
     /tmp/ccg8jNLS.s:2735   .text:0000000000001168 .LBB440
     /tmp/ccg8jNLS.s:2835   .text:000000000000124c .LBE440
     /tmp/ccg8jNLS.s:15451  .debug_loc:0000000000001033 .LLST123
GAS LISTING /tmp/ccg8jNLS.s 			page 189


     /tmp/ccg8jNLS.s:16601  .debug_ranges:0000000000000000 .Ldebug_ranges0
     /tmp/ccg8jNLS.s:15458  .debug_loc:0000000000001056 .LLST124
     /tmp/ccg8jNLS.s:2746   .text:0000000000001184 .LVL276
     /tmp/ccg8jNLS.s:2750   .text:000000000000118c .LVL277
     /tmp/ccg8jNLS.s:2778   .text:00000000000011c4 .LVL280
     /tmp/ccg8jNLS.s:2791   .text:00000000000011e8 .LVL281
     /tmp/ccg8jNLS.s:2798   .text:00000000000011fc .LVL282
     /tmp/ccg8jNLS.s:2803   .text:000000000000120c .LVL283
     /tmp/ccg8jNLS.s:2810   .text:0000000000001220 .LVL284
     /tmp/ccg8jNLS.s:2815   .text:0000000000001230 .LVL285
     /tmp/ccg8jNLS.s:2727   .text:0000000000001158 .LVL274
     /tmp/ccg8jNLS.s:2316   .text:0000000000000ed4 .LFB76
     /tmp/ccg8jNLS.s:2421   .text:0000000000000f70 .LFE76
     /tmp/ccg8jNLS.s:2344   .text:0000000000000f08 .LBB408
     /tmp/ccg8jNLS.s:2352   .text:0000000000000f14 .LBE408
     /tmp/ccg8jNLS.s:15470  .debug_loc:000000000000108d .LLST98
     /tmp/ccg8jNLS.s:2350   .text:0000000000000f14 .LVL237
     /tmp/ccg8jNLS.s:2353   .text:0000000000000f14 .LBB410
     /tmp/ccg8jNLS.s:2369   .text:0000000000000f28 .LBE410
     /tmp/ccg8jNLS.s:15478  .debug_loc:00000000000010b1 .LLST99
     /tmp/ccg8jNLS.s:15486  .debug_loc:00000000000010d5 .LLST100
     /tmp/ccg8jNLS.s:2360   .text:0000000000000f20 .LBB412
     /tmp/ccg8jNLS.s:2367   .text:0000000000000f28 .LBE412
     /tmp/ccg8jNLS.s:15493  .debug_loc:00000000000010f8 .LLST101
     /tmp/ccg8jNLS.s:2374   .text:0000000000000f2c .LBB414
     /tmp/ccg8jNLS.s:2382   .text:0000000000000f38 .LBE414
     /tmp/ccg8jNLS.s:15502  .debug_loc:000000000000111d .LLST102
     /tmp/ccg8jNLS.s:2380   .text:0000000000000f38 .LVL241
     /tmp/ccg8jNLS.s:2383   .text:0000000000000f38 .LBB416
     /tmp/ccg8jNLS.s:2398   .text:0000000000000f48 .LBE416
     /tmp/ccg8jNLS.s:15510  .debug_loc:0000000000001141 .LLST103
     /tmp/ccg8jNLS.s:15518  .debug_loc:0000000000001165 .LLST104
     /tmp/ccg8jNLS.s:2389   .text:0000000000000f40 .LBB418
     /tmp/ccg8jNLS.s:2396   .text:0000000000000f48 .LBE418
     /tmp/ccg8jNLS.s:15525  .debug_loc:0000000000001188 .LLST105
     /tmp/ccg8jNLS.s:2427   .text:0000000000000f70 .LFB75
     /tmp/ccg8jNLS.s:2520   .text:0000000000001040 .LFE75
     /tmp/ccg8jNLS.s:2443   .text:0000000000000f8c .LVL244
     /tmp/ccg8jNLS.s:2449   .text:0000000000000fa0 .LVL245
     /tmp/ccg8jNLS.s:2465   .text:0000000000000fc8 .LVL246
     /tmp/ccg8jNLS.s:2472   .text:0000000000000fdc .LVL247
     /tmp/ccg8jNLS.s:2489   .text:0000000000001004 .LVL248
     /tmp/ccg8jNLS.s:2509   .text:0000000000001028 .LVL249
     /tmp/ccg8jNLS.s:2516   .text:000000000000103c .LVL250
     /tmp/ccg8jNLS.s:2231   .text:0000000000000e5c .LFB74
     /tmp/ccg8jNLS.s:2310   .text:0000000000000ed4 .LFE74
     /tmp/ccg8jNLS.s:15534  .debug_loc:00000000000011ad .LLST94
     /tmp/ccg8jNLS.s:2267   .text:0000000000000e9c .LBB402
     /tmp/ccg8jNLS.s:2276   .text:0000000000000ea8 .LBE402
     /tmp/ccg8jNLS.s:15552  .debug_loc:00000000000011f9 .LLST95
     /tmp/ccg8jNLS.s:2274   .text:0000000000000ea8 .LVL232
     /tmp/ccg8jNLS.s:2277   .text:0000000000000ea8 .LBB404
     /tmp/ccg8jNLS.s:2292   .text:0000000000000eb8 .LBE404
     /tmp/ccg8jNLS.s:15560  .debug_loc:000000000000121d .LLST96
     /tmp/ccg8jNLS.s:2283   .text:0000000000000eb0 .LBB406
     /tmp/ccg8jNLS.s:2290   .text:0000000000000eb8 .LBE406
     /tmp/ccg8jNLS.s:15567  .debug_loc:0000000000001240 .LLST97
GAS LISTING /tmp/ccg8jNLS.s 			page 190


     /tmp/ccg8jNLS.s:2117   .text:0000000000000dc8 .LFB73
     /tmp/ccg8jNLS.s:2225   .text:0000000000000e5c .LFE73
     /tmp/ccg8jNLS.s:15576  .debug_loc:0000000000001265 .LLST88
     /tmp/ccg8jNLS.s:2145   .text:0000000000000df0 .LBB395
     /tmp/ccg8jNLS.s:2162   .text:0000000000000e0c .LBE395
     /tmp/ccg8jNLS.s:15602  .debug_loc:00000000000012d7 .LLST89
     /tmp/ccg8jNLS.s:2155   .text:0000000000000e04 .LVL218
     /tmp/ccg8jNLS.s:2169   .text:0000000000000e14 .LBB396
     /tmp/ccg8jNLS.s:2178   .text:0000000000000e20 .LBE396
     /tmp/ccg8jNLS.s:15613  .debug_loc:000000000000130d .LLST90
     /tmp/ccg8jNLS.s:2176   .text:0000000000000e20 .LVL223
     /tmp/ccg8jNLS.s:2179   .text:0000000000000e20 .LBB398
     /tmp/ccg8jNLS.s:2194   .text:0000000000000e30 .LBE398
     /tmp/ccg8jNLS.s:15621  .debug_loc:0000000000001331 .LLST91
     /tmp/ccg8jNLS.s:15629  .debug_loc:0000000000001355 .LLST92
     /tmp/ccg8jNLS.s:2185   .text:0000000000000e28 .LBB400
     /tmp/ccg8jNLS.s:2192   .text:0000000000000e30 .LBE400
     /tmp/ccg8jNLS.s:15636  .debug_loc:0000000000001378 .LLST93
     /tmp/ccg8jNLS.s:1861   .text:0000000000000c44 .LFB72
     /tmp/ccg8jNLS.s:1961   .text:0000000000000cc8 .LFE72
     /tmp/ccg8jNLS.s:15645  .debug_loc:000000000000139d .LLST76
     /tmp/ccg8jNLS.s:1890   .text:0000000000000c70 .LBB383
     /tmp/ccg8jNLS.s:1899   .text:0000000000000c7c .LBE383
     /tmp/ccg8jNLS.s:15663  .debug_loc:00000000000013e9 .LLST77
     /tmp/ccg8jNLS.s:1897   .text:0000000000000c7c .LVL192
     /tmp/ccg8jNLS.s:1900   .text:0000000000000c7c .LBB385
     /tmp/ccg8jNLS.s:1915   .text:0000000000000c8c .LBE385
     /tmp/ccg8jNLS.s:15671  .debug_loc:000000000000140d .LLST78
     /tmp/ccg8jNLS.s:15679  .debug_loc:0000000000001431 .LLST79
     /tmp/ccg8jNLS.s:1906   .text:0000000000000c84 .LBB387
     /tmp/ccg8jNLS.s:1913   .text:0000000000000c8c .LBE387
     /tmp/ccg8jNLS.s:15686  .debug_loc:0000000000001454 .LLST80
     /tmp/ccg8jNLS.s:1920   .text:0000000000000c90 .LBB389
     /tmp/ccg8jNLS.s:1928   .text:0000000000000c9c .LBE389
     /tmp/ccg8jNLS.s:15695  .debug_loc:0000000000001479 .LLST81
     /tmp/ccg8jNLS.s:1926   .text:0000000000000c9c .LVL196
     /tmp/ccg8jNLS.s:1929   .text:0000000000000c9c .LBB391
     /tmp/ccg8jNLS.s:1945   .text:0000000000000cb0 .LBE391
     /tmp/ccg8jNLS.s:15703  .debug_loc:000000000000149d .LLST82
     /tmp/ccg8jNLS.s:15711  .debug_loc:00000000000014c1 .LLST83
     /tmp/ccg8jNLS.s:1936   .text:0000000000000ca8 .LBB393
     /tmp/ccg8jNLS.s:1943   .text:0000000000000cb0 .LBE393
     /tmp/ccg8jNLS.s:15718  .debug_loc:00000000000014e4 .LLST84
     /tmp/ccg8jNLS.s:2050   .text:0000000000000d4c .LFB71
     /tmp/ccg8jNLS.s:2111   .text:0000000000000dc8 .LFE71
     /tmp/ccg8jNLS.s:15727  .debug_loc:0000000000001509 .LLST86
     /tmp/ccg8jNLS.s:15745  .debug_loc:0000000000001555 .LLST87
     /tmp/ccg8jNLS.s:2071   .text:0000000000000d74 .LVL208
     /tmp/ccg8jNLS.s:2076   .text:0000000000000d84 .LVL209
     /tmp/ccg8jNLS.s:2081   .text:0000000000000d90 .LVL210
     /tmp/ccg8jNLS.s:2086   .text:0000000000000da0 .LVL211
     /tmp/ccg8jNLS.s:2094   .text:0000000000000db0 .LVL212
     /tmp/ccg8jNLS.s:1975   .text:0000000000000cc8 .LFB70
     /tmp/ccg8jNLS.s:2036   .text:0000000000000d4c .LFE70
     /tmp/ccg8jNLS.s:15763  .debug_loc:00000000000015a1 .LLST85
     /tmp/ccg8jNLS.s:1993   .text:0000000000000cf0 .LVL200
     /tmp/ccg8jNLS.s:1998   .text:0000000000000d00 .LVL201
GAS LISTING /tmp/ccg8jNLS.s 			page 191


     /tmp/ccg8jNLS.s:2004   .text:0000000000000d10 .LVL202
     /tmp/ccg8jNLS.s:2009   .text:0000000000000d20 .LVL203
     /tmp/ccg8jNLS.s:2020   .text:0000000000000d34 .LVL205
     /tmp/ccg8jNLS.s:1662   .text:0000000000000b20 .LFB69
     /tmp/ccg8jNLS.s:1855   .text:0000000000000c44 .LFE69
     /tmp/ccg8jNLS.s:15774  .debug_loc:00000000000015d7 .LLST61
     /tmp/ccg8jNLS.s:1720   .text:0000000000000b90 .LBB365
     /tmp/ccg8jNLS.s:15781  .debug_loc:00000000000015fa .LLST62
     /tmp/ccg8jNLS.s:15796  .debug_loc:0000000000001642 .LLST63
     /tmp/ccg8jNLS.s:15807  .debug_loc:0000000000001678 .LLST64
     /tmp/ccg8jNLS.s:1730   .text:0000000000000ba4 .LVL176
     /tmp/ccg8jNLS.s:1734   .text:0000000000000ba4 .LBB368
     /tmp/ccg8jNLS.s:1741   .text:0000000000000ba8 .LBE368
     /tmp/ccg8jNLS.s:15814  .debug_loc:000000000000169b .LLST65
     /tmp/ccg8jNLS.s:15822  .debug_loc:00000000000016bf .LLST66
     /tmp/ccg8jNLS.s:1746   .text:0000000000000bb4 .LVL178
     /tmp/ccg8jNLS.s:1751   .text:0000000000000bb4 .LBB371
     /tmp/ccg8jNLS.s:1761   .text:0000000000000bc4 .LBE371
     /tmp/ccg8jNLS.s:15829  .debug_loc:00000000000016e2 .LLST67
     /tmp/ccg8jNLS.s:1787   .text:0000000000000be8 .LBB374
     /tmp/ccg8jNLS.s:1795   .text:0000000000000bf0 .LBE374
     /tmp/ccg8jNLS.s:15838  .debug_loc:000000000000170e .LLST68
     /tmp/ccg8jNLS.s:15846  .debug_loc:0000000000001732 .LLST69
     /tmp/ccg8jNLS.s:1797   .text:0000000000000bf0 .LBB376
     /tmp/ccg8jNLS.s:15853  .debug_loc:0000000000001755 .LLST70
     /tmp/ccg8jNLS.s:15864  .debug_loc:000000000000178b .LLST71
     /tmp/ccg8jNLS.s:15879  .debug_loc:00000000000017d3 .LLST72
     /tmp/ccg8jNLS.s:1803   .text:0000000000000bfc .LBB378
     /tmp/ccg8jNLS.s:1810   .text:0000000000000c04 .LBE378
     /tmp/ccg8jNLS.s:15890  .debug_loc:0000000000001809 .LLST73
     /tmp/ccg8jNLS.s:15898  .debug_loc:000000000000182d .LLST74
     /tmp/ccg8jNLS.s:15905  .debug_loc:0000000000001850 .LLST75
     /tmp/ccg8jNLS.s:1802   .text:0000000000000bfc .LVL184
     /tmp/ccg8jNLS.s:1421   .text:00000000000008c4 .LFB68
     /tmp/ccg8jNLS.s:1656   .text:0000000000000b20 .LFE68
     /tmp/ccg8jNLS.s:15912  .debug_loc:0000000000001873 .LLST60
     /tmp/ccg8jNLS.s:1450   .text:0000000000000900 .LVL141
     /tmp/ccg8jNLS.s:1455   .text:000000000000090c .LVL142
     /tmp/ccg8jNLS.s:1460   .text:000000000000091c .LVL143
     /tmp/ccg8jNLS.s:1465   .text:000000000000092c .LVL144
     /tmp/ccg8jNLS.s:1473   .text:0000000000000944 .LVL145
     /tmp/ccg8jNLS.s:1478   .text:0000000000000954 .LVL146
     /tmp/ccg8jNLS.s:1494   .text:0000000000000980 .LVL147
     /tmp/ccg8jNLS.s:1498   .text:0000000000000988 .LVL148
     /tmp/ccg8jNLS.s:1503   .text:0000000000000994 .LVL149
     /tmp/ccg8jNLS.s:1507   .text:000000000000099c .LVL150
     /tmp/ccg8jNLS.s:1512   .text:00000000000009a8 .LVL151
     /tmp/ccg8jNLS.s:1517   .text:00000000000009b8 .LVL152
     /tmp/ccg8jNLS.s:1522   .text:00000000000009c8 .LVL153
     /tmp/ccg8jNLS.s:1529   .text:00000000000009dc .LVL154
     /tmp/ccg8jNLS.s:1534   .text:00000000000009ec .LVL155
     /tmp/ccg8jNLS.s:1539   .text:00000000000009f8 .LVL156
     /tmp/ccg8jNLS.s:1543   .text:0000000000000a00 .LVL157
     /tmp/ccg8jNLS.s:1548   .text:0000000000000a0c .LVL158
     /tmp/ccg8jNLS.s:1553   .text:0000000000000a1c .LVL159
     /tmp/ccg8jNLS.s:1558   .text:0000000000000a2c .LVL160
     /tmp/ccg8jNLS.s:1565   .text:0000000000000a40 .LVL161
GAS LISTING /tmp/ccg8jNLS.s 			page 192


     /tmp/ccg8jNLS.s:1570   .text:0000000000000a50 .LVL162
     /tmp/ccg8jNLS.s:1584   .text:0000000000000a74 .LVL163
     /tmp/ccg8jNLS.s:1588   .text:0000000000000a7c .LVL164
     /tmp/ccg8jNLS.s:1609   .text:0000000000000a9c .LVL166
     /tmp/ccg8jNLS.s:1620   .text:0000000000000abc .LVL167
     /tmp/ccg8jNLS.s:1625   .text:0000000000000acc .LVL168
     /tmp/ccg8jNLS.s:1630   .text:0000000000000adc .LVL169
     /tmp/ccg8jNLS.s:1637   .text:0000000000000af0 .LVL170
     /tmp/ccg8jNLS.s:1642   .text:0000000000000b00 .LVL171
     /tmp/ccg8jNLS.s:1649   .text:0000000000000b14 .LVL172
     /tmp/ccg8jNLS.s:1653   .text:0000000000000b1c .LVL173
     /tmp/ccg8jNLS.s:1166   .text:0000000000000668 .LFB67
     /tmp/ccg8jNLS.s:1401   .text:00000000000008c4 .LFE67
     /tmp/ccg8jNLS.s:15937  .debug_loc:00000000000018d5 .LLST59
     /tmp/ccg8jNLS.s:1195   .text:00000000000006a4 .LVL106
     /tmp/ccg8jNLS.s:1200   .text:00000000000006b0 .LVL107
     /tmp/ccg8jNLS.s:1205   .text:00000000000006c0 .LVL108
     /tmp/ccg8jNLS.s:1210   .text:00000000000006d0 .LVL109
     /tmp/ccg8jNLS.s:1218   .text:00000000000006e8 .LVL110
     /tmp/ccg8jNLS.s:1223   .text:00000000000006f8 .LVL111
     /tmp/ccg8jNLS.s:1239   .text:0000000000000724 .LVL112
     /tmp/ccg8jNLS.s:1243   .text:000000000000072c .LVL113
     /tmp/ccg8jNLS.s:1248   .text:0000000000000738 .LVL114
     /tmp/ccg8jNLS.s:1252   .text:0000000000000740 .LVL115
     /tmp/ccg8jNLS.s:1257   .text:000000000000074c .LVL116
     /tmp/ccg8jNLS.s:1262   .text:000000000000075c .LVL117
     /tmp/ccg8jNLS.s:1267   .text:000000000000076c .LVL118
     /tmp/ccg8jNLS.s:1274   .text:0000000000000780 .LVL119
     /tmp/ccg8jNLS.s:1279   .text:0000000000000790 .LVL120
     /tmp/ccg8jNLS.s:1284   .text:000000000000079c .LVL121
     /tmp/ccg8jNLS.s:1288   .text:00000000000007a4 .LVL122
     /tmp/ccg8jNLS.s:1293   .text:00000000000007b0 .LVL123
     /tmp/ccg8jNLS.s:1298   .text:00000000000007c0 .LVL124
     /tmp/ccg8jNLS.s:1303   .text:00000000000007d0 .LVL125
     /tmp/ccg8jNLS.s:1310   .text:00000000000007e4 .LVL126
     /tmp/ccg8jNLS.s:1315   .text:00000000000007f4 .LVL127
     /tmp/ccg8jNLS.s:1329   .text:0000000000000818 .LVL128
     /tmp/ccg8jNLS.s:1333   .text:0000000000000820 .LVL129
     /tmp/ccg8jNLS.s:1354   .text:0000000000000840 .LVL131
     /tmp/ccg8jNLS.s:1365   .text:0000000000000860 .LVL132
     /tmp/ccg8jNLS.s:1370   .text:0000000000000870 .LVL133
     /tmp/ccg8jNLS.s:1375   .text:0000000000000880 .LVL134
     /tmp/ccg8jNLS.s:1382   .text:0000000000000894 .LVL135
     /tmp/ccg8jNLS.s:1387   .text:00000000000008a4 .LVL136
     /tmp/ccg8jNLS.s:1394   .text:00000000000008b8 .LVL137
     /tmp/ccg8jNLS.s:1398   .text:00000000000008c0 .LVL138
     /tmp/ccg8jNLS.s:965    .text:0000000000000588 .LFB66
     /tmp/ccg8jNLS.s:1143   .text:0000000000000668 .LFE66
     /tmp/ccg8jNLS.s:982    .text:00000000000005a0 .LBB332
     /tmp/ccg8jNLS.s:991    .text:00000000000005ac .LBE332
     /tmp/ccg8jNLS.s:15962  .debug_loc:0000000000001937 .LLST39
     /tmp/ccg8jNLS.s:989    .text:00000000000005ac .LVL85
     /tmp/ccg8jNLS.s:992    .text:00000000000005ac .LBB334
     /tmp/ccg8jNLS.s:1008   .text:00000000000005c0 .LBE334
     /tmp/ccg8jNLS.s:15970  .debug_loc:000000000000195b .LLST40
     /tmp/ccg8jNLS.s:15978  .debug_loc:000000000000197f .LLST41
     /tmp/ccg8jNLS.s:999    .text:00000000000005b8 .LBB336
GAS LISTING /tmp/ccg8jNLS.s 			page 193


     /tmp/ccg8jNLS.s:1006   .text:00000000000005c0 .LBE336
     /tmp/ccg8jNLS.s:15985  .debug_loc:00000000000019a2 .LLST42
     /tmp/ccg8jNLS.s:1014   .text:00000000000005cc .LBB338
     /tmp/ccg8jNLS.s:1022   .text:00000000000005d8 .LBE338
     /tmp/ccg8jNLS.s:15994  .debug_loc:00000000000019c7 .LLST43
     /tmp/ccg8jNLS.s:1020   .text:00000000000005d8 .LVL89
     /tmp/ccg8jNLS.s:1023   .text:00000000000005d8 .LBB340
     /tmp/ccg8jNLS.s:1039   .text:00000000000005ec .LBE340
     /tmp/ccg8jNLS.s:16002  .debug_loc:00000000000019eb .LLST44
     /tmp/ccg8jNLS.s:16010  .debug_loc:0000000000001a0f .LLST45
     /tmp/ccg8jNLS.s:1030   .text:00000000000005e4 .LBB342
     /tmp/ccg8jNLS.s:1037   .text:00000000000005ec .LBE342
     /tmp/ccg8jNLS.s:16017  .debug_loc:0000000000001a32 .LLST46
     /tmp/ccg8jNLS.s:1044   .text:00000000000005f0 .LBB344
     /tmp/ccg8jNLS.s:1052   .text:00000000000005fc .LBE344
     /tmp/ccg8jNLS.s:16026  .debug_loc:0000000000001a57 .LLST47
     /tmp/ccg8jNLS.s:1050   .text:00000000000005fc .LVL93
     /tmp/ccg8jNLS.s:1053   .text:00000000000005fc .LBB346
     /tmp/ccg8jNLS.s:1068   .text:000000000000060c .LBE346
     /tmp/ccg8jNLS.s:16034  .debug_loc:0000000000001a7b .LLST48
     /tmp/ccg8jNLS.s:16042  .debug_loc:0000000000001a9f .LLST49
     /tmp/ccg8jNLS.s:1059   .text:0000000000000604 .LBB348
     /tmp/ccg8jNLS.s:1066   .text:000000000000060c .LBE348
     /tmp/ccg8jNLS.s:16049  .debug_loc:0000000000001ac2 .LLST50
     /tmp/ccg8jNLS.s:1073   .text:0000000000000610 .LBB350
     /tmp/ccg8jNLS.s:1081   .text:000000000000061c .LBE350
     /tmp/ccg8jNLS.s:16058  .debug_loc:0000000000001ae7 .LLST51
     /tmp/ccg8jNLS.s:1079   .text:000000000000061c .LVL97
     /tmp/ccg8jNLS.s:1082   .text:000000000000061c .LBB352
     /tmp/ccg8jNLS.s:1097   .text:000000000000062c .LBE352
     /tmp/ccg8jNLS.s:16066  .debug_loc:0000000000001b0b .LLST52
     /tmp/ccg8jNLS.s:16074  .debug_loc:0000000000001b2f .LLST53
     /tmp/ccg8jNLS.s:1088   .text:0000000000000624 .LBB354
     /tmp/ccg8jNLS.s:1095   .text:000000000000062c .LBE354
     /tmp/ccg8jNLS.s:16081  .debug_loc:0000000000001b52 .LLST54
     /tmp/ccg8jNLS.s:1102   .text:0000000000000630 .LBB356
     /tmp/ccg8jNLS.s:1110   .text:000000000000063c .LBE356
     /tmp/ccg8jNLS.s:16090  .debug_loc:0000000000001b77 .LLST55
     /tmp/ccg8jNLS.s:1108   .text:000000000000063c .LVL101
     /tmp/ccg8jNLS.s:1111   .text:000000000000063c .LBB358
     /tmp/ccg8jNLS.s:1126   .text:000000000000064c .LBE358
     /tmp/ccg8jNLS.s:16098  .debug_loc:0000000000001b9b .LLST56
     /tmp/ccg8jNLS.s:16106  .debug_loc:0000000000001bbf .LLST57
     /tmp/ccg8jNLS.s:1117   .text:0000000000000644 .LBB360
     /tmp/ccg8jNLS.s:1124   .text:000000000000064c .LBE360
     /tmp/ccg8jNLS.s:16113  .debug_loc:0000000000001be2 .LLST58
     /tmp/ccg8jNLS.s:938    .text:000000000000056c .LFB65
     /tmp/ccg8jNLS.s:959    .text:0000000000000588 .LFE65
     /tmp/ccg8jNLS.s:16122  .debug_loc:0000000000001c07 .LLST38
     /tmp/ccg8jNLS.s:17087  .debug_str:0000000000000ced .LASF376
     /tmp/ccg8jNLS.s:17279  .debug_str:000000000000129f .LASF405
     /tmp/ccg8jNLS.s:645    .text:000000000000035c .LFB63
     /tmp/ccg8jNLS.s:805    .text:00000000000004c8 .LFE63
     /tmp/ccg8jNLS.s:16136  .debug_loc:0000000000001c40 .LLST27
     /tmp/ccg8jNLS.s:16158  .debug_loc:0000000000001c9f .LLST28
     /tmp/ccg8jNLS.s:16183  .debug_loc:0000000000001d01 .LLST29
     /tmp/ccg8jNLS.s:16208  .debug_loc:0000000000001d63 .LLST30
GAS LISTING /tmp/ccg8jNLS.s 			page 194


     /tmp/ccg8jNLS.s:689    .text:00000000000003b4 .LBB325
     /tmp/ccg8jNLS.s:696    .text:00000000000003bc .LBE325
     /tmp/ccg8jNLS.s:16233  .debug_loc:0000000000001dc5 .LLST31
     /tmp/ccg8jNLS.s:760    .text:000000000000047c .LVL64
     /tmp/ccg8jNLS.s:796    .text:00000000000004b8 .LVL68
     /tmp/ccg8jNLS.s:542    .text:00000000000002e4 .LFB61
     /tmp/ccg8jNLS.s:639    .text:000000000000035c .LFE61
     /tmp/ccg8jNLS.s:16242  .debug_loc:0000000000001dea .LLST19
     /tmp/ccg8jNLS.s:16260  .debug_loc:0000000000001e36 .LLST20
     /tmp/ccg8jNLS.s:563    .text:0000000000000304 .LBB315
     /tmp/ccg8jNLS.s:16267  .debug_loc:0000000000001e59 .LLST21
     /tmp/ccg8jNLS.s:16282  .debug_loc:0000000000001e93 .LLST22
     /tmp/ccg8jNLS.s:16293  .debug_loc:0000000000001ec9 .LLST23
     /tmp/ccg8jNLS.s:573    .text:0000000000000314 .LVL52
     /tmp/ccg8jNLS.s:577    .text:0000000000000314 .LBB318
     /tmp/ccg8jNLS.s:584    .text:0000000000000318 .LBE318
     /tmp/ccg8jNLS.s:16300  .debug_loc:0000000000001eec .LLST24
     /tmp/ccg8jNLS.s:16308  .debug_loc:0000000000001f10 .LLST25
     /tmp/ccg8jNLS.s:589    .text:0000000000000324 .LVL54
     /tmp/ccg8jNLS.s:594    .text:0000000000000324 .LBB321
     /tmp/ccg8jNLS.s:604    .text:0000000000000330 .LBE321
     /tmp/ccg8jNLS.s:16315  .debug_loc:0000000000001f33 .LLST26
     /tmp/ccg8jNLS.s:435    .text:0000000000000264 .LFB60
     /tmp/ccg8jNLS.s:536    .text:00000000000002e4 .LFE60
     /tmp/ccg8jNLS.s:17409  .debug_str:0000000000001726 .LASF377
     /tmp/ccg8jNLS.s:16324  .debug_loc:0000000000001f58 .LLST10
     /tmp/ccg8jNLS.s:440    .text:0000000000000264 .LBB304
     /tmp/ccg8jNLS.s:447    .text:0000000000000268 .LBE304
     /tmp/ccg8jNLS.s:16346  .debug_loc:0000000000001fb7 .LLST11
     /tmp/ccg8jNLS.s:470    .text:0000000000000294 .LBB306
     /tmp/ccg8jNLS.s:478    .text:000000000000029c .LBE306
     /tmp/ccg8jNLS.s:16353  .debug_loc:0000000000001fda .LLST12
     /tmp/ccg8jNLS.s:16361  .debug_loc:0000000000001ffe .LLST13
     /tmp/ccg8jNLS.s:480    .text:000000000000029c .LBB308
     /tmp/ccg8jNLS.s:16368  .debug_loc:0000000000002021 .LLST14
     /tmp/ccg8jNLS.s:16379  .debug_loc:0000000000002057 .LLST15
     /tmp/ccg8jNLS.s:487    .text:00000000000002a8 .LBB310
     /tmp/ccg8jNLS.s:494    .text:00000000000002b0 .LBE310
     /tmp/ccg8jNLS.s:16394  .debug_loc:0000000000002091 .LLST16
     /tmp/ccg8jNLS.s:16402  .debug_loc:00000000000020b5 .LLST17
     /tmp/ccg8jNLS.s:16409  .debug_loc:00000000000020d8 .LLST18
     /tmp/ccg8jNLS.s:486    .text:00000000000002a8 .LVL43
     /tmp/ccg8jNLS.s:59     .text:0000000000000040 .LFB59
     /tmp/ccg8jNLS.s:150    .text:0000000000000104 .LFE59
     /tmp/ccg8jNLS.s:75     .text:000000000000005c .LVL3
     /tmp/ccg8jNLS.s:107    .text:00000000000000a8 .LVL5
     /tmp/ccg8jNLS.s:126    .text:00000000000000c8 .LVL6
     /tmp/ccg8jNLS.s:147    .text:0000000000000100 .LVL7
     /tmp/ccg8jNLS.s:213    .text:0000000000000128 .LFB58
     /tmp/ccg8jNLS.s:429    .text:0000000000000264 .LFE58
     /tmp/ccg8jNLS.s:16416  .debug_loc:00000000000020fb .LLST2
     /tmp/ccg8jNLS.s:231    .text:0000000000000144 .LBB288
     /tmp/ccg8jNLS.s:239    .text:0000000000000148 .LBE288
     /tmp/ccg8jNLS.s:16427  .debug_loc:0000000000002131 .LLST3
     /tmp/ccg8jNLS.s:243    .text:000000000000014c .LBB290
     /tmp/ccg8jNLS.s:250    .text:0000000000000150 .LBE290
     /tmp/ccg8jNLS.s:16434  .debug_loc:0000000000002154 .LLST4
GAS LISTING /tmp/ccg8jNLS.s 			page 195


     /tmp/ccg8jNLS.s:280    .text:000000000000017c .LBB292
     /tmp/ccg8jNLS.s:287    .text:0000000000000180 .LBE292
     /tmp/ccg8jNLS.s:16441  .debug_loc:0000000000002177 .LLST5
     /tmp/ccg8jNLS.s:292    .text:0000000000000184 .LBB294
     /tmp/ccg8jNLS.s:305    .text:000000000000018c .LBE294
     /tmp/ccg8jNLS.s:16448  .debug_loc:000000000000219a .LLST6
     /tmp/ccg8jNLS.s:346    .text:00000000000001d4 .LBB296
     /tmp/ccg8jNLS.s:361    .text:00000000000001e0 .LBE296
     /tmp/ccg8jNLS.s:16457  .debug_loc:00000000000021c0 .LLST7
     /tmp/ccg8jNLS.s:373    .text:00000000000001fc .LBB298
     /tmp/ccg8jNLS.s:377    .text:00000000000001fc .LBE298
     /tmp/ccg8jNLS.s:398    .text:0000000000000234 .LBB300
     /tmp/ccg8jNLS.s:402    .text:0000000000000234 .LBE300
     /tmp/ccg8jNLS.s:418    .text:000000000000025c .LBB302
     /tmp/ccg8jNLS.s:425    .text:0000000000000260 .LBE302
     /tmp/ccg8jNLS.s:16466  .debug_loc:00000000000021e6 .LLST8
     /tmp/ccg8jNLS.s:16474  .debug_loc:000000000000220a .LLST9
     /tmp/ccg8jNLS.s:266    .text:0000000000000168 .LVL15
     /tmp/ccg8jNLS.s:275    .text:0000000000000174 .LVL16
     /tmp/ccg8jNLS.s:313    .text:00000000000001a0 .LVL21
     /tmp/ccg8jNLS.s:341    .text:00000000000001d0 .LVL24
     /tmp/ccg8jNLS.s:366    .text:00000000000001f0 .LVL27
     /tmp/ccg8jNLS.s:383    .text:0000000000000210 .LVL30
     /tmp/ccg8jNLS.s:388    .text:0000000000000220 .LVL31
     /tmp/ccg8jNLS.s:393    .text:0000000000000230 .LVL32
     /tmp/ccg8jNLS.s:408    .text:0000000000000248 .LVL34
     /tmp/ccg8jNLS.s:413    .text:0000000000000258 .LVL35
     /tmp/ccg8jNLS.s:156    .text:0000000000000104 .LFB57
     /tmp/ccg8jNLS.s:196    .text:0000000000000128 .LFE57
     /tmp/ccg8jNLS.s:167    .text:0000000000000110 .LBB286
     /tmp/ccg8jNLS.s:180    .text:0000000000000118 .LBE286
     /tmp/ccg8jNLS.s:16481  .debug_loc:000000000000222d .LLST1
     /tmp/ccg8jNLS.s:912    .text:000000000000056c .LFE56
     /tmp/ccg8jNLS.s:16489  .debug_loc:0000000000002251 .LLST32
     /tmp/ccg8jNLS.s:16518  .debug_loc:00000000000022c6 .LLST33
     /tmp/ccg8jNLS.s:16536  .debug_loc:0000000000002312 .LLST34
     /tmp/ccg8jNLS.s:16554  .debug_loc:000000000000235e .LLST35
     /tmp/ccg8jNLS.s:843    .text:00000000000004fc .LBB328
     /tmp/ccg8jNLS.s:856    .text:000000000000050c .LBE328
     /tmp/ccg8jNLS.s:16572  .debug_loc:00000000000023aa .LLST36
     /tmp/ccg8jNLS.s:851    .text:0000000000000508 .LVL72
     /tmp/ccg8jNLS.s:869    .text:0000000000000528 .LBB330
     /tmp/ccg8jNLS.s:883    .text:0000000000000540 .LBE330
     /tmp/ccg8jNLS.s:16581  .debug_loc:00000000000023cf .LLST37
     /tmp/ccg8jNLS.s:875    .text:0000000000000534 .LVL76
     /tmp/ccg8jNLS.s:863    .text:0000000000000520 .LVL74
     /tmp/ccg8jNLS.s:879    .text:0000000000000540 .LVL77
     /tmp/ccg8jNLS.s:16895  .debug_str:0000000000000773 .LASF378
     /tmp/ccg8jNLS.s:16867  .debug_str:00000000000006bc .LASF379
     /tmp/ccg8jNLS.s:17103  .debug_str:0000000000000d5a .LASF380
     /tmp/ccg8jNLS.s:17201  .debug_str:000000000000108c .LASF381
     /tmp/ccg8jNLS.s:17205  .debug_str:00000000000010b5 .LASF383
     /tmp/ccg8jNLS.s:16847  .debug_str:0000000000000626 .LASF382
     /tmp/ccg8jNLS.s:16879  .debug_str:0000000000000717 .LASF384
     /tmp/ccg8jNLS.s:17097  .debug_str:0000000000000d29 .LASF385
     /tmp/ccg8jNLS.s:16909  .debug_str:00000000000007d4 .LASF386
     /tmp/ccg8jNLS.s:17237  .debug_str:0000000000001185 .LASF387
GAS LISTING /tmp/ccg8jNLS.s 			page 196


     /tmp/ccg8jNLS.s:17075  .debug_str:0000000000000ca7 .LASF391
     /tmp/ccg8jNLS.s:17061  .debug_str:0000000000000c4c .LASF388
     /tmp/ccg8jNLS.s:17057  .debug_str:0000000000000c33 .LASF389
     /tmp/ccg8jNLS.s:16745  .debug_str:0000000000000304 .LASF390
     /tmp/ccg8jNLS.s:16783  .debug_str:0000000000000456 .LASF392
     /tmp/ccg8jNLS.s:16679  .debug_str:000000000000012d .LASF393
     /tmp/ccg8jNLS.s:37     .text:000000000000002c .LVL1
     /tmp/ccg8jNLS.s:46     .text:000000000000003c .LVL2
     /tmp/ccg8jNLS.s:4566   .text:0000000000001eb8 .LVL463
     /tmp/ccg8jNLS.s:4588   .text:0000000000001ed8 .LVL466
     /tmp/ccg8jNLS.s:4582   .text:0000000000001ed0 .LVL465
     /tmp/ccg8jNLS.s:4596   .text:0000000000001edc .LVL467
     /tmp/ccg8jNLS.s:4617   .text:0000000000001ef8 .LVL470
     /tmp/ccg8jNLS.s:4611   .text:0000000000001ef0 .LVL469
     /tmp/ccg8jNLS.s:4853   .text:00000000000020a8 .LVL494
     /tmp/ccg8jNLS.s:4857   .text:00000000000020ac .LVL495
     /tmp/ccg8jNLS.s:4867   .text:00000000000020bc .LVL496
     /tmp/ccg8jNLS.s:4873   .text:00000000000020c8 .LVL497
     /tmp/ccg8jNLS.s:4656   .text:0000000000001f10 .LVL471
     /tmp/ccg8jNLS.s:4697   .text:0000000000001f74 .LVL476
     /tmp/ccg8jNLS.s:4732   .text:0000000000001fa4 .LVL481
     /tmp/ccg8jNLS.s:4717   .text:0000000000001f8c .LVL479
     /tmp/ccg8jNLS.s:4723   .text:0000000000001f98 .LVL480
     /tmp/ccg8jNLS.s:4278   .text:0000000000001ce4 .LVL438
     /tmp/ccg8jNLS.s:4300   .text:0000000000001d04 .LVL441
     /tmp/ccg8jNLS.s:4294   .text:0000000000001cfc .LVL440
     /tmp/ccg8jNLS.s:4309   .text:0000000000001d10 .LVL442
     /tmp/ccg8jNLS.s:4330   .text:0000000000001d2c .LVL445
     /tmp/ccg8jNLS.s:4324   .text:0000000000001d24 .LVL444
     /tmp/ccg8jNLS.s:4338   .text:0000000000001d30 .LVL446
     /tmp/ccg8jNLS.s:4359   .text:0000000000001d4c .LVL449
     /tmp/ccg8jNLS.s:4353   .text:0000000000001d44 .LVL448
     /tmp/ccg8jNLS.s:4133   .text:0000000000001bc4 .LVL422
     /tmp/ccg8jNLS.s:4150   .text:0000000000001be8 .LVL423
     /tmp/ccg8jNLS.s:4176   .text:0000000000001c30 .LVL428
     /tmp/ccg8jNLS.s:4241   .text:0000000000001cb0 .LVL437
     /tmp/ccg8jNLS.s:4197   .text:0000000000001c4c .LVL431
     /tmp/ccg8jNLS.s:4204   .text:0000000000001c5c .LVL432
     /tmp/ccg8jNLS.s:3998   .text:0000000000001acc .LVL406
     /tmp/ccg8jNLS.s:4016   .text:0000000000001af4 .LVL407
     /tmp/ccg8jNLS.s:4046   .text:0000000000001b44 .LVL413
     /tmp/ccg8jNLS.s:4089   .text:0000000000001b8c .LVL419
     /tmp/ccg8jNLS.s:4067   .text:0000000000001b60 .LVL416
     /tmp/ccg8jNLS.s:4074   .text:0000000000001b70 .LVL417
     /tmp/ccg8jNLS.s:4495   .text:0000000000001e38 .LVL459
     /tmp/ccg8jNLS.s:4400   .text:0000000000001d6c .LVL450
     /tmp/ccg8jNLS.s:3739   .text:0000000000001954 .LVL383
     /tmp/ccg8jNLS.s:3761   .text:0000000000001974 .LVL386
     /tmp/ccg8jNLS.s:3755   .text:000000000000196c .LVL385
     /tmp/ccg8jNLS.s:3769   .text:0000000000001978 .LVL387
     /tmp/ccg8jNLS.s:3790   .text:0000000000001994 .LVL390
     /tmp/ccg8jNLS.s:3784   .text:000000000000198c .LVL389
     /tmp/ccg8jNLS.s:3798   .text:0000000000001998 .LVL391
     /tmp/ccg8jNLS.s:3819   .text:00000000000019b4 .LVL394
     /tmp/ccg8jNLS.s:3813   .text:00000000000019ac .LVL393
     /tmp/ccg8jNLS.s:3852   .text:00000000000019cc .LVL395
     /tmp/ccg8jNLS.s:3223   .text:0000000000001550 .LVL326
GAS LISTING /tmp/ccg8jNLS.s 			page 197


     /tmp/ccg8jNLS.s:3245   .text:0000000000001570 .LVL329
     /tmp/ccg8jNLS.s:3239   .text:0000000000001568 .LVL328
     /tmp/ccg8jNLS.s:3254   .text:000000000000157c .LVL330
     /tmp/ccg8jNLS.s:3276   .text:000000000000159c .LVL333
     /tmp/ccg8jNLS.s:3270   .text:0000000000001594 .LVL332
     /tmp/ccg8jNLS.s:3284   .text:00000000000015a0 .LVL334
     /tmp/ccg8jNLS.s:3305   .text:00000000000015bc .LVL337
     /tmp/ccg8jNLS.s:3299   .text:00000000000015b4 .LVL336
     /tmp/ccg8jNLS.s:3313   .text:00000000000015c0 .LVL338
     /tmp/ccg8jNLS.s:3334   .text:00000000000015dc .LVL341
     /tmp/ccg8jNLS.s:3328   .text:00000000000015d4 .LVL340
     /tmp/ccg8jNLS.s:3060   .text:00000000000013f8 .LVL312
     /tmp/ccg8jNLS.s:3084   .text:0000000000001430 .LVL313
     /tmp/ccg8jNLS.s:3174   .text:0000000000001500 .LVL321
     /tmp/ccg8jNLS.s:3183   .text:0000000000001510 .LVL323
     /tmp/ccg8jNLS.s:3177   .text:0000000000001504 .LVL322
     /tmp/ccg8jNLS.s:3558   .text:00000000000017a8 .LVL364
     /tmp/ccg8jNLS.s:3575   .text:00000000000017cc .LVL365
     /tmp/ccg8jNLS.s:3693   .text:0000000000001908 .LVL381
     /tmp/ccg8jNLS.s:3396   .text:0000000000001630 .LVL345
     /tmp/ccg8jNLS.s:3413   .text:0000000000001654 .LVL346
     /tmp/ccg8jNLS.s:3531   .text:0000000000001790 .LVL362
     /tmp/ccg8jNLS.s:2529   .text:0000000000001040 .LVL251
     /tmp/ccg8jNLS.s:2547   .text:0000000000001058 .LVL253
     /tmp/ccg8jNLS.s:2572   .text:000000000000107c .LVL257
     /tmp/ccg8jNLS.s:2577   .text:0000000000001084 .LVL258
     /tmp/ccg8jNLS.s:2621   .text:00000000000010c4 .LVL263
     /tmp/ccg8jNLS.s:2600   .text:00000000000010a0 .LVL261
     /tmp/ccg8jNLS.s:2594   .text:0000000000001098 .LVL260
     /tmp/ccg8jNLS.s:2661   .text:0000000000001104 .LVL268
     /tmp/ccg8jNLS.s:2663   .text:0000000000001108 .LVL269
     /tmp/ccg8jNLS.s:2674   .text:0000000000001114 .LVL270
     /tmp/ccg8jNLS.s:2627   .text:00000000000010cc .LVL264
     /tmp/ccg8jNLS.s:2649   .text:00000000000010ec .LVL267
     /tmp/ccg8jNLS.s:2643   .text:00000000000010e4 .LVL266
     /tmp/ccg8jNLS.s:2541   .text:0000000000001054 .LVL252
     /tmp/ccg8jNLS.s:2564   .text:0000000000001074 .LVL256
     /tmp/ccg8jNLS.s:2558   .text:000000000000106c .LVL255
     /tmp/ccg8jNLS.s:2870   .text:0000000000001268 .LVL289
     /tmp/ccg8jNLS.s:2897   .text:00000000000012a0 .LVL290
     /tmp/ccg8jNLS.s:2903   .text:00000000000012ac .LVL291
     /tmp/ccg8jNLS.s:2914   .text:00000000000012c4 .LVL293
     /tmp/ccg8jNLS.s:2954   .text:0000000000001318 .LVL300
     /tmp/ccg8jNLS.s:2973   .text:0000000000001348 .LVL302
     /tmp/ccg8jNLS.s:3024   .text:00000000000013d0 .LVL309
     /tmp/ccg8jNLS.s:2947   .text:000000000000130c .LVL298
     /tmp/ccg8jNLS.s:2951   .text:0000000000001314 .LVL299
     /tmp/ccg8jNLS.s:3035   .text:00000000000013dc .LVL310
     /tmp/ccg8jNLS.s:3042   .text:00000000000013e8 .LVL311
     /tmp/ccg8jNLS.s:2696   .text:000000000000111c .LVL271
     /tmp/ccg8jNLS.s:2717   .text:0000000000001148 .LVL272
     /tmp/ccg8jNLS.s:2722   .text:0000000000001150 .LVL273
     /tmp/ccg8jNLS.s:2733   .text:0000000000001168 .LVL275
     /tmp/ccg8jNLS.s:2846   .text:000000000000125c .LVL288
     /tmp/ccg8jNLS.s:2762   .text:000000000000119c .LVL279
     /tmp/ccg8jNLS.s:2826   .text:0000000000001244 .LVL286
     /tmp/ccg8jNLS.s:2831   .text:000000000000124c .LVL287
GAS LISTING /tmp/ccg8jNLS.s 			page 198


     /tmp/ccg8jNLS.s:2343   .text:0000000000000f08 .LVL236
     /tmp/ccg8jNLS.s:2365   .text:0000000000000f28 .LVL239
     /tmp/ccg8jNLS.s:2359   .text:0000000000000f20 .LVL238
     /tmp/ccg8jNLS.s:2373   .text:0000000000000f2c .LVL240
     /tmp/ccg8jNLS.s:2394   .text:0000000000000f48 .LVL243
     /tmp/ccg8jNLS.s:2388   .text:0000000000000f40 .LVL242
     /tmp/ccg8jNLS.s:2234   .text:0000000000000e5c .LVL229
     /tmp/ccg8jNLS.s:2272   .text:0000000000000ea0 .LVL231
     /tmp/ccg8jNLS.s:2303   .text:0000000000000ec8 .LVL235
     /tmp/ccg8jNLS.s:2266   .text:0000000000000e9c .LVL230
     /tmp/ccg8jNLS.s:2288   .text:0000000000000eb8 .LVL234
     /tmp/ccg8jNLS.s:2282   .text:0000000000000eb0 .LVL233
     /tmp/ccg8jNLS.s:2120   .text:0000000000000dc8 .LVL215
     /tmp/ccg8jNLS.s:2139   .text:0000000000000dec .LVL216
     /tmp/ccg8jNLS.s:2160   .text:0000000000000e0c .LVL220
     /tmp/ccg8jNLS.s:2174   .text:0000000000000e18 .LVL222
     /tmp/ccg8jNLS.s:2220   .text:0000000000000e54 .LVL228
     /tmp/ccg8jNLS.s:2144   .text:0000000000000df0 .LVL217
     /tmp/ccg8jNLS.s:2158   .text:0000000000000e08 .LVL219
     /tmp/ccg8jNLS.s:2201   .text:0000000000000e3c .LVL226
     /tmp/ccg8jNLS.s:2217   .text:0000000000000e50 .LVL227
     /tmp/ccg8jNLS.s:2168   .text:0000000000000e14 .LVL221
     /tmp/ccg8jNLS.s:2190   .text:0000000000000e30 .LVL225
     /tmp/ccg8jNLS.s:2184   .text:0000000000000e28 .LVL224
     /tmp/ccg8jNLS.s:1864   .text:0000000000000c44 .LVL189
     /tmp/ccg8jNLS.s:1895   .text:0000000000000c74 .LVL191
     /tmp/ccg8jNLS.s:1956   .text:0000000000000cc0 .LVL199
     /tmp/ccg8jNLS.s:1889   .text:0000000000000c70 .LVL190
     /tmp/ccg8jNLS.s:1911   .text:0000000000000c8c .LVL194
     /tmp/ccg8jNLS.s:1905   .text:0000000000000c84 .LVL193
     /tmp/ccg8jNLS.s:1919   .text:0000000000000c90 .LVL195
     /tmp/ccg8jNLS.s:1941   .text:0000000000000cb0 .LVL198
     /tmp/ccg8jNLS.s:1935   .text:0000000000000ca8 .LVL197
     /tmp/ccg8jNLS.s:2053   .text:0000000000000d4c .LVL207
     /tmp/ccg8jNLS.s:2103   .text:0000000000000dbc .LVL213
     /tmp/ccg8jNLS.s:2106   .text:0000000000000dc0 .LVL214
     /tmp/ccg8jNLS.s:2015   .text:0000000000000d28 .LVL204
     /tmp/ccg8jNLS.s:2031   .text:0000000000000d44 .LVL206
     /tmp/ccg8jNLS.s:1717   .text:0000000000000b90 .LVL174
     /tmp/ccg8jNLS.s:1766   .text:0000000000000bc8 .LVL180
     /tmp/ccg8jNLS.s:1776   .text:0000000000000bdc .LVL181
     /tmp/ccg8jNLS.s:1727   .text:0000000000000b9c .LVL175
     /tmp/ccg8jNLS.s:1739   .text:0000000000000ba8 .LVL177
     /tmp/ccg8jNLS.s:1759   .text:0000000000000bc4 .LVL179
     /tmp/ccg8jNLS.s:1786   .text:0000000000000be8 .LVL182
     /tmp/ccg8jNLS.s:1793   .text:0000000000000bf0 .LVL183
     /tmp/ccg8jNLS.s:1819   .text:0000000000000c18 .LVL186
     /tmp/ccg8jNLS.s:1838   .text:0000000000000c30 .LVL187
     /tmp/ccg8jNLS.s:1848   .text:0000000000000c40 .LVL188
     /tmp/ccg8jNLS.s:1808   .text:0000000000000c04 .LVL185
     /tmp/ccg8jNLS.s:1424   .text:00000000000008c4 .LVL139
     /tmp/ccg8jNLS.s:1443   .text:00000000000008ec .LVL140
     /tmp/ccg8jNLS.s:1603   .text:0000000000000a94 .LVL165
     /tmp/ccg8jNLS.s:1169   .text:0000000000000668 .LVL104
     /tmp/ccg8jNLS.s:1188   .text:0000000000000690 .LVL105
     /tmp/ccg8jNLS.s:1348   .text:0000000000000838 .LVL130
     /tmp/ccg8jNLS.s:981    .text:00000000000005a0 .LVL84
GAS LISTING /tmp/ccg8jNLS.s 			page 199


     /tmp/ccg8jNLS.s:1004   .text:00000000000005c0 .LVL87
     /tmp/ccg8jNLS.s:998    .text:00000000000005b8 .LVL86
     /tmp/ccg8jNLS.s:1013   .text:00000000000005cc .LVL88
     /tmp/ccg8jNLS.s:1035   .text:00000000000005ec .LVL91
     /tmp/ccg8jNLS.s:1029   .text:00000000000005e4 .LVL90
     /tmp/ccg8jNLS.s:1043   .text:00000000000005f0 .LVL92
     /tmp/ccg8jNLS.s:1064   .text:000000000000060c .LVL95
     /tmp/ccg8jNLS.s:1058   .text:0000000000000604 .LVL94
     /tmp/ccg8jNLS.s:1072   .text:0000000000000610 .LVL96
     /tmp/ccg8jNLS.s:1093   .text:000000000000062c .LVL99
     /tmp/ccg8jNLS.s:1087   .text:0000000000000624 .LVL98
     /tmp/ccg8jNLS.s:1101   .text:0000000000000630 .LVL100
     /tmp/ccg8jNLS.s:1122   .text:000000000000064c .LVL103
     /tmp/ccg8jNLS.s:1116   .text:0000000000000644 .LVL102
     /tmp/ccg8jNLS.s:941    .text:000000000000056c .LVL82
     /tmp/ccg8jNLS.s:951    .text:000000000000057c .LVL83
     /tmp/ccg8jNLS.s:648    .text:000000000000035c .LVL59
     /tmp/ccg8jNLS.s:744    .text:0000000000000450 .LVL63
     /tmp/ccg8jNLS.s:772    .text:0000000000000488 .LVL65
     /tmp/ccg8jNLS.s:778    .text:0000000000000494 .LVL66
     /tmp/ccg8jNLS.s:677    .text:000000000000039c .LVL60
     /tmp/ccg8jNLS.s:788    .text:00000000000004a0 .LVL67
     /tmp/ccg8jNLS.s:688    .text:00000000000003b4 .LVL61
     /tmp/ccg8jNLS.s:694    .text:00000000000003bc .LVL62
     /tmp/ccg8jNLS.s:545    .text:00000000000002e4 .LVL49
     /tmp/ccg8jNLS.s:560    .text:0000000000000304 .LVL50
     /tmp/ccg8jNLS.s:634    .text:0000000000000354 .LVL58
     /tmp/ccg8jNLS.s:609    .text:0000000000000334 .LVL56
     /tmp/ccg8jNLS.s:619    .text:0000000000000344 .LVL57
     /tmp/ccg8jNLS.s:570    .text:000000000000030c .LVL51
     /tmp/ccg8jNLS.s:582    .text:0000000000000318 .LVL53
     /tmp/ccg8jNLS.s:602    .text:0000000000000330 .LVL55
     /tmp/ccg8jNLS.s:438    .text:0000000000000264 .LVL38
     /tmp/ccg8jNLS.s:484    .text:00000000000002a0 .LVL42
     /tmp/ccg8jNLS.s:516    .text:00000000000002cc .LVL46
     /tmp/ccg8jNLS.s:522    .text:00000000000002d8 .LVL47
     /tmp/ccg8jNLS.s:445    .text:0000000000000268 .LVL39
     /tmp/ccg8jNLS.s:469    .text:0000000000000294 .LVL40
     /tmp/ccg8jNLS.s:476    .text:000000000000029c .LVL41
     /tmp/ccg8jNLS.s:503    .text:00000000000002c0 .LVL45
     /tmp/ccg8jNLS.s:530    .text:00000000000002e0 .LVL48
     /tmp/ccg8jNLS.s:492    .text:00000000000002b0 .LVL44
     /tmp/ccg8jNLS.s:229    .text:0000000000000144 .LVL10
     /tmp/ccg8jNLS.s:320    .text:00000000000001b0 .LVL22
     /tmp/ccg8jNLS.s:334    .text:00000000000001c4 .LVL23
     /tmp/ccg8jNLS.s:370    .text:00000000000001f8 .LVL28
     /tmp/ccg8jNLS.s:237    .text:0000000000000148 .LVL11
     /tmp/ccg8jNLS.s:242    .text:000000000000014c .LVL12
     /tmp/ccg8jNLS.s:248    .text:0000000000000150 .LVL13
     /tmp/ccg8jNLS.s:279    .text:000000000000017c .LVL17
     /tmp/ccg8jNLS.s:285    .text:0000000000000180 .LVL18
     /tmp/ccg8jNLS.s:291    .text:0000000000000184 .LVL19
     /tmp/ccg8jNLS.s:301    .text:000000000000018c .LVL20
     /tmp/ccg8jNLS.s:345    .text:00000000000001d4 .LVL25
     /tmp/ccg8jNLS.s:358    .text:00000000000001e0 .LVL26
     /tmp/ccg8jNLS.s:417    .text:000000000000025c .LVL36
     /tmp/ccg8jNLS.s:423    .text:0000000000000260 .LVL37
GAS LISTING /tmp/ccg8jNLS.s 			page 200


     /tmp/ccg8jNLS.s:166    .text:0000000000000110 .LVL8
     /tmp/ccg8jNLS.s:177    .text:0000000000000118 .LVL9
     /tmp/ccg8jNLS.s:818    .text:00000000000004c8 .LVL69
     /tmp/ccg8jNLS.s:848    .text:0000000000000500 .LVL71
     /tmp/ccg8jNLS.s:868    .text:0000000000000528 .LVL75
     /tmp/ccg8jNLS.s:898    .text:0000000000000558 .LVL78
     /tmp/ccg8jNLS.s:901    .text:000000000000055c .LVL79
     /tmp/ccg8jNLS.s:904    .text:0000000000000560 .LVL80
     /tmp/ccg8jNLS.s:907    .text:0000000000000564 .LVL81
     /tmp/ccg8jNLS.s:842    .text:00000000000004fc .LVL70
     /tmp/ccg8jNLS.s:854    .text:000000000000050c .LVL73
     /tmp/ccg8jNLS.s:5223   .debug_info:0000000000000000 .Ldebug_info0
     /tmp/ccg8jNLS.s:506    .text:00000000000002c0 .LBE308
     /tmp/ccg8jNLS.s:525    .text:00000000000002d8 .LBB313
     /tmp/ccg8jNLS.s:532    .text:00000000000002e0 .LBE313
     /tmp/ccg8jNLS.s:562    .text:0000000000000304 .LBB314
     /tmp/ccg8jNLS.s:591    .text:0000000000000324 .LBE314
     /tmp/ccg8jNLS.s:607    .text:0000000000000334 .LBB323
     /tmp/ccg8jNLS.s:623    .text:0000000000000344 .LBE323
     /tmp/ccg8jNLS.s:575    .text:0000000000000314 .LBE315
     /tmp/ccg8jNLS.s:610    .text:0000000000000334 .LBB320
     /tmp/ccg8jNLS.s:622    .text:0000000000000344 .LBE320
     /tmp/ccg8jNLS.s:1719   .text:0000000000000b90 .LBB364
     /tmp/ccg8jNLS.s:1748   .text:0000000000000bb4 .LBE364
     /tmp/ccg8jNLS.s:1764   .text:0000000000000bc8 .LBB373
     /tmp/ccg8jNLS.s:1780   .text:0000000000000bdc .LBE373
     /tmp/ccg8jNLS.s:1732   .text:0000000000000ba4 .LBE365
     /tmp/ccg8jNLS.s:1767   .text:0000000000000bc8 .LBB370
     /tmp/ccg8jNLS.s:1779   .text:0000000000000bdc .LBE370
     /tmp/ccg8jNLS.s:1822   .text:0000000000000c18 .LBE376
     /tmp/ccg8jNLS.s:1842   .text:0000000000000c30 .LBB381
     /tmp/ccg8jNLS.s:1850   .text:0000000000000c40 .LBE381
     /tmp/ccg8jNLS.s:2737   .text:0000000000001168 .LBB442
     /tmp/ccg8jNLS.s:2758   .text:0000000000001198 .LBE442
     /tmp/ccg8jNLS.s:2827   .text:0000000000001244 .LBB443
     /tmp/ccg8jNLS.s:2833   .text:000000000000124c .LBE443
     /tmp/ccg8jNLS.s:915    .gcc_except_table:0000000000000000 .LLSDA56

UNDEFINED SYMBOLS
_ZN5Riscv10popSppSpieEv
_Z11thread_exitv
_ZN11Semaphore_k6signalEv
_ZdlPv
_ZN9Scheduler3getEv
_ZN3TCB13contextSwitchEPNS_7ContextES1_
_ZN9Scheduler3putEP3TCB
_Z11printStringPKc
_Z8printIntiii
_Znwm
_ZN11Semaphore_k4waitEv
_ZN15memoryAllocator9mem_allocEm
_ZN15memoryAllocator8mem_freeEPv
_Unwind_Resume
__gxx_personality_v0
_Z15thread_dispatchv
_Znam
