GAS LISTING /tmp/ccCnP6rB.s 			page 1


   1              		.file	"Test8.cpp"
   2              		.option pic
   3              		.option norelax
   4              		.text
   5              	.Ltext0:
   6              		.section	.rodata.str1.8,"aMS",@progbits,1
   7              		.align	3
   8              	.LC0:
   9 0000 43206F62 		.string	"C obrada...\n "
   9      72616461 
   9      2E2E2E0A 
   9      2000
  10 000e 0000     		.align	3
  11              	.LC1:
  12 0010 0A00     		.string	"\n"
  13 0012 00000000 		.align	3
  13      0000
  14              	.LC2:
  15 0018 43207A61 		.string	"C zavrsila \n"
  15      76727369 
  15      6C61200A 
  15      00
  16              		.text
  17              		.align	2
  18              		.globl	_ZN2C43runEv
  20              	_ZN2C43runEv:
  21              	.LFB47:
  22              		.file 1 "test/Test8.cpp"
   1:test/Test8.cpp **** //
   2:test/Test8.cpp **** // Created by os on 9/19/24.
   3:test/Test8.cpp **** //
   4:test/Test8.cpp **** 
   5:test/Test8.cpp **** #include "Test8.hpp"
   6:test/Test8.cpp **** #include "../h/syscall_cpp.hpp"
   7:test/Test8.cpp **** #include "printing.hpp"
   8:test/Test8.cpp **** 
   9:test/Test8.cpp **** static int ID=1;
  10:test/Test8.cpp **** static int X=13;
  11:test/Test8.cpp **** class A1:public Thread{
  12:test/Test8.cpp ****     int id;
  13:test/Test8.cpp ****     int type;
  14:test/Test8.cpp ****     //0-man
  15:test/Test8.cpp ****     //1-woman
  16:test/Test8.cpp **** public:
  17:test/Test8.cpp ****     A1(int t):Thread(),id(ID++),type(t){
  18:test/Test8.cpp ****         printString("Nit kreirana - id: ");
  19:test/Test8.cpp ****         printInt(id);
  20:test/Test8.cpp ****         printString("\n");
  21:test/Test8.cpp ****     }
  22:test/Test8.cpp **** protected:
  23:test/Test8.cpp ****     void run() override;
  24:test/Test8.cpp **** };
  25:test/Test8.cpp **** 
  26:test/Test8.cpp **** void A1::run() {
  27:test/Test8.cpp ****     for(int m=0;m<3;m++){
  28:test/Test8.cpp ****         printString("Nit, pocetak wrappera- id: ");
  29:test/Test8.cpp ****         printInt(id);
GAS LISTING /tmp/ccCnP6rB.s 			page 2


  30:test/Test8.cpp ****         printString("\n");
  31:test/Test8.cpp ****         printString("Iteracija: ");
  32:test/Test8.cpp ****         printInt(m);
  33:test/Test8.cpp ****         printString("\n");
  34:test/Test8.cpp ****         for(int i=0;i<1000;i++){
  35:test/Test8.cpp ****             for(int j=0;j<1000;j++){}
  36:test/Test8.cpp ****             thread_dispatch();
  37:test/Test8.cpp ****         }
  38:test/Test8.cpp ****         printString("Nit - id: ");
  39:test/Test8.cpp ****         printInt(id);
  40:test/Test8.cpp ****         printString("\n");
  41:test/Test8.cpp ****         printString("Iteracija: ");
  42:test/Test8.cpp ****         printInt(m);
  43:test/Test8.cpp ****         printString("\n");
  44:test/Test8.cpp ****         if(type){
  45:test/Test8.cpp ****             woman(id);
  46:test/Test8.cpp ****         }else if(type==0){
  47:test/Test8.cpp ****             man(id);
  48:test/Test8.cpp ****         }
  49:test/Test8.cpp ****         thread_dispatch();
  50:test/Test8.cpp ****         printString("Jedna itercija gotova\n");
  51:test/Test8.cpp ****     }
  52:test/Test8.cpp **** 
  53:test/Test8.cpp **** }
  54:test/Test8.cpp **** void test8(){
  55:test/Test8.cpp ****     A1* niz[X];
  56:test/Test8.cpp ****     for(int i=0;i<X;i++){
  57:test/Test8.cpp ****         if(i%3==0){
  58:test/Test8.cpp ****             niz[i]=new A1(0);
  59:test/Test8.cpp ****         }else{
  60:test/Test8.cpp ****             niz[i]=new A1(1);
  61:test/Test8.cpp ****         }
  62:test/Test8.cpp ****     }
  63:test/Test8.cpp ****     for(auto nit:niz){
  64:test/Test8.cpp ****         nit->start();
  65:test/Test8.cpp ****     }
  66:test/Test8.cpp **** 
  67:test/Test8.cpp ****     for(auto nit:niz){
  68:test/Test8.cpp ****         nit->join();
  69:test/Test8.cpp ****     }
  70:test/Test8.cpp ****     for(auto nit:niz){
  71:test/Test8.cpp ****         delete nit;
  72:test/Test8.cpp ****     }
  73:test/Test8.cpp ****     printString("TEST 8 - unisex WC gotov\n");
  74:test/Test8.cpp **** };
  75:test/Test8.cpp **** 
  76:test/Test8.cpp **** 
  77:test/Test8.cpp **** //BARIJERA - 1. nacin preko liste
  78:test/Test8.cpp **** static int IDD=1;
  79:test/Test8.cpp **** 
  80:test/Test8.cpp **** class A2:public Thread{
  81:test/Test8.cpp ****     int id;
  82:test/Test8.cpp **** public:
  83:test/Test8.cpp ****     A2():Thread(),id(IDD++){
  84:test/Test8.cpp ****         printString("Nit A kreirana\n");
  85:test/Test8.cpp ****     }
  86:test/Test8.cpp **** protected:
GAS LISTING /tmp/ccCnP6rB.s 			page 3


  87:test/Test8.cpp ****     void run() override;
  88:test/Test8.cpp **** };
  89:test/Test8.cpp **** 
  90:test/Test8.cpp **** void A2::run(){
  91:test/Test8.cpp ****     for(int m=0;m<3;m++){
  92:test/Test8.cpp ****         printString("Pocetak wrappera - nit id: ");
  93:test/Test8.cpp ****         printInt(id);
  94:test/Test8.cpp ****         printString(" i iteracija ");
  95:test/Test8.cpp ****         printInt(m);
  96:test/Test8.cpp ****         printString(". Obrada...\n");
  97:test/Test8.cpp ****         for(int i=0;i<1000;i++){
  98:test/Test8.cpp ****             for(int j=0;j<10000;j++){
  99:test/Test8.cpp **** 
 100:test/Test8.cpp ****             }
 101:test/Test8.cpp ****             thread_dispatch();
 102:test/Test8.cpp ****         }
 103:test/Test8.cpp ****         printString("Nit id: ");
 104:test/Test8.cpp ****         printInt(id);
 105:test/Test8.cpp ****         printString(" poziva barijeru, iteracija: ");
 106:test/Test8.cpp ****         printInt(m);
 107:test/Test8.cpp ****         printString("\n");
 108:test/Test8.cpp ****         barrier();
 109:test/Test8.cpp ****         printString("Nit id: ");
 110:test/Test8.cpp ****         printInt(id);
 111:test/Test8.cpp ****         printString(" prosla barijeru, iteracija: ");
 112:test/Test8.cpp ****         printInt(m);
 113:test/Test8.cpp ****         printString("\n");
 114:test/Test8.cpp ****     }
 115:test/Test8.cpp ****     printString("Gotove sve tri iteracije\n");
 116:test/Test8.cpp ****     printString("Nit id: ");
 117:test/Test8.cpp ****     printInt(id);
 118:test/Test8.cpp ****     printString("\n");
 119:test/Test8.cpp **** }
 120:test/Test8.cpp **** 
 121:test/Test8.cpp **** void testBarijera(){
 122:test/Test8.cpp ****     A2* niti[6];
 123:test/Test8.cpp ****     for(auto & nit:niti){
 124:test/Test8.cpp ****         nit = new A2();
 125:test/Test8.cpp ****     }
 126:test/Test8.cpp ****     for(auto & nit:niti){
 127:test/Test8.cpp ****         nit->start();
 128:test/Test8.cpp ****     }
 129:test/Test8.cpp ****     for(auto & nit:niti){
 130:test/Test8.cpp ****         nit->join();
 131:test/Test8.cpp ****     }
 132:test/Test8.cpp ****     for(auto & nit:niti){
 133:test/Test8.cpp ****         delete nit;
 134:test/Test8.cpp ****     }
 135:test/Test8.cpp ****     printString("TEST 8 - sinhronizacija na BARIJERI uspesno zavrsen\n");
 136:test/Test8.cpp **** }
 137:test/Test8.cpp **** 
 138:test/Test8.cpp **** //Barijera 2. nacin preko semafora
 139:test/Test8.cpp **** int z = 1;
 140:test/Test8.cpp **** class A6:public Thread{
 141:test/Test8.cpp ****     int id;
 142:test/Test8.cpp **** public:
 143:test/Test8.cpp ****     A6():Thread(),id(z++){
GAS LISTING /tmp/ccCnP6rB.s 			page 4


 144:test/Test8.cpp ****         printString("Nit id - ");
 145:test/Test8.cpp ****         printInt(id);
 146:test/Test8.cpp ****         printString(" kreirana\n");
 147:test/Test8.cpp ****     }
 148:test/Test8.cpp **** protected:
 149:test/Test8.cpp ****     void run() override;
 150:test/Test8.cpp **** };
 151:test/Test8.cpp **** 
 152:test/Test8.cpp **** void A6::run() {
 153:test/Test8.cpp ****     for(int i=0;i<3;i++){
 154:test/Test8.cpp **** 
 155:test/Test8.cpp ****         printString("Nit id - ");
 156:test/Test8.cpp ****         printInt(id);
 157:test/Test8.cpp ****         printString(" i pocetak obrade, iteracija: ");
 158:test/Test8.cpp ****         printInt(i);
 159:test/Test8.cpp ****         printString("\n");
 160:test/Test8.cpp ****         for(int j=0;j<10000;j++){
 161:test/Test8.cpp ****             for(int k=0;k<1000;k++){}
 162:test/Test8.cpp ****             thread_dispatch();
 163:test/Test8.cpp ****         }
 164:test/Test8.cpp ****         printString("Nit id - ");
 165:test/Test8.cpp ****         printInt(id);
 166:test/Test8.cpp ****         printString(" poziva barijeru, iteracija: ");
 167:test/Test8.cpp ****         printInt(i);
 168:test/Test8.cpp ****         printString("\n");
 169:test/Test8.cpp ****         Thread::barrier_2();
 170:test/Test8.cpp ****         printString("Nit id - ");
 171:test/Test8.cpp ****         printInt(id);
 172:test/Test8.cpp ****         printString(" prosla barijeru, iteracija: ");
 173:test/Test8.cpp ****         printInt(i);
 174:test/Test8.cpp ****         printString("\n");
 175:test/Test8.cpp **** 
 176:test/Test8.cpp ****     }
 177:test/Test8.cpp ****     printString("Nit id - ");
 178:test/Test8.cpp ****     printInt(id);
 179:test/Test8.cpp ****     printString(" zavrsila\n");
 180:test/Test8.cpp **** }
 181:test/Test8.cpp **** void testBarijera2(){
 182:test/Test8.cpp ****     A6* niz[10];
 183:test/Test8.cpp ****     for(auto & nit:niz){
 184:test/Test8.cpp ****         nit = new A6();
 185:test/Test8.cpp ****     }
 186:test/Test8.cpp ****     for(auto& nit : niz){
 187:test/Test8.cpp ****         nit->start();
 188:test/Test8.cpp ****     }
 189:test/Test8.cpp ****     for(auto& nit : niz){
 190:test/Test8.cpp ****         nit->join();
 191:test/Test8.cpp ****     }
 192:test/Test8.cpp ****     for(auto& nit : niz){
 193:test/Test8.cpp ****         delete nit;
 194:test/Test8.cpp ****     }
 195:test/Test8.cpp ****     printString("Test 8 - blokiranje na barijeri sa dvojakim vratima- USPESNO ZAVRSEN\n");
 196:test/Test8.cpp **** }
 197:test/Test8.cpp **** 
 198:test/Test8.cpp **** //SEND - RECEIVE
 199:test/Test8.cpp **** //POZIVAJUCA NIT - ona u cijem run wrapperu se poziva nit->send() se suspednuje ako nit nije primil
 200:test/Test8.cpp **** //neku poruku a poslata joj je
GAS LISTING /tmp/ccCnP6rB.s 			page 5


 201:test/Test8.cpp **** //POZIVAJUCA NIT - ona u cijem kontekstu se zove receive() se suspenduje ako nema poruka
 202:test/Test8.cpp **** int IDd=1;
 203:test/Test8.cpp **** 
 204:test/Test8.cpp **** class A3:public Thread{
 205:test/Test8.cpp ****     int id;
 206:test/Test8.cpp **** 
 207:test/Test8.cpp ****     Thread* toSend1;
 208:test/Test8.cpp ****     Thread* toSend2;
 209:test/Test8.cpp **** 
 210:test/Test8.cpp **** public:
 211:test/Test8.cpp ****     A3():Thread(),id(IDd++),toSend1(nullptr),toSend2(nullptr){
 212:test/Test8.cpp ****         printString("Nit A kreirana - id: ");
 213:test/Test8.cpp ****         printInt(id);
 214:test/Test8.cpp ****         printString("\n");
 215:test/Test8.cpp ****     }
 216:test/Test8.cpp ****     void setToSend(Thread* t1, Thread* t2){
 217:test/Test8.cpp ****         toSend1 = t1;
 218:test/Test8.cpp ****         toSend2 = t2;
 219:test/Test8.cpp ****     }
 220:test/Test8.cpp **** protected:
 221:test/Test8.cpp ****     void run() override;
 222:test/Test8.cpp **** };
 223:test/Test8.cpp **** void A3::run(){
 224:test/Test8.cpp ****     for(int m=1;m<6;m++){
 225:test/Test8.cpp ****         printString("A: ");
 226:test/Test8.cpp ****         printInt(m);
 227:test/Test8.cpp ****         printString("\n");
 228:test/Test8.cpp ****         for(int i=0;i<1000;i++){
 229:test/Test8.cpp ****             for(int j=0;j<10000;j++){
 230:test/Test8.cpp **** 
 231:test/Test8.cpp ****             }
 232:test/Test8.cpp ****             thread_dispatch();
 233:test/Test8.cpp ****         }
 234:test/Test8.cpp **** 
 235:test/Test8.cpp ****         printString("A: ");
 236:test/Test8.cpp ****         printInt(m);
 237:test/Test8.cpp ****         printString("\n");
 238:test/Test8.cpp ****         printString("A salje B\n");
 239:test/Test8.cpp ****         toSend1->send("B: poruka od A za B\n");
 240:test/Test8.cpp ****             printString("A salje C\n");
 241:test/Test8.cpp ****         toSend2->send("C: poruka od A za C\n ");
 242:test/Test8.cpp ****         printString("A poslala sve i sad prima: ");
 243:test/Test8.cpp ****         printInt(m);
 244:test/Test8.cpp ****         printString("\n");
 245:test/Test8.cpp **** 
 246:test/Test8.cpp **** //        printString("A prima poruke: ");
 247:test/Test8.cpp **** //        printInt(m);
 248:test/Test8.cpp **** //        printString(". put\n");
 249:test/Test8.cpp ****         printString(receive());
 250:test/Test8.cpp ****         printString(receive());
 251:test/Test8.cpp ****         printString("A sve primila: ");
 252:test/Test8.cpp ****         printInt(m);
 253:test/Test8.cpp ****         printString("\n");
 254:test/Test8.cpp ****     }
 255:test/Test8.cpp **** //    printString("Gotove sve tri iteracije\n");
 256:test/Test8.cpp **** //    printString("Nit A id: ");
 257:test/Test8.cpp **** //    printInt(id);
GAS LISTING /tmp/ccCnP6rB.s 			page 6


 258:test/Test8.cpp **** //    printString("\n");
 259:test/Test8.cpp **** }
 260:test/Test8.cpp **** 
 261:test/Test8.cpp **** class B3:public Thread{
 262:test/Test8.cpp ****     int id;
 263:test/Test8.cpp **** 
 264:test/Test8.cpp ****     Thread* toSend1;
 265:test/Test8.cpp ****     Thread* toSend2;
 266:test/Test8.cpp **** 
 267:test/Test8.cpp **** public:
 268:test/Test8.cpp ****     B3():Thread(),id(IDd++),toSend1(nullptr),toSend2(nullptr){
 269:test/Test8.cpp ****         printString("Nit B kreirana - id: ");
 270:test/Test8.cpp ****         printInt(id);
 271:test/Test8.cpp ****         printString("\n");
 272:test/Test8.cpp ****     }
 273:test/Test8.cpp ****     void setToSend(Thread* t1, Thread* t2){
 274:test/Test8.cpp ****         toSend1 = t1;
 275:test/Test8.cpp ****         toSend2 = t2;
 276:test/Test8.cpp ****     }
 277:test/Test8.cpp **** protected:
 278:test/Test8.cpp ****     void run() override;
 279:test/Test8.cpp **** };
 280:test/Test8.cpp **** void B3::run(){
 281:test/Test8.cpp ****     for(int m=1;m<6;m++){
 282:test/Test8.cpp ****         printString("B: ");
 283:test/Test8.cpp ****         printInt(m);
 284:test/Test8.cpp ****         printString("\n");
 285:test/Test8.cpp ****         for(int i=0;i<1000;i++){
 286:test/Test8.cpp ****             for(int j=0;j<10000;j++){
 287:test/Test8.cpp **** 
 288:test/Test8.cpp ****             }
 289:test/Test8.cpp ****             thread_dispatch();
 290:test/Test8.cpp ****         }
 291:test/Test8.cpp **** 
 292:test/Test8.cpp ****         printString("B: ");
 293:test/Test8.cpp ****         printInt(m);
 294:test/Test8.cpp ****         printString("\n");
 295:test/Test8.cpp ****         printString("B salje niti A\n");
 296:test/Test8.cpp ****         toSend1->send("A: poruka od B za A\n");
 297:test/Test8.cpp ****         printString("B poslala i sad prima: ");
 298:test/Test8.cpp ****         printInt(m);
 299:test/Test8.cpp ****         printString("\n");
 300:test/Test8.cpp **** 
 301:test/Test8.cpp **** //        printString("B prima poruke: ");
 302:test/Test8.cpp **** //        printInt(m);
 303:test/Test8.cpp **** //        printString(". put\n");
 304:test/Test8.cpp ****         printString(receive());
 305:test/Test8.cpp ****         printString(receive());
 306:test/Test8.cpp ****         printString("B primila sve: ");
 307:test/Test8.cpp ****         printInt(m);
 308:test/Test8.cpp ****         printString("\n");
 309:test/Test8.cpp ****     }
 310:test/Test8.cpp **** //    printString("Gotove sve tri iteracije\n");
 311:test/Test8.cpp **** //    printString("Nit B id: ");
 312:test/Test8.cpp **** //    printInt(id);
 313:test/Test8.cpp **** //    printString("\n");
 314:test/Test8.cpp **** }
GAS LISTING /tmp/ccCnP6rB.s 			page 7


 315:test/Test8.cpp **** 
 316:test/Test8.cpp **** class C3:public Thread{
 317:test/Test8.cpp ****     int id;
 318:test/Test8.cpp **** 
 319:test/Test8.cpp ****     Thread* toSend1;
 320:test/Test8.cpp ****     Thread* toSend2;
 321:test/Test8.cpp **** 
 322:test/Test8.cpp **** public:
 323:test/Test8.cpp ****     C3():Thread(),id(IDd++),toSend1(nullptr),toSend2(nullptr){
 324:test/Test8.cpp ****         printString("Nit kreirana - id: ");
 325:test/Test8.cpp ****         printInt(id);
 326:test/Test8.cpp ****         printString("\n");
 327:test/Test8.cpp ****     }
 328:test/Test8.cpp ****     void setToSend(Thread* t1, Thread* t2){
 329:test/Test8.cpp ****         toSend1 = t1;
 330:test/Test8.cpp ****         toSend2 = t2;
 331:test/Test8.cpp ****     }
 332:test/Test8.cpp **** protected:
 333:test/Test8.cpp ****     void run() override;
 334:test/Test8.cpp **** };
 335:test/Test8.cpp **** void C3::run(){
 336:test/Test8.cpp ****     for(int m=1;m<6;m++){
 337:test/Test8.cpp **** //        printString("Pocetak wrappera C- nit id: ");
 338:test/Test8.cpp **** //        printInt(id);
 339:test/Test8.cpp **** //        printString(" i iteracija ");
 340:test/Test8.cpp **** //        printInt(m);
 341:test/Test8.cpp **** //        printString(". Obrada...\n");
 342:test/Test8.cpp ****         printString("C: ");
 343:test/Test8.cpp ****         printInt(m);
 344:test/Test8.cpp ****         printString("\n");
 345:test/Test8.cpp ****         for(int i=0;i<1000;i++){
 346:test/Test8.cpp ****             for(int j=0;j<10000;j++){
 347:test/Test8.cpp **** 
 348:test/Test8.cpp ****             }
 349:test/Test8.cpp ****             thread_dispatch();
 350:test/Test8.cpp ****         }
 351:test/Test8.cpp **** 
 352:test/Test8.cpp ****         printString("C: ");
 353:test/Test8.cpp ****         printInt(m);
 354:test/Test8.cpp ****         printString("\n");
 355:test/Test8.cpp ****         printString("C salje poruku niti A\n");
 356:test/Test8.cpp ****         toSend1->send("A: poruka od C za A\n");
 357:test/Test8.cpp ****         printString("C salje8 poruku niti B\n");
 358:test/Test8.cpp ****         toSend2->send("B: poruka od C za B\n ");
 359:test/Test8.cpp ****         printString("C sve poruke poslate i sad prima: ");
 360:test/Test8.cpp ****         printInt(m);
 361:test/Test8.cpp ****         printString("\n");
 362:test/Test8.cpp ****         printString(receive());
 363:test/Test8.cpp ****         printString("C primila : ");
 364:test/Test8.cpp ****         printInt(m);
 365:test/Test8.cpp ****         printString("\n");
 366:test/Test8.cpp **** 
 367:test/Test8.cpp ****     }
 368:test/Test8.cpp **** //    printString("Gotove sve tri iteracije\n");
 369:test/Test8.cpp **** //    printString("Nit C id: ");
 370:test/Test8.cpp **** //    printInt(id);
 371:test/Test8.cpp **** //    printString("\n");
GAS LISTING /tmp/ccCnP6rB.s 			page 8


 372:test/Test8.cpp **** }
 373:test/Test8.cpp **** 
 374:test/Test8.cpp **** void testSEND_RECEIVE(){
 375:test/Test8.cpp ****     A3* a3 = new A3();
 376:test/Test8.cpp ****     B3* b3=new B3();
 377:test/Test8.cpp ****     C3* c3 = new C3();
 378:test/Test8.cpp **** 
 379:test/Test8.cpp ****     a3->setToSend(b3,c3);
 380:test/Test8.cpp ****     b3->setToSend(a3, nullptr);
 381:test/Test8.cpp ****     c3->setToSend(a3,b3);
 382:test/Test8.cpp **** 
 383:test/Test8.cpp ****     a3->start();
 384:test/Test8.cpp ****     b3->start();
 385:test/Test8.cpp ****     c3->start();
 386:test/Test8.cpp **** 
 387:test/Test8.cpp ****     a3->join();
 388:test/Test8.cpp ****     b3->join();
 389:test/Test8.cpp ****     c3->join();
 390:test/Test8.cpp **** 
 391:test/Test8.cpp ****     delete a3;
 392:test/Test8.cpp ****     delete b3;
 393:test/Test8.cpp ****     delete c3;
 394:test/Test8.cpp **** 
 395:test/Test8.cpp ****     printString("TEST 8 - Send/Receive message uspesno zavrsen\n");
 396:test/Test8.cpp **** }
 397:test/Test8.cpp **** 
 398:test/Test8.cpp **** int IDdd=1;
 399:test/Test8.cpp **** 
 400:test/Test8.cpp **** class A4:public Thread{
 401:test/Test8.cpp ****     int id;
 402:test/Test8.cpp **** 
 403:test/Test8.cpp **** public:
 404:test/Test8.cpp ****     A4():Thread(),id(IDdd++){
 405:test/Test8.cpp ****         printString("Nit A kreirana - id: ");
 406:test/Test8.cpp ****         printInt(id);
 407:test/Test8.cpp ****         printString("\n");
 408:test/Test8.cpp ****     }
 409:test/Test8.cpp **** protected:
 410:test/Test8.cpp ****     void run() override;
 411:test/Test8.cpp **** };
 412:test/Test8.cpp **** 
 413:test/Test8.cpp **** 
 414:test/Test8.cpp **** class B4:public Thread{
 415:test/Test8.cpp ****     int id;
 416:test/Test8.cpp **** 
 417:test/Test8.cpp **** public:
 418:test/Test8.cpp ****     B4():Thread(),id(IDdd++){
 419:test/Test8.cpp ****         printString("Nit B kreirana - id: ");
 420:test/Test8.cpp ****         printInt(id);
 421:test/Test8.cpp ****         printString("\n");
 422:test/Test8.cpp ****     }
 423:test/Test8.cpp **** protected:
 424:test/Test8.cpp ****     void run() override;
 425:test/Test8.cpp **** };
 426:test/Test8.cpp **** 
 427:test/Test8.cpp **** class C4:public Thread{
 428:test/Test8.cpp ****     int id;
GAS LISTING /tmp/ccCnP6rB.s 			page 9


 429:test/Test8.cpp **** 
 430:test/Test8.cpp **** public:
 431:test/Test8.cpp ****     C4():Thread(),id(IDdd++){
 432:test/Test8.cpp ****         printString("Nit C kreirana - id: ");
 433:test/Test8.cpp ****         printInt(id);
 434:test/Test8.cpp ****         printString("\n");
 435:test/Test8.cpp ****     }
 436:test/Test8.cpp **** protected:
 437:test/Test8.cpp ****     void run() override;
 438:test/Test8.cpp **** };
 439:test/Test8.cpp **** 
 440:test/Test8.cpp **** void A4::run(){
 441:test/Test8.cpp **** 
 442:test/Test8.cpp ****     B4* b1 = new B4();
 443:test/Test8.cpp ****     B4* b2 = new B4();
 444:test/Test8.cpp ****     B4* b3 = new B4();
 445:test/Test8.cpp ****     C4* c1 = new C4();
 446:test/Test8.cpp ****     b1->start();
 447:test/Test8.cpp ****     b2->start();
 448:test/Test8.cpp ****     b3->start();
 449:test/Test8.cpp ****     c1->start();
 450:test/Test8.cpp ****     printString("A obrada...\n ");
 451:test/Test8.cpp ****     for(int i=0;i<1000;i++){
 452:test/Test8.cpp ****         for(int j=0;j<10000;j++){
 453:test/Test8.cpp **** 
 454:test/Test8.cpp ****         }
 455:test/Test8.cpp ****         thread_dispatch();
 456:test/Test8.cpp ****     }
 457:test/Test8.cpp ****     joinALL();
 458:test/Test8.cpp ****     printString("A zavrsila\n");
 459:test/Test8.cpp **** 
 460:test/Test8.cpp **** 
 461:test/Test8.cpp **** }
 462:test/Test8.cpp **** 
 463:test/Test8.cpp **** void B4::run(){
 464:test/Test8.cpp **** 
 465:test/Test8.cpp ****     C4* c1 = new C4();
 466:test/Test8.cpp ****     C4* c2 = new C4();
 467:test/Test8.cpp ****     C4* c3 = new C4();
 468:test/Test8.cpp ****     c1->start();
 469:test/Test8.cpp ****     c2->start();
 470:test/Test8.cpp ****     c3->start();
 471:test/Test8.cpp ****     printString("B obrada...\n");
 472:test/Test8.cpp ****     for(int i=0;i<1000;i++){
 473:test/Test8.cpp ****         for(int j=0;j<10000;j++){
 474:test/Test8.cpp **** 
 475:test/Test8.cpp ****         }
 476:test/Test8.cpp ****         thread_dispatch();
 477:test/Test8.cpp ****     }
 478:test/Test8.cpp ****     joinALL();
 479:test/Test8.cpp ****     printString("B zavrsila \n");
 480:test/Test8.cpp **** 
 481:test/Test8.cpp **** }
 482:test/Test8.cpp **** void C4::run(){
  23              		.loc 1 482 15
  24              		.cfi_startproc
  25              	.LVL0:
GAS LISTING /tmp/ccCnP6rB.s 			page 10


  26 0000 130101FE 		addi	sp,sp,-32
  27              		.cfi_def_cfa_offset 32
  28 0004 233C1100 		sd	ra,24(sp)
  29 0008 23388100 		sd	s0,16(sp)
  30 000c 23349100 		sd	s1,8(sp)
  31              		.cfi_offset 1, -8
  32              		.cfi_offset 8, -16
  33              		.cfi_offset 9, -24
  34 0010 13040102 		addi	s0,sp,32
  35              		.cfi_def_cfa 8, 0
 483:test/Test8.cpp **** 
 484:test/Test8.cpp ****     printString("C obrada...\n ");
  36              		.loc 1 484 5
  37              		.loc 1 484 16 is_stmt 0
  38 0014 17050000 		lla	a0,.LC0
  38      13050500 
  39              	.LVL1:
  40 001c 97000000 		call	_Z11printStringPKc@plt
  40      E7800000 
  41              	.LVL2:
 485:test/Test8.cpp **** 
 486:test/Test8.cpp ****     printString("\n");
  42              		.loc 1 486 5 is_stmt 1
  43              		.loc 1 486 16 is_stmt 0
  44 0024 17050000 		lla	a0,.LC1
  44      13050500 
  45 002c 97000000 		call	_Z11printStringPKc@plt
  45      E7800000 
  46              	.LVL3:
 487:test/Test8.cpp ****     for(int i=0;i<1000;i++){
  47              		.loc 1 487 5 is_stmt 1
  48              	.LBB98:
  49              		.loc 1 487 13 is_stmt 0
  50 0034 93040000 		li	s1,0
  51 0038 6F000001 		j	.L5
  52              	.LVL4:
  53              	.L3:
  54              	.LBB99:
 488:test/Test8.cpp ****         for(int j=0;j<10000;j++){
 489:test/Test8.cpp **** 
 490:test/Test8.cpp ****         }
 491:test/Test8.cpp ****         thread_dispatch();
  55              		.loc 1 491 9 is_stmt 1 discriminator 2
  56              		.loc 1 491 24 is_stmt 0 discriminator 2
  57 003c 97000000 		call	_Z15thread_dispatchv@plt
  57      E7800000 
  58              	.LVL5:
  59              	.LBE99:
 487:test/Test8.cpp ****     for(int i=0;i<1000;i++){
  60              		.loc 1 487 5 is_stmt 1 discriminator 2
  61 0044 9B841400 		addiw	s1,s1,1
  62              	.LVL6:
  63              	.L5:
 487:test/Test8.cpp ****     for(int i=0;i<1000;i++){
  64              		.loc 1 487 18 discriminator 1
  65 0048 9307703E 		li	a5,999
  66 004c 63CE9700 		bgt	s1,a5,.L2
GAS LISTING /tmp/ccCnP6rB.s 			page 11


  67              	.LBB101:
  68              	.LBB100:
 488:test/Test8.cpp ****         for(int j=0;j<10000;j++){
  69              		.loc 1 488 17 is_stmt 0
  70 0050 13070000 		li	a4,0
  71              	.L4:
  72              	.LVL7:
 488:test/Test8.cpp ****         for(int j=0;j<10000;j++){
  73              		.loc 1 488 22 is_stmt 1 discriminator 3
  74 0054 B7270000 		li	a5,8192
  75 0058 9387F770 		addi	a5,a5,1807
  76 005c E3C0E7FE 		bgt	a4,a5,.L3
 488:test/Test8.cpp ****         for(int j=0;j<10000;j++){
  77              		.loc 1 488 9 discriminator 2
  78 0060 1B071700 		addiw	a4,a4,1
  79              	.LVL8:
  80 0064 6FF01FFF 		j	.L4
  81              	.L2:
  82              	.LBE100:
  83              	.LBE101:
  84              	.LBE98:
 492:test/Test8.cpp ****     }
 493:test/Test8.cpp **** 
 494:test/Test8.cpp ****     printString("C zavrsila \n");
  85              		.loc 1 494 5
  86              		.loc 1 494 16 is_stmt 0
  87 0068 17050000 		lla	a0,.LC2
  87      13050500 
  88 0070 97000000 		call	_Z11printStringPKc@plt
  88      E7800000 
  89              	.LVL9:
 495:test/Test8.cpp ****     thread_dispatch();
  90              		.loc 1 495 5 is_stmt 1
  91              		.loc 1 495 20 is_stmt 0
  92 0078 97000000 		call	_Z15thread_dispatchv@plt
  92      E7800000 
  93              	.LVL10:
 496:test/Test8.cpp **** 
 497:test/Test8.cpp **** 
 498:test/Test8.cpp **** }
  94              		.loc 1 498 1
  95 0080 83308101 		ld	ra,24(sp)
  96              		.cfi_restore 1
  97 0084 03340101 		ld	s0,16(sp)
  98              		.cfi_restore 8
  99              		.cfi_def_cfa 2, 32
 100 0088 83348100 		ld	s1,8(sp)
 101              		.cfi_restore 9
 102              	.LVL11:
 103 008c 13010102 		addi	sp,sp,32
 104              		.cfi_def_cfa_offset 0
 105 0090 67800000 		jr	ra
 106              		.cfi_endproc
 107              	.LFE47:
 109              		.section	.rodata.str1.8
 110 0025 000000   		.align	3
 111              	.LC3:
GAS LISTING /tmp/ccCnP6rB.s 			page 12


 112 0028 54687265 		.string	"Thread ID = "
 112      61642049 
 112      44203D20 
 112      00
 113 0035 000000   		.align	3
 114              	.LC4:
 115 0038 3A205354 		.string	": START!\n"
 115      41525421 
 115      0A00
 116 0042 00000000 		.align	3
 116      0000
 117              	.LC5:
 118 0048 3A204845 		.string	": HELLO! "
 118      4C4C4F21 
 118      2000
 119 0052 00000000 		.align	3
 119      0000
 120              	.LC6:
 121 0058 49746572 		.string	"Iteration: "
 121      6174696F 
 121      6E3A2000 
 122 0064 00000000 		.align	3
 123              	.LC7:
 124 0068 3A20454E 		.string	": END!\n"
 124      44210A00 
 125              		.text
 126              		.align	2
 127              		.globl	_ZN2A53runEv
 129              	_ZN2A53runEv:
 130              	.LFB52:
 499:test/Test8.cpp **** 
 500:test/Test8.cpp **** void test_JOIN_all(){
 501:test/Test8.cpp ****     A4* a4 = new A4();
 502:test/Test8.cpp ****     a4->start();
 503:test/Test8.cpp ****     a4->join();
 504:test/Test8.cpp ****     delete a4;
 505:test/Test8.cpp **** 
 506:test/Test8.cpp ****     printString("TEST 8 - join ALL uspesno zavrsen\n");
 507:test/Test8.cpp **** 
 508:test/Test8.cpp **** }
 509:test/Test8.cpp **** 
 510:test/Test8.cpp **** //set Max User Threads
 511:test/Test8.cpp **** static int identifikator=1;
 512:test/Test8.cpp **** class A5:public Thread{
 513:test/Test8.cpp ****     int id;
 514:test/Test8.cpp **** public:
 515:test/Test8.cpp ****     A5():Thread(),id(identifikator++){
 516:test/Test8.cpp ****         printString("Nit A kreirana, ID: ");
 517:test/Test8.cpp ****         printInt(id);
 518:test/Test8.cpp ****         printString("\n");
 519:test/Test8.cpp ****     }
 520:test/Test8.cpp **** protected:
 521:test/Test8.cpp ****     void run() override;
 522:test/Test8.cpp **** 
 523:test/Test8.cpp **** };
 524:test/Test8.cpp **** 
 525:test/Test8.cpp **** void A5::run() {
GAS LISTING /tmp/ccCnP6rB.s 			page 13


 131              		.loc 1 525 16 is_stmt 1
 132              		.cfi_startproc
 133              	.LVL12:
 134 0094 130101FD 		addi	sp,sp,-48
 135              		.cfi_def_cfa_offset 48
 136 0098 23341102 		sd	ra,40(sp)
 137 009c 23308102 		sd	s0,32(sp)
 138 00a0 233C9100 		sd	s1,24(sp)
 139 00a4 23382101 		sd	s2,16(sp)
 140 00a8 23343101 		sd	s3,8(sp)
 141              		.cfi_offset 1, -8
 142              		.cfi_offset 8, -16
 143              		.cfi_offset 9, -24
 144              		.cfi_offset 18, -32
 145              		.cfi_offset 19, -40
 146 00ac 13040103 		addi	s0,sp,48
 147              		.cfi_def_cfa 8, 0
 148 00b0 13090500 		mv	s2,a0
 526:test/Test8.cpp ****     //int id = getThreadId();
 527:test/Test8.cpp ****     printString("Thread ID = ");
 149              		.loc 1 527 5
 150              		.loc 1 527 16 is_stmt 0
 151 00b4 17050000 		lla	a0,.LC3
 151      13050500 
 152              	.LVL13:
 153 00bc 97000000 		call	_Z11printStringPKc@plt
 153      E7800000 
 154              	.LVL14:
 528:test/Test8.cpp ****     printInt(id);
 155              		.loc 1 528 5 is_stmt 1
 156              		.loc 1 528 13 is_stmt 0
 157 00c4 13060000 		li	a2,0
 158 00c8 9305A000 		li	a1,10
 159 00cc 03250902 		lw	a0,32(s2)
 160 00d0 97000000 		call	_Z8printIntiii@plt
 160      E7800000 
 161              	.LVL15:
 529:test/Test8.cpp ****     printString(": START!\n");
 162              		.loc 1 529 5 is_stmt 1
 163              		.loc 1 529 16 is_stmt 0
 164 00d8 17050000 		lla	a0,.LC4
 164      13050500 
 165 00e0 97000000 		call	_Z11printStringPKc@plt
 165      E7800000 
 166              	.LVL16:
 530:test/Test8.cpp ****     for(int i=0;i<5;i++){
 167              		.loc 1 530 5 is_stmt 1
 168              	.LBB102:
 169              		.loc 1 530 13 is_stmt 0
 170 00e8 93090000 		li	s3,0
 171 00ec 6F008003 		j	.L13
 172              	.LVL17:
 173              	.L10:
 174              	.LBB103:
 175              	.LBB104:
 176              	.LBB105:
 531:test/Test8.cpp ****         //int id = getThreadId();
GAS LISTING /tmp/ccCnP6rB.s 			page 14


 532:test/Test8.cpp ****         printString("Thread ID = ");
 533:test/Test8.cpp ****         printInt(id);
 534:test/Test8.cpp ****         printString(": HELLO! ");
 535:test/Test8.cpp ****         printString("Iteration: ");
 536:test/Test8.cpp ****         printInt(i);
 537:test/Test8.cpp ****         printString("\n");
 538:test/Test8.cpp ****         for(int j=0;j<10000;j++){
 539:test/Test8.cpp ****             for(int k=0;k<10000;k++){}
 540:test/Test8.cpp ****             thread_dispatch();
 177              		.loc 1 540 13 is_stmt 1 discriminator 2
 178              		.loc 1 540 28 is_stmt 0 discriminator 2
 179 00f0 97000000 		call	_Z15thread_dispatchv@plt
 179      E7800000 
 180              	.LVL18:
 181              	.LBE105:
 538:test/Test8.cpp ****             for(int k=0;k<10000;k++){}
 182              		.loc 1 538 9 is_stmt 1 discriminator 2
 183 00f8 9B841400 		addiw	s1,s1,1
 184              	.LVL19:
 185              	.L12:
 538:test/Test8.cpp ****             for(int k=0;k<10000;k++){}
 186              		.loc 1 538 22 discriminator 1
 187 00fc B7270000 		li	a5,8192
 188 0100 9387F770 		addi	a5,a5,1807
 189 0104 63CE9700 		bgt	s1,a5,.L9
 190              	.LBB107:
 191              	.LBB106:
 539:test/Test8.cpp ****             thread_dispatch();
 192              		.loc 1 539 21 is_stmt 0
 193 0108 13070000 		li	a4,0
 194              	.L11:
 195              	.LVL20:
 539:test/Test8.cpp ****             thread_dispatch();
 196              		.loc 1 539 26 is_stmt 1 discriminator 3
 197 010c B7270000 		li	a5,8192
 198 0110 9387F770 		addi	a5,a5,1807
 199 0114 E3CEE7FC 		bgt	a4,a5,.L10
 539:test/Test8.cpp ****             thread_dispatch();
 200              		.loc 1 539 13 discriminator 2
 201 0118 1B071700 		addiw	a4,a4,1
 202              	.LVL21:
 203 011c 6FF01FFF 		j	.L11
 204              	.L9:
 205              	.LBE106:
 206              	.LBE107:
 207              	.LBE104:
 208              	.LBE103:
 530:test/Test8.cpp ****         //int id = getThreadId();
 209              		.loc 1 530 5 discriminator 2
 210 0120 9B891900 		addiw	s3,s3,1
 211              	.LVL22:
 212              	.L13:
 530:test/Test8.cpp ****         //int id = getThreadId();
 213              		.loc 1 530 18 discriminator 1
 214 0124 93074000 		li	a5,4
 215 0128 63CA3707 		bgt	s3,a5,.L8
 216              	.LBB109:
GAS LISTING /tmp/ccCnP6rB.s 			page 15


 532:test/Test8.cpp ****         printInt(id);
 217              		.loc 1 532 9
 532:test/Test8.cpp ****         printInt(id);
 218              		.loc 1 532 20 is_stmt 0
 219 012c 17050000 		lla	a0,.LC3
 219      13050500 
 220 0134 97000000 		call	_Z11printStringPKc@plt
 220      E7800000 
 221              	.LVL23:
 533:test/Test8.cpp ****         printString(": HELLO! ");
 222              		.loc 1 533 9 is_stmt 1
 533:test/Test8.cpp ****         printString(": HELLO! ");
 223              		.loc 1 533 17 is_stmt 0
 224 013c 13060000 		li	a2,0
 225 0140 9305A000 		li	a1,10
 226 0144 03250902 		lw	a0,32(s2)
 227 0148 97000000 		call	_Z8printIntiii@plt
 227      E7800000 
 228              	.LVL24:
 534:test/Test8.cpp ****         printString("Iteration: ");
 229              		.loc 1 534 9 is_stmt 1
 534:test/Test8.cpp ****         printString("Iteration: ");
 230              		.loc 1 534 20 is_stmt 0
 231 0150 17050000 		lla	a0,.LC5
 231      13050500 
 232 0158 97000000 		call	_Z11printStringPKc@plt
 232      E7800000 
 233              	.LVL25:
 535:test/Test8.cpp ****         printInt(i);
 234              		.loc 1 535 9 is_stmt 1
 535:test/Test8.cpp ****         printInt(i);
 235              		.loc 1 535 20 is_stmt 0
 236 0160 17050000 		lla	a0,.LC6
 236      13050500 
 237 0168 97000000 		call	_Z11printStringPKc@plt
 237      E7800000 
 238              	.LVL26:
 536:test/Test8.cpp ****         printString("\n");
 239              		.loc 1 536 9 is_stmt 1
 536:test/Test8.cpp ****         printString("\n");
 240              		.loc 1 536 17 is_stmt 0
 241 0170 13060000 		li	a2,0
 242 0174 9305A000 		li	a1,10
 243 0178 13850900 		mv	a0,s3
 244 017c 97000000 		call	_Z8printIntiii@plt
 244      E7800000 
 245              	.LVL27:
 537:test/Test8.cpp ****         for(int j=0;j<10000;j++){
 246              		.loc 1 537 9 is_stmt 1
 537:test/Test8.cpp ****         for(int j=0;j<10000;j++){
 247              		.loc 1 537 20 is_stmt 0
 248 0184 17050000 		lla	a0,.LC1
 248      13050500 
 249 018c 97000000 		call	_Z11printStringPKc@plt
 249      E7800000 
 250              	.LVL28:
 538:test/Test8.cpp ****             for(int k=0;k<10000;k++){}
GAS LISTING /tmp/ccCnP6rB.s 			page 16


 251              		.loc 1 538 9 is_stmt 1
 252              	.LBB108:
 538:test/Test8.cpp ****             for(int k=0;k<10000;k++){}
 253              		.loc 1 538 17 is_stmt 0
 254 0194 93040000 		li	s1,0
 255 0198 6FF05FF6 		j	.L12
 256              	.LVL29:
 257              	.L8:
 258              	.LBE108:
 259              	.LBE109:
 260              	.LBE102:
 541:test/Test8.cpp ****         }
 542:test/Test8.cpp **** //        printString("Thread ID = ");
 543:test/Test8.cpp **** //        printInt(id);
 544:test/Test8.cpp **** //        printString(": BACK FROM PROCESSING!\n");
 545:test/Test8.cpp **** //        printString("Iteration: ");
 546:test/Test8.cpp **** //        printInt(i);
 547:test/Test8.cpp **** //        printString("\n");
 548:test/Test8.cpp **** 
 549:test/Test8.cpp ****     }
 550:test/Test8.cpp ****     printString("Thread ID = ");
 261              		.loc 1 550 5 is_stmt 1
 262              		.loc 1 550 16 is_stmt 0
 263 019c 17050000 		lla	a0,.LC3
 263      13050500 
 264 01a4 97000000 		call	_Z11printStringPKc@plt
 264      E7800000 
 265              	.LVL30:
 551:test/Test8.cpp ****     printInt(id);
 266              		.loc 1 551 5 is_stmt 1
 267              		.loc 1 551 13 is_stmt 0
 268 01ac 13060000 		li	a2,0
 269 01b0 9305A000 		li	a1,10
 270 01b4 03250902 		lw	a0,32(s2)
 271 01b8 97000000 		call	_Z8printIntiii@plt
 271      E7800000 
 272              	.LVL31:
 552:test/Test8.cpp ****     printString(": END!\n");
 273              		.loc 1 552 5 is_stmt 1
 274              		.loc 1 552 16 is_stmt 0
 275 01c0 17050000 		lla	a0,.LC7
 275      13050500 
 276 01c8 97000000 		call	_Z11printStringPKc@plt
 276      E7800000 
 277              	.LVL32:
 553:test/Test8.cpp **** }
 278              		.loc 1 553 1
 279 01d0 83308102 		ld	ra,40(sp)
 280              		.cfi_restore 1
 281 01d4 03340102 		ld	s0,32(sp)
 282              		.cfi_restore 8
 283              		.cfi_def_cfa 2, 48
 284 01d8 83348101 		ld	s1,24(sp)
 285              		.cfi_restore 9
 286 01dc 03390101 		ld	s2,16(sp)
 287              		.cfi_restore 18
 288              	.LVL33:
GAS LISTING /tmp/ccCnP6rB.s 			page 17


 289 01e0 83398100 		ld	s3,8(sp)
 290              		.cfi_restore 19
 291              	.LVL34:
 292 01e4 13010103 		addi	sp,sp,48
 293              		.cfi_def_cfa_offset 0
 294 01e8 67800000 		jr	ra
 295              		.cfi_endproc
 296              	.LFE52:
 298              		.section	.rodata.str1.8
 299              		.align	3
 300              	.LC8:
 301 0070 423A2000 		.string	"B: "
 302              		.text
 303              		.align	2
 304              		.globl	_ZN3B133runEv
 306              	_ZN3B133runEv:
 307              	.LFB100:
 554:test/Test8.cpp **** 
 555:test/Test8.cpp **** void testSetMaxThreads(){
 556:test/Test8.cpp ****     Thread* threads[21];
 557:test/Test8.cpp ****     Thread::setMaxThreads(7);
 558:test/Test8.cpp ****     for(auto& th:threads){
 559:test/Test8.cpp ****         th=new A5();
 560:test/Test8.cpp ****     }
 561:test/Test8.cpp ****     for(auto& th:threads){
 562:test/Test8.cpp ****         th->start();
 563:test/Test8.cpp ****     }
 564:test/Test8.cpp ****     for(auto& th:threads){
 565:test/Test8.cpp ****         th->join();
 566:test/Test8.cpp ****     }
 567:test/Test8.cpp ****     for(auto& th:threads){
 568:test/Test8.cpp ****         delete th;
 569:test/Test8.cpp ****     }
 570:test/Test8.cpp ****     printString("TEST 8 - Maksimalan Broj Korisnickih Niti - USPESNO ZAVRSEN\n");
 571:test/Test8.cpp **** 
 572:test/Test8.cpp **** };
 573:test/Test8.cpp **** static int x=0;
 574:test/Test8.cpp **** class A7:public Thread{
 575:test/Test8.cpp ****     int id;
 576:test/Test8.cpp **** public:
 577:test/Test8.cpp ****     A7(): Thread(),id(x++){
 578:test/Test8.cpp ****         printString("Producer kreiran\n");
 579:test/Test8.cpp ****     }
 580:test/Test8.cpp **** protected:
 581:test/Test8.cpp ****     void run() override {
 582:test/Test8.cpp **** 
 583:test/Test8.cpp ****         printString("Producer run wrapper\n");
 584:test/Test8.cpp ****         for (int i = 0; i < 1000; i++) {
 585:test/Test8.cpp ****             for (int j = 0; j < 1000; j++) {}
 586:test/Test8.cpp ****             thread_dispatch();
 587:test/Test8.cpp ****         }
 588:test/Test8.cpp ****         printString("Pozivam producer metod\n");
 589:test/Test8.cpp ****         Thread::producer(id);
 590:test/Test8.cpp **** 
 591:test/Test8.cpp ****         printString("Producer finished\n");
 592:test/Test8.cpp ****         thread_dispatch();
 593:test/Test8.cpp ****     }
GAS LISTING /tmp/ccCnP6rB.s 			page 18


 594:test/Test8.cpp **** };
 595:test/Test8.cpp **** 
 596:test/Test8.cpp **** class B7:public Thread {
 597:test/Test8.cpp **** 
 598:test/Test8.cpp ****     int id;
 599:test/Test8.cpp **** public:
 600:test/Test8.cpp ****     B7() : Thread(), id(x++) {
 601:test/Test8.cpp ****         printString("Consumer kreiran\n");
 602:test/Test8.cpp ****     }
 603:test/Test8.cpp **** 
 604:test/Test8.cpp **** protected:
 605:test/Test8.cpp ****     void run() override{
 606:test/Test8.cpp **** //    }
 607:test/Test8.cpp ****         printString("Consumer run wrapper\n");
 608:test/Test8.cpp ****         for (int i = 0;i < 1000; i++) {
 609:test/Test8.cpp ****             for (int j = 0; j < 1000; j++) {}
 610:test/Test8.cpp ****             thread_dispatch();
 611:test/Test8.cpp ****         }
 612:test/Test8.cpp ****         printString("Pozivam consumer metod\n");
 613:test/Test8.cpp ****         Thread::consumer(id);
 614:test/Test8.cpp **** 
 615:test/Test8.cpp ****         printString("Consumer finished\n");
 616:test/Test8.cpp **** 
 617:test/Test8.cpp ****         thread_dispatch();
 618:test/Test8.cpp ****     }
 619:test/Test8.cpp **** };
 620:test/Test8.cpp **** 
 621:test/Test8.cpp **** void testAtomicBroadcast(){
 622:test/Test8.cpp ****     Thread* array[9];
 623:test/Test8.cpp ****     array[0] = new A7();
 624:test/Test8.cpp ****     //array[1] = new A7();
 625:test/Test8.cpp **** 
 626:test/Test8.cpp ****     x=0;
 627:test/Test8.cpp ****     for(int i=1;i<9;i++){
 628:test/Test8.cpp ****         array[i] = new B7();
 629:test/Test8.cpp ****     }
 630:test/Test8.cpp ****     for(auto& nit:array){
 631:test/Test8.cpp ****         nit->start();
 632:test/Test8.cpp ****     }
 633:test/Test8.cpp **** 
 634:test/Test8.cpp ****     for(auto& nit:array){
 635:test/Test8.cpp ****         nit->join();
 636:test/Test8.cpp ****     }
 637:test/Test8.cpp **** 
 638:test/Test8.cpp ****     for(auto& nit:array){
 639:test/Test8.cpp ****         delete nit;
 640:test/Test8.cpp ****     }
 641:test/Test8.cpp ****     printString("test 8 - atomic broadcast uspesno zavrsen\n");
 642:test/Test8.cpp **** }
 643:test/Test8.cpp **** 
 644:test/Test8.cpp **** static int BR=1;
 645:test/Test8.cpp **** static int TH=15;
 646:test/Test8.cpp **** class A8:public Thread{
 647:test/Test8.cpp ****     int id;
 648:test/Test8.cpp ****     int type;
 649:test/Test8.cpp ****     //0-oxygen
 650:test/Test8.cpp ****     //1-hidrogen
GAS LISTING /tmp/ccCnP6rB.s 			page 19


 651:test/Test8.cpp **** public:
 652:test/Test8.cpp ****     A8(int t):Thread(),id(BR++),type(t){
 653:test/Test8.cpp ****         printString("Nit kreirana - id: ");
 654:test/Test8.cpp ****         printInt(id);
 655:test/Test8.cpp ****         printString("\n");
 656:test/Test8.cpp ****     }
 657:test/Test8.cpp **** protected:
 658:test/Test8.cpp ****     void run() override;
 659:test/Test8.cpp **** };
 660:test/Test8.cpp **** 
 661:test/Test8.cpp **** void A8::run() {
 662:test/Test8.cpp ****     for(int m=0;m<3;m++){
 663:test/Test8.cpp ****         printString("Nit, pocetak wrappera- id: ");
 664:test/Test8.cpp ****         printInt(id);
 665:test/Test8.cpp ****         printString("\n");
 666:test/Test8.cpp ****         printString("Iteracija: ");
 667:test/Test8.cpp ****         printInt(m);
 668:test/Test8.cpp ****         printString("\n");
 669:test/Test8.cpp ****         for(int i=0;i<1000;i++){
 670:test/Test8.cpp ****             for(int j=0;j<1000;j++){}
 671:test/Test8.cpp ****             thread_dispatch();
 672:test/Test8.cpp ****         }
 673:test/Test8.cpp ****         printString("Nit - id: ");
 674:test/Test8.cpp ****         printInt(id);
 675:test/Test8.cpp ****         printString("\n");
 676:test/Test8.cpp ****         printString("Iteracija: ");
 677:test/Test8.cpp ****         printInt(m);
 678:test/Test8.cpp ****         printString("\n");
 679:test/Test8.cpp ****         if(type){
 680:test/Test8.cpp ****             H(id);
 681:test/Test8.cpp ****         }else if(type==0){
 682:test/Test8.cpp ****             O(id);
 683:test/Test8.cpp ****         }
 684:test/Test8.cpp ****         thread_dispatch();
 685:test/Test8.cpp ****         printString("Jedna itercija gotova\n");
 686:test/Test8.cpp ****     }
 687:test/Test8.cpp **** 
 688:test/Test8.cpp **** }
 689:test/Test8.cpp **** void testH2O(){
 690:test/Test8.cpp ****     A8* niz[TH];
 691:test/Test8.cpp ****     for(int i=0;i<TH;i++){
 692:test/Test8.cpp ****         if(i%3==0){
 693:test/Test8.cpp ****             niz[i]=new A8(0);
 694:test/Test8.cpp ****         }else{
 695:test/Test8.cpp ****             niz[i]=new A8(1);
 696:test/Test8.cpp ****         }
 697:test/Test8.cpp ****     }
 698:test/Test8.cpp ****     for(auto nit:niz){
 699:test/Test8.cpp ****         nit->start();
 700:test/Test8.cpp ****     }
 701:test/Test8.cpp **** 
 702:test/Test8.cpp ****     for(auto nit:niz){
 703:test/Test8.cpp ****         nit->join();
 704:test/Test8.cpp ****     }
 705:test/Test8.cpp ****     for(auto nit:niz){
 706:test/Test8.cpp ****         delete nit;
 707:test/Test8.cpp ****     }
GAS LISTING /tmp/ccCnP6rB.s 			page 20


 708:test/Test8.cpp ****     printString("TEST 8 - molekul kiseonika gotov\n");
 709:test/Test8.cpp **** };
 710:test/Test8.cpp **** 
 711:test/Test8.cpp **** static int iden=1;
 712:test/Test8.cpp **** static int XX=49;
 713:test/Test8.cpp **** class A9:public Thread{
 714:test/Test8.cpp ****     int id;
 715:test/Test8.cpp ****     int type;
 716:test/Test8.cpp ****     //0-savage
 717:test/Test8.cpp ****     //1-cook
 718:test/Test8.cpp **** public:
 719:test/Test8.cpp ****     A9(int t):Thread(),id(iden++),type(t){
 720:test/Test8.cpp ****         printString("Nit kreirana - id: ");
 721:test/Test8.cpp ****         printInt(id);
 722:test/Test8.cpp ****         printString("\n");
 723:test/Test8.cpp ****     }
 724:test/Test8.cpp **** protected:
 725:test/Test8.cpp ****     void run() override;
 726:test/Test8.cpp **** };
 727:test/Test8.cpp **** 
 728:test/Test8.cpp **** void A9::run() {
 729:test/Test8.cpp ****     for(int m=0;m<3;m++){
 730:test/Test8.cpp ****         printString("Nit, pocetak wrappera- id: ");
 731:test/Test8.cpp ****         printInt(id);
 732:test/Test8.cpp ****         printString("\n");
 733:test/Test8.cpp ****         printString("Iteracija: ");
 734:test/Test8.cpp ****         printInt(m);
 735:test/Test8.cpp ****         printString("\n");
 736:test/Test8.cpp ****         for(int i=0;i<1000;i++){
 737:test/Test8.cpp ****             for(int j=0;j<1000;j++){}
 738:test/Test8.cpp ****             thread_dispatch();
 739:test/Test8.cpp ****         }
 740:test/Test8.cpp ****         printString("Nit - id: ");
 741:test/Test8.cpp ****         printInt(id);
 742:test/Test8.cpp ****         printString("\n");
 743:test/Test8.cpp ****         printString("Iteracija: ");
 744:test/Test8.cpp ****         printInt(m);
 745:test/Test8.cpp ****         printString("\n");
 746:test/Test8.cpp ****         if(type){
 747:test/Test8.cpp ****             cook();
 748:test/Test8.cpp ****         }else if(type==0){
 749:test/Test8.cpp ****             savage(id);
 750:test/Test8.cpp ****         }
 751:test/Test8.cpp ****         thread_dispatch();
 752:test/Test8.cpp ****         printString("Jedna itercija gotova\n");
 753:test/Test8.cpp ****     }
 754:test/Test8.cpp **** 
 755:test/Test8.cpp **** }
 756:test/Test8.cpp **** 
 757:test/Test8.cpp **** void testDiningSavages(){
 758:test/Test8.cpp ****     A9* niz[XX];
 759:test/Test8.cpp ****     for(int i=0;i<30;i++){
 760:test/Test8.cpp ****         niz[i]=new A9(0);
 761:test/Test8.cpp ****     }
 762:test/Test8.cpp ****     niz[30] = new A9(1);
 763:test/Test8.cpp ****     for(int i=31;i<XX;i++){
 764:test/Test8.cpp ****         niz[i]=new A9(0);
GAS LISTING /tmp/ccCnP6rB.s 			page 21


 765:test/Test8.cpp ****     }
 766:test/Test8.cpp ****     for(auto nit:niz){
 767:test/Test8.cpp ****         nit->start();
 768:test/Test8.cpp ****     }
 769:test/Test8.cpp **** 
 770:test/Test8.cpp ****     for(auto nit:niz){
 771:test/Test8.cpp ****         nit->join();
 772:test/Test8.cpp ****     }
 773:test/Test8.cpp ****     for(auto nit:niz){
 774:test/Test8.cpp ****         delete nit;
 775:test/Test8.cpp ****     }
 776:test/Test8.cpp ****     printString("TEST 8 - DINING SAVAGE gotov\n");
 777:test/Test8.cpp **** };
 778:test/Test8.cpp **** 
 779:test/Test8.cpp **** static int num=1;
 780:test/Test8.cpp **** static int BIR=50;
 781:test/Test8.cpp **** class A10:public Thread{
 782:test/Test8.cpp ****     int id;
 783:test/Test8.cpp ****     int type;
 784:test/Test8.cpp ****     //0-child
 785:test/Test8.cpp ****     //1-parent
 786:test/Test8.cpp **** public:
 787:test/Test8.cpp ****     A10(int t):Thread(),id(num++),type(t){
 788:test/Test8.cpp ****         printString("Nit kreirana - id: ");
 789:test/Test8.cpp ****         printInt(id);
 790:test/Test8.cpp ****         printString("\n");
 791:test/Test8.cpp ****     }
 792:test/Test8.cpp **** protected:
 793:test/Test8.cpp ****     void run() override;
 794:test/Test8.cpp **** };
 795:test/Test8.cpp **** 
 796:test/Test8.cpp **** void A10::run() {
 797:test/Test8.cpp ****     for(int m=0;m<3;m++){
 798:test/Test8.cpp ****         printString("Nit, pocetak wrappera- id: ");
 799:test/Test8.cpp ****         printInt(id);
 800:test/Test8.cpp ****         printString("\n");
 801:test/Test8.cpp ****         printString("Iteracija: ");
 802:test/Test8.cpp ****         printInt(m);
 803:test/Test8.cpp ****         printString("\n");
 804:test/Test8.cpp ****         for(int i=0;i<1000;i++){
 805:test/Test8.cpp ****             for(int j=0;j<1000;j++){}
 806:test/Test8.cpp ****             thread_dispatch();
 807:test/Test8.cpp ****         }
 808:test/Test8.cpp ****         printString("Nit - id: ");
 809:test/Test8.cpp ****         printInt(id);
 810:test/Test8.cpp ****         printString("\n");
 811:test/Test8.cpp ****         printString("Iteracija: ");
 812:test/Test8.cpp ****         printInt(m);
 813:test/Test8.cpp ****         printString("\n");
 814:test/Test8.cpp ****         if(type){
 815:test/Test8.cpp ****             birdParent(id);
 816:test/Test8.cpp ****         }else if(type==0){
 817:test/Test8.cpp ****             birdChild(id);
 818:test/Test8.cpp ****         }
 819:test/Test8.cpp ****         //thread_dispatch();
 820:test/Test8.cpp ****         printString("Jedna itercija gotova\n");
 821:test/Test8.cpp ****     }
GAS LISTING /tmp/ccCnP6rB.s 			page 22


 822:test/Test8.cpp **** 
 823:test/Test8.cpp **** }
 824:test/Test8.cpp **** 
 825:test/Test8.cpp **** void testHungryBirds(){
 826:test/Test8.cpp ****     A10* niz[BIR];
 827:test/Test8.cpp ****     for(int i=0;i<BIR;i++){
 828:test/Test8.cpp ****         switch (i) {
 829:test/Test8.cpp ****             case 0:{
 830:test/Test8.cpp ****                 niz[0]=new A10(0);
 831:test/Test8.cpp ****                 break;
 832:test/Test8.cpp ****             }
 833:test/Test8.cpp ****             case 1:{
 834:test/Test8.cpp ****                 niz[1] =new A10(1);
 835:test/Test8.cpp ****                 break;
 836:test/Test8.cpp ****             }
 837:test/Test8.cpp ****             case 31:{
 838:test/Test8.cpp ****                 niz[31] = new A10(1);
 839:test/Test8.cpp ****                 break;
 840:test/Test8.cpp ****             }
 841:test/Test8.cpp ****             default:{
 842:test/Test8.cpp ****                 niz[i] = new A10(0);
 843:test/Test8.cpp ****                 break;
 844:test/Test8.cpp ****             }
 845:test/Test8.cpp **** 
 846:test/Test8.cpp ****         }
 847:test/Test8.cpp ****     }
 848:test/Test8.cpp **** 
 849:test/Test8.cpp ****     for(auto nit:niz){
 850:test/Test8.cpp ****         nit->start();
 851:test/Test8.cpp ****     }
 852:test/Test8.cpp **** 
 853:test/Test8.cpp ****     for(auto nit:niz){
 854:test/Test8.cpp ****         nit->join();
 855:test/Test8.cpp ****     }
 856:test/Test8.cpp ****     for(auto nit:niz){
 857:test/Test8.cpp ****         delete nit;
 858:test/Test8.cpp ****     }
 859:test/Test8.cpp ****     printString("TEST 8 - HUNGRY BIRDS - gotov\n");
 860:test/Test8.cpp **** }
 861:test/Test8.cpp **** 
 862:test/Test8.cpp **** static int number=1;
 863:test/Test8.cpp **** static int animals=50;
 864:test/Test8.cpp **** class A11:public Thread{
 865:test/Test8.cpp ****     int id;
 866:test/Test8.cpp ****     int type;
 867:test/Test8.cpp ****     //0-pcela
 868:test/Test8.cpp ****     //1-medved
 869:test/Test8.cpp **** public:
 870:test/Test8.cpp ****     A11(int t):Thread(),id(number++),type(t){
 871:test/Test8.cpp ****         printString("Nit kreirana - id: ");
 872:test/Test8.cpp ****         printInt(id);
 873:test/Test8.cpp ****         printString("\n");
 874:test/Test8.cpp ****     }
 875:test/Test8.cpp **** protected:
 876:test/Test8.cpp ****     void run() override;
 877:test/Test8.cpp **** };
 878:test/Test8.cpp **** 
GAS LISTING /tmp/ccCnP6rB.s 			page 23


 879:test/Test8.cpp **** void A11::run() {
 880:test/Test8.cpp ****     for(int m=0;m<3;m++){
 881:test/Test8.cpp ****         printString("Nit, pocetak wrappera- id: ");
 882:test/Test8.cpp ****         printInt(id);
 883:test/Test8.cpp ****         printString("\n");
 884:test/Test8.cpp ****         printString("Iteracija: ");
 885:test/Test8.cpp ****         printInt(m);
 886:test/Test8.cpp ****         printString("\n");
 887:test/Test8.cpp ****         for(int i=0;i<1000;i++){
 888:test/Test8.cpp ****             for(int j=0;j<1000;j++){}
 889:test/Test8.cpp ****             thread_dispatch();
 890:test/Test8.cpp ****         }
 891:test/Test8.cpp ****         printString("Nit - id: ");
 892:test/Test8.cpp ****         printInt(id);
 893:test/Test8.cpp ****         printString("\n");
 894:test/Test8.cpp ****         printString("Iteracija: ");
 895:test/Test8.cpp ****         printInt(m);
 896:test/Test8.cpp ****         printString("\n");
 897:test/Test8.cpp ****         if(type){
 898:test/Test8.cpp ****             meda();
 899:test/Test8.cpp ****         }else if(type==0){
 900:test/Test8.cpp ****             pcela(id);
 901:test/Test8.cpp ****         }
 902:test/Test8.cpp ****         //thread_dispatch();
 903:test/Test8.cpp ****         printString("Jedna itercija gotova\n");
 904:test/Test8.cpp ****     }
 905:test/Test8.cpp **** 
 906:test/Test8.cpp **** }
 907:test/Test8.cpp **** 
 908:test/Test8.cpp **** 
 909:test/Test8.cpp **** 
 910:test/Test8.cpp **** 
 911:test/Test8.cpp **** void testBeeBear() {
 912:test/Test8.cpp ****     A11* niz[animals];
 913:test/Test8.cpp ****     for(int i=0;i<animals;i++){
 914:test/Test8.cpp ****         switch (i) {
 915:test/Test8.cpp **** 
 916:test/Test8.cpp ****             case 5:{
 917:test/Test8.cpp ****                 niz[5] =new A11(1);
 918:test/Test8.cpp ****                 break;
 919:test/Test8.cpp ****             }
 920:test/Test8.cpp **** 
 921:test/Test8.cpp ****             default:{
 922:test/Test8.cpp ****                 niz[i] = new A11(0);
 923:test/Test8.cpp ****                 break;
 924:test/Test8.cpp ****             }
 925:test/Test8.cpp **** 
 926:test/Test8.cpp ****         }
 927:test/Test8.cpp ****     }
 928:test/Test8.cpp **** 
 929:test/Test8.cpp ****     for(auto nit:niz){
 930:test/Test8.cpp ****         nit->start();
 931:test/Test8.cpp ****     }
 932:test/Test8.cpp **** 
 933:test/Test8.cpp ****     for(auto nit:niz){
 934:test/Test8.cpp ****         nit->join();
 935:test/Test8.cpp ****     }
GAS LISTING /tmp/ccCnP6rB.s 			page 24


 936:test/Test8.cpp ****     for(auto nit:niz){
 937:test/Test8.cpp ****         delete nit;
 938:test/Test8.cpp ****     }
 939:test/Test8.cpp ****     printString("TEST 8 - HUNGRY BIRDS - gotov\n");
 940:test/Test8.cpp **** }
 941:test/Test8.cpp **** class A12:public Thread{
 942:test/Test8.cpp **** public:
 943:test/Test8.cpp **** 
 944:test/Test8.cpp ****     A12():Thread(){
 945:test/Test8.cpp **** 
 946:test/Test8.cpp ****     }
 947:test/Test8.cpp **** protected:
 948:test/Test8.cpp ****     void run() override;
 949:test/Test8.cpp **** };
 950:test/Test8.cpp **** 
 951:test/Test8.cpp **** class B12:public Thread{
 952:test/Test8.cpp **** public:
 953:test/Test8.cpp **** 
 954:test/Test8.cpp ****     B12():Thread(){
 955:test/Test8.cpp **** 
 956:test/Test8.cpp ****     }
 957:test/Test8.cpp **** protected:
 958:test/Test8.cpp ****     virtual void run();
 959:test/Test8.cpp **** };
 960:test/Test8.cpp **** Semaphore* sem2;
 961:test/Test8.cpp **** Semaphore* sem3;
 962:test/Test8.cpp **** void A12::run() {
 963:test/Test8.cpp ****     printString("Nit A obrada...\n");
 964:test/Test8.cpp ****     for(int i=0;i<1000;i++){
 965:test/Test8.cpp ****         for(int j=0;j<1000;j++){}
 966:test/Test8.cpp ****         thread_dispatch();
 967:test/Test8.cpp ****     };
 968:test/Test8.cpp ****     printString("Nit A hoce 10 zetona...\n");
 969:test/Test8.cpp ****     sem2->waitN(10);
 970:test/Test8.cpp ****     printString("Nit uzela 10 zetona \n");
 971:test/Test8.cpp **** 
 972:test/Test8.cpp **** 
 973:test/Test8.cpp **** 
 974:test/Test8.cpp **** 
 975:test/Test8.cpp ****     printString("A: zavrsila\n");
 976:test/Test8.cpp **** 
 977:test/Test8.cpp **** }
 978:test/Test8.cpp **** 
 979:test/Test8.cpp **** void B12::run() {
 980:test/Test8.cpp **** 
 981:test/Test8.cpp ****     for(int i =0;i<5;i++){
 982:test/Test8.cpp ****         sem2->signalN();
 983:test/Test8.cpp ****         printString("Nit B signalizira semafor 2\n");
 984:test/Test8.cpp **** 
 985:test/Test8.cpp ****     }
 986:test/Test8.cpp **** 
 987:test/Test8.cpp ****     for(int i=0;i<1000;i++){
 988:test/Test8.cpp ****         for(int j=0;j<1000;j++){}
 989:test/Test8.cpp ****         thread_dispatch();
 990:test/Test8.cpp ****     };
 991:test/Test8.cpp ****     printString("Nit B hoce 5 zetona\n");
 992:test/Test8.cpp ****     sem3->waitN(5);
GAS LISTING /tmp/ccCnP6rB.s 			page 25


 993:test/Test8.cpp ****     printString("Nit B uzela 5 zetona.\n");
 994:test/Test8.cpp **** 
 995:test/Test8.cpp **** 
 996:test/Test8.cpp ****     printString("B: Zavrsila!\n");
 997:test/Test8.cpp **** 
 998:test/Test8.cpp **** }
 999:test/Test8.cpp **** 
1000:test/Test8.cpp **** 
1001:test/Test8.cpp **** void testSemaforSaZetonima() {
1002:test/Test8.cpp ****     sem2 = new Semaphore(5);
1003:test/Test8.cpp ****     sem3 = new Semaphore(5);
1004:test/Test8.cpp ****     A12* a = new A12();
1005:test/Test8.cpp ****     B12* b = new B12();
1006:test/Test8.cpp **** 
1007:test/Test8.cpp **** 
1008:test/Test8.cpp ****     a->start();
1009:test/Test8.cpp ****     b->start();
1010:test/Test8.cpp **** 
1011:test/Test8.cpp **** 
1012:test/Test8.cpp ****     a->join();
1013:test/Test8.cpp ****     b->join();
1014:test/Test8.cpp **** 
1015:test/Test8.cpp **** //    delete sem2;
1016:test/Test8.cpp **** //    delete sem3;
1017:test/Test8.cpp ****     delete a;
1018:test/Test8.cpp ****     delete b;
1019:test/Test8.cpp **** };
1020:test/Test8.cpp **** 
1021:test/Test8.cpp **** class A13:public Thread {
1022:test/Test8.cpp **** private:
1023:test/Test8.cpp **** 
1024:test/Test8.cpp **** public:
1025:test/Test8.cpp ****     Thread* toPing;
1026:test/Test8.cpp ****     void setToPing(Thread* t1){
1027:test/Test8.cpp ****         toPing=t1;
1028:test/Test8.cpp ****     }
1029:test/Test8.cpp ****     A13() : Thread() {};
1030:test/Test8.cpp **** protected:
1031:test/Test8.cpp ****     virtual void run();
1032:test/Test8.cpp **** };
1033:test/Test8.cpp **** 
1034:test/Test8.cpp **** void A13::run(){
1035:test/Test8.cpp **** //    int* test = new int[600];
1036:test/Test8.cpp **** //    test[0]=1;
1037:test/Test8.cpp ****     for(int i=0;i<10;i++){
1038:test/Test8.cpp ****         for(uint64 j=0;j<30000;j++){
1039:test/Test8.cpp ****             for(int k=0;k<1000;k++){}
1040:test/Test8.cpp ****             thread_dispatch();
1041:test/Test8.cpp ****         }
1042:test/Test8.cpp ****         printString("A: ");
1043:test/Test8.cpp ****         printInt(i);
1044:test/Test8.cpp ****         printString("\n");
1045:test/Test8.cpp ****         if(i==7){
1046:test/Test8.cpp ****             printString("A: Pinging B...\n");
1047:test/Test8.cpp ****             toPing->pingThread();
1048:test/Test8.cpp ****         }
1049:test/Test8.cpp ****         printString("\n");
GAS LISTING /tmp/ccCnP6rB.s 			page 26


1050:test/Test8.cpp ****         thread_dispatch();
1051:test/Test8.cpp ****     }
1052:test/Test8.cpp **** }
1053:test/Test8.cpp **** 
1054:test/Test8.cpp **** 
1055:test/Test8.cpp **** class B13:public Thread {
1056:test/Test8.cpp **** private:
1057:test/Test8.cpp **** 
1058:test/Test8.cpp **** public:
1059:test/Test8.cpp ****     B13() : Thread() {};
1060:test/Test8.cpp **** protected:
1061:test/Test8.cpp ****     virtual void run();
1062:test/Test8.cpp **** };
1063:test/Test8.cpp **** 
1064:test/Test8.cpp **** void B13::run(){
 308              		.loc 1 1064 16 is_stmt 1
 309              		.cfi_startproc
 310              	.LVL35:
 311 01ec 130101FE 		addi	sp,sp,-32
 312              		.cfi_def_cfa_offset 32
 313 01f0 233C1100 		sd	ra,24(sp)
 314 01f4 23388100 		sd	s0,16(sp)
 315 01f8 23349100 		sd	s1,8(sp)
 316 01fc 23302101 		sd	s2,0(sp)
 317              		.cfi_offset 1, -8
 318              		.cfi_offset 8, -16
 319              		.cfi_offset 9, -24
 320              		.cfi_offset 18, -32
 321 0200 13040102 		addi	s0,sp,32
 322              		.cfi_def_cfa 8, 0
1065:test/Test8.cpp **** 
1066:test/Test8.cpp ****     for(int i=0;i<10;i++){
 323              		.loc 1 1066 5
 324              	.LVL36:
 325              	.LBB110:
 326              		.loc 1 1066 13 is_stmt 0
 327 0204 13090000 		li	s2,0
 328 0208 6F000007 		j	.L21
 329              	.LVL37:
 330              	.L18:
 331              	.LBB111:
 332              	.LBB112:
 333              	.LBB113:
1067:test/Test8.cpp ****         for(uint64 j=0;j<30000;j++){
1068:test/Test8.cpp ****             for(int k=0;k<1000;k++){}
1069:test/Test8.cpp ****             thread_dispatch();
 334              		.loc 1 1069 13 is_stmt 1 discriminator 2
 335              		.loc 1 1069 28 is_stmt 0 discriminator 2
 336 020c 97000000 		call	_Z15thread_dispatchv@plt
 336      E7800000 
 337              	.LVL38:
 338              	.LBE113:
1067:test/Test8.cpp ****         for(uint64 j=0;j<30000;j++){
 339              		.loc 1 1067 9 is_stmt 1 discriminator 2
 340 0214 93841400 		addi	s1,s1,1
 341              	.LVL39:
 342              	.L20:
GAS LISTING /tmp/ccCnP6rB.s 			page 27


1067:test/Test8.cpp ****         for(uint64 j=0;j<30000;j++){
 343              		.loc 1 1067 25 discriminator 1
 344 0218 B7770000 		li	a5,28672
 345 021c 9387F752 		addi	a5,a5,1327
 346 0220 63EC9700 		bgtu	s1,a5,.L17
 347              	.LBB115:
 348              	.LBB114:
1068:test/Test8.cpp ****             thread_dispatch();
 349              		.loc 1 1068 21 is_stmt 0
 350 0224 93070000 		li	a5,0
 351              	.L19:
 352              	.LVL40:
1068:test/Test8.cpp ****             thread_dispatch();
 353              		.loc 1 1068 26 is_stmt 1 discriminator 3
 354 0228 1307703E 		li	a4,999
 355 022c E340F7FE 		bgt	a5,a4,.L18
1068:test/Test8.cpp ****             thread_dispatch();
 356              		.loc 1 1068 13 discriminator 2
 357 0230 9B871700 		addiw	a5,a5,1
 358              	.LVL41:
 359 0234 6FF05FFF 		j	.L19
 360              	.L17:
 361              	.LBE114:
 362              	.LBE115:
 363              	.LBE112:
1070:test/Test8.cpp ****         }
1071:test/Test8.cpp ****         printString("B: ");
 364              		.loc 1 1071 9 discriminator 2
 365              		.loc 1 1071 20 is_stmt 0 discriminator 2
 366 0238 17050000 		lla	a0,.LC8
 366      13050500 
 367 0240 97000000 		call	_Z11printStringPKc@plt
 367      E7800000 
 368              	.LVL42:
1072:test/Test8.cpp ****         printInt(i);
 369              		.loc 1 1072 9 is_stmt 1 discriminator 2
 370              		.loc 1 1072 17 is_stmt 0 discriminator 2
 371 0248 13060000 		li	a2,0
 372 024c 9305A000 		li	a1,10
 373 0250 13050900 		mv	a0,s2
 374 0254 97000000 		call	_Z8printIntiii@plt
 374      E7800000 
 375              	.LVL43:
1073:test/Test8.cpp ****         printString("\n");
 376              		.loc 1 1073 9 is_stmt 1 discriminator 2
 377              		.loc 1 1073 20 is_stmt 0 discriminator 2
 378 025c 17050000 		lla	a0,.LC1
 378      13050500 
 379 0264 97000000 		call	_Z11printStringPKc@plt
 379      E7800000 
 380              	.LVL44:
1074:test/Test8.cpp ****         thread_dispatch();
 381              		.loc 1 1074 9 is_stmt 1 discriminator 2
 382              		.loc 1 1074 24 is_stmt 0 discriminator 2
 383 026c 97000000 		call	_Z15thread_dispatchv@plt
 383      E7800000 
 384              	.LVL45:
GAS LISTING /tmp/ccCnP6rB.s 			page 28


 385              	.LBE111:
1066:test/Test8.cpp ****         for(uint64 j=0;j<30000;j++){
 386              		.loc 1 1066 5 is_stmt 1 discriminator 2
 387 0274 1B091900 		addiw	s2,s2,1
 388              	.LVL46:
 389              	.L21:
1066:test/Test8.cpp ****         for(uint64 j=0;j<30000;j++){
 390              		.loc 1 1066 18 discriminator 1
 391 0278 93079000 		li	a5,9
 392 027c 63C62701 		bgt	s2,a5,.L15
 393              	.LBB117:
 394              	.LBB116:
1067:test/Test8.cpp ****             for(int k=0;k<1000;k++){}
 395              		.loc 1 1067 20 is_stmt 0
 396 0280 93040000 		li	s1,0
 397 0284 6FF05FF9 		j	.L20
 398              	.L15:
 399              	.LBE116:
 400              	.LBE117:
 401              	.LBE110:
1075:test/Test8.cpp ****     }
1076:test/Test8.cpp **** }
 402              		.loc 1 1076 1
 403 0288 83308101 		ld	ra,24(sp)
 404              		.cfi_restore 1
 405 028c 03340101 		ld	s0,16(sp)
 406              		.cfi_restore 8
 407              		.cfi_def_cfa 2, 32
 408 0290 83348100 		ld	s1,8(sp)
 409              		.cfi_restore 9
 410 0294 03390100 		ld	s2,0(sp)
 411              		.cfi_restore 18
 412              	.LVL47:
 413 0298 13010102 		addi	sp,sp,32
 414              		.cfi_def_cfa_offset 0
 415 029c 67800000 		jr	ra
 416              		.cfi_endproc
 417              	.LFE100:
 419              		.section	.rodata.str1.8
 420 0074 00000000 		.align	3
 421              	.LC9:
 422 0078 4E69742C 		.string	"Nit, pocetak wrappera- id: "
 422      20706F63 
 422      6574616B 
 422      20777261 
 422      70706572 
 423 0094 00000000 		.align	3
 424              	.LC10:
 425 0098 49746572 		.string	"Iteracija: "
 425      6163696A 
 425      613A2000 
 426 00a4 00000000 		.align	3
 427              	.LC11:
 428 00a8 4E697420 		.string	"Nit - id: "
 428      2D206964 
 428      3A2000
 429 00b3 00000000 		.align	3
GAS LISTING /tmp/ccCnP6rB.s 			page 29


 429      00
 430              	.LC12:
 431 00b8 4A65646E 		.string	"Jedna itercija gotova\n"
 431      61206974 
 431      65726369 
 431      6A612067 
 431      6F746F76 
 432              		.text
 433              		.align	2
 434              		.globl	_ZN2A13runEv
 436              	_ZN2A13runEv:
 437              	.LFB8:
  26:test/Test8.cpp ****     for(int m=0;m<3;m++){
 438              		.loc 1 26 16 is_stmt 1
 439              		.cfi_startproc
 440              	.LVL48:
 441 02a0 130101FD 		addi	sp,sp,-48
 442              		.cfi_def_cfa_offset 48
 443 02a4 23341102 		sd	ra,40(sp)
 444 02a8 23308102 		sd	s0,32(sp)
 445 02ac 233C9100 		sd	s1,24(sp)
 446 02b0 23382101 		sd	s2,16(sp)
 447 02b4 23343101 		sd	s3,8(sp)
 448              		.cfi_offset 1, -8
 449              		.cfi_offset 8, -16
 450              		.cfi_offset 9, -24
 451              		.cfi_offset 18, -32
 452              		.cfi_offset 19, -40
 453 02b8 13040103 		addi	s0,sp,48
 454              		.cfi_def_cfa 8, 0
 455 02bc 13090500 		mv	s2,a0
  27:test/Test8.cpp ****         printString("Nit, pocetak wrappera- id: ");
 456              		.loc 1 27 5
 457              	.LVL49:
 458              	.LBB118:
  27:test/Test8.cpp ****         printString("Nit, pocetak wrappera- id: ");
 459              		.loc 1 27 13 is_stmt 0
 460 02c0 93090000 		li	s3,0
 461 02c4 6F00800C 		j	.L31
 462              	.LVL50:
 463              	.L26:
 464              	.LBB119:
 465              	.LBB120:
 466              	.LBB121:
  36:test/Test8.cpp ****         }
 467              		.loc 1 36 13 is_stmt 1 discriminator 2
  36:test/Test8.cpp ****         }
 468              		.loc 1 36 28 is_stmt 0 discriminator 2
 469 02c8 97000000 		call	_Z15thread_dispatchv@plt
 469      E7800000 
 470              	.LVL51:
 471              	.LBE121:
  34:test/Test8.cpp ****             for(int j=0;j<1000;j++){}
 472              		.loc 1 34 9 is_stmt 1 discriminator 2
 473 02d0 9B841400 		addiw	s1,s1,1
 474              	.LVL52:
 475              	.L28:
GAS LISTING /tmp/ccCnP6rB.s 			page 30


  34:test/Test8.cpp ****             for(int j=0;j<1000;j++){}
 476              		.loc 1 34 22 discriminator 1
 477 02d4 9307703E 		li	a5,999
 478 02d8 63CC9700 		bgt	s1,a5,.L25
 479              	.LBB123:
 480              	.LBB122:
  35:test/Test8.cpp ****             thread_dispatch();
 481              		.loc 1 35 21 is_stmt 0
 482 02dc 93070000 		li	a5,0
 483              	.L27:
 484              	.LVL53:
  35:test/Test8.cpp ****             thread_dispatch();
 485              		.loc 1 35 26 is_stmt 1 discriminator 3
 486 02e0 1307703E 		li	a4,999
 487 02e4 E342F7FE 		bgt	a5,a4,.L26
  35:test/Test8.cpp ****             thread_dispatch();
 488              		.loc 1 35 13 discriminator 2
 489 02e8 9B871700 		addiw	a5,a5,1
 490              	.LVL54:
 491 02ec 6FF05FFF 		j	.L27
 492              	.L25:
 493              	.LBE122:
 494              	.LBE123:
 495              	.LBE120:
  38:test/Test8.cpp ****         printInt(id);
 496              		.loc 1 38 9
  38:test/Test8.cpp ****         printInt(id);
 497              		.loc 1 38 20 is_stmt 0
 498 02f0 17050000 		lla	a0,.LC11
 498      13050500 
 499 02f8 97000000 		call	_Z11printStringPKc@plt
 499      E7800000 
 500              	.LVL55:
  39:test/Test8.cpp ****         printString("\n");
 501              		.loc 1 39 9 is_stmt 1
  39:test/Test8.cpp ****         printString("\n");
 502              		.loc 1 39 17 is_stmt 0
 503 0300 13060000 		li	a2,0
 504 0304 9305A000 		li	a1,10
 505 0308 03250902 		lw	a0,32(s2)
 506 030c 97000000 		call	_Z8printIntiii@plt
 506      E7800000 
 507              	.LVL56:
  40:test/Test8.cpp ****         printString("Iteracija: ");
 508              		.loc 1 40 9 is_stmt 1
  40:test/Test8.cpp ****         printString("Iteracija: ");
 509              		.loc 1 40 20 is_stmt 0
 510 0314 17050000 		lla	a0,.LC1
 510      13050500 
 511 031c 97000000 		call	_Z11printStringPKc@plt
 511      E7800000 
 512              	.LVL57:
  41:test/Test8.cpp ****         printInt(m);
 513              		.loc 1 41 9 is_stmt 1
  41:test/Test8.cpp ****         printInt(m);
 514              		.loc 1 41 20 is_stmt 0
 515 0324 17050000 		lla	a0,.LC10
GAS LISTING /tmp/ccCnP6rB.s 			page 31


 515      13050500 
 516 032c 97000000 		call	_Z11printStringPKc@plt
 516      E7800000 
 517              	.LVL58:
  42:test/Test8.cpp ****         printString("\n");
 518              		.loc 1 42 9 is_stmt 1
  42:test/Test8.cpp ****         printString("\n");
 519              		.loc 1 42 17 is_stmt 0
 520 0334 13060000 		li	a2,0
 521 0338 9305A000 		li	a1,10
 522 033c 13850900 		mv	a0,s3
 523 0340 97000000 		call	_Z8printIntiii@plt
 523      E7800000 
 524              	.LVL59:
  43:test/Test8.cpp ****         if(type){
 525              		.loc 1 43 9 is_stmt 1
  43:test/Test8.cpp ****         if(type){
 526              		.loc 1 43 20 is_stmt 0
 527 0348 17050000 		lla	a0,.LC1
 527      13050500 
 528 0350 97000000 		call	_Z11printStringPKc@plt
 528      E7800000 
 529              	.LVL60:
  44:test/Test8.cpp ****             woman(id);
 530              		.loc 1 44 9 is_stmt 1
  44:test/Test8.cpp ****             woman(id);
 531              		.loc 1 44 12 is_stmt 0
 532 0358 83274902 		lw	a5,36(s2)
  44:test/Test8.cpp ****             woman(id);
 533              		.loc 1 44 9
 534 035c 6384070A 		beqz	a5,.L29
  45:test/Test8.cpp ****         }else if(type==0){
 535              		.loc 1 45 13 is_stmt 1
  45:test/Test8.cpp ****         }else if(type==0){
 536              		.loc 1 45 18 is_stmt 0
 537 0360 83250902 		lw	a1,32(s2)
 538 0364 13050900 		mv	a0,s2
 539 0368 97000000 		call	_ZN6Thread5womanEj@plt
 539      E7800000 
 540              	.LVL61:
 541              	.L30:
  49:test/Test8.cpp ****         printString("Jedna itercija gotova\n");
 542              		.loc 1 49 9 is_stmt 1 discriminator 2
  49:test/Test8.cpp ****         printString("Jedna itercija gotova\n");
 543              		.loc 1 49 24 is_stmt 0 discriminator 2
 544 0370 97000000 		call	_Z15thread_dispatchv@plt
 544      E7800000 
 545              	.LVL62:
  50:test/Test8.cpp ****     }
 546              		.loc 1 50 9 is_stmt 1 discriminator 2
  50:test/Test8.cpp ****     }
 547              		.loc 1 50 20 is_stmt 0 discriminator 2
 548 0378 17050000 		lla	a0,.LC12
 548      13050500 
 549 0380 97000000 		call	_Z11printStringPKc@plt
 549      E7800000 
 550              	.LVL63:
GAS LISTING /tmp/ccCnP6rB.s 			page 32


 551              	.LBE119:
  27:test/Test8.cpp ****         printString("Nit, pocetak wrappera- id: ");
 552              		.loc 1 27 5 is_stmt 1 discriminator 2
 553 0388 9B891900 		addiw	s3,s3,1
 554              	.LVL64:
 555              	.L31:
  27:test/Test8.cpp ****         printString("Nit, pocetak wrappera- id: ");
 556              		.loc 1 27 18 discriminator 1
 557 038c 93072000 		li	a5,2
 558 0390 63C43709 		bgt	s3,a5,.L23
 559              	.LBB125:
  28:test/Test8.cpp ****         printInt(id);
 560              		.loc 1 28 9
  28:test/Test8.cpp ****         printInt(id);
 561              		.loc 1 28 20 is_stmt 0
 562 0394 17050000 		lla	a0,.LC9
 562      13050500 
 563 039c 97000000 		call	_Z11printStringPKc@plt
 563      E7800000 
 564              	.LVL65:
  29:test/Test8.cpp ****         printString("\n");
 565              		.loc 1 29 9 is_stmt 1
  29:test/Test8.cpp ****         printString("\n");
 566              		.loc 1 29 17 is_stmt 0
 567 03a4 13060000 		li	a2,0
 568 03a8 9305A000 		li	a1,10
 569 03ac 03250902 		lw	a0,32(s2)
 570 03b0 97000000 		call	_Z8printIntiii@plt
 570      E7800000 
 571              	.LVL66:
  30:test/Test8.cpp ****         printString("Iteracija: ");
 572              		.loc 1 30 9 is_stmt 1
  30:test/Test8.cpp ****         printString("Iteracija: ");
 573              		.loc 1 30 20 is_stmt 0
 574 03b8 17050000 		lla	a0,.LC1
 574      13050500 
 575 03c0 97000000 		call	_Z11printStringPKc@plt
 575      E7800000 
 576              	.LVL67:
  31:test/Test8.cpp ****         printInt(m);
 577              		.loc 1 31 9 is_stmt 1
  31:test/Test8.cpp ****         printInt(m);
 578              		.loc 1 31 20 is_stmt 0
 579 03c8 17050000 		lla	a0,.LC10
 579      13050500 
 580 03d0 97000000 		call	_Z11printStringPKc@plt
 580      E7800000 
 581              	.LVL68:
  32:test/Test8.cpp ****         printString("\n");
 582              		.loc 1 32 9 is_stmt 1
  32:test/Test8.cpp ****         printString("\n");
 583              		.loc 1 32 17 is_stmt 0
 584 03d8 13060000 		li	a2,0
 585 03dc 9305A000 		li	a1,10
 586 03e0 13850900 		mv	a0,s3
 587 03e4 97000000 		call	_Z8printIntiii@plt
 587      E7800000 
GAS LISTING /tmp/ccCnP6rB.s 			page 33


 588              	.LVL69:
  33:test/Test8.cpp ****         for(int i=0;i<1000;i++){
 589              		.loc 1 33 9 is_stmt 1
  33:test/Test8.cpp ****         for(int i=0;i<1000;i++){
 590              		.loc 1 33 20 is_stmt 0
 591 03ec 17050000 		lla	a0,.LC1
 591      13050500 
 592 03f4 97000000 		call	_Z11printStringPKc@plt
 592      E7800000 
 593              	.LVL70:
  34:test/Test8.cpp ****             for(int j=0;j<1000;j++){}
 594              		.loc 1 34 9 is_stmt 1
 595              	.LBB124:
  34:test/Test8.cpp ****             for(int j=0;j<1000;j++){}
 596              		.loc 1 34 17 is_stmt 0
 597 03fc 93040000 		li	s1,0
 598 0400 6FF05FED 		j	.L28
 599              	.LVL71:
 600              	.L29:
 601              	.LBE124:
  46:test/Test8.cpp ****             man(id);
 602              		.loc 1 46 15 is_stmt 1
  47:test/Test8.cpp ****         }
 603              		.loc 1 47 13
  47:test/Test8.cpp ****         }
 604              		.loc 1 47 16 is_stmt 0
 605 0404 83250902 		lw	a1,32(s2)
 606 0408 13050900 		mv	a0,s2
 607 040c 97000000 		call	_ZN6Thread3manEj@plt
 607      E7800000 
 608              	.LVL72:
 609 0414 6FF0DFF5 		j	.L30
 610              	.LVL73:
 611              	.L23:
 612              	.LBE125:
 613              	.LBE118:
  53:test/Test8.cpp **** void test8(){
 614              		.loc 1 53 1
 615 0418 83308102 		ld	ra,40(sp)
 616              		.cfi_restore 1
 617 041c 03340102 		ld	s0,32(sp)
 618              		.cfi_restore 8
 619              		.cfi_def_cfa 2, 48
 620 0420 83348101 		ld	s1,24(sp)
 621              		.cfi_restore 9
 622 0424 03390101 		ld	s2,16(sp)
 623              		.cfi_restore 18
 624              	.LVL74:
 625 0428 83398100 		ld	s3,8(sp)
 626              		.cfi_restore 19
 627              	.LVL75:
 628 042c 13010103 		addi	sp,sp,48
 629              		.cfi_def_cfa_offset 0
 630 0430 67800000 		jr	ra
 631              		.cfi_endproc
 632              	.LFE8:
 634              		.section	.text._ZN2A7D2Ev,"axG",@progbits,_ZN2A7D5Ev,comdat
GAS LISTING /tmp/ccCnP6rB.s 			page 34


 635              		.align	2
 636              		.weak	_ZN2A7D2Ev
 638              	_ZN2A7D2Ev:
 639              	.LFB156:
 574:test/Test8.cpp ****     int id;
 640              		.loc 1 574 7 is_stmt 1
 641              		.cfi_startproc
 642              	.LVL76:
 643 0000 130101FF 		addi	sp,sp,-16
 644              		.cfi_def_cfa_offset 16
 645 0004 23341100 		sd	ra,8(sp)
 646 0008 23308100 		sd	s0,0(sp)
 647              		.cfi_offset 1, -8
 648              		.cfi_offset 8, -16
 649 000c 13040101 		addi	s0,sp,16
 650              		.cfi_def_cfa 8, 0
 651              	.LBB126:
 574:test/Test8.cpp ****     int id;
 652              		.loc 1 574 7 is_stmt 0
 653 0010 97070000 		lla	a5,_ZTV2A7+16
 653      93870700 
 654 0018 2330F500 		sd	a5,0(a0)
 655 001c 97000000 		call	_ZN6ThreadD2Ev@plt
 655      E7800000 
 656              	.LVL77:
 657              	.LBE126:
 658 0024 83308100 		ld	ra,8(sp)
 659              		.cfi_restore 1
 660 0028 03340100 		ld	s0,0(sp)
 661              		.cfi_restore 8
 662              		.cfi_def_cfa 2, 16
 663 002c 13010101 		addi	sp,sp,16
 664              		.cfi_def_cfa_offset 0
 665 0030 67800000 		jr	ra
 666              		.cfi_endproc
 667              	.LFE156:
 669              		.weak	_ZN2A7D1Ev
 670              		.set	_ZN2A7D1Ev,_ZN2A7D2Ev
 671              		.section	.text._ZN2A7D0Ev,"axG",@progbits,_ZN2A7D5Ev,comdat
 672              		.align	2
 673              		.weak	_ZN2A7D0Ev
 675              	_ZN2A7D0Ev:
 676              	.LFB158:
 574:test/Test8.cpp ****     int id;
 677              		.loc 1 574 7 is_stmt 1
 678              		.cfi_startproc
 679              	.LVL78:
 680 0000 130101FE 		addi	sp,sp,-32
 681              		.cfi_def_cfa_offset 32
 682 0004 233C1100 		sd	ra,24(sp)
 683 0008 23388100 		sd	s0,16(sp)
 684 000c 23349100 		sd	s1,8(sp)
 685              		.cfi_offset 1, -8
 686              		.cfi_offset 8, -16
 687              		.cfi_offset 9, -24
 688 0010 13040102 		addi	s0,sp,32
 689              		.cfi_def_cfa 8, 0
GAS LISTING /tmp/ccCnP6rB.s 			page 35


 690 0014 93040500 		mv	s1,a0
 691              	.LVL79:
 692              	.LBB127:
 693              	.LBB128:
 574:test/Test8.cpp ****     int id;
 694              		.loc 1 574 7 is_stmt 0
 695 0018 97070000 		lla	a5,_ZTV2A7+16
 695      93870700 
 696 0020 2330F500 		sd	a5,0(a0)
 697 0024 97000000 		call	_ZN6ThreadD2Ev@plt
 697      E7800000 
 698              	.LVL80:
 699              	.LBE128:
 700              	.LBE127:
 701 002c 13850400 		mv	a0,s1
 702 0030 97000000 		call	_ZdlPv@plt
 702      E7800000 
 703              	.LVL81:
 704 0038 83308101 		ld	ra,24(sp)
 705              		.cfi_restore 1
 706 003c 03340101 		ld	s0,16(sp)
 707              		.cfi_restore 8
 708              		.cfi_def_cfa 2, 32
 709 0040 83348100 		ld	s1,8(sp)
 710              		.cfi_restore 9
 711              	.LVL82:
 712 0044 13010102 		addi	sp,sp,32
 713              		.cfi_def_cfa_offset 0
 714 0048 67800000 		jr	ra
 715              		.cfi_endproc
 716              	.LFE158:
 718              		.section	.text._ZN2B7D2Ev,"axG",@progbits,_ZN2B7D5Ev,comdat
 719              		.align	2
 720              		.weak	_ZN2B7D2Ev
 722              	_ZN2B7D2Ev:
 723              	.LFB152:
 596:test/Test8.cpp **** 
 724              		.loc 1 596 7 is_stmt 1
 725              		.cfi_startproc
 726              	.LVL83:
 727 0000 130101FF 		addi	sp,sp,-16
 728              		.cfi_def_cfa_offset 16
 729 0004 23341100 		sd	ra,8(sp)
 730 0008 23308100 		sd	s0,0(sp)
 731              		.cfi_offset 1, -8
 732              		.cfi_offset 8, -16
 733 000c 13040101 		addi	s0,sp,16
 734              		.cfi_def_cfa 8, 0
 735              	.LBB129:
 596:test/Test8.cpp **** 
 736              		.loc 1 596 7 is_stmt 0
 737 0010 97070000 		lla	a5,_ZTV2B7+16
 737      93870700 
 738 0018 2330F500 		sd	a5,0(a0)
 739 001c 97000000 		call	_ZN6ThreadD2Ev@plt
 739      E7800000 
 740              	.LVL84:
GAS LISTING /tmp/ccCnP6rB.s 			page 36


 741              	.LBE129:
 742 0024 83308100 		ld	ra,8(sp)
 743              		.cfi_restore 1
 744 0028 03340100 		ld	s0,0(sp)
 745              		.cfi_restore 8
 746              		.cfi_def_cfa 2, 16
 747 002c 13010101 		addi	sp,sp,16
 748              		.cfi_def_cfa_offset 0
 749 0030 67800000 		jr	ra
 750              		.cfi_endproc
 751              	.LFE152:
 753              		.weak	_ZN2B7D1Ev
 754              		.set	_ZN2B7D1Ev,_ZN2B7D2Ev
 755              		.section	.text._ZN2B7D0Ev,"axG",@progbits,_ZN2B7D5Ev,comdat
 756              		.align	2
 757              		.weak	_ZN2B7D0Ev
 759              	_ZN2B7D0Ev:
 760              	.LFB154:
 596:test/Test8.cpp **** 
 761              		.loc 1 596 7 is_stmt 1
 762              		.cfi_startproc
 763              	.LVL85:
 764 0000 130101FE 		addi	sp,sp,-32
 765              		.cfi_def_cfa_offset 32
 766 0004 233C1100 		sd	ra,24(sp)
 767 0008 23388100 		sd	s0,16(sp)
 768 000c 23349100 		sd	s1,8(sp)
 769              		.cfi_offset 1, -8
 770              		.cfi_offset 8, -16
 771              		.cfi_offset 9, -24
 772 0010 13040102 		addi	s0,sp,32
 773              		.cfi_def_cfa 8, 0
 774 0014 93040500 		mv	s1,a0
 775              	.LVL86:
 776              	.LBB130:
 777              	.LBB131:
 596:test/Test8.cpp **** 
 778              		.loc 1 596 7 is_stmt 0
 779 0018 97070000 		lla	a5,_ZTV2B7+16
 779      93870700 
 780 0020 2330F500 		sd	a5,0(a0)
 781 0024 97000000 		call	_ZN6ThreadD2Ev@plt
 781      E7800000 
 782              	.LVL87:
 783              	.LBE131:
 784              	.LBE130:
 785 002c 13850400 		mv	a0,s1
 786 0030 97000000 		call	_ZdlPv@plt
 786      E7800000 
 787              	.LVL88:
 788 0038 83308101 		ld	ra,24(sp)
 789              		.cfi_restore 1
 790 003c 03340101 		ld	s0,16(sp)
 791              		.cfi_restore 8
 792              		.cfi_def_cfa 2, 32
 793 0040 83348100 		ld	s1,8(sp)
 794              		.cfi_restore 9
GAS LISTING /tmp/ccCnP6rB.s 			page 37


 795              	.LVL89:
 796 0044 13010102 		addi	sp,sp,32
 797              		.cfi_def_cfa_offset 0
 798 0048 67800000 		jr	ra
 799              		.cfi_endproc
 800              	.LFE154:
 802              		.section	.text._ZN11testTRYWaitD2Ev,"axG",@progbits,_ZN11testTRYWaitD5Ev,comdat
 803              		.align	2
 804              		.weak	_ZN11testTRYWaitD2Ev
 806              	_ZN11testTRYWaitD2Ev:
 807              	.LFB112:
1077:test/Test8.cpp **** 
1078:test/Test8.cpp **** class C13:public Thread {
1079:test/Test8.cpp **** private:
1080:test/Test8.cpp **** 
1081:test/Test8.cpp **** public:
1082:test/Test8.cpp ****     Thread* toPing;
1083:test/Test8.cpp ****     C13(void* t) : Thread() {toPing = (Thread*)t;};
1084:test/Test8.cpp **** 
1085:test/Test8.cpp **** protected:
1086:test/Test8.cpp ****     virtual void run();
1087:test/Test8.cpp **** };
1088:test/Test8.cpp **** 
1089:test/Test8.cpp **** void C13::run(){
1090:test/Test8.cpp **** //    int* test = new int[600];
1091:test/Test8.cpp **** //    test[0]=1;
1092:test/Test8.cpp ****     for(int i=0;i<10;i++){
1093:test/Test8.cpp ****         for(uint64 j=0;j<30000;j++){
1094:test/Test8.cpp ****             for(int k=0;k<1000;k++){}
1095:test/Test8.cpp ****             thread_dispatch();
1096:test/Test8.cpp ****         }
1097:test/Test8.cpp ****         printString("C: ");
1098:test/Test8.cpp ****         printInt(i);
1099:test/Test8.cpp ****         printString("\n");
1100:test/Test8.cpp ****         if(i==5){
1101:test/Test8.cpp ****             printString("C: Pinging A...\n");
1102:test/Test8.cpp ****             toPing->pingThread();
1103:test/Test8.cpp ****         }
1104:test/Test8.cpp ****         thread_dispatch();
1105:test/Test8.cpp ****     }
1106:test/Test8.cpp **** }
1107:test/Test8.cpp **** 
1108:test/Test8.cpp **** 
1109:test/Test8.cpp **** void testPing(){
1110:test/Test8.cpp ****     //Thread *threads[3];
1111:test/Test8.cpp **** 
1112:test/Test8.cpp **** 
1113:test/Test8.cpp ****     A13* a1=new A13();
1114:test/Test8.cpp ****     printString("A kreiran\n");
1115:test/Test8.cpp ****     B13* b1=new B13();
1116:test/Test8.cpp ****     printString("B kreiran\n");
1117:test/Test8.cpp ****     C13* c1 =new C13(a1);
1118:test/Test8.cpp **** 
1119:test/Test8.cpp ****     a1->setToPing(c1);
1120:test/Test8.cpp **** 
1121:test/Test8.cpp ****     printString("C krieran\n");
1122:test/Test8.cpp **** 
GAS LISTING /tmp/ccCnP6rB.s 			page 38


1123:test/Test8.cpp ****     a1->start();
1124:test/Test8.cpp ****     b1->start();
1125:test/Test8.cpp ****     c1->start();
1126:test/Test8.cpp **** 
1127:test/Test8.cpp ****     //a1->join();
1128:test/Test8.cpp ****     b1->join();
1129:test/Test8.cpp ****     c1->join();
1130:test/Test8.cpp **** 
1131:test/Test8.cpp ****     delete a1;
1132:test/Test8.cpp ****     delete c1;
1133:test/Test8.cpp ****     delete b1;
1134:test/Test8.cpp **** 
1135:test/Test8.cpp ****     printString("TEST 8 - PING thread uspesno gotov\n");
1136:test/Test8.cpp **** 
1137:test/Test8.cpp **** }
1138:test/Test8.cpp **** 
1139:test/Test8.cpp **** static Semaphore* s;
1140:test/Test8.cpp **** static Semaphore* waitNiti;
1141:test/Test8.cpp **** class testTRYWait: public Thread{
 808              		.loc 1 1141 7 is_stmt 1
 809              		.cfi_startproc
 810              	.LVL90:
 811 0000 130101FF 		addi	sp,sp,-16
 812              		.cfi_def_cfa_offset 16
 813 0004 23341100 		sd	ra,8(sp)
 814 0008 23308100 		sd	s0,0(sp)
 815              		.cfi_offset 1, -8
 816              		.cfi_offset 8, -16
 817 000c 13040101 		addi	s0,sp,16
 818              		.cfi_def_cfa 8, 0
 819              	.LBB132:
 820              		.loc 1 1141 7 is_stmt 0
 821 0010 97070000 		lla	a5,_ZTV11testTRYWait+16
 821      93870700 
 822 0018 2330F500 		sd	a5,0(a0)
 823 001c 97000000 		call	_ZN6ThreadD2Ev@plt
 823      E7800000 
 824              	.LVL91:
 825              	.LBE132:
 826 0024 83308100 		ld	ra,8(sp)
 827              		.cfi_restore 1
 828 0028 03340100 		ld	s0,0(sp)
 829              		.cfi_restore 8
 830              		.cfi_def_cfa 2, 16
 831 002c 13010101 		addi	sp,sp,16
 832              		.cfi_def_cfa_offset 0
 833 0030 67800000 		jr	ra
 834              		.cfi_endproc
 835              	.LFE112:
 837              		.weak	_ZN11testTRYWaitD1Ev
 838              		.set	_ZN11testTRYWaitD1Ev,_ZN11testTRYWaitD2Ev
 839              		.section	.text._ZN11testTRYWaitD0Ev,"axG",@progbits,_ZN11testTRYWaitD5Ev,comdat
 840              		.align	2
 841              		.weak	_ZN11testTRYWaitD0Ev
 843              	_ZN11testTRYWaitD0Ev:
 844              	.LFB114:
 845              		.loc 1 1141 7 is_stmt 1
GAS LISTING /tmp/ccCnP6rB.s 			page 39


 846              		.cfi_startproc
 847              	.LVL92:
 848 0000 130101FE 		addi	sp,sp,-32
 849              		.cfi_def_cfa_offset 32
 850 0004 233C1100 		sd	ra,24(sp)
 851 0008 23388100 		sd	s0,16(sp)
 852 000c 23349100 		sd	s1,8(sp)
 853              		.cfi_offset 1, -8
 854              		.cfi_offset 8, -16
 855              		.cfi_offset 9, -24
 856 0010 13040102 		addi	s0,sp,32
 857              		.cfi_def_cfa 8, 0
 858 0014 93040500 		mv	s1,a0
 859              	.LVL93:
 860              	.LBB133:
 861              	.LBB134:
 862              		.loc 1 1141 7 is_stmt 0
 863 0018 97070000 		lla	a5,_ZTV11testTRYWait+16
 863      93870700 
 864 0020 2330F500 		sd	a5,0(a0)
 865 0024 97000000 		call	_ZN6ThreadD2Ev@plt
 865      E7800000 
 866              	.LVL94:
 867              	.LBE134:
 868              	.LBE133:
 869 002c 13850400 		mv	a0,s1
 870 0030 97000000 		call	_ZdlPv@plt
 870      E7800000 
 871              	.LVL95:
 872 0038 83308101 		ld	ra,24(sp)
 873              		.cfi_restore 1
 874 003c 03340101 		ld	s0,16(sp)
 875              		.cfi_restore 8
 876              		.cfi_def_cfa 2, 32
 877 0040 83348100 		ld	s1,8(sp)
 878              		.cfi_restore 9
 879              	.LVL96:
 880 0044 13010102 		addi	sp,sp,32
 881              		.cfi_def_cfa_offset 0
 882 0048 67800000 		jr	ra
 883              		.cfi_endproc
 884              	.LFE114:
 886              		.section	.text._ZN3C13D2Ev,"axG",@progbits,_ZN3C13D5Ev,comdat
 887              		.align	2
 888              		.weak	_ZN3C13D2Ev
 890              	_ZN3C13D2Ev:
 891              	.LFB116:
1078:test/Test8.cpp **** private:
 892              		.loc 1 1078 7 is_stmt 1
 893              		.cfi_startproc
 894              	.LVL97:
 895 0000 130101FF 		addi	sp,sp,-16
 896              		.cfi_def_cfa_offset 16
 897 0004 23341100 		sd	ra,8(sp)
 898 0008 23308100 		sd	s0,0(sp)
 899              		.cfi_offset 1, -8
 900              		.cfi_offset 8, -16
GAS LISTING /tmp/ccCnP6rB.s 			page 40


 901 000c 13040101 		addi	s0,sp,16
 902              		.cfi_def_cfa 8, 0
 903              	.LBB135:
1078:test/Test8.cpp **** private:
 904              		.loc 1 1078 7 is_stmt 0
 905 0010 97070000 		lla	a5,_ZTV3C13+16
 905      93870700 
 906 0018 2330F500 		sd	a5,0(a0)
 907 001c 97000000 		call	_ZN6ThreadD2Ev@plt
 907      E7800000 
 908              	.LVL98:
 909              	.LBE135:
 910 0024 83308100 		ld	ra,8(sp)
 911              		.cfi_restore 1
 912 0028 03340100 		ld	s0,0(sp)
 913              		.cfi_restore 8
 914              		.cfi_def_cfa 2, 16
 915 002c 13010101 		addi	sp,sp,16
 916              		.cfi_def_cfa_offset 0
 917 0030 67800000 		jr	ra
 918              		.cfi_endproc
 919              	.LFE116:
 921              		.weak	_ZN3C13D1Ev
 922              		.set	_ZN3C13D1Ev,_ZN3C13D2Ev
 923              		.section	.text._ZN3C13D0Ev,"axG",@progbits,_ZN3C13D5Ev,comdat
 924              		.align	2
 925              		.weak	_ZN3C13D0Ev
 927              	_ZN3C13D0Ev:
 928              	.LFB118:
1078:test/Test8.cpp **** private:
 929              		.loc 1 1078 7 is_stmt 1
 930              		.cfi_startproc
 931              	.LVL99:
 932 0000 130101FE 		addi	sp,sp,-32
 933              		.cfi_def_cfa_offset 32
 934 0004 233C1100 		sd	ra,24(sp)
 935 0008 23388100 		sd	s0,16(sp)
 936 000c 23349100 		sd	s1,8(sp)
 937              		.cfi_offset 1, -8
 938              		.cfi_offset 8, -16
 939              		.cfi_offset 9, -24
 940 0010 13040102 		addi	s0,sp,32
 941              		.cfi_def_cfa 8, 0
 942 0014 93040500 		mv	s1,a0
 943              	.LVL100:
 944              	.LBB136:
 945              	.LBB137:
1078:test/Test8.cpp **** private:
 946              		.loc 1 1078 7 is_stmt 0
 947 0018 97070000 		lla	a5,_ZTV3C13+16
 947      93870700 
 948 0020 2330F500 		sd	a5,0(a0)
 949 0024 97000000 		call	_ZN6ThreadD2Ev@plt
 949      E7800000 
 950              	.LVL101:
 951              	.LBE137:
 952              	.LBE136:
GAS LISTING /tmp/ccCnP6rB.s 			page 41


 953 002c 13850400 		mv	a0,s1
 954 0030 97000000 		call	_ZdlPv@plt
 954      E7800000 
 955              	.LVL102:
 956 0038 83308101 		ld	ra,24(sp)
 957              		.cfi_restore 1
 958 003c 03340101 		ld	s0,16(sp)
 959              		.cfi_restore 8
 960              		.cfi_def_cfa 2, 32
 961 0040 83348100 		ld	s1,8(sp)
 962              		.cfi_restore 9
 963              	.LVL103:
 964 0044 13010102 		addi	sp,sp,32
 965              		.cfi_def_cfa_offset 0
 966 0048 67800000 		jr	ra
 967              		.cfi_endproc
 968              	.LFE118:
 970              		.section	.text._ZN3B13D2Ev,"axG",@progbits,_ZN3B13D5Ev,comdat
 971              		.align	2
 972              		.weak	_ZN3B13D2Ev
 974              	_ZN3B13D2Ev:
 975              	.LFB120:
1055:test/Test8.cpp **** private:
 976              		.loc 1 1055 7 is_stmt 1
 977              		.cfi_startproc
 978              	.LVL104:
 979 0000 130101FF 		addi	sp,sp,-16
 980              		.cfi_def_cfa_offset 16
 981 0004 23341100 		sd	ra,8(sp)
 982 0008 23308100 		sd	s0,0(sp)
 983              		.cfi_offset 1, -8
 984              		.cfi_offset 8, -16
 985 000c 13040101 		addi	s0,sp,16
 986              		.cfi_def_cfa 8, 0
 987              	.LBB138:
1055:test/Test8.cpp **** private:
 988              		.loc 1 1055 7 is_stmt 0
 989 0010 97070000 		lla	a5,_ZTV3B13+16
 989      93870700 
 990 0018 2330F500 		sd	a5,0(a0)
 991 001c 97000000 		call	_ZN6ThreadD2Ev@plt
 991      E7800000 
 992              	.LVL105:
 993              	.LBE138:
 994 0024 83308100 		ld	ra,8(sp)
 995              		.cfi_restore 1
 996 0028 03340100 		ld	s0,0(sp)
 997              		.cfi_restore 8
 998              		.cfi_def_cfa 2, 16
 999 002c 13010101 		addi	sp,sp,16
 1000              		.cfi_def_cfa_offset 0
 1001 0030 67800000 		jr	ra
 1002              		.cfi_endproc
 1003              	.LFE120:
 1005              		.weak	_ZN3B13D1Ev
 1006              		.set	_ZN3B13D1Ev,_ZN3B13D2Ev
 1007              		.section	.text._ZN3B13D0Ev,"axG",@progbits,_ZN3B13D5Ev,comdat
GAS LISTING /tmp/ccCnP6rB.s 			page 42


 1008              		.align	2
 1009              		.weak	_ZN3B13D0Ev
 1011              	_ZN3B13D0Ev:
 1012              	.LFB122:
1055:test/Test8.cpp **** private:
 1013              		.loc 1 1055 7 is_stmt 1
 1014              		.cfi_startproc
 1015              	.LVL106:
 1016 0000 130101FE 		addi	sp,sp,-32
 1017              		.cfi_def_cfa_offset 32
 1018 0004 233C1100 		sd	ra,24(sp)
 1019 0008 23388100 		sd	s0,16(sp)
 1020 000c 23349100 		sd	s1,8(sp)
 1021              		.cfi_offset 1, -8
 1022              		.cfi_offset 8, -16
 1023              		.cfi_offset 9, -24
 1024 0010 13040102 		addi	s0,sp,32
 1025              		.cfi_def_cfa 8, 0
 1026 0014 93040500 		mv	s1,a0
 1027              	.LVL107:
 1028              	.LBB139:
 1029              	.LBB140:
1055:test/Test8.cpp **** private:
 1030              		.loc 1 1055 7 is_stmt 0
 1031 0018 97070000 		lla	a5,_ZTV3B13+16
 1031      93870700 
 1032 0020 2330F500 		sd	a5,0(a0)
 1033 0024 97000000 		call	_ZN6ThreadD2Ev@plt
 1033      E7800000 
 1034              	.LVL108:
 1035              	.LBE140:
 1036              	.LBE139:
 1037 002c 13850400 		mv	a0,s1
 1038 0030 97000000 		call	_ZdlPv@plt
 1038      E7800000 
 1039              	.LVL109:
 1040 0038 83308101 		ld	ra,24(sp)
 1041              		.cfi_restore 1
 1042 003c 03340101 		ld	s0,16(sp)
 1043              		.cfi_restore 8
 1044              		.cfi_def_cfa 2, 32
 1045 0040 83348100 		ld	s1,8(sp)
 1046              		.cfi_restore 9
 1047              	.LVL110:
 1048 0044 13010102 		addi	sp,sp,32
 1049              		.cfi_def_cfa_offset 0
 1050 0048 67800000 		jr	ra
 1051              		.cfi_endproc
 1052              	.LFE122:
 1054              		.section	.text._ZN3A13D2Ev,"axG",@progbits,_ZN3A13D5Ev,comdat
 1055              		.align	2
 1056              		.weak	_ZN3A13D2Ev
 1058              	_ZN3A13D2Ev:
 1059              	.LFB124:
1021:test/Test8.cpp **** private:
 1060              		.loc 1 1021 7 is_stmt 1
 1061              		.cfi_startproc
GAS LISTING /tmp/ccCnP6rB.s 			page 43


 1062              	.LVL111:
 1063 0000 130101FF 		addi	sp,sp,-16
 1064              		.cfi_def_cfa_offset 16
 1065 0004 23341100 		sd	ra,8(sp)
 1066 0008 23308100 		sd	s0,0(sp)
 1067              		.cfi_offset 1, -8
 1068              		.cfi_offset 8, -16
 1069 000c 13040101 		addi	s0,sp,16
 1070              		.cfi_def_cfa 8, 0
 1071              	.LBB141:
1021:test/Test8.cpp **** private:
 1072              		.loc 1 1021 7 is_stmt 0
 1073 0010 97070000 		lla	a5,_ZTV3A13+16
 1073      93870700 
 1074 0018 2330F500 		sd	a5,0(a0)
 1075 001c 97000000 		call	_ZN6ThreadD2Ev@plt
 1075      E7800000 
 1076              	.LVL112:
 1077              	.LBE141:
 1078 0024 83308100 		ld	ra,8(sp)
 1079              		.cfi_restore 1
 1080 0028 03340100 		ld	s0,0(sp)
 1081              		.cfi_restore 8
 1082              		.cfi_def_cfa 2, 16
 1083 002c 13010101 		addi	sp,sp,16
 1084              		.cfi_def_cfa_offset 0
 1085 0030 67800000 		jr	ra
 1086              		.cfi_endproc
 1087              	.LFE124:
 1089              		.weak	_ZN3A13D1Ev
 1090              		.set	_ZN3A13D1Ev,_ZN3A13D2Ev
 1091              		.section	.text._ZN3A13D0Ev,"axG",@progbits,_ZN3A13D5Ev,comdat
 1092              		.align	2
 1093              		.weak	_ZN3A13D0Ev
 1095              	_ZN3A13D0Ev:
 1096              	.LFB126:
1021:test/Test8.cpp **** private:
 1097              		.loc 1 1021 7 is_stmt 1
 1098              		.cfi_startproc
 1099              	.LVL113:
 1100 0000 130101FE 		addi	sp,sp,-32
 1101              		.cfi_def_cfa_offset 32
 1102 0004 233C1100 		sd	ra,24(sp)
 1103 0008 23388100 		sd	s0,16(sp)
 1104 000c 23349100 		sd	s1,8(sp)
 1105              		.cfi_offset 1, -8
 1106              		.cfi_offset 8, -16
 1107              		.cfi_offset 9, -24
 1108 0010 13040102 		addi	s0,sp,32
 1109              		.cfi_def_cfa 8, 0
 1110 0014 93040500 		mv	s1,a0
 1111              	.LVL114:
 1112              	.LBB142:
 1113              	.LBB143:
1021:test/Test8.cpp **** private:
 1114              		.loc 1 1021 7 is_stmt 0
 1115 0018 97070000 		lla	a5,_ZTV3A13+16
GAS LISTING /tmp/ccCnP6rB.s 			page 44


 1115      93870700 
 1116 0020 2330F500 		sd	a5,0(a0)
 1117 0024 97000000 		call	_ZN6ThreadD2Ev@plt
 1117      E7800000 
 1118              	.LVL115:
 1119              	.LBE143:
 1120              	.LBE142:
 1121 002c 13850400 		mv	a0,s1
 1122 0030 97000000 		call	_ZdlPv@plt
 1122      E7800000 
 1123              	.LVL116:
 1124 0038 83308101 		ld	ra,24(sp)
 1125              		.cfi_restore 1
 1126 003c 03340101 		ld	s0,16(sp)
 1127              		.cfi_restore 8
 1128              		.cfi_def_cfa 2, 32
 1129 0040 83348100 		ld	s1,8(sp)
 1130              		.cfi_restore 9
 1131              	.LVL117:
 1132 0044 13010102 		addi	sp,sp,32
 1133              		.cfi_def_cfa_offset 0
 1134 0048 67800000 		jr	ra
 1135              		.cfi_endproc
 1136              	.LFE126:
 1138              		.section	.text._ZN3B12D2Ev,"axG",@progbits,_ZN3B12D5Ev,comdat
 1139              		.align	2
 1140              		.weak	_ZN3B12D2Ev
 1142              	_ZN3B12D2Ev:
 1143              	.LFB128:
 951:test/Test8.cpp **** public:
 1144              		.loc 1 951 7 is_stmt 1
 1145              		.cfi_startproc
 1146              	.LVL118:
 1147 0000 130101FF 		addi	sp,sp,-16
 1148              		.cfi_def_cfa_offset 16
 1149 0004 23341100 		sd	ra,8(sp)
 1150 0008 23308100 		sd	s0,0(sp)
 1151              		.cfi_offset 1, -8
 1152              		.cfi_offset 8, -16
 1153 000c 13040101 		addi	s0,sp,16
 1154              		.cfi_def_cfa 8, 0
 1155              	.LBB144:
 951:test/Test8.cpp **** public:
 1156              		.loc 1 951 7 is_stmt 0
 1157 0010 97070000 		lla	a5,_ZTV3B12+16
 1157      93870700 
 1158 0018 2330F500 		sd	a5,0(a0)
 1159 001c 97000000 		call	_ZN6ThreadD2Ev@plt
 1159      E7800000 
 1160              	.LVL119:
 1161              	.LBE144:
 1162 0024 83308100 		ld	ra,8(sp)
 1163              		.cfi_restore 1
 1164 0028 03340100 		ld	s0,0(sp)
 1165              		.cfi_restore 8
 1166              		.cfi_def_cfa 2, 16
 1167 002c 13010101 		addi	sp,sp,16
GAS LISTING /tmp/ccCnP6rB.s 			page 45


 1168              		.cfi_def_cfa_offset 0
 1169 0030 67800000 		jr	ra
 1170              		.cfi_endproc
 1171              	.LFE128:
 1173              		.weak	_ZN3B12D1Ev
 1174              		.set	_ZN3B12D1Ev,_ZN3B12D2Ev
 1175              		.section	.text._ZN3B12D0Ev,"axG",@progbits,_ZN3B12D5Ev,comdat
 1176              		.align	2
 1177              		.weak	_ZN3B12D0Ev
 1179              	_ZN3B12D0Ev:
 1180              	.LFB130:
 951:test/Test8.cpp **** public:
 1181              		.loc 1 951 7 is_stmt 1
 1182              		.cfi_startproc
 1183              	.LVL120:
 1184 0000 130101FE 		addi	sp,sp,-32
 1185              		.cfi_def_cfa_offset 32
 1186 0004 233C1100 		sd	ra,24(sp)
 1187 0008 23388100 		sd	s0,16(sp)
 1188 000c 23349100 		sd	s1,8(sp)
 1189              		.cfi_offset 1, -8
 1190              		.cfi_offset 8, -16
 1191              		.cfi_offset 9, -24
 1192 0010 13040102 		addi	s0,sp,32
 1193              		.cfi_def_cfa 8, 0
 1194 0014 93040500 		mv	s1,a0
 1195              	.LVL121:
 1196              	.LBB145:
 1197              	.LBB146:
 951:test/Test8.cpp **** public:
 1198              		.loc 1 951 7 is_stmt 0
 1199 0018 97070000 		lla	a5,_ZTV3B12+16
 1199      93870700 
 1200 0020 2330F500 		sd	a5,0(a0)
 1201 0024 97000000 		call	_ZN6ThreadD2Ev@plt
 1201      E7800000 
 1202              	.LVL122:
 1203              	.LBE146:
 1204              	.LBE145:
 1205 002c 13850400 		mv	a0,s1
 1206 0030 97000000 		call	_ZdlPv@plt
 1206      E7800000 
 1207              	.LVL123:
 1208 0038 83308101 		ld	ra,24(sp)
 1209              		.cfi_restore 1
 1210 003c 03340101 		ld	s0,16(sp)
 1211              		.cfi_restore 8
 1212              		.cfi_def_cfa 2, 32
 1213 0040 83348100 		ld	s1,8(sp)
 1214              		.cfi_restore 9
 1215              	.LVL124:
 1216 0044 13010102 		addi	sp,sp,32
 1217              		.cfi_def_cfa_offset 0
 1218 0048 67800000 		jr	ra
 1219              		.cfi_endproc
 1220              	.LFE130:
 1222              		.section	.text._ZN3A12D2Ev,"axG",@progbits,_ZN3A12D5Ev,comdat
GAS LISTING /tmp/ccCnP6rB.s 			page 46


 1223              		.align	2
 1224              		.weak	_ZN3A12D2Ev
 1226              	_ZN3A12D2Ev:
 1227              	.LFB132:
 941:test/Test8.cpp **** public:
 1228              		.loc 1 941 7 is_stmt 1
 1229              		.cfi_startproc
 1230              	.LVL125:
 1231 0000 130101FF 		addi	sp,sp,-16
 1232              		.cfi_def_cfa_offset 16
 1233 0004 23341100 		sd	ra,8(sp)
 1234 0008 23308100 		sd	s0,0(sp)
 1235              		.cfi_offset 1, -8
 1236              		.cfi_offset 8, -16
 1237 000c 13040101 		addi	s0,sp,16
 1238              		.cfi_def_cfa 8, 0
 1239              	.LBB147:
 941:test/Test8.cpp **** public:
 1240              		.loc 1 941 7 is_stmt 0
 1241 0010 97070000 		lla	a5,_ZTV3A12+16
 1241      93870700 
 1242 0018 2330F500 		sd	a5,0(a0)
 1243 001c 97000000 		call	_ZN6ThreadD2Ev@plt
 1243      E7800000 
 1244              	.LVL126:
 1245              	.LBE147:
 1246 0024 83308100 		ld	ra,8(sp)
 1247              		.cfi_restore 1
 1248 0028 03340100 		ld	s0,0(sp)
 1249              		.cfi_restore 8
 1250              		.cfi_def_cfa 2, 16
 1251 002c 13010101 		addi	sp,sp,16
 1252              		.cfi_def_cfa_offset 0
 1253 0030 67800000 		jr	ra
 1254              		.cfi_endproc
 1255              	.LFE132:
 1257              		.weak	_ZN3A12D1Ev
 1258              		.set	_ZN3A12D1Ev,_ZN3A12D2Ev
 1259              		.section	.text._ZN3A12D0Ev,"axG",@progbits,_ZN3A12D5Ev,comdat
 1260              		.align	2
 1261              		.weak	_ZN3A12D0Ev
 1263              	_ZN3A12D0Ev:
 1264              	.LFB134:
 941:test/Test8.cpp **** public:
 1265              		.loc 1 941 7 is_stmt 1
 1266              		.cfi_startproc
 1267              	.LVL127:
 1268 0000 130101FE 		addi	sp,sp,-32
 1269              		.cfi_def_cfa_offset 32
 1270 0004 233C1100 		sd	ra,24(sp)
 1271 0008 23388100 		sd	s0,16(sp)
 1272 000c 23349100 		sd	s1,8(sp)
 1273              		.cfi_offset 1, -8
 1274              		.cfi_offset 8, -16
 1275              		.cfi_offset 9, -24
 1276 0010 13040102 		addi	s0,sp,32
 1277              		.cfi_def_cfa 8, 0
GAS LISTING /tmp/ccCnP6rB.s 			page 47


 1278 0014 93040500 		mv	s1,a0
 1279              	.LVL128:
 1280              	.LBB148:
 1281              	.LBB149:
 941:test/Test8.cpp **** public:
 1282              		.loc 1 941 7 is_stmt 0
 1283 0018 97070000 		lla	a5,_ZTV3A12+16
 1283      93870700 
 1284 0020 2330F500 		sd	a5,0(a0)
 1285 0024 97000000 		call	_ZN6ThreadD2Ev@plt
 1285      E7800000 
 1286              	.LVL129:
 1287              	.LBE149:
 1288              	.LBE148:
 1289 002c 13850400 		mv	a0,s1
 1290 0030 97000000 		call	_ZdlPv@plt
 1290      E7800000 
 1291              	.LVL130:
 1292 0038 83308101 		ld	ra,24(sp)
 1293              		.cfi_restore 1
 1294 003c 03340101 		ld	s0,16(sp)
 1295              		.cfi_restore 8
 1296              		.cfi_def_cfa 2, 32
 1297 0040 83348100 		ld	s1,8(sp)
 1298              		.cfi_restore 9
 1299              	.LVL131:
 1300 0044 13010102 		addi	sp,sp,32
 1301              		.cfi_def_cfa_offset 0
 1302 0048 67800000 		jr	ra
 1303              		.cfi_endproc
 1304              	.LFE134:
 1306              		.section	.text._ZN3A11D2Ev,"axG",@progbits,_ZN3A11D5Ev,comdat
 1307              		.align	2
 1308              		.weak	_ZN3A11D2Ev
 1310              	_ZN3A11D2Ev:
 1311              	.LFB136:
 864:test/Test8.cpp ****     int id;
 1312              		.loc 1 864 7 is_stmt 1
 1313              		.cfi_startproc
 1314              	.LVL132:
 1315 0000 130101FF 		addi	sp,sp,-16
 1316              		.cfi_def_cfa_offset 16
 1317 0004 23341100 		sd	ra,8(sp)
 1318 0008 23308100 		sd	s0,0(sp)
 1319              		.cfi_offset 1, -8
 1320              		.cfi_offset 8, -16
 1321 000c 13040101 		addi	s0,sp,16
 1322              		.cfi_def_cfa 8, 0
 1323              	.LBB150:
 864:test/Test8.cpp ****     int id;
 1324              		.loc 1 864 7 is_stmt 0
 1325 0010 97070000 		lla	a5,_ZTV3A11+16
 1325      93870700 
 1326 0018 2330F500 		sd	a5,0(a0)
 1327 001c 97000000 		call	_ZN6ThreadD2Ev@plt
 1327      E7800000 
 1328              	.LVL133:
GAS LISTING /tmp/ccCnP6rB.s 			page 48


 1329              	.LBE150:
 1330 0024 83308100 		ld	ra,8(sp)
 1331              		.cfi_restore 1
 1332 0028 03340100 		ld	s0,0(sp)
 1333              		.cfi_restore 8
 1334              		.cfi_def_cfa 2, 16
 1335 002c 13010101 		addi	sp,sp,16
 1336              		.cfi_def_cfa_offset 0
 1337 0030 67800000 		jr	ra
 1338              		.cfi_endproc
 1339              	.LFE136:
 1341              		.weak	_ZN3A11D1Ev
 1342              		.set	_ZN3A11D1Ev,_ZN3A11D2Ev
 1343              		.section	.text._ZN3A11D0Ev,"axG",@progbits,_ZN3A11D5Ev,comdat
 1344              		.align	2
 1345              		.weak	_ZN3A11D0Ev
 1347              	_ZN3A11D0Ev:
 1348              	.LFB138:
 864:test/Test8.cpp ****     int id;
 1349              		.loc 1 864 7 is_stmt 1
 1350              		.cfi_startproc
 1351              	.LVL134:
 1352 0000 130101FE 		addi	sp,sp,-32
 1353              		.cfi_def_cfa_offset 32
 1354 0004 233C1100 		sd	ra,24(sp)
 1355 0008 23388100 		sd	s0,16(sp)
 1356 000c 23349100 		sd	s1,8(sp)
 1357              		.cfi_offset 1, -8
 1358              		.cfi_offset 8, -16
 1359              		.cfi_offset 9, -24
 1360 0010 13040102 		addi	s0,sp,32
 1361              		.cfi_def_cfa 8, 0
 1362 0014 93040500 		mv	s1,a0
 1363              	.LVL135:
 1364              	.LBB151:
 1365              	.LBB152:
 864:test/Test8.cpp ****     int id;
 1366              		.loc 1 864 7 is_stmt 0
 1367 0018 97070000 		lla	a5,_ZTV3A11+16
 1367      93870700 
 1368 0020 2330F500 		sd	a5,0(a0)
 1369 0024 97000000 		call	_ZN6ThreadD2Ev@plt
 1369      E7800000 
 1370              	.LVL136:
 1371              	.LBE152:
 1372              	.LBE151:
 1373 002c 13850400 		mv	a0,s1
 1374 0030 97000000 		call	_ZdlPv@plt
 1374      E7800000 
 1375              	.LVL137:
 1376 0038 83308101 		ld	ra,24(sp)
 1377              		.cfi_restore 1
 1378 003c 03340101 		ld	s0,16(sp)
 1379              		.cfi_restore 8
 1380              		.cfi_def_cfa 2, 32
 1381 0040 83348100 		ld	s1,8(sp)
 1382              		.cfi_restore 9
GAS LISTING /tmp/ccCnP6rB.s 			page 49


 1383              	.LVL138:
 1384 0044 13010102 		addi	sp,sp,32
 1385              		.cfi_def_cfa_offset 0
 1386 0048 67800000 		jr	ra
 1387              		.cfi_endproc
 1388              	.LFE138:
 1390              		.section	.text._ZN3A10D2Ev,"axG",@progbits,_ZN3A10D5Ev,comdat
 1391              		.align	2
 1392              		.weak	_ZN3A10D2Ev
 1394              	_ZN3A10D2Ev:
 1395              	.LFB140:
 781:test/Test8.cpp ****     int id;
 1396              		.loc 1 781 7 is_stmt 1
 1397              		.cfi_startproc
 1398              	.LVL139:
 1399 0000 130101FF 		addi	sp,sp,-16
 1400              		.cfi_def_cfa_offset 16
 1401 0004 23341100 		sd	ra,8(sp)
 1402 0008 23308100 		sd	s0,0(sp)
 1403              		.cfi_offset 1, -8
 1404              		.cfi_offset 8, -16
 1405 000c 13040101 		addi	s0,sp,16
 1406              		.cfi_def_cfa 8, 0
 1407              	.LBB153:
 781:test/Test8.cpp ****     int id;
 1408              		.loc 1 781 7 is_stmt 0
 1409 0010 97070000 		lla	a5,_ZTV3A10+16
 1409      93870700 
 1410 0018 2330F500 		sd	a5,0(a0)
 1411 001c 97000000 		call	_ZN6ThreadD2Ev@plt
 1411      E7800000 
 1412              	.LVL140:
 1413              	.LBE153:
 1414 0024 83308100 		ld	ra,8(sp)
 1415              		.cfi_restore 1
 1416 0028 03340100 		ld	s0,0(sp)
 1417              		.cfi_restore 8
 1418              		.cfi_def_cfa 2, 16
 1419 002c 13010101 		addi	sp,sp,16
 1420              		.cfi_def_cfa_offset 0
 1421 0030 67800000 		jr	ra
 1422              		.cfi_endproc
 1423              	.LFE140:
 1425              		.weak	_ZN3A10D1Ev
 1426              		.set	_ZN3A10D1Ev,_ZN3A10D2Ev
 1427              		.section	.text._ZN3A10D0Ev,"axG",@progbits,_ZN3A10D5Ev,comdat
 1428              		.align	2
 1429              		.weak	_ZN3A10D0Ev
 1431              	_ZN3A10D0Ev:
 1432              	.LFB142:
 781:test/Test8.cpp ****     int id;
 1433              		.loc 1 781 7 is_stmt 1
 1434              		.cfi_startproc
 1435              	.LVL141:
 1436 0000 130101FE 		addi	sp,sp,-32
 1437              		.cfi_def_cfa_offset 32
 1438 0004 233C1100 		sd	ra,24(sp)
GAS LISTING /tmp/ccCnP6rB.s 			page 50


 1439 0008 23388100 		sd	s0,16(sp)
 1440 000c 23349100 		sd	s1,8(sp)
 1441              		.cfi_offset 1, -8
 1442              		.cfi_offset 8, -16
 1443              		.cfi_offset 9, -24
 1444 0010 13040102 		addi	s0,sp,32
 1445              		.cfi_def_cfa 8, 0
 1446 0014 93040500 		mv	s1,a0
 1447              	.LVL142:
 1448              	.LBB154:
 1449              	.LBB155:
 781:test/Test8.cpp ****     int id;
 1450              		.loc 1 781 7 is_stmt 0
 1451 0018 97070000 		lla	a5,_ZTV3A10+16
 1451      93870700 
 1452 0020 2330F500 		sd	a5,0(a0)
 1453 0024 97000000 		call	_ZN6ThreadD2Ev@plt
 1453      E7800000 
 1454              	.LVL143:
 1455              	.LBE155:
 1456              	.LBE154:
 1457 002c 13850400 		mv	a0,s1
 1458 0030 97000000 		call	_ZdlPv@plt
 1458      E7800000 
 1459              	.LVL144:
 1460 0038 83308101 		ld	ra,24(sp)
 1461              		.cfi_restore 1
 1462 003c 03340101 		ld	s0,16(sp)
 1463              		.cfi_restore 8
 1464              		.cfi_def_cfa 2, 32
 1465 0040 83348100 		ld	s1,8(sp)
 1466              		.cfi_restore 9
 1467              	.LVL145:
 1468 0044 13010102 		addi	sp,sp,32
 1469              		.cfi_def_cfa_offset 0
 1470 0048 67800000 		jr	ra
 1471              		.cfi_endproc
 1472              	.LFE142:
 1474              		.section	.text._ZN2A9D2Ev,"axG",@progbits,_ZN2A9D5Ev,comdat
 1475              		.align	2
 1476              		.weak	_ZN2A9D2Ev
 1478              	_ZN2A9D2Ev:
 1479              	.LFB144:
 713:test/Test8.cpp ****     int id;
 1480              		.loc 1 713 7 is_stmt 1
 1481              		.cfi_startproc
 1482              	.LVL146:
 1483 0000 130101FF 		addi	sp,sp,-16
 1484              		.cfi_def_cfa_offset 16
 1485 0004 23341100 		sd	ra,8(sp)
 1486 0008 23308100 		sd	s0,0(sp)
 1487              		.cfi_offset 1, -8
 1488              		.cfi_offset 8, -16
 1489 000c 13040101 		addi	s0,sp,16
 1490              		.cfi_def_cfa 8, 0
 1491              	.LBB156:
 713:test/Test8.cpp ****     int id;
GAS LISTING /tmp/ccCnP6rB.s 			page 51


 1492              		.loc 1 713 7 is_stmt 0
 1493 0010 97070000 		lla	a5,_ZTV2A9+16
 1493      93870700 
 1494 0018 2330F500 		sd	a5,0(a0)
 1495 001c 97000000 		call	_ZN6ThreadD2Ev@plt
 1495      E7800000 
 1496              	.LVL147:
 1497              	.LBE156:
 1498 0024 83308100 		ld	ra,8(sp)
 1499              		.cfi_restore 1
 1500 0028 03340100 		ld	s0,0(sp)
 1501              		.cfi_restore 8
 1502              		.cfi_def_cfa 2, 16
 1503 002c 13010101 		addi	sp,sp,16
 1504              		.cfi_def_cfa_offset 0
 1505 0030 67800000 		jr	ra
 1506              		.cfi_endproc
 1507              	.LFE144:
 1509              		.weak	_ZN2A9D1Ev
 1510              		.set	_ZN2A9D1Ev,_ZN2A9D2Ev
 1511              		.section	.text._ZN2A9D0Ev,"axG",@progbits,_ZN2A9D5Ev,comdat
 1512              		.align	2
 1513              		.weak	_ZN2A9D0Ev
 1515              	_ZN2A9D0Ev:
 1516              	.LFB146:
 713:test/Test8.cpp ****     int id;
 1517              		.loc 1 713 7 is_stmt 1
 1518              		.cfi_startproc
 1519              	.LVL148:
 1520 0000 130101FE 		addi	sp,sp,-32
 1521              		.cfi_def_cfa_offset 32
 1522 0004 233C1100 		sd	ra,24(sp)
 1523 0008 23388100 		sd	s0,16(sp)
 1524 000c 23349100 		sd	s1,8(sp)
 1525              		.cfi_offset 1, -8
 1526              		.cfi_offset 8, -16
 1527              		.cfi_offset 9, -24
 1528 0010 13040102 		addi	s0,sp,32
 1529              		.cfi_def_cfa 8, 0
 1530 0014 93040500 		mv	s1,a0
 1531              	.LVL149:
 1532              	.LBB157:
 1533              	.LBB158:
 713:test/Test8.cpp ****     int id;
 1534              		.loc 1 713 7 is_stmt 0
 1535 0018 97070000 		lla	a5,_ZTV2A9+16
 1535      93870700 
 1536 0020 2330F500 		sd	a5,0(a0)
 1537 0024 97000000 		call	_ZN6ThreadD2Ev@plt
 1537      E7800000 
 1538              	.LVL150:
 1539              	.LBE158:
 1540              	.LBE157:
 1541 002c 13850400 		mv	a0,s1
 1542 0030 97000000 		call	_ZdlPv@plt
 1542      E7800000 
 1543              	.LVL151:
GAS LISTING /tmp/ccCnP6rB.s 			page 52


 1544 0038 83308101 		ld	ra,24(sp)
 1545              		.cfi_restore 1
 1546 003c 03340101 		ld	s0,16(sp)
 1547              		.cfi_restore 8
 1548              		.cfi_def_cfa 2, 32
 1549 0040 83348100 		ld	s1,8(sp)
 1550              		.cfi_restore 9
 1551              	.LVL152:
 1552 0044 13010102 		addi	sp,sp,32
 1553              		.cfi_def_cfa_offset 0
 1554 0048 67800000 		jr	ra
 1555              		.cfi_endproc
 1556              	.LFE146:
 1558              		.section	.text._ZN2A8D2Ev,"axG",@progbits,_ZN2A8D5Ev,comdat
 1559              		.align	2
 1560              		.weak	_ZN2A8D2Ev
 1562              	_ZN2A8D2Ev:
 1563              	.LFB148:
 646:test/Test8.cpp ****     int id;
 1564              		.loc 1 646 7 is_stmt 1
 1565              		.cfi_startproc
 1566              	.LVL153:
 1567 0000 130101FF 		addi	sp,sp,-16
 1568              		.cfi_def_cfa_offset 16
 1569 0004 23341100 		sd	ra,8(sp)
 1570 0008 23308100 		sd	s0,0(sp)
 1571              		.cfi_offset 1, -8
 1572              		.cfi_offset 8, -16
 1573 000c 13040101 		addi	s0,sp,16
 1574              		.cfi_def_cfa 8, 0
 1575              	.LBB159:
 646:test/Test8.cpp ****     int id;
 1576              		.loc 1 646 7 is_stmt 0
 1577 0010 97070000 		lla	a5,_ZTV2A8+16
 1577      93870700 
 1578 0018 2330F500 		sd	a5,0(a0)
 1579 001c 97000000 		call	_ZN6ThreadD2Ev@plt
 1579      E7800000 
 1580              	.LVL154:
 1581              	.LBE159:
 1582 0024 83308100 		ld	ra,8(sp)
 1583              		.cfi_restore 1
 1584 0028 03340100 		ld	s0,0(sp)
 1585              		.cfi_restore 8
 1586              		.cfi_def_cfa 2, 16
 1587 002c 13010101 		addi	sp,sp,16
 1588              		.cfi_def_cfa_offset 0
 1589 0030 67800000 		jr	ra
 1590              		.cfi_endproc
 1591              	.LFE148:
 1593              		.weak	_ZN2A8D1Ev
 1594              		.set	_ZN2A8D1Ev,_ZN2A8D2Ev
 1595              		.section	.text._ZN2A8D0Ev,"axG",@progbits,_ZN2A8D5Ev,comdat
 1596              		.align	2
 1597              		.weak	_ZN2A8D0Ev
 1599              	_ZN2A8D0Ev:
 1600              	.LFB150:
GAS LISTING /tmp/ccCnP6rB.s 			page 53


 646:test/Test8.cpp ****     int id;
 1601              		.loc 1 646 7 is_stmt 1
 1602              		.cfi_startproc
 1603              	.LVL155:
 1604 0000 130101FE 		addi	sp,sp,-32
 1605              		.cfi_def_cfa_offset 32
 1606 0004 233C1100 		sd	ra,24(sp)
 1607 0008 23388100 		sd	s0,16(sp)
 1608 000c 23349100 		sd	s1,8(sp)
 1609              		.cfi_offset 1, -8
 1610              		.cfi_offset 8, -16
 1611              		.cfi_offset 9, -24
 1612 0010 13040102 		addi	s0,sp,32
 1613              		.cfi_def_cfa 8, 0
 1614 0014 93040500 		mv	s1,a0
 1615              	.LVL156:
 1616              	.LBB160:
 1617              	.LBB161:
 646:test/Test8.cpp ****     int id;
 1618              		.loc 1 646 7 is_stmt 0
 1619 0018 97070000 		lla	a5,_ZTV2A8+16
 1619      93870700 
 1620 0020 2330F500 		sd	a5,0(a0)
 1621 0024 97000000 		call	_ZN6ThreadD2Ev@plt
 1621      E7800000 
 1622              	.LVL157:
 1623              	.LBE161:
 1624              	.LBE160:
 1625 002c 13850400 		mv	a0,s1
 1626 0030 97000000 		call	_ZdlPv@plt
 1626      E7800000 
 1627              	.LVL158:
 1628 0038 83308101 		ld	ra,24(sp)
 1629              		.cfi_restore 1
 1630 003c 03340101 		ld	s0,16(sp)
 1631              		.cfi_restore 8
 1632              		.cfi_def_cfa 2, 32
 1633 0040 83348100 		ld	s1,8(sp)
 1634              		.cfi_restore 9
 1635              	.LVL159:
 1636 0044 13010102 		addi	sp,sp,32
 1637              		.cfi_def_cfa_offset 0
 1638 0048 67800000 		jr	ra
 1639              		.cfi_endproc
 1640              	.LFE150:
 1642              		.section	.text._ZN2A5D2Ev,"axG",@progbits,_ZN2A5D5Ev,comdat
 1643              		.align	2
 1644              		.weak	_ZN2A5D2Ev
 1646              	_ZN2A5D2Ev:
 1647              	.LFB160:
 512:test/Test8.cpp ****     int id;
 1648              		.loc 1 512 7 is_stmt 1
 1649              		.cfi_startproc
 1650              	.LVL160:
 1651 0000 130101FF 		addi	sp,sp,-16
 1652              		.cfi_def_cfa_offset 16
 1653 0004 23341100 		sd	ra,8(sp)
GAS LISTING /tmp/ccCnP6rB.s 			page 54


 1654 0008 23308100 		sd	s0,0(sp)
 1655              		.cfi_offset 1, -8
 1656              		.cfi_offset 8, -16
 1657 000c 13040101 		addi	s0,sp,16
 1658              		.cfi_def_cfa 8, 0
 1659              	.LBB162:
 512:test/Test8.cpp ****     int id;
 1660              		.loc 1 512 7 is_stmt 0
 1661 0010 97070000 		lla	a5,_ZTV2A5+16
 1661      93870700 
 1662 0018 2330F500 		sd	a5,0(a0)
 1663 001c 97000000 		call	_ZN6ThreadD2Ev@plt
 1663      E7800000 
 1664              	.LVL161:
 1665              	.LBE162:
 1666 0024 83308100 		ld	ra,8(sp)
 1667              		.cfi_restore 1
 1668 0028 03340100 		ld	s0,0(sp)
 1669              		.cfi_restore 8
 1670              		.cfi_def_cfa 2, 16
 1671 002c 13010101 		addi	sp,sp,16
 1672              		.cfi_def_cfa_offset 0
 1673 0030 67800000 		jr	ra
 1674              		.cfi_endproc
 1675              	.LFE160:
 1677              		.weak	_ZN2A5D1Ev
 1678              		.set	_ZN2A5D1Ev,_ZN2A5D2Ev
 1679              		.section	.text._ZN2A5D0Ev,"axG",@progbits,_ZN2A5D5Ev,comdat
 1680              		.align	2
 1681              		.weak	_ZN2A5D0Ev
 1683              	_ZN2A5D0Ev:
 1684              	.LFB162:
 512:test/Test8.cpp ****     int id;
 1685              		.loc 1 512 7 is_stmt 1
 1686              		.cfi_startproc
 1687              	.LVL162:
 1688 0000 130101FE 		addi	sp,sp,-32
 1689              		.cfi_def_cfa_offset 32
 1690 0004 233C1100 		sd	ra,24(sp)
 1691 0008 23388100 		sd	s0,16(sp)
 1692 000c 23349100 		sd	s1,8(sp)
 1693              		.cfi_offset 1, -8
 1694              		.cfi_offset 8, -16
 1695              		.cfi_offset 9, -24
 1696 0010 13040102 		addi	s0,sp,32
 1697              		.cfi_def_cfa 8, 0
 1698 0014 93040500 		mv	s1,a0
 1699              	.LVL163:
 1700              	.LBB163:
 1701              	.LBB164:
 512:test/Test8.cpp ****     int id;
 1702              		.loc 1 512 7 is_stmt 0
 1703 0018 97070000 		lla	a5,_ZTV2A5+16
 1703      93870700 
 1704 0020 2330F500 		sd	a5,0(a0)
 1705 0024 97000000 		call	_ZN6ThreadD2Ev@plt
 1705      E7800000 
GAS LISTING /tmp/ccCnP6rB.s 			page 55


 1706              	.LVL164:
 1707              	.LBE164:
 1708              	.LBE163:
 1709 002c 13850400 		mv	a0,s1
 1710 0030 97000000 		call	_ZdlPv@plt
 1710      E7800000 
 1711              	.LVL165:
 1712 0038 83308101 		ld	ra,24(sp)
 1713              		.cfi_restore 1
 1714 003c 03340101 		ld	s0,16(sp)
 1715              		.cfi_restore 8
 1716              		.cfi_def_cfa 2, 32
 1717 0040 83348100 		ld	s1,8(sp)
 1718              		.cfi_restore 9
 1719              	.LVL166:
 1720 0044 13010102 		addi	sp,sp,32
 1721              		.cfi_def_cfa_offset 0
 1722 0048 67800000 		jr	ra
 1723              		.cfi_endproc
 1724              	.LFE162:
 1726              		.section	.text._ZN2C4D2Ev,"axG",@progbits,_ZN2C4D5Ev,comdat
 1727              		.align	2
 1728              		.weak	_ZN2C4D2Ev
 1730              	_ZN2C4D2Ev:
 1731              	.LFB164:
 427:test/Test8.cpp ****     int id;
 1732              		.loc 1 427 7 is_stmt 1
 1733              		.cfi_startproc
 1734              	.LVL167:
 1735 0000 130101FF 		addi	sp,sp,-16
 1736              		.cfi_def_cfa_offset 16
 1737 0004 23341100 		sd	ra,8(sp)
 1738 0008 23308100 		sd	s0,0(sp)
 1739              		.cfi_offset 1, -8
 1740              		.cfi_offset 8, -16
 1741 000c 13040101 		addi	s0,sp,16
 1742              		.cfi_def_cfa 8, 0
 1743              	.LBB165:
 427:test/Test8.cpp ****     int id;
 1744              		.loc 1 427 7 is_stmt 0
 1745 0010 97070000 		lla	a5,_ZTV2C4+16
 1745      93870700 
 1746 0018 2330F500 		sd	a5,0(a0)
 1747 001c 97000000 		call	_ZN6ThreadD2Ev@plt
 1747      E7800000 
 1748              	.LVL168:
 1749              	.LBE165:
 1750 0024 83308100 		ld	ra,8(sp)
 1751              		.cfi_restore 1
 1752 0028 03340100 		ld	s0,0(sp)
 1753              		.cfi_restore 8
 1754              		.cfi_def_cfa 2, 16
 1755 002c 13010101 		addi	sp,sp,16
 1756              		.cfi_def_cfa_offset 0
 1757 0030 67800000 		jr	ra
 1758              		.cfi_endproc
 1759              	.LFE164:
GAS LISTING /tmp/ccCnP6rB.s 			page 56


 1761              		.weak	_ZN2C4D1Ev
 1762              		.set	_ZN2C4D1Ev,_ZN2C4D2Ev
 1763              		.section	.text._ZN2C4D0Ev,"axG",@progbits,_ZN2C4D5Ev,comdat
 1764              		.align	2
 1765              		.weak	_ZN2C4D0Ev
 1767              	_ZN2C4D0Ev:
 1768              	.LFB166:
 427:test/Test8.cpp ****     int id;
 1769              		.loc 1 427 7 is_stmt 1
 1770              		.cfi_startproc
 1771              	.LVL169:
 1772 0000 130101FE 		addi	sp,sp,-32
 1773              		.cfi_def_cfa_offset 32
 1774 0004 233C1100 		sd	ra,24(sp)
 1775 0008 23388100 		sd	s0,16(sp)
 1776 000c 23349100 		sd	s1,8(sp)
 1777              		.cfi_offset 1, -8
 1778              		.cfi_offset 8, -16
 1779              		.cfi_offset 9, -24
 1780 0010 13040102 		addi	s0,sp,32
 1781              		.cfi_def_cfa 8, 0
 1782 0014 93040500 		mv	s1,a0
 1783              	.LVL170:
 1784              	.LBB166:
 1785              	.LBB167:
 427:test/Test8.cpp ****     int id;
 1786              		.loc 1 427 7 is_stmt 0
 1787 0018 97070000 		lla	a5,_ZTV2C4+16
 1787      93870700 
 1788 0020 2330F500 		sd	a5,0(a0)
 1789 0024 97000000 		call	_ZN6ThreadD2Ev@plt
 1789      E7800000 
 1790              	.LVL171:
 1791              	.LBE167:
 1792              	.LBE166:
 1793 002c 13850400 		mv	a0,s1
 1794 0030 97000000 		call	_ZdlPv@plt
 1794      E7800000 
 1795              	.LVL172:
 1796 0038 83308101 		ld	ra,24(sp)
 1797              		.cfi_restore 1
 1798 003c 03340101 		ld	s0,16(sp)
 1799              		.cfi_restore 8
 1800              		.cfi_def_cfa 2, 32
 1801 0040 83348100 		ld	s1,8(sp)
 1802              		.cfi_restore 9
 1803              	.LVL173:
 1804 0044 13010102 		addi	sp,sp,32
 1805              		.cfi_def_cfa_offset 0
 1806 0048 67800000 		jr	ra
 1807              		.cfi_endproc
 1808              	.LFE166:
 1810              		.section	.text._ZN2B4D2Ev,"axG",@progbits,_ZN2B4D5Ev,comdat
 1811              		.align	2
 1812              		.weak	_ZN2B4D2Ev
 1814              	_ZN2B4D2Ev:
 1815              	.LFB168:
GAS LISTING /tmp/ccCnP6rB.s 			page 57


 414:test/Test8.cpp ****     int id;
 1816              		.loc 1 414 7 is_stmt 1
 1817              		.cfi_startproc
 1818              	.LVL174:
 1819 0000 130101FF 		addi	sp,sp,-16
 1820              		.cfi_def_cfa_offset 16
 1821 0004 23341100 		sd	ra,8(sp)
 1822 0008 23308100 		sd	s0,0(sp)
 1823              		.cfi_offset 1, -8
 1824              		.cfi_offset 8, -16
 1825 000c 13040101 		addi	s0,sp,16
 1826              		.cfi_def_cfa 8, 0
 1827              	.LBB168:
 414:test/Test8.cpp ****     int id;
 1828              		.loc 1 414 7 is_stmt 0
 1829 0010 97070000 		lla	a5,_ZTV2B4+16
 1829      93870700 
 1830 0018 2330F500 		sd	a5,0(a0)
 1831 001c 97000000 		call	_ZN6ThreadD2Ev@plt
 1831      E7800000 
 1832              	.LVL175:
 1833              	.LBE168:
 1834 0024 83308100 		ld	ra,8(sp)
 1835              		.cfi_restore 1
 1836 0028 03340100 		ld	s0,0(sp)
 1837              		.cfi_restore 8
 1838              		.cfi_def_cfa 2, 16
 1839 002c 13010101 		addi	sp,sp,16
 1840              		.cfi_def_cfa_offset 0
 1841 0030 67800000 		jr	ra
 1842              		.cfi_endproc
 1843              	.LFE168:
 1845              		.weak	_ZN2B4D1Ev
 1846              		.set	_ZN2B4D1Ev,_ZN2B4D2Ev
 1847              		.section	.text._ZN2B4D0Ev,"axG",@progbits,_ZN2B4D5Ev,comdat
 1848              		.align	2
 1849              		.weak	_ZN2B4D0Ev
 1851              	_ZN2B4D0Ev:
 1852              	.LFB170:
 414:test/Test8.cpp ****     int id;
 1853              		.loc 1 414 7 is_stmt 1
 1854              		.cfi_startproc
 1855              	.LVL176:
 1856 0000 130101FE 		addi	sp,sp,-32
 1857              		.cfi_def_cfa_offset 32
 1858 0004 233C1100 		sd	ra,24(sp)
 1859 0008 23388100 		sd	s0,16(sp)
 1860 000c 23349100 		sd	s1,8(sp)
 1861              		.cfi_offset 1, -8
 1862              		.cfi_offset 8, -16
 1863              		.cfi_offset 9, -24
 1864 0010 13040102 		addi	s0,sp,32
 1865              		.cfi_def_cfa 8, 0
 1866 0014 93040500 		mv	s1,a0
 1867              	.LVL177:
 1868              	.LBB169:
 1869              	.LBB170:
GAS LISTING /tmp/ccCnP6rB.s 			page 58


 414:test/Test8.cpp ****     int id;
 1870              		.loc 1 414 7 is_stmt 0
 1871 0018 97070000 		lla	a5,_ZTV2B4+16
 1871      93870700 
 1872 0020 2330F500 		sd	a5,0(a0)
 1873 0024 97000000 		call	_ZN6ThreadD2Ev@plt
 1873      E7800000 
 1874              	.LVL178:
 1875              	.LBE170:
 1876              	.LBE169:
 1877 002c 13850400 		mv	a0,s1
 1878 0030 97000000 		call	_ZdlPv@plt
 1878      E7800000 
 1879              	.LVL179:
 1880 0038 83308101 		ld	ra,24(sp)
 1881              		.cfi_restore 1
 1882 003c 03340101 		ld	s0,16(sp)
 1883              		.cfi_restore 8
 1884              		.cfi_def_cfa 2, 32
 1885 0040 83348100 		ld	s1,8(sp)
 1886              		.cfi_restore 9
 1887              	.LVL180:
 1888 0044 13010102 		addi	sp,sp,32
 1889              		.cfi_def_cfa_offset 0
 1890 0048 67800000 		jr	ra
 1891              		.cfi_endproc
 1892              	.LFE170:
 1894              		.section	.text._ZN2A4D2Ev,"axG",@progbits,_ZN2A4D5Ev,comdat
 1895              		.align	2
 1896              		.weak	_ZN2A4D2Ev
 1898              	_ZN2A4D2Ev:
 1899              	.LFB172:
 400:test/Test8.cpp ****     int id;
 1900              		.loc 1 400 7 is_stmt 1
 1901              		.cfi_startproc
 1902              	.LVL181:
 1903 0000 130101FF 		addi	sp,sp,-16
 1904              		.cfi_def_cfa_offset 16
 1905 0004 23341100 		sd	ra,8(sp)
 1906 0008 23308100 		sd	s0,0(sp)
 1907              		.cfi_offset 1, -8
 1908              		.cfi_offset 8, -16
 1909 000c 13040101 		addi	s0,sp,16
 1910              		.cfi_def_cfa 8, 0
 1911              	.LBB171:
 400:test/Test8.cpp ****     int id;
 1912              		.loc 1 400 7 is_stmt 0
 1913 0010 97070000 		lla	a5,_ZTV2A4+16
 1913      93870700 
 1914 0018 2330F500 		sd	a5,0(a0)
 1915 001c 97000000 		call	_ZN6ThreadD2Ev@plt
 1915      E7800000 
 1916              	.LVL182:
 1917              	.LBE171:
 1918 0024 83308100 		ld	ra,8(sp)
 1919              		.cfi_restore 1
 1920 0028 03340100 		ld	s0,0(sp)
GAS LISTING /tmp/ccCnP6rB.s 			page 59


 1921              		.cfi_restore 8
 1922              		.cfi_def_cfa 2, 16
 1923 002c 13010101 		addi	sp,sp,16
 1924              		.cfi_def_cfa_offset 0
 1925 0030 67800000 		jr	ra
 1926              		.cfi_endproc
 1927              	.LFE172:
 1929              		.weak	_ZN2A4D1Ev
 1930              		.set	_ZN2A4D1Ev,_ZN2A4D2Ev
 1931              		.section	.text._ZN2A4D0Ev,"axG",@progbits,_ZN2A4D5Ev,comdat
 1932              		.align	2
 1933              		.weak	_ZN2A4D0Ev
 1935              	_ZN2A4D0Ev:
 1936              	.LFB174:
 400:test/Test8.cpp ****     int id;
 1937              		.loc 1 400 7 is_stmt 1
 1938              		.cfi_startproc
 1939              	.LVL183:
 1940 0000 130101FE 		addi	sp,sp,-32
 1941              		.cfi_def_cfa_offset 32
 1942 0004 233C1100 		sd	ra,24(sp)
 1943 0008 23388100 		sd	s0,16(sp)
 1944 000c 23349100 		sd	s1,8(sp)
 1945              		.cfi_offset 1, -8
 1946              		.cfi_offset 8, -16
 1947              		.cfi_offset 9, -24
 1948 0010 13040102 		addi	s0,sp,32
 1949              		.cfi_def_cfa 8, 0
 1950 0014 93040500 		mv	s1,a0
 1951              	.LVL184:
 1952              	.LBB172:
 1953              	.LBB173:
 400:test/Test8.cpp ****     int id;
 1954              		.loc 1 400 7 is_stmt 0
 1955 0018 97070000 		lla	a5,_ZTV2A4+16
 1955      93870700 
 1956 0020 2330F500 		sd	a5,0(a0)
 1957 0024 97000000 		call	_ZN6ThreadD2Ev@plt
 1957      E7800000 
 1958              	.LVL185:
 1959              	.LBE173:
 1960              	.LBE172:
 1961 002c 13850400 		mv	a0,s1
 1962 0030 97000000 		call	_ZdlPv@plt
 1962      E7800000 
 1963              	.LVL186:
 1964 0038 83308101 		ld	ra,24(sp)
 1965              		.cfi_restore 1
 1966 003c 03340101 		ld	s0,16(sp)
 1967              		.cfi_restore 8
 1968              		.cfi_def_cfa 2, 32
 1969 0040 83348100 		ld	s1,8(sp)
 1970              		.cfi_restore 9
 1971              	.LVL187:
 1972 0044 13010102 		addi	sp,sp,32
 1973              		.cfi_def_cfa_offset 0
 1974 0048 67800000 		jr	ra
GAS LISTING /tmp/ccCnP6rB.s 			page 60


 1975              		.cfi_endproc
 1976              	.LFE174:
 1978              		.section	.text._ZN2C3D2Ev,"axG",@progbits,_ZN2C3D5Ev,comdat
 1979              		.align	2
 1980              		.weak	_ZN2C3D2Ev
 1982              	_ZN2C3D2Ev:
 1983              	.LFB176:
 316:test/Test8.cpp ****     int id;
 1984              		.loc 1 316 7 is_stmt 1
 1985              		.cfi_startproc
 1986              	.LVL188:
 1987 0000 130101FF 		addi	sp,sp,-16
 1988              		.cfi_def_cfa_offset 16
 1989 0004 23341100 		sd	ra,8(sp)
 1990 0008 23308100 		sd	s0,0(sp)
 1991              		.cfi_offset 1, -8
 1992              		.cfi_offset 8, -16
 1993 000c 13040101 		addi	s0,sp,16
 1994              		.cfi_def_cfa 8, 0
 1995              	.LBB174:
 316:test/Test8.cpp ****     int id;
 1996              		.loc 1 316 7 is_stmt 0
 1997 0010 97070000 		lla	a5,_ZTV2C3+16
 1997      93870700 
 1998 0018 2330F500 		sd	a5,0(a0)
 1999 001c 97000000 		call	_ZN6ThreadD2Ev@plt
 1999      E7800000 
 2000              	.LVL189:
 2001              	.LBE174:
 2002 0024 83308100 		ld	ra,8(sp)
 2003              		.cfi_restore 1
 2004 0028 03340100 		ld	s0,0(sp)
 2005              		.cfi_restore 8
 2006              		.cfi_def_cfa 2, 16
 2007 002c 13010101 		addi	sp,sp,16
 2008              		.cfi_def_cfa_offset 0
 2009 0030 67800000 		jr	ra
 2010              		.cfi_endproc
 2011              	.LFE176:
 2013              		.weak	_ZN2C3D1Ev
 2014              		.set	_ZN2C3D1Ev,_ZN2C3D2Ev
 2015              		.section	.text._ZN2C3D0Ev,"axG",@progbits,_ZN2C3D5Ev,comdat
 2016              		.align	2
 2017              		.weak	_ZN2C3D0Ev
 2019              	_ZN2C3D0Ev:
 2020              	.LFB178:
 316:test/Test8.cpp ****     int id;
 2021              		.loc 1 316 7 is_stmt 1
 2022              		.cfi_startproc
 2023              	.LVL190:
 2024 0000 130101FE 		addi	sp,sp,-32
 2025              		.cfi_def_cfa_offset 32
 2026 0004 233C1100 		sd	ra,24(sp)
 2027 0008 23388100 		sd	s0,16(sp)
 2028 000c 23349100 		sd	s1,8(sp)
 2029              		.cfi_offset 1, -8
 2030              		.cfi_offset 8, -16
GAS LISTING /tmp/ccCnP6rB.s 			page 61


 2031              		.cfi_offset 9, -24
 2032 0010 13040102 		addi	s0,sp,32
 2033              		.cfi_def_cfa 8, 0
 2034 0014 93040500 		mv	s1,a0
 2035              	.LVL191:
 2036              	.LBB175:
 2037              	.LBB176:
 316:test/Test8.cpp ****     int id;
 2038              		.loc 1 316 7 is_stmt 0
 2039 0018 97070000 		lla	a5,_ZTV2C3+16
 2039      93870700 
 2040 0020 2330F500 		sd	a5,0(a0)
 2041 0024 97000000 		call	_ZN6ThreadD2Ev@plt
 2041      E7800000 
 2042              	.LVL192:
 2043              	.LBE176:
 2044              	.LBE175:
 2045 002c 13850400 		mv	a0,s1
 2046 0030 97000000 		call	_ZdlPv@plt
 2046      E7800000 
 2047              	.LVL193:
 2048 0038 83308101 		ld	ra,24(sp)
 2049              		.cfi_restore 1
 2050 003c 03340101 		ld	s0,16(sp)
 2051              		.cfi_restore 8
 2052              		.cfi_def_cfa 2, 32
 2053 0040 83348100 		ld	s1,8(sp)
 2054              		.cfi_restore 9
 2055              	.LVL194:
 2056 0044 13010102 		addi	sp,sp,32
 2057              		.cfi_def_cfa_offset 0
 2058 0048 67800000 		jr	ra
 2059              		.cfi_endproc
 2060              	.LFE178:
 2062              		.section	.text._ZN2B3D2Ev,"axG",@progbits,_ZN2B3D5Ev,comdat
 2063              		.align	2
 2064              		.weak	_ZN2B3D2Ev
 2066              	_ZN2B3D2Ev:
 2067              	.LFB180:
 261:test/Test8.cpp ****     int id;
 2068              		.loc 1 261 7 is_stmt 1
 2069              		.cfi_startproc
 2070              	.LVL195:
 2071 0000 130101FF 		addi	sp,sp,-16
 2072              		.cfi_def_cfa_offset 16
 2073 0004 23341100 		sd	ra,8(sp)
 2074 0008 23308100 		sd	s0,0(sp)
 2075              		.cfi_offset 1, -8
 2076              		.cfi_offset 8, -16
 2077 000c 13040101 		addi	s0,sp,16
 2078              		.cfi_def_cfa 8, 0
 2079              	.LBB177:
 261:test/Test8.cpp ****     int id;
 2080              		.loc 1 261 7 is_stmt 0
 2081 0010 97070000 		lla	a5,_ZTV2B3+16
 2081      93870700 
 2082 0018 2330F500 		sd	a5,0(a0)
GAS LISTING /tmp/ccCnP6rB.s 			page 62


 2083 001c 97000000 		call	_ZN6ThreadD2Ev@plt
 2083      E7800000 
 2084              	.LVL196:
 2085              	.LBE177:
 2086 0024 83308100 		ld	ra,8(sp)
 2087              		.cfi_restore 1
 2088 0028 03340100 		ld	s0,0(sp)
 2089              		.cfi_restore 8
 2090              		.cfi_def_cfa 2, 16
 2091 002c 13010101 		addi	sp,sp,16
 2092              		.cfi_def_cfa_offset 0
 2093 0030 67800000 		jr	ra
 2094              		.cfi_endproc
 2095              	.LFE180:
 2097              		.weak	_ZN2B3D1Ev
 2098              		.set	_ZN2B3D1Ev,_ZN2B3D2Ev
 2099              		.section	.text._ZN2B3D0Ev,"axG",@progbits,_ZN2B3D5Ev,comdat
 2100              		.align	2
 2101              		.weak	_ZN2B3D0Ev
 2103              	_ZN2B3D0Ev:
 2104              	.LFB182:
 261:test/Test8.cpp ****     int id;
 2105              		.loc 1 261 7 is_stmt 1
 2106              		.cfi_startproc
 2107              	.LVL197:
 2108 0000 130101FE 		addi	sp,sp,-32
 2109              		.cfi_def_cfa_offset 32
 2110 0004 233C1100 		sd	ra,24(sp)
 2111 0008 23388100 		sd	s0,16(sp)
 2112 000c 23349100 		sd	s1,8(sp)
 2113              		.cfi_offset 1, -8
 2114              		.cfi_offset 8, -16
 2115              		.cfi_offset 9, -24
 2116 0010 13040102 		addi	s0,sp,32
 2117              		.cfi_def_cfa 8, 0
 2118 0014 93040500 		mv	s1,a0
 2119              	.LVL198:
 2120              	.LBB178:
 2121              	.LBB179:
 261:test/Test8.cpp ****     int id;
 2122              		.loc 1 261 7 is_stmt 0
 2123 0018 97070000 		lla	a5,_ZTV2B3+16
 2123      93870700 
 2124 0020 2330F500 		sd	a5,0(a0)
 2125 0024 97000000 		call	_ZN6ThreadD2Ev@plt
 2125      E7800000 
 2126              	.LVL199:
 2127              	.LBE179:
 2128              	.LBE178:
 2129 002c 13850400 		mv	a0,s1
 2130 0030 97000000 		call	_ZdlPv@plt
 2130      E7800000 
 2131              	.LVL200:
 2132 0038 83308101 		ld	ra,24(sp)
 2133              		.cfi_restore 1
 2134 003c 03340101 		ld	s0,16(sp)
 2135              		.cfi_restore 8
GAS LISTING /tmp/ccCnP6rB.s 			page 63


 2136              		.cfi_def_cfa 2, 32
 2137 0040 83348100 		ld	s1,8(sp)
 2138              		.cfi_restore 9
 2139              	.LVL201:
 2140 0044 13010102 		addi	sp,sp,32
 2141              		.cfi_def_cfa_offset 0
 2142 0048 67800000 		jr	ra
 2143              		.cfi_endproc
 2144              	.LFE182:
 2146              		.section	.text._ZN2A3D2Ev,"axG",@progbits,_ZN2A3D5Ev,comdat
 2147              		.align	2
 2148              		.weak	_ZN2A3D2Ev
 2150              	_ZN2A3D2Ev:
 2151              	.LFB184:
 204:test/Test8.cpp ****     int id;
 2152              		.loc 1 204 7 is_stmt 1
 2153              		.cfi_startproc
 2154              	.LVL202:
 2155 0000 130101FF 		addi	sp,sp,-16
 2156              		.cfi_def_cfa_offset 16
 2157 0004 23341100 		sd	ra,8(sp)
 2158 0008 23308100 		sd	s0,0(sp)
 2159              		.cfi_offset 1, -8
 2160              		.cfi_offset 8, -16
 2161 000c 13040101 		addi	s0,sp,16
 2162              		.cfi_def_cfa 8, 0
 2163              	.LBB180:
 204:test/Test8.cpp ****     int id;
 2164              		.loc 1 204 7 is_stmt 0
 2165 0010 97070000 		lla	a5,_ZTV2A3+16
 2165      93870700 
 2166 0018 2330F500 		sd	a5,0(a0)
 2167 001c 97000000 		call	_ZN6ThreadD2Ev@plt
 2167      E7800000 
 2168              	.LVL203:
 2169              	.LBE180:
 2170 0024 83308100 		ld	ra,8(sp)
 2171              		.cfi_restore 1
 2172 0028 03340100 		ld	s0,0(sp)
 2173              		.cfi_restore 8
 2174              		.cfi_def_cfa 2, 16
 2175 002c 13010101 		addi	sp,sp,16
 2176              		.cfi_def_cfa_offset 0
 2177 0030 67800000 		jr	ra
 2178              		.cfi_endproc
 2179              	.LFE184:
 2181              		.weak	_ZN2A3D1Ev
 2182              		.set	_ZN2A3D1Ev,_ZN2A3D2Ev
 2183              		.section	.text._ZN2A3D0Ev,"axG",@progbits,_ZN2A3D5Ev,comdat
 2184              		.align	2
 2185              		.weak	_ZN2A3D0Ev
 2187              	_ZN2A3D0Ev:
 2188              	.LFB186:
 204:test/Test8.cpp ****     int id;
 2189              		.loc 1 204 7 is_stmt 1
 2190              		.cfi_startproc
 2191              	.LVL204:
GAS LISTING /tmp/ccCnP6rB.s 			page 64


 2192 0000 130101FE 		addi	sp,sp,-32
 2193              		.cfi_def_cfa_offset 32
 2194 0004 233C1100 		sd	ra,24(sp)
 2195 0008 23388100 		sd	s0,16(sp)
 2196 000c 23349100 		sd	s1,8(sp)
 2197              		.cfi_offset 1, -8
 2198              		.cfi_offset 8, -16
 2199              		.cfi_offset 9, -24
 2200 0010 13040102 		addi	s0,sp,32
 2201              		.cfi_def_cfa 8, 0
 2202 0014 93040500 		mv	s1,a0
 2203              	.LVL205:
 2204              	.LBB181:
 2205              	.LBB182:
 204:test/Test8.cpp ****     int id;
 2206              		.loc 1 204 7 is_stmt 0
 2207 0018 97070000 		lla	a5,_ZTV2A3+16
 2207      93870700 
 2208 0020 2330F500 		sd	a5,0(a0)
 2209 0024 97000000 		call	_ZN6ThreadD2Ev@plt
 2209      E7800000 
 2210              	.LVL206:
 2211              	.LBE182:
 2212              	.LBE181:
 2213 002c 13850400 		mv	a0,s1
 2214 0030 97000000 		call	_ZdlPv@plt
 2214      E7800000 
 2215              	.LVL207:
 2216 0038 83308101 		ld	ra,24(sp)
 2217              		.cfi_restore 1
 2218 003c 03340101 		ld	s0,16(sp)
 2219              		.cfi_restore 8
 2220              		.cfi_def_cfa 2, 32
 2221 0040 83348100 		ld	s1,8(sp)
 2222              		.cfi_restore 9
 2223              	.LVL208:
 2224 0044 13010102 		addi	sp,sp,32
 2225              		.cfi_def_cfa_offset 0
 2226 0048 67800000 		jr	ra
 2227              		.cfi_endproc
 2228              	.LFE186:
 2230              		.section	.text._ZN2A6D2Ev,"axG",@progbits,_ZN2A6D5Ev,comdat
 2231              		.align	2
 2232              		.weak	_ZN2A6D2Ev
 2234              	_ZN2A6D2Ev:
 2235              	.LFB188:
 140:test/Test8.cpp ****     int id;
 2236              		.loc 1 140 7 is_stmt 1
 2237              		.cfi_startproc
 2238              	.LVL209:
 2239 0000 130101FF 		addi	sp,sp,-16
 2240              		.cfi_def_cfa_offset 16
 2241 0004 23341100 		sd	ra,8(sp)
 2242 0008 23308100 		sd	s0,0(sp)
 2243              		.cfi_offset 1, -8
 2244              		.cfi_offset 8, -16
 2245 000c 13040101 		addi	s0,sp,16
GAS LISTING /tmp/ccCnP6rB.s 			page 65


 2246              		.cfi_def_cfa 8, 0
 2247              	.LBB183:
 140:test/Test8.cpp ****     int id;
 2248              		.loc 1 140 7 is_stmt 0
 2249 0010 97070000 		lla	a5,_ZTV2A6+16
 2249      93870700 
 2250 0018 2330F500 		sd	a5,0(a0)
 2251 001c 97000000 		call	_ZN6ThreadD2Ev@plt
 2251      E7800000 
 2252              	.LVL210:
 2253              	.LBE183:
 2254 0024 83308100 		ld	ra,8(sp)
 2255              		.cfi_restore 1
 2256 0028 03340100 		ld	s0,0(sp)
 2257              		.cfi_restore 8
 2258              		.cfi_def_cfa 2, 16
 2259 002c 13010101 		addi	sp,sp,16
 2260              		.cfi_def_cfa_offset 0
 2261 0030 67800000 		jr	ra
 2262              		.cfi_endproc
 2263              	.LFE188:
 2265              		.weak	_ZN2A6D1Ev
 2266              		.set	_ZN2A6D1Ev,_ZN2A6D2Ev
 2267              		.section	.text._ZN2A6D0Ev,"axG",@progbits,_ZN2A6D5Ev,comdat
 2268              		.align	2
 2269              		.weak	_ZN2A6D0Ev
 2271              	_ZN2A6D0Ev:
 2272              	.LFB190:
 140:test/Test8.cpp ****     int id;
 2273              		.loc 1 140 7 is_stmt 1
 2274              		.cfi_startproc
 2275              	.LVL211:
 2276 0000 130101FE 		addi	sp,sp,-32
 2277              		.cfi_def_cfa_offset 32
 2278 0004 233C1100 		sd	ra,24(sp)
 2279 0008 23388100 		sd	s0,16(sp)
 2280 000c 23349100 		sd	s1,8(sp)
 2281              		.cfi_offset 1, -8
 2282              		.cfi_offset 8, -16
 2283              		.cfi_offset 9, -24
 2284 0010 13040102 		addi	s0,sp,32
 2285              		.cfi_def_cfa 8, 0
 2286 0014 93040500 		mv	s1,a0
 2287              	.LVL212:
 2288              	.LBB184:
 2289              	.LBB185:
 140:test/Test8.cpp ****     int id;
 2290              		.loc 1 140 7 is_stmt 0
 2291 0018 97070000 		lla	a5,_ZTV2A6+16
 2291      93870700 
 2292 0020 2330F500 		sd	a5,0(a0)
 2293 0024 97000000 		call	_ZN6ThreadD2Ev@plt
 2293      E7800000 
 2294              	.LVL213:
 2295              	.LBE185:
 2296              	.LBE184:
 2297 002c 13850400 		mv	a0,s1
GAS LISTING /tmp/ccCnP6rB.s 			page 66


 2298 0030 97000000 		call	_ZdlPv@plt
 2298      E7800000 
 2299              	.LVL214:
 2300 0038 83308101 		ld	ra,24(sp)
 2301              		.cfi_restore 1
 2302 003c 03340101 		ld	s0,16(sp)
 2303              		.cfi_restore 8
 2304              		.cfi_def_cfa 2, 32
 2305 0040 83348100 		ld	s1,8(sp)
 2306              		.cfi_restore 9
 2307              	.LVL215:
 2308 0044 13010102 		addi	sp,sp,32
 2309              		.cfi_def_cfa_offset 0
 2310 0048 67800000 		jr	ra
 2311              		.cfi_endproc
 2312              	.LFE190:
 2314              		.section	.text._ZN2A2D2Ev,"axG",@progbits,_ZN2A2D5Ev,comdat
 2315              		.align	2
 2316              		.weak	_ZN2A2D2Ev
 2318              	_ZN2A2D2Ev:
 2319              	.LFB192:
  80:test/Test8.cpp ****     int id;
 2320              		.loc 1 80 7 is_stmt 1
 2321              		.cfi_startproc
 2322              	.LVL216:
 2323 0000 130101FF 		addi	sp,sp,-16
 2324              		.cfi_def_cfa_offset 16
 2325 0004 23341100 		sd	ra,8(sp)
 2326 0008 23308100 		sd	s0,0(sp)
 2327              		.cfi_offset 1, -8
 2328              		.cfi_offset 8, -16
 2329 000c 13040101 		addi	s0,sp,16
 2330              		.cfi_def_cfa 8, 0
 2331              	.LBB186:
  80:test/Test8.cpp ****     int id;
 2332              		.loc 1 80 7 is_stmt 0
 2333 0010 97070000 		lla	a5,_ZTV2A2+16
 2333      93870700 
 2334 0018 2330F500 		sd	a5,0(a0)
 2335 001c 97000000 		call	_ZN6ThreadD2Ev@plt
 2335      E7800000 
 2336              	.LVL217:
 2337              	.LBE186:
 2338 0024 83308100 		ld	ra,8(sp)
 2339              		.cfi_restore 1
 2340 0028 03340100 		ld	s0,0(sp)
 2341              		.cfi_restore 8
 2342              		.cfi_def_cfa 2, 16
 2343 002c 13010101 		addi	sp,sp,16
 2344              		.cfi_def_cfa_offset 0
 2345 0030 67800000 		jr	ra
 2346              		.cfi_endproc
 2347              	.LFE192:
 2349              		.weak	_ZN2A2D1Ev
 2350              		.set	_ZN2A2D1Ev,_ZN2A2D2Ev
 2351              		.section	.text._ZN2A2D0Ev,"axG",@progbits,_ZN2A2D5Ev,comdat
 2352              		.align	2
GAS LISTING /tmp/ccCnP6rB.s 			page 67


 2353              		.weak	_ZN2A2D0Ev
 2355              	_ZN2A2D0Ev:
 2356              	.LFB194:
  80:test/Test8.cpp ****     int id;
 2357              		.loc 1 80 7 is_stmt 1
 2358              		.cfi_startproc
 2359              	.LVL218:
 2360 0000 130101FE 		addi	sp,sp,-32
 2361              		.cfi_def_cfa_offset 32
 2362 0004 233C1100 		sd	ra,24(sp)
 2363 0008 23388100 		sd	s0,16(sp)
 2364 000c 23349100 		sd	s1,8(sp)
 2365              		.cfi_offset 1, -8
 2366              		.cfi_offset 8, -16
 2367              		.cfi_offset 9, -24
 2368 0010 13040102 		addi	s0,sp,32
 2369              		.cfi_def_cfa 8, 0
 2370 0014 93040500 		mv	s1,a0
 2371              	.LVL219:
 2372              	.LBB187:
 2373              	.LBB188:
  80:test/Test8.cpp ****     int id;
 2374              		.loc 1 80 7 is_stmt 0
 2375 0018 97070000 		lla	a5,_ZTV2A2+16
 2375      93870700 
 2376 0020 2330F500 		sd	a5,0(a0)
 2377 0024 97000000 		call	_ZN6ThreadD2Ev@plt
 2377      E7800000 
 2378              	.LVL220:
 2379              	.LBE188:
 2380              	.LBE187:
 2381 002c 13850400 		mv	a0,s1
 2382 0030 97000000 		call	_ZdlPv@plt
 2382      E7800000 
 2383              	.LVL221:
 2384 0038 83308101 		ld	ra,24(sp)
 2385              		.cfi_restore 1
 2386 003c 03340101 		ld	s0,16(sp)
 2387              		.cfi_restore 8
 2388              		.cfi_def_cfa 2, 32
 2389 0040 83348100 		ld	s1,8(sp)
 2390              		.cfi_restore 9
 2391              	.LVL222:
 2392 0044 13010102 		addi	sp,sp,32
 2393              		.cfi_def_cfa_offset 0
 2394 0048 67800000 		jr	ra
 2395              		.cfi_endproc
 2396              	.LFE194:
 2398              		.section	.text._ZN2A1D2Ev,"axG",@progbits,_ZN2A1D5Ev,comdat
 2399              		.align	2
 2400              		.weak	_ZN2A1D2Ev
 2402              	_ZN2A1D2Ev:
 2403              	.LFB196:
  11:test/Test8.cpp ****     int id;
 2404              		.loc 1 11 7 is_stmt 1
 2405              		.cfi_startproc
 2406              	.LVL223:
GAS LISTING /tmp/ccCnP6rB.s 			page 68


 2407 0000 130101FF 		addi	sp,sp,-16
 2408              		.cfi_def_cfa_offset 16
 2409 0004 23341100 		sd	ra,8(sp)
 2410 0008 23308100 		sd	s0,0(sp)
 2411              		.cfi_offset 1, -8
 2412              		.cfi_offset 8, -16
 2413 000c 13040101 		addi	s0,sp,16
 2414              		.cfi_def_cfa 8, 0
 2415              	.LBB189:
  11:test/Test8.cpp ****     int id;
 2416              		.loc 1 11 7 is_stmt 0
 2417 0010 97070000 		lla	a5,_ZTV2A1+16
 2417      93870700 
 2418 0018 2330F500 		sd	a5,0(a0)
 2419 001c 97000000 		call	_ZN6ThreadD2Ev@plt
 2419      E7800000 
 2420              	.LVL224:
 2421              	.LBE189:
 2422 0024 83308100 		ld	ra,8(sp)
 2423              		.cfi_restore 1
 2424 0028 03340100 		ld	s0,0(sp)
 2425              		.cfi_restore 8
 2426              		.cfi_def_cfa 2, 16
 2427 002c 13010101 		addi	sp,sp,16
 2428              		.cfi_def_cfa_offset 0
 2429 0030 67800000 		jr	ra
 2430              		.cfi_endproc
 2431              	.LFE196:
 2433              		.weak	_ZN2A1D1Ev
 2434              		.set	_ZN2A1D1Ev,_ZN2A1D2Ev
 2435              		.section	.text._ZN2A1D0Ev,"axG",@progbits,_ZN2A1D5Ev,comdat
 2436              		.align	2
 2437              		.weak	_ZN2A1D0Ev
 2439              	_ZN2A1D0Ev:
 2440              	.LFB198:
  11:test/Test8.cpp ****     int id;
 2441              		.loc 1 11 7 is_stmt 1
 2442              		.cfi_startproc
 2443              	.LVL225:
 2444 0000 130101FE 		addi	sp,sp,-32
 2445              		.cfi_def_cfa_offset 32
 2446 0004 233C1100 		sd	ra,24(sp)
 2447 0008 23388100 		sd	s0,16(sp)
 2448 000c 23349100 		sd	s1,8(sp)
 2449              		.cfi_offset 1, -8
 2450              		.cfi_offset 8, -16
 2451              		.cfi_offset 9, -24
 2452 0010 13040102 		addi	s0,sp,32
 2453              		.cfi_def_cfa 8, 0
 2454 0014 93040500 		mv	s1,a0
 2455              	.LVL226:
 2456              	.LBB190:
 2457              	.LBB191:
  11:test/Test8.cpp ****     int id;
 2458              		.loc 1 11 7 is_stmt 0
 2459 0018 97070000 		lla	a5,_ZTV2A1+16
 2459      93870700 
GAS LISTING /tmp/ccCnP6rB.s 			page 69


 2460 0020 2330F500 		sd	a5,0(a0)
 2461 0024 97000000 		call	_ZN6ThreadD2Ev@plt
 2461      E7800000 
 2462              	.LVL227:
 2463              	.LBE191:
 2464              	.LBE190:
 2465 002c 13850400 		mv	a0,s1
 2466 0030 97000000 		call	_ZdlPv@plt
 2466      E7800000 
 2467              	.LVL228:
 2468 0038 83308101 		ld	ra,24(sp)
 2469              		.cfi_restore 1
 2470 003c 03340101 		ld	s0,16(sp)
 2471              		.cfi_restore 8
 2472              		.cfi_def_cfa 2, 32
 2473 0040 83348100 		ld	s1,8(sp)
 2474              		.cfi_restore 9
 2475              	.LVL229:
 2476 0044 13010102 		addi	sp,sp,32
 2477              		.cfi_def_cfa_offset 0
 2478 0048 67800000 		jr	ra
 2479              		.cfi_endproc
 2480              	.LFE198:
 2482              		.section	.rodata.str1.8
 2483 00cf 00       		.align	3
 2484              	.LC13:
 2485 00d0 506F6365 		.string	"Pocetak wrappera - nit id: "
 2485      74616B20 
 2485      77726170 
 2485      70657261 
 2485      202D206E 
 2486 00ec 00000000 		.align	3
 2487              	.LC14:
 2488 00f0 20692069 		.string	" i iteracija "
 2488      74657261 
 2488      63696A61 
 2488      2000
 2489 00fe 0000     		.align	3
 2490              	.LC15:
 2491 0100 2E204F62 		.string	". Obrada...\n"
 2491      72616461 
 2491      2E2E2E0A 
 2491      00
 2492 010d 000000   		.align	3
 2493              	.LC16:
 2494 0110 4E697420 		.string	"Nit id: "
 2494      69643A20 
 2494      00
 2495 0119 00000000 		.align	3
 2495      000000
 2496              	.LC17:
 2497 0120 20706F7A 		.string	" poziva barijeru, iteracija: "
 2497      69766120 
 2497      62617269 
 2497      6A657275 
 2497      2C206974 
 2498 013e 0000     		.align	3
GAS LISTING /tmp/ccCnP6rB.s 			page 70


 2499              	.LC18:
 2500 0140 2070726F 		.string	" prosla barijeru, iteracija: "
 2500      736C6120 
 2500      62617269 
 2500      6A657275 
 2500      2C206974 
 2501 015e 0000     		.align	3
 2502              	.LC19:
 2503 0160 476F746F 		.string	"Gotove sve tri iteracije\n"
 2503      76652073 
 2503      76652074 
 2503      72692069 
 2503      74657261 
 2504              		.text
 2505              		.align	2
 2506              		.globl	_ZN2A23runEv
 2508              	_ZN2A23runEv:
 2509              	.LFB13:
  90:test/Test8.cpp ****     for(int m=0;m<3;m++){
 2510              		.loc 1 90 15 is_stmt 1
 2511              		.cfi_startproc
 2512              	.LVL230:
 2513 0434 130101FD 		addi	sp,sp,-48
 2514              		.cfi_def_cfa_offset 48
 2515 0438 23341102 		sd	ra,40(sp)
 2516 043c 23308102 		sd	s0,32(sp)
 2517 0440 233C9100 		sd	s1,24(sp)
 2518 0444 23382101 		sd	s2,16(sp)
 2519 0448 23343101 		sd	s3,8(sp)
 2520              		.cfi_offset 1, -8
 2521              		.cfi_offset 8, -16
 2522              		.cfi_offset 9, -24
 2523              		.cfi_offset 18, -32
 2524              		.cfi_offset 19, -40
 2525 044c 13040103 		addi	s0,sp,48
 2526              		.cfi_def_cfa 8, 0
 2527 0450 13090500 		mv	s2,a0
  91:test/Test8.cpp ****         printString("Pocetak wrappera - nit id: ");
 2528              		.loc 1 91 5
 2529              	.LVL231:
 2530              	.LBB192:
  91:test/Test8.cpp ****         printString("Pocetak wrappera - nit id: ");
 2531              		.loc 1 91 13 is_stmt 0
 2532 0454 93090000 		li	s3,0
 2533 0458 6F00000F 		j	.L127
 2534              	.LVL232:
 2535              	.L124:
 2536              	.LBB193:
 2537              	.LBB194:
 2538              	.LBB195:
 101:test/Test8.cpp ****         }
 2539              		.loc 1 101 13 is_stmt 1 discriminator 2
 101:test/Test8.cpp ****         }
 2540              		.loc 1 101 28 is_stmt 0 discriminator 2
 2541 045c 97000000 		call	_Z15thread_dispatchv@plt
 2541      E7800000 
 2542              	.LVL233:
GAS LISTING /tmp/ccCnP6rB.s 			page 71


 2543              	.LBE195:
  97:test/Test8.cpp ****             for(int j=0;j<10000;j++){
 2544              		.loc 1 97 9 is_stmt 1 discriminator 2
 2545 0464 9B841400 		addiw	s1,s1,1
 2546              	.LVL234:
 2547              	.L126:
  97:test/Test8.cpp ****             for(int j=0;j<10000;j++){
 2548              		.loc 1 97 22 discriminator 1
 2549 0468 9307703E 		li	a5,999
 2550 046c 63CE9700 		bgt	s1,a5,.L123
 2551              	.LBB197:
 2552              	.LBB196:
  98:test/Test8.cpp **** 
 2553              		.loc 1 98 21 is_stmt 0
 2554 0470 13070000 		li	a4,0
 2555              	.L125:
 2556              	.LVL235:
  98:test/Test8.cpp **** 
 2557              		.loc 1 98 26 is_stmt 1 discriminator 3
 2558 0474 B7270000 		li	a5,8192
 2559 0478 9387F770 		addi	a5,a5,1807
 2560 047c E3C0E7FE 		bgt	a4,a5,.L124
  98:test/Test8.cpp **** 
 2561              		.loc 1 98 13 discriminator 2
 2562 0480 1B071700 		addiw	a4,a4,1
 2563              	.LVL236:
 2564 0484 6FF01FFF 		j	.L125
 2565              	.L123:
 2566              	.LBE196:
 2567              	.LBE197:
 2568              	.LBE194:
 103:test/Test8.cpp ****         printInt(id);
 2569              		.loc 1 103 9 discriminator 2
 103:test/Test8.cpp ****         printInt(id);
 2570              		.loc 1 103 20 is_stmt 0 discriminator 2
 2571 0488 17050000 		lla	a0,.LC16
 2571      13050500 
 2572 0490 97000000 		call	_Z11printStringPKc@plt
 2572      E7800000 
 2573              	.LVL237:
 104:test/Test8.cpp ****         printString(" poziva barijeru, iteracija: ");
 2574              		.loc 1 104 9 is_stmt 1 discriminator 2
 104:test/Test8.cpp ****         printString(" poziva barijeru, iteracija: ");
 2575              		.loc 1 104 17 is_stmt 0 discriminator 2
 2576 0498 13060000 		li	a2,0
 2577 049c 9305A000 		li	a1,10
 2578 04a0 03250902 		lw	a0,32(s2)
 2579 04a4 97000000 		call	_Z8printIntiii@plt
 2579      E7800000 
 2580              	.LVL238:
 105:test/Test8.cpp ****         printInt(m);
 2581              		.loc 1 105 9 is_stmt 1 discriminator 2
 105:test/Test8.cpp ****         printInt(m);
 2582              		.loc 1 105 20 is_stmt 0 discriminator 2
 2583 04ac 17050000 		lla	a0,.LC17
 2583      13050500 
 2584 04b4 97000000 		call	_Z11printStringPKc@plt
GAS LISTING /tmp/ccCnP6rB.s 			page 72


 2584      E7800000 
 2585              	.LVL239:
 106:test/Test8.cpp ****         printString("\n");
 2586              		.loc 1 106 9 is_stmt 1 discriminator 2
 106:test/Test8.cpp ****         printString("\n");
 2587              		.loc 1 106 17 is_stmt 0 discriminator 2
 2588 04bc 13060000 		li	a2,0
 2589 04c0 9305A000 		li	a1,10
 2590 04c4 13850900 		mv	a0,s3
 2591 04c8 97000000 		call	_Z8printIntiii@plt
 2591      E7800000 
 2592              	.LVL240:
 107:test/Test8.cpp ****         barrier();
 2593              		.loc 1 107 9 is_stmt 1 discriminator 2
 107:test/Test8.cpp ****         barrier();
 2594              		.loc 1 107 20 is_stmt 0 discriminator 2
 2595 04d0 17050000 		lla	a0,.LC1
 2595      13050500 
 2596 04d8 97000000 		call	_Z11printStringPKc@plt
 2596      E7800000 
 2597              	.LVL241:
 108:test/Test8.cpp ****         printString("Nit id: ");
 2598              		.loc 1 108 9 is_stmt 1 discriminator 2
 108:test/Test8.cpp ****         printString("Nit id: ");
 2599              		.loc 1 108 16 is_stmt 0 discriminator 2
 2600 04e0 13050900 		mv	a0,s2
 2601 04e4 97000000 		call	_ZN6Thread7barrierEv@plt
 2601      E7800000 
 2602              	.LVL242:
 109:test/Test8.cpp ****         printInt(id);
 2603              		.loc 1 109 9 is_stmt 1 discriminator 2
 109:test/Test8.cpp ****         printInt(id);
 2604              		.loc 1 109 20 is_stmt 0 discriminator 2
 2605 04ec 17050000 		lla	a0,.LC16
 2605      13050500 
 2606 04f4 97000000 		call	_Z11printStringPKc@plt
 2606      E7800000 
 2607              	.LVL243:
 110:test/Test8.cpp ****         printString(" prosla barijeru, iteracija: ");
 2608              		.loc 1 110 9 is_stmt 1 discriminator 2
 110:test/Test8.cpp ****         printString(" prosla barijeru, iteracija: ");
 2609              		.loc 1 110 17 is_stmt 0 discriminator 2
 2610 04fc 13060000 		li	a2,0
 2611 0500 9305A000 		li	a1,10
 2612 0504 03250902 		lw	a0,32(s2)
 2613 0508 97000000 		call	_Z8printIntiii@plt
 2613      E7800000 
 2614              	.LVL244:
 111:test/Test8.cpp ****         printInt(m);
 2615              		.loc 1 111 9 is_stmt 1 discriminator 2
 111:test/Test8.cpp ****         printInt(m);
 2616              		.loc 1 111 20 is_stmt 0 discriminator 2
 2617 0510 17050000 		lla	a0,.LC18
 2617      13050500 
 2618 0518 97000000 		call	_Z11printStringPKc@plt
 2618      E7800000 
 2619              	.LVL245:
GAS LISTING /tmp/ccCnP6rB.s 			page 73


 112:test/Test8.cpp ****         printString("\n");
 2620              		.loc 1 112 9 is_stmt 1 discriminator 2
 112:test/Test8.cpp ****         printString("\n");
 2621              		.loc 1 112 17 is_stmt 0 discriminator 2
 2622 0520 13060000 		li	a2,0
 2623 0524 9305A000 		li	a1,10
 2624 0528 13850900 		mv	a0,s3
 2625 052c 97000000 		call	_Z8printIntiii@plt
 2625      E7800000 
 2626              	.LVL246:
 113:test/Test8.cpp ****     }
 2627              		.loc 1 113 9 is_stmt 1 discriminator 2
 113:test/Test8.cpp ****     }
 2628              		.loc 1 113 20 is_stmt 0 discriminator 2
 2629 0534 17050000 		lla	a0,.LC1
 2629      13050500 
 2630 053c 97000000 		call	_Z11printStringPKc@plt
 2630      E7800000 
 2631              	.LVL247:
 2632              	.LBE193:
  91:test/Test8.cpp ****         printString("Pocetak wrappera - nit id: ");
 2633              		.loc 1 91 5 is_stmt 1 discriminator 2
 2634 0544 9B891900 		addiw	s3,s3,1
 2635              	.LVL248:
 2636              	.L127:
  91:test/Test8.cpp ****         printString("Pocetak wrappera - nit id: ");
 2637              		.loc 1 91 18 discriminator 1
 2638 0548 93072000 		li	a5,2
 2639 054c 63C23707 		bgt	s3,a5,.L122
 2640              	.LBB199:
  92:test/Test8.cpp ****         printInt(id);
 2641              		.loc 1 92 9
  92:test/Test8.cpp ****         printInt(id);
 2642              		.loc 1 92 20 is_stmt 0
 2643 0550 17050000 		lla	a0,.LC13
 2643      13050500 
 2644 0558 97000000 		call	_Z11printStringPKc@plt
 2644      E7800000 
 2645              	.LVL249:
  93:test/Test8.cpp ****         printString(" i iteracija ");
 2646              		.loc 1 93 9 is_stmt 1
  93:test/Test8.cpp ****         printString(" i iteracija ");
 2647              		.loc 1 93 17 is_stmt 0
 2648 0560 13060000 		li	a2,0
 2649 0564 9305A000 		li	a1,10
 2650 0568 03250902 		lw	a0,32(s2)
 2651 056c 97000000 		call	_Z8printIntiii@plt
 2651      E7800000 
 2652              	.LVL250:
  94:test/Test8.cpp ****         printInt(m);
 2653              		.loc 1 94 9 is_stmt 1
  94:test/Test8.cpp ****         printInt(m);
 2654              		.loc 1 94 20 is_stmt 0
 2655 0574 17050000 		lla	a0,.LC14
 2655      13050500 
 2656 057c 97000000 		call	_Z11printStringPKc@plt
 2656      E7800000 
GAS LISTING /tmp/ccCnP6rB.s 			page 74


 2657              	.LVL251:
  95:test/Test8.cpp ****         printString(". Obrada...\n");
 2658              		.loc 1 95 9 is_stmt 1
  95:test/Test8.cpp ****         printString(". Obrada...\n");
 2659              		.loc 1 95 17 is_stmt 0
 2660 0584 13060000 		li	a2,0
 2661 0588 9305A000 		li	a1,10
 2662 058c 13850900 		mv	a0,s3
 2663 0590 97000000 		call	_Z8printIntiii@plt
 2663      E7800000 
 2664              	.LVL252:
  96:test/Test8.cpp ****         for(int i=0;i<1000;i++){
 2665              		.loc 1 96 9 is_stmt 1
  96:test/Test8.cpp ****         for(int i=0;i<1000;i++){
 2666              		.loc 1 96 20 is_stmt 0
 2667 0598 17050000 		lla	a0,.LC15
 2667      13050500 
 2668 05a0 97000000 		call	_Z11printStringPKc@plt
 2668      E7800000 
 2669              	.LVL253:
  97:test/Test8.cpp ****             for(int j=0;j<10000;j++){
 2670              		.loc 1 97 9 is_stmt 1
 2671              	.LBB198:
  97:test/Test8.cpp ****             for(int j=0;j<10000;j++){
 2672              		.loc 1 97 17 is_stmt 0
 2673 05a8 93040000 		li	s1,0
 2674 05ac 6FF0DFEB 		j	.L126
 2675              	.LVL254:
 2676              	.L122:
 2677              	.LBE198:
 2678              	.LBE199:
 2679              	.LBE192:
 115:test/Test8.cpp ****     printString("Nit id: ");
 2680              		.loc 1 115 5 is_stmt 1
 115:test/Test8.cpp ****     printString("Nit id: ");
 2681              		.loc 1 115 16 is_stmt 0
 2682 05b0 17050000 		lla	a0,.LC19
 2682      13050500 
 2683 05b8 97000000 		call	_Z11printStringPKc@plt
 2683      E7800000 
 2684              	.LVL255:
 116:test/Test8.cpp ****     printInt(id);
 2685              		.loc 1 116 5 is_stmt 1
 116:test/Test8.cpp ****     printInt(id);
 2686              		.loc 1 116 16 is_stmt 0
 2687 05c0 17050000 		lla	a0,.LC16
 2687      13050500 
 2688 05c8 97000000 		call	_Z11printStringPKc@plt
 2688      E7800000 
 2689              	.LVL256:
 117:test/Test8.cpp ****     printString("\n");
 2690              		.loc 1 117 5 is_stmt 1
 117:test/Test8.cpp ****     printString("\n");
 2691              		.loc 1 117 13 is_stmt 0
 2692 05d0 13060000 		li	a2,0
 2693 05d4 9305A000 		li	a1,10
 2694 05d8 03250902 		lw	a0,32(s2)
GAS LISTING /tmp/ccCnP6rB.s 			page 75


 2695 05dc 97000000 		call	_Z8printIntiii@plt
 2695      E7800000 
 2696              	.LVL257:
 118:test/Test8.cpp **** }
 2697              		.loc 1 118 5 is_stmt 1
 118:test/Test8.cpp **** }
 2698              		.loc 1 118 16 is_stmt 0
 2699 05e4 17050000 		lla	a0,.LC1
 2699      13050500 
 2700 05ec 97000000 		call	_Z11printStringPKc@plt
 2700      E7800000 
 2701              	.LVL258:
 119:test/Test8.cpp **** 
 2702              		.loc 1 119 1
 2703 05f4 83308102 		ld	ra,40(sp)
 2704              		.cfi_restore 1
 2705 05f8 03340102 		ld	s0,32(sp)
 2706              		.cfi_restore 8
 2707              		.cfi_def_cfa 2, 48
 2708 05fc 83348101 		ld	s1,24(sp)
 2709              		.cfi_restore 9
 2710 0600 03390101 		ld	s2,16(sp)
 2711              		.cfi_restore 18
 2712              	.LVL259:
 2713 0604 83398100 		ld	s3,8(sp)
 2714              		.cfi_restore 19
 2715              	.LVL260:
 2716 0608 13010103 		addi	sp,sp,48
 2717              		.cfi_def_cfa_offset 0
 2718 060c 67800000 		jr	ra
 2719              		.cfi_endproc
 2720              	.LFE13:
 2722              		.section	.rodata.str1.8
 2723 017a 00000000 		.align	3
 2723      0000
 2724              	.LC20:
 2725 0180 4E697420 		.string	"Nit id - "
 2725      6964202D 
 2725      2000
 2726 018a 00000000 		.align	3
 2726      0000
 2727              	.LC21:
 2728 0190 20692070 		.string	" i pocetak obrade, iteracija: "
 2728      6F636574 
 2728      616B206F 
 2728      62726164 
 2728      652C2069 
 2729 01af 00       		.align	3
 2730              	.LC22:
 2731 01b0 207A6176 		.string	" zavrsila\n"
 2731      7273696C 
 2731      610A00
 2732              		.text
 2733              		.align	2
 2734              		.globl	_ZN2A63runEv
 2736              	_ZN2A63runEv:
 2737              	.LFB18:
GAS LISTING /tmp/ccCnP6rB.s 			page 76


 152:test/Test8.cpp ****     for(int i=0;i<3;i++){
 2738              		.loc 1 152 16 is_stmt 1
 2739              		.cfi_startproc
 2740              	.LVL261:
 2741 0610 130101FD 		addi	sp,sp,-48
 2742              		.cfi_def_cfa_offset 48
 2743 0614 23341102 		sd	ra,40(sp)
 2744 0618 23308102 		sd	s0,32(sp)
 2745 061c 233C9100 		sd	s1,24(sp)
 2746 0620 23382101 		sd	s2,16(sp)
 2747 0624 23343101 		sd	s3,8(sp)
 2748              		.cfi_offset 1, -8
 2749              		.cfi_offset 8, -16
 2750              		.cfi_offset 9, -24
 2751              		.cfi_offset 18, -32
 2752              		.cfi_offset 19, -40
 2753 0628 13040103 		addi	s0,sp,48
 2754              		.cfi_def_cfa 8, 0
 2755 062c 13090500 		mv	s2,a0
 153:test/Test8.cpp **** 
 2756              		.loc 1 153 5
 2757              	.LVL262:
 2758              	.LBB200:
 153:test/Test8.cpp **** 
 2759              		.loc 1 153 13 is_stmt 0
 2760 0630 93090000 		li	s3,0
 2761 0634 6F00C00E 		j	.L135
 2762              	.LVL263:
 2763              	.L132:
 2764              	.LBB201:
 2765              	.LBB202:
 2766              	.LBB203:
 162:test/Test8.cpp ****         }
 2767              		.loc 1 162 13 is_stmt 1 discriminator 2
 162:test/Test8.cpp ****         }
 2768              		.loc 1 162 28 is_stmt 0 discriminator 2
 2769 0638 97000000 		call	_Z15thread_dispatchv@plt
 2769      E7800000 
 2770              	.LVL264:
 2771              	.LBE203:
 160:test/Test8.cpp ****             for(int k=0;k<1000;k++){}
 2772              		.loc 1 160 9 is_stmt 1 discriminator 2
 2773 0640 9B841400 		addiw	s1,s1,1
 2774              	.LVL265:
 2775              	.L134:
 160:test/Test8.cpp ****             for(int k=0;k<1000;k++){}
 2776              		.loc 1 160 22 discriminator 1
 2777 0644 B7270000 		li	a5,8192
 2778 0648 9387F770 		addi	a5,a5,1807
 2779 064c 63CC9700 		bgt	s1,a5,.L131
 2780              	.LBB205:
 2781              	.LBB204:
 161:test/Test8.cpp ****             thread_dispatch();
 2782              		.loc 1 161 21 is_stmt 0
 2783 0650 93070000 		li	a5,0
 2784              	.L133:
 2785              	.LVL266:
GAS LISTING /tmp/ccCnP6rB.s 			page 77


 161:test/Test8.cpp ****             thread_dispatch();
 2786              		.loc 1 161 26 is_stmt 1 discriminator 3
 2787 0654 1307703E 		li	a4,999
 2788 0658 E340F7FE 		bgt	a5,a4,.L132
 161:test/Test8.cpp ****             thread_dispatch();
 2789              		.loc 1 161 13 discriminator 2
 2790 065c 9B871700 		addiw	a5,a5,1
 2791              	.LVL267:
 2792 0660 6FF05FFF 		j	.L133
 2793              	.L131:
 2794              	.LBE204:
 2795              	.LBE205:
 2796              	.LBE202:
 164:test/Test8.cpp ****         printInt(id);
 2797              		.loc 1 164 9 discriminator 2
 164:test/Test8.cpp ****         printInt(id);
 2798              		.loc 1 164 20 is_stmt 0 discriminator 2
 2799 0664 17050000 		lla	a0,.LC20
 2799      13050500 
 2800 066c 97000000 		call	_Z11printStringPKc@plt
 2800      E7800000 
 2801              	.LVL268:
 165:test/Test8.cpp ****         printString(" poziva barijeru, iteracija: ");
 2802              		.loc 1 165 9 is_stmt 1 discriminator 2
 165:test/Test8.cpp ****         printString(" poziva barijeru, iteracija: ");
 2803              		.loc 1 165 17 is_stmt 0 discriminator 2
 2804 0674 13060000 		li	a2,0
 2805 0678 9305A000 		li	a1,10
 2806 067c 03250902 		lw	a0,32(s2)
 2807 0680 97000000 		call	_Z8printIntiii@plt
 2807      E7800000 
 2808              	.LVL269:
 166:test/Test8.cpp ****         printInt(i);
 2809              		.loc 1 166 9 is_stmt 1 discriminator 2
 166:test/Test8.cpp ****         printInt(i);
 2810              		.loc 1 166 20 is_stmt 0 discriminator 2
 2811 0688 17050000 		lla	a0,.LC17
 2811      13050500 
 2812 0690 97000000 		call	_Z11printStringPKc@plt
 2812      E7800000 
 2813              	.LVL270:
 167:test/Test8.cpp ****         printString("\n");
 2814              		.loc 1 167 9 is_stmt 1 discriminator 2
 167:test/Test8.cpp ****         printString("\n");
 2815              		.loc 1 167 17 is_stmt 0 discriminator 2
 2816 0698 13060000 		li	a2,0
 2817 069c 9305A000 		li	a1,10
 2818 06a0 13850900 		mv	a0,s3
 2819 06a4 97000000 		call	_Z8printIntiii@plt
 2819      E7800000 
 2820              	.LVL271:
 168:test/Test8.cpp ****         Thread::barrier_2();
 2821              		.loc 1 168 9 is_stmt 1 discriminator 2
 168:test/Test8.cpp ****         Thread::barrier_2();
 2822              		.loc 1 168 20 is_stmt 0 discriminator 2
 2823 06ac 17050000 		lla	a0,.LC1
 2823      13050500 
GAS LISTING /tmp/ccCnP6rB.s 			page 78


 2824 06b4 97000000 		call	_Z11printStringPKc@plt
 2824      E7800000 
 2825              	.LVL272:
 169:test/Test8.cpp ****         printString("Nit id - ");
 2826              		.loc 1 169 9 is_stmt 1 discriminator 2
 169:test/Test8.cpp ****         printString("Nit id - ");
 2827              		.loc 1 169 26 is_stmt 0 discriminator 2
 2828 06bc 97000000 		call	_ZN6Thread9barrier_2Ev@plt
 2828      E7800000 
 2829              	.LVL273:
 170:test/Test8.cpp ****         printInt(id);
 2830              		.loc 1 170 9 is_stmt 1 discriminator 2
 170:test/Test8.cpp ****         printInt(id);
 2831              		.loc 1 170 20 is_stmt 0 discriminator 2
 2832 06c4 17050000 		lla	a0,.LC20
 2832      13050500 
 2833 06cc 97000000 		call	_Z11printStringPKc@plt
 2833      E7800000 
 2834              	.LVL274:
 171:test/Test8.cpp ****         printString(" prosla barijeru, iteracija: ");
 2835              		.loc 1 171 9 is_stmt 1 discriminator 2
 171:test/Test8.cpp ****         printString(" prosla barijeru, iteracija: ");
 2836              		.loc 1 171 17 is_stmt 0 discriminator 2
 2837 06d4 13060000 		li	a2,0
 2838 06d8 9305A000 		li	a1,10
 2839 06dc 03250902 		lw	a0,32(s2)
 2840 06e0 97000000 		call	_Z8printIntiii@plt
 2840      E7800000 
 2841              	.LVL275:
 172:test/Test8.cpp ****         printInt(i);
 2842              		.loc 1 172 9 is_stmt 1 discriminator 2
 172:test/Test8.cpp ****         printInt(i);
 2843              		.loc 1 172 20 is_stmt 0 discriminator 2
 2844 06e8 17050000 		lla	a0,.LC18
 2844      13050500 
 2845 06f0 97000000 		call	_Z11printStringPKc@plt
 2845      E7800000 
 2846              	.LVL276:
 173:test/Test8.cpp ****         printString("\n");
 2847              		.loc 1 173 9 is_stmt 1 discriminator 2
 173:test/Test8.cpp ****         printString("\n");
 2848              		.loc 1 173 17 is_stmt 0 discriminator 2
 2849 06f8 13060000 		li	a2,0
 2850 06fc 9305A000 		li	a1,10
 2851 0700 13850900 		mv	a0,s3
 2852 0704 97000000 		call	_Z8printIntiii@plt
 2852      E7800000 
 2853              	.LVL277:
 174:test/Test8.cpp **** 
 2854              		.loc 1 174 9 is_stmt 1 discriminator 2
 174:test/Test8.cpp **** 
 2855              		.loc 1 174 20 is_stmt 0 discriminator 2
 2856 070c 17050000 		lla	a0,.LC1
 2856      13050500 
 2857 0714 97000000 		call	_Z11printStringPKc@plt
 2857      E7800000 
 2858              	.LVL278:
GAS LISTING /tmp/ccCnP6rB.s 			page 79


 2859              	.LBE201:
 153:test/Test8.cpp **** 
 2860              		.loc 1 153 5 is_stmt 1 discriminator 2
 2861 071c 9B891900 		addiw	s3,s3,1
 2862              	.LVL279:
 2863              	.L135:
 153:test/Test8.cpp **** 
 2864              		.loc 1 153 18 discriminator 1
 2865 0720 93072000 		li	a5,2
 2866 0724 63C23707 		bgt	s3,a5,.L130
 2867              	.LBB207:
 155:test/Test8.cpp ****         printInt(id);
 2868              		.loc 1 155 9
 155:test/Test8.cpp ****         printInt(id);
 2869              		.loc 1 155 20 is_stmt 0
 2870 0728 17050000 		lla	a0,.LC20
 2870      13050500 
 2871 0730 97000000 		call	_Z11printStringPKc@plt
 2871      E7800000 
 2872              	.LVL280:
 156:test/Test8.cpp ****         printString(" i pocetak obrade, iteracija: ");
 2873              		.loc 1 156 9 is_stmt 1
 156:test/Test8.cpp ****         printString(" i pocetak obrade, iteracija: ");
 2874              		.loc 1 156 17 is_stmt 0
 2875 0738 13060000 		li	a2,0
 2876 073c 9305A000 		li	a1,10
 2877 0740 03250902 		lw	a0,32(s2)
 2878 0744 97000000 		call	_Z8printIntiii@plt
 2878      E7800000 
 2879              	.LVL281:
 157:test/Test8.cpp ****         printInt(i);
 2880              		.loc 1 157 9 is_stmt 1
 157:test/Test8.cpp ****         printInt(i);
 2881              		.loc 1 157 20 is_stmt 0
 2882 074c 17050000 		lla	a0,.LC21
 2882      13050500 
 2883 0754 97000000 		call	_Z11printStringPKc@plt
 2883      E7800000 
 2884              	.LVL282:
 158:test/Test8.cpp ****         printString("\n");
 2885              		.loc 1 158 9 is_stmt 1
 158:test/Test8.cpp ****         printString("\n");
 2886              		.loc 1 158 17 is_stmt 0
 2887 075c 13060000 		li	a2,0
 2888 0760 9305A000 		li	a1,10
 2889 0764 13850900 		mv	a0,s3
 2890 0768 97000000 		call	_Z8printIntiii@plt
 2890      E7800000 
 2891              	.LVL283:
 159:test/Test8.cpp ****         for(int j=0;j<10000;j++){
 2892              		.loc 1 159 9 is_stmt 1
 159:test/Test8.cpp ****         for(int j=0;j<10000;j++){
 2893              		.loc 1 159 20 is_stmt 0
 2894 0770 17050000 		lla	a0,.LC1
 2894      13050500 
 2895 0778 97000000 		call	_Z11printStringPKc@plt
 2895      E7800000 
GAS LISTING /tmp/ccCnP6rB.s 			page 80


 2896              	.LVL284:
 160:test/Test8.cpp ****             for(int k=0;k<1000;k++){}
 2897              		.loc 1 160 9 is_stmt 1
 2898              	.LBB206:
 160:test/Test8.cpp ****             for(int k=0;k<1000;k++){}
 2899              		.loc 1 160 17 is_stmt 0
 2900 0780 93040000 		li	s1,0
 2901 0784 6FF01FEC 		j	.L134
 2902              	.LVL285:
 2903              	.L130:
 2904              	.LBE206:
 2905              	.LBE207:
 2906              	.LBE200:
 177:test/Test8.cpp ****     printInt(id);
 2907              		.loc 1 177 5 is_stmt 1
 177:test/Test8.cpp ****     printInt(id);
 2908              		.loc 1 177 16 is_stmt 0
 2909 0788 17050000 		lla	a0,.LC20
 2909      13050500 
 2910 0790 97000000 		call	_Z11printStringPKc@plt
 2910      E7800000 
 2911              	.LVL286:
 178:test/Test8.cpp ****     printString(" zavrsila\n");
 2912              		.loc 1 178 5 is_stmt 1
 178:test/Test8.cpp ****     printString(" zavrsila\n");
 2913              		.loc 1 178 13 is_stmt 0
 2914 0798 13060000 		li	a2,0
 2915 079c 9305A000 		li	a1,10
 2916 07a0 03250902 		lw	a0,32(s2)
 2917 07a4 97000000 		call	_Z8printIntiii@plt
 2917      E7800000 
 2918              	.LVL287:
 179:test/Test8.cpp **** }
 2919              		.loc 1 179 5 is_stmt 1
 179:test/Test8.cpp **** }
 2920              		.loc 1 179 16 is_stmt 0
 2921 07ac 17050000 		lla	a0,.LC22
 2921      13050500 
 2922 07b4 97000000 		call	_Z11printStringPKc@plt
 2922      E7800000 
 2923              	.LVL288:
 180:test/Test8.cpp **** void testBarijera2(){
 2924              		.loc 1 180 1
 2925 07bc 83308102 		ld	ra,40(sp)
 2926              		.cfi_restore 1
 2927 07c0 03340102 		ld	s0,32(sp)
 2928              		.cfi_restore 8
 2929              		.cfi_def_cfa 2, 48
 2930 07c4 83348101 		ld	s1,24(sp)
 2931              		.cfi_restore 9
 2932 07c8 03390101 		ld	s2,16(sp)
 2933              		.cfi_restore 18
 2934              	.LVL289:
 2935 07cc 83398100 		ld	s3,8(sp)
 2936              		.cfi_restore 19
 2937              	.LVL290:
 2938 07d0 13010103 		addi	sp,sp,48
GAS LISTING /tmp/ccCnP6rB.s 			page 81


 2939              		.cfi_def_cfa_offset 0
 2940 07d4 67800000 		jr	ra
 2941              		.cfi_endproc
 2942              	.LFE18:
 2944              		.section	.rodata.str1.8
 2945 01bb 00000000 		.align	3
 2945      00
 2946              	.LC23:
 2947 01c0 413A2000 		.string	"A: "
 2948 01c4 00000000 		.align	3
 2949              	.LC24:
 2950 01c8 41207361 		.string	"A salje B\n"
 2950      6C6A6520 
 2950      420A00
 2951 01d3 00000000 		.align	3
 2951      00
 2952              	.LC25:
 2953 01d8 423A2070 		.string	"B: poruka od A za B\n"
 2953      6F72756B 
 2953      61206F64 
 2953      2041207A 
 2953      6120420A 
 2954 01ed 000000   		.align	3
 2955              	.LC26:
 2956 01f0 41207361 		.string	"A salje C\n"
 2956      6C6A6520 
 2956      430A00
 2957 01fb 00000000 		.align	3
 2957      00
 2958              	.LC27:
 2959 0200 433A2070 		.string	"C: poruka od A za C\n "
 2959      6F72756B 
 2959      61206F64 
 2959      2041207A 
 2959      6120430A 
 2960 0216 0000     		.align	3
 2961              	.LC28:
 2962 0218 4120706F 		.string	"A poslala sve i sad prima: "
 2962      736C616C 
 2962      61207376 
 2962      65206920 
 2962      73616420 
 2963 0234 00000000 		.align	3
 2964              	.LC29:
 2965 0238 41207376 		.string	"A sve primila: "
 2965      65207072 
 2965      696D696C 
 2965      613A2000 
 2966              		.text
 2967              		.align	2
 2968              		.globl	_ZN2A33runEv
 2970              	_ZN2A33runEv:
 2971              	.LFB24:
 223:test/Test8.cpp ****     for(int m=1;m<6;m++){
 2972              		.loc 1 223 15 is_stmt 1
 2973              		.cfi_startproc
 2974              	.LVL291:
GAS LISTING /tmp/ccCnP6rB.s 			page 82


 2975 07d8 130101FD 		addi	sp,sp,-48
 2976              		.cfi_def_cfa_offset 48
 2977 07dc 23341102 		sd	ra,40(sp)
 2978 07e0 23308102 		sd	s0,32(sp)
 2979 07e4 233C9100 		sd	s1,24(sp)
 2980 07e8 23382101 		sd	s2,16(sp)
 2981 07ec 23343101 		sd	s3,8(sp)
 2982              		.cfi_offset 1, -8
 2983              		.cfi_offset 8, -16
 2984              		.cfi_offset 9, -24
 2985              		.cfi_offset 18, -32
 2986              		.cfi_offset 19, -40
 2987 07f0 13040103 		addi	s0,sp,48
 2988              		.cfi_def_cfa 8, 0
 2989 07f4 93090500 		mv	s3,a0
 224:test/Test8.cpp ****         printString("A: ");
 2990              		.loc 1 224 5
 2991              	.LVL292:
 2992              	.LBB208:
 224:test/Test8.cpp ****         printString("A: ");
 2993              		.loc 1 224 13 is_stmt 0
 2994 07f8 13091000 		li	s2,1
 2995 07fc 6F000014 		j	.L143
 2996              	.LVL293:
 2997              	.L140:
 2998              	.LBB209:
 2999              	.LBB210:
 3000              	.LBB211:
 232:test/Test8.cpp ****         }
 3001              		.loc 1 232 13 is_stmt 1 discriminator 2
 232:test/Test8.cpp ****         }
 3002              		.loc 1 232 28 is_stmt 0 discriminator 2
 3003 0800 97000000 		call	_Z15thread_dispatchv@plt
 3003      E7800000 
 3004              	.LVL294:
 3005              	.LBE211:
 228:test/Test8.cpp ****             for(int j=0;j<10000;j++){
 3006              		.loc 1 228 9 is_stmt 1 discriminator 2
 3007 0808 9B841400 		addiw	s1,s1,1
 3008              	.LVL295:
 3009              	.L142:
 228:test/Test8.cpp ****             for(int j=0;j<10000;j++){
 3010              		.loc 1 228 22 discriminator 1
 3011 080c 9307703E 		li	a5,999
 3012 0810 63CE9700 		bgt	s1,a5,.L139
 3013              	.LBB213:
 3014              	.LBB212:
 229:test/Test8.cpp **** 
 3015              		.loc 1 229 21 is_stmt 0
 3016 0814 13070000 		li	a4,0
 3017              	.L141:
 3018              	.LVL296:
 229:test/Test8.cpp **** 
 3019              		.loc 1 229 26 is_stmt 1 discriminator 3
 3020 0818 B7270000 		li	a5,8192
 3021 081c 9387F770 		addi	a5,a5,1807
 3022 0820 E3C0E7FE 		bgt	a4,a5,.L140
GAS LISTING /tmp/ccCnP6rB.s 			page 83


 229:test/Test8.cpp **** 
 3023              		.loc 1 229 13 discriminator 2
 3024 0824 1B071700 		addiw	a4,a4,1
 3025              	.LVL297:
 3026 0828 6FF01FFF 		j	.L141
 3027              	.L139:
 3028              	.LBE212:
 3029              	.LBE213:
 3030              	.LBE210:
 235:test/Test8.cpp ****         printInt(m);
 3031              		.loc 1 235 9 discriminator 2
 235:test/Test8.cpp ****         printInt(m);
 3032              		.loc 1 235 20 is_stmt 0 discriminator 2
 3033 082c 17050000 		lla	a0,.LC23
 3033      13050500 
 3034 0834 97000000 		call	_Z11printStringPKc@plt
 3034      E7800000 
 3035              	.LVL298:
 236:test/Test8.cpp ****         printString("\n");
 3036              		.loc 1 236 9 is_stmt 1 discriminator 2
 236:test/Test8.cpp ****         printString("\n");
 3037              		.loc 1 236 17 is_stmt 0 discriminator 2
 3038 083c 13060000 		li	a2,0
 3039 0840 9305A000 		li	a1,10
 3040 0844 13050900 		mv	a0,s2
 3041 0848 97000000 		call	_Z8printIntiii@plt
 3041      E7800000 
 3042              	.LVL299:
 237:test/Test8.cpp ****         printString("A salje B\n");
 3043              		.loc 1 237 9 is_stmt 1 discriminator 2
 237:test/Test8.cpp ****         printString("A salje B\n");
 3044              		.loc 1 237 20 is_stmt 0 discriminator 2
 3045 0850 17050000 		lla	a0,.LC1
 3045      13050500 
 3046 0858 97000000 		call	_Z11printStringPKc@plt
 3046      E7800000 
 3047              	.LVL300:
 238:test/Test8.cpp ****         toSend1->send("B: poruka od A za B\n");
 3048              		.loc 1 238 9 is_stmt 1 discriminator 2
 238:test/Test8.cpp ****         toSend1->send("B: poruka od A za B\n");
 3049              		.loc 1 238 20 is_stmt 0 discriminator 2
 3050 0860 17050000 		lla	a0,.LC24
 3050      13050500 
 3051 0868 97000000 		call	_Z11printStringPKc@plt
 3051      E7800000 
 3052              	.LVL301:
 239:test/Test8.cpp ****             printString("A salje C\n");
 3053              		.loc 1 239 9 is_stmt 1 discriminator 2
 239:test/Test8.cpp ****             printString("A salje C\n");
 3054              		.loc 1 239 22 is_stmt 0 discriminator 2
 3055 0870 97050000 		lla	a1,.LC25
 3055      93850500 
 3056 0878 03B58902 		ld	a0,40(s3)
 3057 087c 97000000 		call	_ZN6Thread4sendEPKc@plt
 3057      E7800000 
 3058              	.LVL302:
 240:test/Test8.cpp ****         toSend2->send("C: poruka od A za C\n ");
GAS LISTING /tmp/ccCnP6rB.s 			page 84


 3059              		.loc 1 240 13 is_stmt 1 discriminator 2
 240:test/Test8.cpp ****         toSend2->send("C: poruka od A za C\n ");
 3060              		.loc 1 240 24 is_stmt 0 discriminator 2
 3061 0884 17050000 		lla	a0,.LC26
 3061      13050500 
 3062 088c 97000000 		call	_Z11printStringPKc@plt
 3062      E7800000 
 3063              	.LVL303:
 241:test/Test8.cpp ****         printString("A poslala sve i sad prima: ");
 3064              		.loc 1 241 9 is_stmt 1 discriminator 2
 241:test/Test8.cpp ****         printString("A poslala sve i sad prima: ");
 3065              		.loc 1 241 22 is_stmt 0 discriminator 2
 3066 0894 97050000 		lla	a1,.LC27
 3066      93850500 
 3067 089c 03B50903 		ld	a0,48(s3)
 3068 08a0 97000000 		call	_ZN6Thread4sendEPKc@plt
 3068      E7800000 
 3069              	.LVL304:
 242:test/Test8.cpp ****         printInt(m);
 3070              		.loc 1 242 9 is_stmt 1 discriminator 2
 242:test/Test8.cpp ****         printInt(m);
 3071              		.loc 1 242 20 is_stmt 0 discriminator 2
 3072 08a8 17050000 		lla	a0,.LC28
 3072      13050500 
 3073 08b0 97000000 		call	_Z11printStringPKc@plt
 3073      E7800000 
 3074              	.LVL305:
 243:test/Test8.cpp ****         printString("\n");
 3075              		.loc 1 243 9 is_stmt 1 discriminator 2
 243:test/Test8.cpp ****         printString("\n");
 3076              		.loc 1 243 17 is_stmt 0 discriminator 2
 3077 08b8 13060000 		li	a2,0
 3078 08bc 9305A000 		li	a1,10
 3079 08c0 13050900 		mv	a0,s2
 3080 08c4 97000000 		call	_Z8printIntiii@plt
 3080      E7800000 
 3081              	.LVL306:
 244:test/Test8.cpp **** 
 3082              		.loc 1 244 9 is_stmt 1 discriminator 2
 244:test/Test8.cpp **** 
 3083              		.loc 1 244 20 is_stmt 0 discriminator 2
 3084 08cc 17050000 		lla	a0,.LC1
 3084      13050500 
 3085 08d4 97000000 		call	_Z11printStringPKc@plt
 3085      E7800000 
 3086              	.LVL307:
 249:test/Test8.cpp ****         printString(receive());
 3087              		.loc 1 249 9 is_stmt 1 discriminator 2
 249:test/Test8.cpp ****         printString(receive());
 3088              		.loc 1 249 20 is_stmt 0 discriminator 2
 3089 08dc 13850900 		mv	a0,s3
 3090 08e0 97000000 		call	_ZN6Thread7receiveEv@plt
 3090      E7800000 
 3091              	.LVL308:
 3092 08e8 97000000 		call	_Z11printStringPKc@plt
 3092      E7800000 
 3093              	.LVL309:
GAS LISTING /tmp/ccCnP6rB.s 			page 85


 250:test/Test8.cpp ****         printString("A sve primila: ");
 3094              		.loc 1 250 9 is_stmt 1 discriminator 2
 250:test/Test8.cpp ****         printString("A sve primila: ");
 3095              		.loc 1 250 20 is_stmt 0 discriminator 2
 3096 08f0 13850900 		mv	a0,s3
 3097 08f4 97000000 		call	_ZN6Thread7receiveEv@plt
 3097      E7800000 
 3098              	.LVL310:
 3099 08fc 97000000 		call	_Z11printStringPKc@plt
 3099      E7800000 
 3100              	.LVL311:
 251:test/Test8.cpp ****         printInt(m);
 3101              		.loc 1 251 9 is_stmt 1 discriminator 2
 251:test/Test8.cpp ****         printInt(m);
 3102              		.loc 1 251 20 is_stmt 0 discriminator 2
 3103 0904 17050000 		lla	a0,.LC29
 3103      13050500 
 3104 090c 97000000 		call	_Z11printStringPKc@plt
 3104      E7800000 
 3105              	.LVL312:
 252:test/Test8.cpp ****         printString("\n");
 3106              		.loc 1 252 9 is_stmt 1 discriminator 2
 252:test/Test8.cpp ****         printString("\n");
 3107              		.loc 1 252 17 is_stmt 0 discriminator 2
 3108 0914 13060000 		li	a2,0
 3109 0918 9305A000 		li	a1,10
 3110 091c 13050900 		mv	a0,s2
 3111 0920 97000000 		call	_Z8printIntiii@plt
 3111      E7800000 
 3112              	.LVL313:
 253:test/Test8.cpp ****     }
 3113              		.loc 1 253 9 is_stmt 1 discriminator 2
 253:test/Test8.cpp ****     }
 3114              		.loc 1 253 20 is_stmt 0 discriminator 2
 3115 0928 17050000 		lla	a0,.LC1
 3115      13050500 
 3116 0930 97000000 		call	_Z11printStringPKc@plt
 3116      E7800000 
 3117              	.LVL314:
 3118              	.LBE209:
 224:test/Test8.cpp ****         printString("A: ");
 3119              		.loc 1 224 5 is_stmt 1 discriminator 2
 3120 0938 1B091900 		addiw	s2,s2,1
 3121              	.LVL315:
 3122              	.L143:
 224:test/Test8.cpp ****         printString("A: ");
 3123              		.loc 1 224 18 discriminator 1
 3124 093c 93075000 		li	a5,5
 3125 0940 63C02705 		bgt	s2,a5,.L137
 3126              	.LBB215:
 225:test/Test8.cpp ****         printInt(m);
 3127              		.loc 1 225 9
 225:test/Test8.cpp ****         printInt(m);
 3128              		.loc 1 225 20 is_stmt 0
 3129 0944 17050000 		lla	a0,.LC23
 3129      13050500 
 3130 094c 97000000 		call	_Z11printStringPKc@plt
GAS LISTING /tmp/ccCnP6rB.s 			page 86


 3130      E7800000 
 3131              	.LVL316:
 226:test/Test8.cpp ****         printString("\n");
 3132              		.loc 1 226 9 is_stmt 1
 226:test/Test8.cpp ****         printString("\n");
 3133              		.loc 1 226 17 is_stmt 0
 3134 0954 13060000 		li	a2,0
 3135 0958 9305A000 		li	a1,10
 3136 095c 13050900 		mv	a0,s2
 3137 0960 97000000 		call	_Z8printIntiii@plt
 3137      E7800000 
 3138              	.LVL317:
 227:test/Test8.cpp ****         for(int i=0;i<1000;i++){
 3139              		.loc 1 227 9 is_stmt 1
 227:test/Test8.cpp ****         for(int i=0;i<1000;i++){
 3140              		.loc 1 227 20 is_stmt 0
 3141 0968 17050000 		lla	a0,.LC1
 3141      13050500 
 3142 0970 97000000 		call	_Z11printStringPKc@plt
 3142      E7800000 
 3143              	.LVL318:
 228:test/Test8.cpp ****             for(int j=0;j<10000;j++){
 3144              		.loc 1 228 9 is_stmt 1
 3145              	.LBB214:
 228:test/Test8.cpp ****             for(int j=0;j<10000;j++){
 3146              		.loc 1 228 17 is_stmt 0
 3147 0978 93040000 		li	s1,0
 3148 097c 6FF01FE9 		j	.L142
 3149              	.LVL319:
 3150              	.L137:
 3151              	.LBE214:
 3152              	.LBE215:
 3153              	.LBE208:
 259:test/Test8.cpp **** 
 3154              		.loc 1 259 1
 3155 0980 83308102 		ld	ra,40(sp)
 3156              		.cfi_restore 1
 3157 0984 03340102 		ld	s0,32(sp)
 3158              		.cfi_restore 8
 3159              		.cfi_def_cfa 2, 48
 3160 0988 83348101 		ld	s1,24(sp)
 3161              		.cfi_restore 9
 3162 098c 03390101 		ld	s2,16(sp)
 3163              		.cfi_restore 18
 3164              	.LVL320:
 3165 0990 83398100 		ld	s3,8(sp)
 3166              		.cfi_restore 19
 3167              	.LVL321:
 3168 0994 13010103 		addi	sp,sp,48
 3169              		.cfi_def_cfa_offset 0
 3170 0998 67800000 		jr	ra
 3171              		.cfi_endproc
 3172              	.LFE24:
 3174              		.section	.rodata.str1.8
 3175              		.align	3
 3176              	.LC30:
 3177 0248 42207361 		.string	"B salje niti A\n"
GAS LISTING /tmp/ccCnP6rB.s 			page 87


 3177      6C6A6520 
 3177      6E697469 
 3177      20410A00 
 3178              		.align	3
 3179              	.LC31:
 3180 0258 413A2070 		.string	"A: poruka od B za A\n"
 3180      6F72756B 
 3180      61206F64 
 3180      2042207A 
 3180      6120410A 
 3181 026d 000000   		.align	3
 3182              	.LC32:
 3183 0270 4220706F 		.string	"B poslala i sad prima: "
 3183      736C616C 
 3183      61206920 
 3183      73616420 
 3183      7072696D 
 3184              		.align	3
 3185              	.LC33:
 3186 0288 42207072 		.string	"B primila sve: "
 3186      696D696C 
 3186      61207376 
 3186      653A2000 
 3187              		.text
 3188              		.align	2
 3189              		.globl	_ZN2B33runEv
 3191              	_ZN2B33runEv:
 3192              	.LFB29:
 280:test/Test8.cpp ****     for(int m=1;m<6;m++){
 3193              		.loc 1 280 15 is_stmt 1
 3194              		.cfi_startproc
 3195              	.LVL322:
 3196 099c 130101FD 		addi	sp,sp,-48
 3197              		.cfi_def_cfa_offset 48
 3198 09a0 23341102 		sd	ra,40(sp)
 3199 09a4 23308102 		sd	s0,32(sp)
 3200 09a8 233C9100 		sd	s1,24(sp)
 3201 09ac 23382101 		sd	s2,16(sp)
 3202 09b0 23343101 		sd	s3,8(sp)
 3203              		.cfi_offset 1, -8
 3204              		.cfi_offset 8, -16
 3205              		.cfi_offset 9, -24
 3206              		.cfi_offset 18, -32
 3207              		.cfi_offset 19, -40
 3208 09b4 13040103 		addi	s0,sp,48
 3209              		.cfi_def_cfa 8, 0
 3210 09b8 93090500 		mv	s3,a0
 281:test/Test8.cpp ****         printString("B: ");
 3211              		.loc 1 281 5
 3212              	.LVL323:
 3213              	.LBB216:
 281:test/Test8.cpp ****         printString("B: ");
 3214              		.loc 1 281 13 is_stmt 0
 3215 09bc 13091000 		li	s2,1
 3216 09c0 6F00C011 		j	.L151
 3217              	.LVL324:
 3218              	.L148:
GAS LISTING /tmp/ccCnP6rB.s 			page 88


 3219              	.LBB217:
 3220              	.LBB218:
 3221              	.LBB219:
 289:test/Test8.cpp ****         }
 3222              		.loc 1 289 13 is_stmt 1 discriminator 2
 289:test/Test8.cpp ****         }
 3223              		.loc 1 289 28 is_stmt 0 discriminator 2
 3224 09c4 97000000 		call	_Z15thread_dispatchv@plt
 3224      E7800000 
 3225              	.LVL325:
 3226              	.LBE219:
 285:test/Test8.cpp ****             for(int j=0;j<10000;j++){
 3227              		.loc 1 285 9 is_stmt 1 discriminator 2
 3228 09cc 9B841400 		addiw	s1,s1,1
 3229              	.LVL326:
 3230              	.L150:
 285:test/Test8.cpp ****             for(int j=0;j<10000;j++){
 3231              		.loc 1 285 22 discriminator 1
 3232 09d0 9307703E 		li	a5,999
 3233 09d4 63CE9700 		bgt	s1,a5,.L147
 3234              	.LBB221:
 3235              	.LBB220:
 286:test/Test8.cpp **** 
 3236              		.loc 1 286 21 is_stmt 0
 3237 09d8 13070000 		li	a4,0
 3238              	.L149:
 3239              	.LVL327:
 286:test/Test8.cpp **** 
 3240              		.loc 1 286 26 is_stmt 1 discriminator 3
 3241 09dc B7270000 		li	a5,8192
 3242 09e0 9387F770 		addi	a5,a5,1807
 3243 09e4 E3C0E7FE 		bgt	a4,a5,.L148
 286:test/Test8.cpp **** 
 3244              		.loc 1 286 13 discriminator 2
 3245 09e8 1B071700 		addiw	a4,a4,1
 3246              	.LVL328:
 3247 09ec 6FF01FFF 		j	.L149
 3248              	.L147:
 3249              	.LBE220:
 3250              	.LBE221:
 3251              	.LBE218:
 292:test/Test8.cpp ****         printInt(m);
 3252              		.loc 1 292 9 discriminator 2
 292:test/Test8.cpp ****         printInt(m);
 3253              		.loc 1 292 20 is_stmt 0 discriminator 2
 3254 09f0 17050000 		lla	a0,.LC8
 3254      13050500 
 3255 09f8 97000000 		call	_Z11printStringPKc@plt
 3255      E7800000 
 3256              	.LVL329:
 293:test/Test8.cpp ****         printString("\n");
 3257              		.loc 1 293 9 is_stmt 1 discriminator 2
 293:test/Test8.cpp ****         printString("\n");
 3258              		.loc 1 293 17 is_stmt 0 discriminator 2
 3259 0a00 13060000 		li	a2,0
 3260 0a04 9305A000 		li	a1,10
 3261 0a08 13050900 		mv	a0,s2
GAS LISTING /tmp/ccCnP6rB.s 			page 89


 3262 0a0c 97000000 		call	_Z8printIntiii@plt
 3262      E7800000 
 3263              	.LVL330:
 294:test/Test8.cpp ****         printString("B salje niti A\n");
 3264              		.loc 1 294 9 is_stmt 1 discriminator 2
 294:test/Test8.cpp ****         printString("B salje niti A\n");
 3265              		.loc 1 294 20 is_stmt 0 discriminator 2
 3266 0a14 17050000 		lla	a0,.LC1
 3266      13050500 
 3267 0a1c 97000000 		call	_Z11printStringPKc@plt
 3267      E7800000 
 3268              	.LVL331:
 295:test/Test8.cpp ****         toSend1->send("A: poruka od B za A\n");
 3269              		.loc 1 295 9 is_stmt 1 discriminator 2
 295:test/Test8.cpp ****         toSend1->send("A: poruka od B za A\n");
 3270              		.loc 1 295 20 is_stmt 0 discriminator 2
 3271 0a24 17050000 		lla	a0,.LC30
 3271      13050500 
 3272 0a2c 97000000 		call	_Z11printStringPKc@plt
 3272      E7800000 
 3273              	.LVL332:
 296:test/Test8.cpp ****         printString("B poslala i sad prima: ");
 3274              		.loc 1 296 9 is_stmt 1 discriminator 2
 296:test/Test8.cpp ****         printString("B poslala i sad prima: ");
 3275              		.loc 1 296 22 is_stmt 0 discriminator 2
 3276 0a34 97050000 		lla	a1,.LC31
 3276      93850500 
 3277 0a3c 03B58902 		ld	a0,40(s3)
 3278 0a40 97000000 		call	_ZN6Thread4sendEPKc@plt
 3278      E7800000 
 3279              	.LVL333:
 297:test/Test8.cpp ****         printInt(m);
 3280              		.loc 1 297 9 is_stmt 1 discriminator 2
 297:test/Test8.cpp ****         printInt(m);
 3281              		.loc 1 297 20 is_stmt 0 discriminator 2
 3282 0a48 17050000 		lla	a0,.LC32
 3282      13050500 
 3283 0a50 97000000 		call	_Z11printStringPKc@plt
 3283      E7800000 
 3284              	.LVL334:
 298:test/Test8.cpp ****         printString("\n");
 3285              		.loc 1 298 9 is_stmt 1 discriminator 2
 298:test/Test8.cpp ****         printString("\n");
 3286              		.loc 1 298 17 is_stmt 0 discriminator 2
 3287 0a58 13060000 		li	a2,0
 3288 0a5c 9305A000 		li	a1,10
 3289 0a60 13050900 		mv	a0,s2
 3290 0a64 97000000 		call	_Z8printIntiii@plt
 3290      E7800000 
 3291              	.LVL335:
 299:test/Test8.cpp **** 
 3292              		.loc 1 299 9 is_stmt 1 discriminator 2
 299:test/Test8.cpp **** 
 3293              		.loc 1 299 20 is_stmt 0 discriminator 2
 3294 0a6c 17050000 		lla	a0,.LC1
 3294      13050500 
 3295 0a74 97000000 		call	_Z11printStringPKc@plt
GAS LISTING /tmp/ccCnP6rB.s 			page 90


 3295      E7800000 
 3296              	.LVL336:
 304:test/Test8.cpp ****         printString(receive());
 3297              		.loc 1 304 9 is_stmt 1 discriminator 2
 304:test/Test8.cpp ****         printString(receive());
 3298              		.loc 1 304 20 is_stmt 0 discriminator 2
 3299 0a7c 13850900 		mv	a0,s3
 3300 0a80 97000000 		call	_ZN6Thread7receiveEv@plt
 3300      E7800000 
 3301              	.LVL337:
 3302 0a88 97000000 		call	_Z11printStringPKc@plt
 3302      E7800000 
 3303              	.LVL338:
 305:test/Test8.cpp ****         printString("B primila sve: ");
 3304              		.loc 1 305 9 is_stmt 1 discriminator 2
 305:test/Test8.cpp ****         printString("B primila sve: ");
 3305              		.loc 1 305 20 is_stmt 0 discriminator 2
 3306 0a90 13850900 		mv	a0,s3
 3307 0a94 97000000 		call	_ZN6Thread7receiveEv@plt
 3307      E7800000 
 3308              	.LVL339:
 3309 0a9c 97000000 		call	_Z11printStringPKc@plt
 3309      E7800000 
 3310              	.LVL340:
 306:test/Test8.cpp ****         printInt(m);
 3311              		.loc 1 306 9 is_stmt 1 discriminator 2
 306:test/Test8.cpp ****         printInt(m);
 3312              		.loc 1 306 20 is_stmt 0 discriminator 2
 3313 0aa4 17050000 		lla	a0,.LC33
 3313      13050500 
 3314 0aac 97000000 		call	_Z11printStringPKc@plt
 3314      E7800000 
 3315              	.LVL341:
 307:test/Test8.cpp ****         printString("\n");
 3316              		.loc 1 307 9 is_stmt 1 discriminator 2
 307:test/Test8.cpp ****         printString("\n");
 3317              		.loc 1 307 17 is_stmt 0 discriminator 2
 3318 0ab4 13060000 		li	a2,0
 3319 0ab8 9305A000 		li	a1,10
 3320 0abc 13050900 		mv	a0,s2
 3321 0ac0 97000000 		call	_Z8printIntiii@plt
 3321      E7800000 
 3322              	.LVL342:
 308:test/Test8.cpp ****     }
 3323              		.loc 1 308 9 is_stmt 1 discriminator 2
 308:test/Test8.cpp ****     }
 3324              		.loc 1 308 20 is_stmt 0 discriminator 2
 3325 0ac8 17050000 		lla	a0,.LC1
 3325      13050500 
 3326 0ad0 97000000 		call	_Z11printStringPKc@plt
 3326      E7800000 
 3327              	.LVL343:
 3328              	.LBE217:
 281:test/Test8.cpp ****         printString("B: ");
 3329              		.loc 1 281 5 is_stmt 1 discriminator 2
 3330 0ad8 1B091900 		addiw	s2,s2,1
 3331              	.LVL344:
GAS LISTING /tmp/ccCnP6rB.s 			page 91


 3332              	.L151:
 281:test/Test8.cpp ****         printString("B: ");
 3333              		.loc 1 281 18 discriminator 1
 3334 0adc 93075000 		li	a5,5
 3335 0ae0 63C02705 		bgt	s2,a5,.L145
 3336              	.LBB223:
 282:test/Test8.cpp ****         printInt(m);
 3337              		.loc 1 282 9
 282:test/Test8.cpp ****         printInt(m);
 3338              		.loc 1 282 20 is_stmt 0
 3339 0ae4 17050000 		lla	a0,.LC8
 3339      13050500 
 3340 0aec 97000000 		call	_Z11printStringPKc@plt
 3340      E7800000 
 3341              	.LVL345:
 283:test/Test8.cpp ****         printString("\n");
 3342              		.loc 1 283 9 is_stmt 1
 283:test/Test8.cpp ****         printString("\n");
 3343              		.loc 1 283 17 is_stmt 0
 3344 0af4 13060000 		li	a2,0
 3345 0af8 9305A000 		li	a1,10
 3346 0afc 13050900 		mv	a0,s2
 3347 0b00 97000000 		call	_Z8printIntiii@plt
 3347      E7800000 
 3348              	.LVL346:
 284:test/Test8.cpp ****         for(int i=0;i<1000;i++){
 3349              		.loc 1 284 9 is_stmt 1
 284:test/Test8.cpp ****         for(int i=0;i<1000;i++){
 3350              		.loc 1 284 20 is_stmt 0
 3351 0b08 17050000 		lla	a0,.LC1
 3351      13050500 
 3352 0b10 97000000 		call	_Z11printStringPKc@plt
 3352      E7800000 
 3353              	.LVL347:
 285:test/Test8.cpp ****             for(int j=0;j<10000;j++){
 3354              		.loc 1 285 9 is_stmt 1
 3355              	.LBB222:
 285:test/Test8.cpp ****             for(int j=0;j<10000;j++){
 3356              		.loc 1 285 17 is_stmt 0
 3357 0b18 93040000 		li	s1,0
 3358 0b1c 6FF05FEB 		j	.L150
 3359              	.LVL348:
 3360              	.L145:
 3361              	.LBE222:
 3362              	.LBE223:
 3363              	.LBE216:
 314:test/Test8.cpp **** 
 3364              		.loc 1 314 1
 3365 0b20 83308102 		ld	ra,40(sp)
 3366              		.cfi_restore 1
 3367 0b24 03340102 		ld	s0,32(sp)
 3368              		.cfi_restore 8
 3369              		.cfi_def_cfa 2, 48
 3370 0b28 83348101 		ld	s1,24(sp)
 3371              		.cfi_restore 9
 3372 0b2c 03390101 		ld	s2,16(sp)
 3373              		.cfi_restore 18
GAS LISTING /tmp/ccCnP6rB.s 			page 92


 3374              	.LVL349:
 3375 0b30 83398100 		ld	s3,8(sp)
 3376              		.cfi_restore 19
 3377              	.LVL350:
 3378 0b34 13010103 		addi	sp,sp,48
 3379              		.cfi_def_cfa_offset 0
 3380 0b38 67800000 		jr	ra
 3381              		.cfi_endproc
 3382              	.LFE29:
 3384              		.section	.rodata.str1.8
 3385              		.align	3
 3386              	.LC34:
 3387 0298 433A2000 		.string	"C: "
 3388 029c 00000000 		.align	3
 3389              	.LC35:
 3390 02a0 43207361 		.string	"C salje poruku niti A\n"
 3390      6C6A6520 
 3390      706F7275 
 3390      6B75206E 
 3390      69746920 
 3391 02b7 00       		.align	3
 3392              	.LC36:
 3393 02b8 413A2070 		.string	"A: poruka od C za A\n"
 3393      6F72756B 
 3393      61206F64 
 3393      2043207A 
 3393      6120410A 
 3394 02cd 000000   		.align	3
 3395              	.LC37:
 3396 02d0 43207361 		.string	"C salje8 poruku niti B\n"
 3396      6C6A6538 
 3396      20706F72 
 3396      756B7520 
 3396      6E697469 
 3397              		.align	3
 3398              	.LC38:
 3399 02e8 423A2070 		.string	"B: poruka od C za B\n "
 3399      6F72756B 
 3399      61206F64 
 3399      2043207A 
 3399      6120420A 
 3400 02fe 0000     		.align	3
 3401              	.LC39:
 3402 0300 43207376 		.string	"C sve poruke poslate i sad prima: "
 3402      6520706F 
 3402      72756B65 
 3402      20706F73 
 3402      6C617465 
 3403 0323 00000000 		.align	3
 3403      00
 3404              	.LC40:
 3405 0328 43207072 		.string	"C primila : "
 3405      696D696C 
 3405      61203A20 
 3405      00
 3406              		.text
 3407              		.align	2
GAS LISTING /tmp/ccCnP6rB.s 			page 93


 3408              		.globl	_ZN2C33runEv
 3410              	_ZN2C33runEv:
 3411              	.LFB34:
 335:test/Test8.cpp ****     for(int m=1;m<6;m++){
 3412              		.loc 1 335 15 is_stmt 1
 3413              		.cfi_startproc
 3414              	.LVL351:
 3415 0b3c 130101FD 		addi	sp,sp,-48
 3416              		.cfi_def_cfa_offset 48
 3417 0b40 23341102 		sd	ra,40(sp)
 3418 0b44 23308102 		sd	s0,32(sp)
 3419 0b48 233C9100 		sd	s1,24(sp)
 3420 0b4c 23382101 		sd	s2,16(sp)
 3421 0b50 23343101 		sd	s3,8(sp)
 3422              		.cfi_offset 1, -8
 3423              		.cfi_offset 8, -16
 3424              		.cfi_offset 9, -24
 3425              		.cfi_offset 18, -32
 3426              		.cfi_offset 19, -40
 3427 0b54 13040103 		addi	s0,sp,48
 3428              		.cfi_def_cfa 8, 0
 3429 0b58 93090500 		mv	s3,a0
 336:test/Test8.cpp **** //        printString("Pocetak wrappera C- nit id: ");
 3430              		.loc 1 336 5
 3431              	.LVL352:
 3432              	.LBB224:
 336:test/Test8.cpp **** //        printString("Pocetak wrappera C- nit id: ");
 3433              		.loc 1 336 13 is_stmt 0
 3434 0b5c 13091000 		li	s2,1
 3435 0b60 6F00C012 		j	.L159
 3436              	.LVL353:
 3437              	.L156:
 3438              	.LBB225:
 3439              	.LBB226:
 3440              	.LBB227:
 349:test/Test8.cpp ****         }
 3441              		.loc 1 349 13 is_stmt 1 discriminator 2
 349:test/Test8.cpp ****         }
 3442              		.loc 1 349 28 is_stmt 0 discriminator 2
 3443 0b64 97000000 		call	_Z15thread_dispatchv@plt
 3443      E7800000 
 3444              	.LVL354:
 3445              	.LBE227:
 345:test/Test8.cpp ****             for(int j=0;j<10000;j++){
 3446              		.loc 1 345 9 is_stmt 1 discriminator 2
 3447 0b6c 9B841400 		addiw	s1,s1,1
 3448              	.LVL355:
 3449              	.L158:
 345:test/Test8.cpp ****             for(int j=0;j<10000;j++){
 3450              		.loc 1 345 22 discriminator 1
 3451 0b70 9307703E 		li	a5,999
 3452 0b74 63CE9700 		bgt	s1,a5,.L155
 3453              	.LBB229:
 3454              	.LBB228:
 346:test/Test8.cpp **** 
 3455              		.loc 1 346 21 is_stmt 0
 3456 0b78 13070000 		li	a4,0
GAS LISTING /tmp/ccCnP6rB.s 			page 94


 3457              	.L157:
 3458              	.LVL356:
 346:test/Test8.cpp **** 
 3459              		.loc 1 346 26 is_stmt 1 discriminator 3
 3460 0b7c B7270000 		li	a5,8192
 3461 0b80 9387F770 		addi	a5,a5,1807
 3462 0b84 E3C0E7FE 		bgt	a4,a5,.L156
 346:test/Test8.cpp **** 
 3463              		.loc 1 346 13 discriminator 2
 3464 0b88 1B071700 		addiw	a4,a4,1
 3465              	.LVL357:
 3466 0b8c 6FF01FFF 		j	.L157
 3467              	.L155:
 3468              	.LBE228:
 3469              	.LBE229:
 3470              	.LBE226:
 352:test/Test8.cpp ****         printInt(m);
 3471              		.loc 1 352 9 discriminator 2
 352:test/Test8.cpp ****         printInt(m);
 3472              		.loc 1 352 20 is_stmt 0 discriminator 2
 3473 0b90 17050000 		lla	a0,.LC34
 3473      13050500 
 3474 0b98 97000000 		call	_Z11printStringPKc@plt
 3474      E7800000 
 3475              	.LVL358:
 353:test/Test8.cpp ****         printString("\n");
 3476              		.loc 1 353 9 is_stmt 1 discriminator 2
 353:test/Test8.cpp ****         printString("\n");
 3477              		.loc 1 353 17 is_stmt 0 discriminator 2
 3478 0ba0 13060000 		li	a2,0
 3479 0ba4 9305A000 		li	a1,10
 3480 0ba8 13050900 		mv	a0,s2
 3481 0bac 97000000 		call	_Z8printIntiii@plt
 3481      E7800000 
 3482              	.LVL359:
 354:test/Test8.cpp ****         printString("C salje poruku niti A\n");
 3483              		.loc 1 354 9 is_stmt 1 discriminator 2
 354:test/Test8.cpp ****         printString("C salje poruku niti A\n");
 3484              		.loc 1 354 20 is_stmt 0 discriminator 2
 3485 0bb4 17050000 		lla	a0,.LC1
 3485      13050500 
 3486 0bbc 97000000 		call	_Z11printStringPKc@plt
 3486      E7800000 
 3487              	.LVL360:
 355:test/Test8.cpp ****         toSend1->send("A: poruka od C za A\n");
 3488              		.loc 1 355 9 is_stmt 1 discriminator 2
 355:test/Test8.cpp ****         toSend1->send("A: poruka od C za A\n");
 3489              		.loc 1 355 20 is_stmt 0 discriminator 2
 3490 0bc4 17050000 		lla	a0,.LC35
 3490      13050500 
 3491 0bcc 97000000 		call	_Z11printStringPKc@plt
 3491      E7800000 
 3492              	.LVL361:
 356:test/Test8.cpp ****         printString("C salje8 poruku niti B\n");
 3493              		.loc 1 356 9 is_stmt 1 discriminator 2
 356:test/Test8.cpp ****         printString("C salje8 poruku niti B\n");
 3494              		.loc 1 356 22 is_stmt 0 discriminator 2
GAS LISTING /tmp/ccCnP6rB.s 			page 95


 3495 0bd4 97050000 		lla	a1,.LC36
 3495      93850500 
 3496 0bdc 03B58902 		ld	a0,40(s3)
 3497 0be0 97000000 		call	_ZN6Thread4sendEPKc@plt
 3497      E7800000 
 3498              	.LVL362:
 357:test/Test8.cpp ****         toSend2->send("B: poruka od C za B\n ");
 3499              		.loc 1 357 9 is_stmt 1 discriminator 2
 357:test/Test8.cpp ****         toSend2->send("B: poruka od C za B\n ");
 3500              		.loc 1 357 20 is_stmt 0 discriminator 2
 3501 0be8 17050000 		lla	a0,.LC37
 3501      13050500 
 3502 0bf0 97000000 		call	_Z11printStringPKc@plt
 3502      E7800000 
 3503              	.LVL363:
 358:test/Test8.cpp ****         printString("C sve poruke poslate i sad prima: ");
 3504              		.loc 1 358 9 is_stmt 1 discriminator 2
 358:test/Test8.cpp ****         printString("C sve poruke poslate i sad prima: ");
 3505              		.loc 1 358 22 is_stmt 0 discriminator 2
 3506 0bf8 97050000 		lla	a1,.LC38
 3506      93850500 
 3507 0c00 03B50903 		ld	a0,48(s3)
 3508 0c04 97000000 		call	_ZN6Thread4sendEPKc@plt
 3508      E7800000 
 3509              	.LVL364:
 359:test/Test8.cpp ****         printInt(m);
 3510              		.loc 1 359 9 is_stmt 1 discriminator 2
 359:test/Test8.cpp ****         printInt(m);
 3511              		.loc 1 359 20 is_stmt 0 discriminator 2
 3512 0c0c 17050000 		lla	a0,.LC39
 3512      13050500 
 3513 0c14 97000000 		call	_Z11printStringPKc@plt
 3513      E7800000 
 3514              	.LVL365:
 360:test/Test8.cpp ****         printString("\n");
 3515              		.loc 1 360 9 is_stmt 1 discriminator 2
 360:test/Test8.cpp ****         printString("\n");
 3516              		.loc 1 360 17 is_stmt 0 discriminator 2
 3517 0c1c 13060000 		li	a2,0
 3518 0c20 9305A000 		li	a1,10
 3519 0c24 13050900 		mv	a0,s2
 3520 0c28 97000000 		call	_Z8printIntiii@plt
 3520      E7800000 
 3521              	.LVL366:
 361:test/Test8.cpp ****         printString(receive());
 3522              		.loc 1 361 9 is_stmt 1 discriminator 2
 361:test/Test8.cpp ****         printString(receive());
 3523              		.loc 1 361 20 is_stmt 0 discriminator 2
 3524 0c30 17050000 		lla	a0,.LC1
 3524      13050500 
 3525 0c38 97000000 		call	_Z11printStringPKc@plt
 3525      E7800000 
 3526              	.LVL367:
 362:test/Test8.cpp ****         printString("C primila : ");
 3527              		.loc 1 362 9 is_stmt 1 discriminator 2
 362:test/Test8.cpp ****         printString("C primila : ");
 3528              		.loc 1 362 20 is_stmt 0 discriminator 2
GAS LISTING /tmp/ccCnP6rB.s 			page 96


 3529 0c40 13850900 		mv	a0,s3
 3530 0c44 97000000 		call	_ZN6Thread7receiveEv@plt
 3530      E7800000 
 3531              	.LVL368:
 3532 0c4c 97000000 		call	_Z11printStringPKc@plt
 3532      E7800000 
 3533              	.LVL369:
 363:test/Test8.cpp ****         printInt(m);
 3534              		.loc 1 363 9 is_stmt 1 discriminator 2
 363:test/Test8.cpp ****         printInt(m);
 3535              		.loc 1 363 20 is_stmt 0 discriminator 2
 3536 0c54 17050000 		lla	a0,.LC40
 3536      13050500 
 3537 0c5c 97000000 		call	_Z11printStringPKc@plt
 3537      E7800000 
 3538              	.LVL370:
 364:test/Test8.cpp ****         printString("\n");
 3539              		.loc 1 364 9 is_stmt 1 discriminator 2
 364:test/Test8.cpp ****         printString("\n");
 3540              		.loc 1 364 17 is_stmt 0 discriminator 2
 3541 0c64 13060000 		li	a2,0
 3542 0c68 9305A000 		li	a1,10
 3543 0c6c 13050900 		mv	a0,s2
 3544 0c70 97000000 		call	_Z8printIntiii@plt
 3544      E7800000 
 3545              	.LVL371:
 365:test/Test8.cpp **** 
 3546              		.loc 1 365 9 is_stmt 1 discriminator 2
 365:test/Test8.cpp **** 
 3547              		.loc 1 365 20 is_stmt 0 discriminator 2
 3548 0c78 17050000 		lla	a0,.LC1
 3548      13050500 
 3549 0c80 97000000 		call	_Z11printStringPKc@plt
 3549      E7800000 
 3550              	.LVL372:
 3551              	.LBE225:
 336:test/Test8.cpp **** //        printString("Pocetak wrappera C- nit id: ");
 3552              		.loc 1 336 5 is_stmt 1 discriminator 2
 3553 0c88 1B091900 		addiw	s2,s2,1
 3554              	.LVL373:
 3555              	.L159:
 336:test/Test8.cpp **** //        printString("Pocetak wrappera C- nit id: ");
 3556              		.loc 1 336 18 discriminator 1
 3557 0c8c 93075000 		li	a5,5
 3558 0c90 63C02705 		bgt	s2,a5,.L153
 3559              	.LBB231:
 342:test/Test8.cpp ****         printInt(m);
 3560              		.loc 1 342 9
 342:test/Test8.cpp ****         printInt(m);
 3561              		.loc 1 342 20 is_stmt 0
 3562 0c94 17050000 		lla	a0,.LC34
 3562      13050500 
 3563 0c9c 97000000 		call	_Z11printStringPKc@plt
 3563      E7800000 
 3564              	.LVL374:
 343:test/Test8.cpp ****         printString("\n");
 3565              		.loc 1 343 9 is_stmt 1
GAS LISTING /tmp/ccCnP6rB.s 			page 97


 343:test/Test8.cpp ****         printString("\n");
 3566              		.loc 1 343 17 is_stmt 0
 3567 0ca4 13060000 		li	a2,0
 3568 0ca8 9305A000 		li	a1,10
 3569 0cac 13050900 		mv	a0,s2
 3570 0cb0 97000000 		call	_Z8printIntiii@plt
 3570      E7800000 
 3571              	.LVL375:
 344:test/Test8.cpp ****         for(int i=0;i<1000;i++){
 3572              		.loc 1 344 9 is_stmt 1
 344:test/Test8.cpp ****         for(int i=0;i<1000;i++){
 3573              		.loc 1 344 20 is_stmt 0
 3574 0cb8 17050000 		lla	a0,.LC1
 3574      13050500 
 3575 0cc0 97000000 		call	_Z11printStringPKc@plt
 3575      E7800000 
 3576              	.LVL376:
 345:test/Test8.cpp ****             for(int j=0;j<10000;j++){
 3577              		.loc 1 345 9 is_stmt 1
 3578              	.LBB230:
 345:test/Test8.cpp ****             for(int j=0;j<10000;j++){
 3579              		.loc 1 345 17 is_stmt 0
 3580 0cc8 93040000 		li	s1,0
 3581 0ccc 6FF05FEA 		j	.L158
 3582              	.LVL377:
 3583              	.L153:
 3584              	.LBE230:
 3585              	.LBE231:
 3586              	.LBE224:
 372:test/Test8.cpp **** 
 3587              		.loc 1 372 1
 3588 0cd0 83308102 		ld	ra,40(sp)
 3589              		.cfi_restore 1
 3590 0cd4 03340102 		ld	s0,32(sp)
 3591              		.cfi_restore 8
 3592              		.cfi_def_cfa 2, 48
 3593 0cd8 83348101 		ld	s1,24(sp)
 3594              		.cfi_restore 9
 3595 0cdc 03390101 		ld	s2,16(sp)
 3596              		.cfi_restore 18
 3597              	.LVL378:
 3598 0ce0 83398100 		ld	s3,8(sp)
 3599              		.cfi_restore 19
 3600              	.LVL379:
 3601 0ce4 13010103 		addi	sp,sp,48
 3602              		.cfi_def_cfa_offset 0
 3603 0ce8 67800000 		jr	ra
 3604              		.cfi_endproc
 3605              	.LFE34:
 3607              		.section	.rodata._ZN2A73runEv.str1.8,"aMS",@progbits,1
 3608              		.align	3
 3609              	.LC41:
 3610 0000 50726F64 		.string	"Producer run wrapper\n"
 3610      75636572 
 3610      2072756E 
 3610      20777261 
 3610      70706572 
GAS LISTING /tmp/ccCnP6rB.s 			page 98


 3611 0016 0000     		.align	3
 3612              	.LC42:
 3613 0018 506F7A69 		.string	"Pozivam producer metod\n"
 3613      76616D20 
 3613      70726F64 
 3613      75636572 
 3613      206D6574 
 3614              		.align	3
 3615              	.LC43:
 3616 0030 50726F64 		.string	"Producer finished\n"
 3616      75636572 
 3616      2066696E 
 3616      69736865 
 3616      640A00
 3617              		.section	.text._ZN2A73runEv,"axG",@progbits,_ZN2A73runEv,comdat
 3618              		.align	2
 3619              		.weak	_ZN2A73runEv
 3621              	_ZN2A73runEv:
 3622              	.LFB57:
 581:test/Test8.cpp **** 
 3623              		.loc 1 581 10 is_stmt 1
 3624              		.cfi_startproc
 3625              	.LVL380:
 3626 0000 130101FE 		addi	sp,sp,-32
 3627              		.cfi_def_cfa_offset 32
 3628 0004 233C1100 		sd	ra,24(sp)
 3629 0008 23388100 		sd	s0,16(sp)
 3630 000c 23349100 		sd	s1,8(sp)
 3631 0010 23302101 		sd	s2,0(sp)
 3632              		.cfi_offset 1, -8
 3633              		.cfi_offset 8, -16
 3634              		.cfi_offset 9, -24
 3635              		.cfi_offset 18, -32
 3636 0014 13040102 		addi	s0,sp,32
 3637              		.cfi_def_cfa 8, 0
 3638 0018 13090500 		mv	s2,a0
 583:test/Test8.cpp ****         for (int i = 0; i < 1000; i++) {
 3639              		.loc 1 583 9
 583:test/Test8.cpp ****         for (int i = 0; i < 1000; i++) {
 3640              		.loc 1 583 20 is_stmt 0
 3641 001c 17050000 		lla	a0,.LC41
 3641      13050500 
 3642              	.LVL381:
 3643 0024 97000000 		call	_Z11printStringPKc@plt
 3643      E7800000 
 3644              	.LVL382:
 584:test/Test8.cpp ****             for (int j = 0; j < 1000; j++) {}
 3645              		.loc 1 584 9 is_stmt 1
 3646              	.LBB232:
 584:test/Test8.cpp ****             for (int j = 0; j < 1000; j++) {}
 3647              		.loc 1 584 18 is_stmt 0
 3648 002c 93040000 		li	s1,0
 3649 0030 6F000001 		j	.L165
 3650              	.LVL383:
 3651              	.L163:
 3652              	.LBB233:
 586:test/Test8.cpp ****         }
GAS LISTING /tmp/ccCnP6rB.s 			page 99


 3653              		.loc 1 586 13 is_stmt 1 discriminator 2
 586:test/Test8.cpp ****         }
 3654              		.loc 1 586 28 is_stmt 0 discriminator 2
 3655 0034 97000000 		call	_Z15thread_dispatchv@plt
 3655      E7800000 
 3656              	.LVL384:
 3657              	.LBE233:
 584:test/Test8.cpp ****             for (int j = 0; j < 1000; j++) {}
 3658              		.loc 1 584 9 is_stmt 1 discriminator 2
 3659 003c 9B841400 		addiw	s1,s1,1
 3660              	.LVL385:
 3661              	.L165:
 584:test/Test8.cpp ****             for (int j = 0; j < 1000; j++) {}
 3662              		.loc 1 584 27 discriminator 1
 3663 0040 9307703E 		li	a5,999
 3664 0044 63CC9700 		bgt	s1,a5,.L162
 3665              	.LBB235:
 3666              	.LBB234:
 585:test/Test8.cpp ****             thread_dispatch();
 3667              		.loc 1 585 22 is_stmt 0
 3668 0048 93070000 		li	a5,0
 3669              	.L164:
 3670              	.LVL386:
 585:test/Test8.cpp ****             thread_dispatch();
 3671              		.loc 1 585 31 is_stmt 1 discriminator 3
 3672 004c 1307703E 		li	a4,999
 3673 0050 E342F7FE 		bgt	a5,a4,.L163
 585:test/Test8.cpp ****             thread_dispatch();
 3674              		.loc 1 585 13 discriminator 2
 3675 0054 9B871700 		addiw	a5,a5,1
 3676              	.LVL387:
 3677 0058 6FF05FFF 		j	.L164
 3678              	.L162:
 3679              	.LBE234:
 3680              	.LBE235:
 3681              	.LBE232:
 588:test/Test8.cpp ****         Thread::producer(id);
 3682              		.loc 1 588 9
 588:test/Test8.cpp ****         Thread::producer(id);
 3683              		.loc 1 588 20 is_stmt 0
 3684 005c 17050000 		lla	a0,.LC42
 3684      13050500 
 3685 0064 97000000 		call	_Z11printStringPKc@plt
 3685      E7800000 
 3686              	.LVL388:
 589:test/Test8.cpp **** 
 3687              		.loc 1 589 9 is_stmt 1
 589:test/Test8.cpp **** 
 3688              		.loc 1 589 25 is_stmt 0
 3689 006c 83250902 		lw	a1,32(s2)
 3690 0070 13050900 		mv	a0,s2
 3691 0074 97000000 		call	_ZN6Thread8producerEi@plt
 3691      E7800000 
 3692              	.LVL389:
 591:test/Test8.cpp ****         thread_dispatch();
 3693              		.loc 1 591 9 is_stmt 1
 591:test/Test8.cpp ****         thread_dispatch();
GAS LISTING /tmp/ccCnP6rB.s 			page 100


 3694              		.loc 1 591 20 is_stmt 0
 3695 007c 17050000 		lla	a0,.LC43
 3695      13050500 
 3696 0084 97000000 		call	_Z11printStringPKc@plt
 3696      E7800000 
 3697              	.LVL390:
 592:test/Test8.cpp ****     }
 3698              		.loc 1 592 9 is_stmt 1
 592:test/Test8.cpp ****     }
 3699              		.loc 1 592 24 is_stmt 0
 3700 008c 97000000 		call	_Z15thread_dispatchv@plt
 3700      E7800000 
 3701              	.LVL391:
 593:test/Test8.cpp **** };
 3702              		.loc 1 593 5
 3703 0094 83308101 		ld	ra,24(sp)
 3704              		.cfi_restore 1
 3705 0098 03340101 		ld	s0,16(sp)
 3706              		.cfi_restore 8
 3707              		.cfi_def_cfa 2, 32
 3708 009c 83348100 		ld	s1,8(sp)
 3709              		.cfi_restore 9
 3710              	.LVL392:
 3711 00a0 03390100 		ld	s2,0(sp)
 3712              		.cfi_restore 18
 3713              	.LVL393:
 3714 00a4 13010102 		addi	sp,sp,32
 3715              		.cfi_def_cfa_offset 0
 3716 00a8 67800000 		jr	ra
 3717              		.cfi_endproc
 3718              	.LFE57:
 3720              		.section	.rodata._ZN2B73runEv.str1.8,"aMS",@progbits,1
 3721              		.align	3
 3722              	.LC44:
 3723 0000 436F6E73 		.string	"Consumer run wrapper\n"
 3723      756D6572 
 3723      2072756E 
 3723      20777261 
 3723      70706572 
 3724 0016 0000     		.align	3
 3725              	.LC45:
 3726 0018 506F7A69 		.string	"Pozivam consumer metod\n"
 3726      76616D20 
 3726      636F6E73 
 3726      756D6572 
 3726      206D6574 
 3727              		.align	3
 3728              	.LC46:
 3729 0030 436F6E73 		.string	"Consumer finished\n"
 3729      756D6572 
 3729      2066696E 
 3729      69736865 
 3729      640A00
 3730              		.section	.text._ZN2B73runEv,"axG",@progbits,_ZN2B73runEv,comdat
 3731              		.align	2
 3732              		.weak	_ZN2B73runEv
 3734              	_ZN2B73runEv:
GAS LISTING /tmp/ccCnP6rB.s 			page 101


 3735              	.LFB61:
 605:test/Test8.cpp **** //    }
 3736              		.loc 1 605 10 is_stmt 1
 3737              		.cfi_startproc
 3738              	.LVL394:
 3739 0000 130101FE 		addi	sp,sp,-32
 3740              		.cfi_def_cfa_offset 32
 3741 0004 233C1100 		sd	ra,24(sp)
 3742 0008 23388100 		sd	s0,16(sp)
 3743 000c 23349100 		sd	s1,8(sp)
 3744 0010 23302101 		sd	s2,0(sp)
 3745              		.cfi_offset 1, -8
 3746              		.cfi_offset 8, -16
 3747              		.cfi_offset 9, -24
 3748              		.cfi_offset 18, -32
 3749 0014 13040102 		addi	s0,sp,32
 3750              		.cfi_def_cfa 8, 0
 3751 0018 13090500 		mv	s2,a0
 607:test/Test8.cpp ****         for (int i = 0;i < 1000; i++) {
 3752              		.loc 1 607 9
 607:test/Test8.cpp ****         for (int i = 0;i < 1000; i++) {
 3753              		.loc 1 607 20 is_stmt 0
 3754 001c 17050000 		lla	a0,.LC44
 3754      13050500 
 3755              	.LVL395:
 3756 0024 97000000 		call	_Z11printStringPKc@plt
 3756      E7800000 
 3757              	.LVL396:
 608:test/Test8.cpp ****             for (int j = 0; j < 1000; j++) {}
 3758              		.loc 1 608 9 is_stmt 1
 3759              	.LBB236:
 608:test/Test8.cpp ****             for (int j = 0; j < 1000; j++) {}
 3760              		.loc 1 608 18 is_stmt 0
 3761 002c 93040000 		li	s1,0
 3762 0030 6F000001 		j	.L171
 3763              	.LVL397:
 3764              	.L169:
 3765              	.LBB237:
 610:test/Test8.cpp ****         }
 3766              		.loc 1 610 13 is_stmt 1 discriminator 2
 610:test/Test8.cpp ****         }
 3767              		.loc 1 610 28 is_stmt 0 discriminator 2
 3768 0034 97000000 		call	_Z15thread_dispatchv@plt
 3768      E7800000 
 3769              	.LVL398:
 3770              	.LBE237:
 608:test/Test8.cpp ****             for (int j = 0; j < 1000; j++) {}
 3771              		.loc 1 608 9 is_stmt 1 discriminator 2
 3772 003c 9B841400 		addiw	s1,s1,1
 3773              	.LVL399:
 3774              	.L171:
 608:test/Test8.cpp ****             for (int j = 0; j < 1000; j++) {}
 3775              		.loc 1 608 26 discriminator 1
 3776 0040 9307703E 		li	a5,999
 3777 0044 63CC9700 		bgt	s1,a5,.L168
 3778              	.LBB239:
 3779              	.LBB238:
GAS LISTING /tmp/ccCnP6rB.s 			page 102


 609:test/Test8.cpp ****             thread_dispatch();
 3780              		.loc 1 609 22 is_stmt 0
 3781 0048 93070000 		li	a5,0
 3782              	.L170:
 3783              	.LVL400:
 609:test/Test8.cpp ****             thread_dispatch();
 3784              		.loc 1 609 31 is_stmt 1 discriminator 3
 3785 004c 1307703E 		li	a4,999
 3786 0050 E342F7FE 		bgt	a5,a4,.L169
 609:test/Test8.cpp ****             thread_dispatch();
 3787              		.loc 1 609 13 discriminator 2
 3788 0054 9B871700 		addiw	a5,a5,1
 3789              	.LVL401:
 3790 0058 6FF05FFF 		j	.L170
 3791              	.L168:
 3792              	.LBE238:
 3793              	.LBE239:
 3794              	.LBE236:
 612:test/Test8.cpp ****         Thread::consumer(id);
 3795              		.loc 1 612 9
 612:test/Test8.cpp ****         Thread::consumer(id);
 3796              		.loc 1 612 20 is_stmt 0
 3797 005c 17050000 		lla	a0,.LC45
 3797      13050500 
 3798 0064 97000000 		call	_Z11printStringPKc@plt
 3798      E7800000 
 3799              	.LVL402:
 613:test/Test8.cpp **** 
 3800              		.loc 1 613 9 is_stmt 1
 613:test/Test8.cpp **** 
 3801              		.loc 1 613 25 is_stmt 0
 3802 006c 83250902 		lw	a1,32(s2)
 3803 0070 13050900 		mv	a0,s2
 3804 0074 97000000 		call	_ZN6Thread8consumerEi@plt
 3804      E7800000 
 3805              	.LVL403:
 615:test/Test8.cpp **** 
 3806              		.loc 1 615 9 is_stmt 1
 615:test/Test8.cpp **** 
 3807              		.loc 1 615 20 is_stmt 0
 3808 007c 17050000 		lla	a0,.LC46
 3808      13050500 
 3809 0084 97000000 		call	_Z11printStringPKc@plt
 3809      E7800000 
 3810              	.LVL404:
 617:test/Test8.cpp ****     }
 3811              		.loc 1 617 9 is_stmt 1
 617:test/Test8.cpp ****     }
 3812              		.loc 1 617 24 is_stmt 0
 3813 008c 97000000 		call	_Z15thread_dispatchv@plt
 3813      E7800000 
 3814              	.LVL405:
 618:test/Test8.cpp **** };
 3815              		.loc 1 618 5
 3816 0094 83308101 		ld	ra,24(sp)
 3817              		.cfi_restore 1
 3818 0098 03340101 		ld	s0,16(sp)
GAS LISTING /tmp/ccCnP6rB.s 			page 103


 3819              		.cfi_restore 8
 3820              		.cfi_def_cfa 2, 32
 3821 009c 83348100 		ld	s1,8(sp)
 3822              		.cfi_restore 9
 3823              	.LVL406:
 3824 00a0 03390100 		ld	s2,0(sp)
 3825              		.cfi_restore 18
 3826              	.LVL407:
 3827 00a4 13010102 		addi	sp,sp,32
 3828              		.cfi_def_cfa_offset 0
 3829 00a8 67800000 		jr	ra
 3830              		.cfi_endproc
 3831              	.LFE61:
 3833              		.text
 3834              		.align	2
 3835              		.globl	_ZN2A83runEv
 3837              	_ZN2A83runEv:
 3838              	.LFB66:
 661:test/Test8.cpp ****     for(int m=0;m<3;m++){
 3839              		.loc 1 661 16 is_stmt 1
 3840              		.cfi_startproc
 3841              	.LVL408:
 3842 0cec 130101FD 		addi	sp,sp,-48
 3843              		.cfi_def_cfa_offset 48
 3844 0cf0 23341102 		sd	ra,40(sp)
 3845 0cf4 23308102 		sd	s0,32(sp)
 3846 0cf8 233C9100 		sd	s1,24(sp)
 3847 0cfc 23382101 		sd	s2,16(sp)
 3848 0d00 23343101 		sd	s3,8(sp)
 3849              		.cfi_offset 1, -8
 3850              		.cfi_offset 8, -16
 3851              		.cfi_offset 9, -24
 3852              		.cfi_offset 18, -32
 3853              		.cfi_offset 19, -40
 3854 0d04 13040103 		addi	s0,sp,48
 3855              		.cfi_def_cfa 8, 0
 3856 0d08 13090500 		mv	s2,a0
 662:test/Test8.cpp ****         printString("Nit, pocetak wrappera- id: ");
 3857              		.loc 1 662 5
 3858              	.LVL409:
 3859              	.LBB240:
 662:test/Test8.cpp ****         printString("Nit, pocetak wrappera- id: ");
 3860              		.loc 1 662 13 is_stmt 0
 3861 0d0c 93090000 		li	s3,0
 3862 0d10 6F00800C 		j	.L181
 3863              	.LVL410:
 3864              	.L176:
 3865              	.LBB241:
 3866              	.LBB242:
 3867              	.LBB243:
 671:test/Test8.cpp ****         }
 3868              		.loc 1 671 13 is_stmt 1 discriminator 2
 671:test/Test8.cpp ****         }
 3869              		.loc 1 671 28 is_stmt 0 discriminator 2
 3870 0d14 97000000 		call	_Z15thread_dispatchv@plt
 3870      E7800000 
 3871              	.LVL411:
GAS LISTING /tmp/ccCnP6rB.s 			page 104


 3872              	.LBE243:
 669:test/Test8.cpp ****             for(int j=0;j<1000;j++){}
 3873              		.loc 1 669 9 is_stmt 1 discriminator 2
 3874 0d1c 9B841400 		addiw	s1,s1,1
 3875              	.LVL412:
 3876              	.L178:
 669:test/Test8.cpp ****             for(int j=0;j<1000;j++){}
 3877              		.loc 1 669 22 discriminator 1
 3878 0d20 9307703E 		li	a5,999
 3879 0d24 63CC9700 		bgt	s1,a5,.L175
 3880              	.LBB245:
 3881              	.LBB244:
 670:test/Test8.cpp ****             thread_dispatch();
 3882              		.loc 1 670 21 is_stmt 0
 3883 0d28 93070000 		li	a5,0
 3884              	.L177:
 3885              	.LVL413:
 670:test/Test8.cpp ****             thread_dispatch();
 3886              		.loc 1 670 26 is_stmt 1 discriminator 3
 3887 0d2c 1307703E 		li	a4,999
 3888 0d30 E342F7FE 		bgt	a5,a4,.L176
 670:test/Test8.cpp ****             thread_dispatch();
 3889              		.loc 1 670 13 discriminator 2
 3890 0d34 9B871700 		addiw	a5,a5,1
 3891              	.LVL414:
 3892 0d38 6FF05FFF 		j	.L177
 3893              	.L175:
 3894              	.LBE244:
 3895              	.LBE245:
 3896              	.LBE242:
 673:test/Test8.cpp ****         printInt(id);
 3897              		.loc 1 673 9
 673:test/Test8.cpp ****         printInt(id);
 3898              		.loc 1 673 20 is_stmt 0
 3899 0d3c 17050000 		lla	a0,.LC11
 3899      13050500 
 3900 0d44 97000000 		call	_Z11printStringPKc@plt
 3900      E7800000 
 3901              	.LVL415:
 674:test/Test8.cpp ****         printString("\n");
 3902              		.loc 1 674 9 is_stmt 1
 674:test/Test8.cpp ****         printString("\n");
 3903              		.loc 1 674 17 is_stmt 0
 3904 0d4c 13060000 		li	a2,0
 3905 0d50 9305A000 		li	a1,10
 3906 0d54 03250902 		lw	a0,32(s2)
 3907 0d58 97000000 		call	_Z8printIntiii@plt
 3907      E7800000 
 3908              	.LVL416:
 675:test/Test8.cpp ****         printString("Iteracija: ");
 3909              		.loc 1 675 9 is_stmt 1
 675:test/Test8.cpp ****         printString("Iteracija: ");
 3910              		.loc 1 675 20 is_stmt 0
 3911 0d60 17050000 		lla	a0,.LC1
 3911      13050500 
 3912 0d68 97000000 		call	_Z11printStringPKc@plt
 3912      E7800000 
GAS LISTING /tmp/ccCnP6rB.s 			page 105


 3913              	.LVL417:
 676:test/Test8.cpp ****         printInt(m);
 3914              		.loc 1 676 9 is_stmt 1
 676:test/Test8.cpp ****         printInt(m);
 3915              		.loc 1 676 20 is_stmt 0
 3916 0d70 17050000 		lla	a0,.LC10
 3916      13050500 
 3917 0d78 97000000 		call	_Z11printStringPKc@plt
 3917      E7800000 
 3918              	.LVL418:
 677:test/Test8.cpp ****         printString("\n");
 3919              		.loc 1 677 9 is_stmt 1
 677:test/Test8.cpp ****         printString("\n");
 3920              		.loc 1 677 17 is_stmt 0
 3921 0d80 13060000 		li	a2,0
 3922 0d84 9305A000 		li	a1,10
 3923 0d88 13850900 		mv	a0,s3
 3924 0d8c 97000000 		call	_Z8printIntiii@plt
 3924      E7800000 
 3925              	.LVL419:
 678:test/Test8.cpp ****         if(type){
 3926              		.loc 1 678 9 is_stmt 1
 678:test/Test8.cpp ****         if(type){
 3927              		.loc 1 678 20 is_stmt 0
 3928 0d94 17050000 		lla	a0,.LC1
 3928      13050500 
 3929 0d9c 97000000 		call	_Z11printStringPKc@plt
 3929      E7800000 
 3930              	.LVL420:
 679:test/Test8.cpp ****             H(id);
 3931              		.loc 1 679 9 is_stmt 1
 679:test/Test8.cpp ****             H(id);
 3932              		.loc 1 679 12 is_stmt 0
 3933 0da4 83274902 		lw	a5,36(s2)
 679:test/Test8.cpp ****             H(id);
 3934              		.loc 1 679 9
 3935 0da8 6384070A 		beqz	a5,.L179
 680:test/Test8.cpp ****         }else if(type==0){
 3936              		.loc 1 680 13 is_stmt 1
 680:test/Test8.cpp ****         }else if(type==0){
 3937              		.loc 1 680 14 is_stmt 0
 3938 0dac 83250902 		lw	a1,32(s2)
 3939 0db0 13050900 		mv	a0,s2
 3940 0db4 97000000 		call	_ZN6Thread1HEj@plt
 3940      E7800000 
 3941              	.LVL421:
 3942              	.L180:
 684:test/Test8.cpp ****         printString("Jedna itercija gotova\n");
 3943              		.loc 1 684 9 is_stmt 1 discriminator 2
 684:test/Test8.cpp ****         printString("Jedna itercija gotova\n");
 3944              		.loc 1 684 24 is_stmt 0 discriminator 2
 3945 0dbc 97000000 		call	_Z15thread_dispatchv@plt
 3945      E7800000 
 3946              	.LVL422:
 685:test/Test8.cpp ****     }
 3947              		.loc 1 685 9 is_stmt 1 discriminator 2
 685:test/Test8.cpp ****     }
GAS LISTING /tmp/ccCnP6rB.s 			page 106


 3948              		.loc 1 685 20 is_stmt 0 discriminator 2
 3949 0dc4 17050000 		lla	a0,.LC12
 3949      13050500 
 3950 0dcc 97000000 		call	_Z11printStringPKc@plt
 3950      E7800000 
 3951              	.LVL423:
 3952              	.LBE241:
 662:test/Test8.cpp ****         printString("Nit, pocetak wrappera- id: ");
 3953              		.loc 1 662 5 is_stmt 1 discriminator 2
 3954 0dd4 9B891900 		addiw	s3,s3,1
 3955              	.LVL424:
 3956              	.L181:
 662:test/Test8.cpp ****         printString("Nit, pocetak wrappera- id: ");
 3957              		.loc 1 662 18 discriminator 1
 3958 0dd8 93072000 		li	a5,2
 3959 0ddc 63C43709 		bgt	s3,a5,.L173
 3960              	.LBB247:
 663:test/Test8.cpp ****         printInt(id);
 3961              		.loc 1 663 9
 663:test/Test8.cpp ****         printInt(id);
 3962              		.loc 1 663 20 is_stmt 0
 3963 0de0 17050000 		lla	a0,.LC9
 3963      13050500 
 3964 0de8 97000000 		call	_Z11printStringPKc@plt
 3964      E7800000 
 3965              	.LVL425:
 664:test/Test8.cpp ****         printString("\n");
 3966              		.loc 1 664 9 is_stmt 1
 664:test/Test8.cpp ****         printString("\n");
 3967              		.loc 1 664 17 is_stmt 0
 3968 0df0 13060000 		li	a2,0
 3969 0df4 9305A000 		li	a1,10
 3970 0df8 03250902 		lw	a0,32(s2)
 3971 0dfc 97000000 		call	_Z8printIntiii@plt
 3971      E7800000 
 3972              	.LVL426:
 665:test/Test8.cpp ****         printString("Iteracija: ");
 3973              		.loc 1 665 9 is_stmt 1
 665:test/Test8.cpp ****         printString("Iteracija: ");
 3974              		.loc 1 665 20 is_stmt 0
 3975 0e04 17050000 		lla	a0,.LC1
 3975      13050500 
 3976 0e0c 97000000 		call	_Z11printStringPKc@plt
 3976      E7800000 
 3977              	.LVL427:
 666:test/Test8.cpp ****         printInt(m);
 3978              		.loc 1 666 9 is_stmt 1
 666:test/Test8.cpp ****         printInt(m);
 3979              		.loc 1 666 20 is_stmt 0
 3980 0e14 17050000 		lla	a0,.LC10
 3980      13050500 
 3981 0e1c 97000000 		call	_Z11printStringPKc@plt
 3981      E7800000 
 3982              	.LVL428:
 667:test/Test8.cpp ****         printString("\n");
 3983              		.loc 1 667 9 is_stmt 1
 667:test/Test8.cpp ****         printString("\n");
GAS LISTING /tmp/ccCnP6rB.s 			page 107


 3984              		.loc 1 667 17 is_stmt 0
 3985 0e24 13060000 		li	a2,0
 3986 0e28 9305A000 		li	a1,10
 3987 0e2c 13850900 		mv	a0,s3
 3988 0e30 97000000 		call	_Z8printIntiii@plt
 3988      E7800000 
 3989              	.LVL429:
 668:test/Test8.cpp ****         for(int i=0;i<1000;i++){
 3990              		.loc 1 668 9 is_stmt 1
 668:test/Test8.cpp ****         for(int i=0;i<1000;i++){
 3991              		.loc 1 668 20 is_stmt 0
 3992 0e38 17050000 		lla	a0,.LC1
 3992      13050500 
 3993 0e40 97000000 		call	_Z11printStringPKc@plt
 3993      E7800000 
 3994              	.LVL430:
 669:test/Test8.cpp ****             for(int j=0;j<1000;j++){}
 3995              		.loc 1 669 9 is_stmt 1
 3996              	.LBB246:
 669:test/Test8.cpp ****             for(int j=0;j<1000;j++){}
 3997              		.loc 1 669 17 is_stmt 0
 3998 0e48 93040000 		li	s1,0
 3999 0e4c 6FF05FED 		j	.L178
 4000              	.LVL431:
 4001              	.L179:
 4002              	.LBE246:
 681:test/Test8.cpp ****             O(id);
 4003              		.loc 1 681 15 is_stmt 1
 682:test/Test8.cpp ****         }
 4004              		.loc 1 682 13
 682:test/Test8.cpp ****         }
 4005              		.loc 1 682 14 is_stmt 0
 4006 0e50 83250902 		lw	a1,32(s2)
 4007 0e54 13050900 		mv	a0,s2
 4008 0e58 97000000 		call	_ZN6Thread1OEj@plt
 4008      E7800000 
 4009              	.LVL432:
 4010 0e60 6FF0DFF5 		j	.L180
 4011              	.LVL433:
 4012              	.L173:
 4013              	.LBE247:
 4014              	.LBE240:
 688:test/Test8.cpp **** void testH2O(){
 4015              		.loc 1 688 1
 4016 0e64 83308102 		ld	ra,40(sp)
 4017              		.cfi_restore 1
 4018 0e68 03340102 		ld	s0,32(sp)
 4019              		.cfi_restore 8
 4020              		.cfi_def_cfa 2, 48
 4021 0e6c 83348101 		ld	s1,24(sp)
 4022              		.cfi_restore 9
 4023 0e70 03390101 		ld	s2,16(sp)
 4024              		.cfi_restore 18
 4025              	.LVL434:
 4026 0e74 83398100 		ld	s3,8(sp)
 4027              		.cfi_restore 19
 4028              	.LVL435:
GAS LISTING /tmp/ccCnP6rB.s 			page 108


 4029 0e78 13010103 		addi	sp,sp,48
 4030              		.cfi_def_cfa_offset 0
 4031 0e7c 67800000 		jr	ra
 4032              		.cfi_endproc
 4033              	.LFE66:
 4035              		.align	2
 4036              		.globl	_ZN2A93runEv
 4038              	_ZN2A93runEv:
 4039              	.LFB71:
 728:test/Test8.cpp ****     for(int m=0;m<3;m++){
 4040              		.loc 1 728 16 is_stmt 1
 4041              		.cfi_startproc
 4042              	.LVL436:
 4043 0e80 130101FD 		addi	sp,sp,-48
 4044              		.cfi_def_cfa_offset 48
 4045 0e84 23341102 		sd	ra,40(sp)
 4046 0e88 23308102 		sd	s0,32(sp)
 4047 0e8c 233C9100 		sd	s1,24(sp)
 4048 0e90 23382101 		sd	s2,16(sp)
 4049 0e94 23343101 		sd	s3,8(sp)
 4050              		.cfi_offset 1, -8
 4051              		.cfi_offset 8, -16
 4052              		.cfi_offset 9, -24
 4053              		.cfi_offset 18, -32
 4054              		.cfi_offset 19, -40
 4055 0e98 13040103 		addi	s0,sp,48
 4056              		.cfi_def_cfa 8, 0
 4057 0e9c 13090500 		mv	s2,a0
 729:test/Test8.cpp ****         printString("Nit, pocetak wrappera- id: ");
 4058              		.loc 1 729 5
 4059              	.LVL437:
 4060              	.LBB248:
 729:test/Test8.cpp ****         printString("Nit, pocetak wrappera- id: ");
 4061              		.loc 1 729 13 is_stmt 0
 4062 0ea0 93090000 		li	s3,0
 4063 0ea4 6F00400C 		j	.L191
 4064              	.LVL438:
 4065              	.L186:
 4066              	.LBB249:
 4067              	.LBB250:
 4068              	.LBB251:
 738:test/Test8.cpp ****         }
 4069              		.loc 1 738 13 is_stmt 1 discriminator 2
 738:test/Test8.cpp ****         }
 4070              		.loc 1 738 28 is_stmt 0 discriminator 2
 4071 0ea8 97000000 		call	_Z15thread_dispatchv@plt
 4071      E7800000 
 4072              	.LVL439:
 4073              	.LBE251:
 736:test/Test8.cpp ****             for(int j=0;j<1000;j++){}
 4074              		.loc 1 736 9 is_stmt 1 discriminator 2
 4075 0eb0 9B841400 		addiw	s1,s1,1
 4076              	.LVL440:
 4077              	.L188:
 736:test/Test8.cpp ****             for(int j=0;j<1000;j++){}
 4078              		.loc 1 736 22 discriminator 1
 4079 0eb4 9307703E 		li	a5,999
GAS LISTING /tmp/ccCnP6rB.s 			page 109


 4080 0eb8 63CC9700 		bgt	s1,a5,.L185
 4081              	.LBB253:
 4082              	.LBB252:
 737:test/Test8.cpp ****             thread_dispatch();
 4083              		.loc 1 737 21 is_stmt 0
 4084 0ebc 93070000 		li	a5,0
 4085              	.L187:
 4086              	.LVL441:
 737:test/Test8.cpp ****             thread_dispatch();
 4087              		.loc 1 737 26 is_stmt 1 discriminator 3
 4088 0ec0 1307703E 		li	a4,999
 4089 0ec4 E342F7FE 		bgt	a5,a4,.L186
 737:test/Test8.cpp ****             thread_dispatch();
 4090              		.loc 1 737 13 discriminator 2
 4091 0ec8 9B871700 		addiw	a5,a5,1
 4092              	.LVL442:
 4093 0ecc 6FF05FFF 		j	.L187
 4094              	.L185:
 4095              	.LBE252:
 4096              	.LBE253:
 4097              	.LBE250:
 740:test/Test8.cpp ****         printInt(id);
 4098              		.loc 1 740 9
 740:test/Test8.cpp ****         printInt(id);
 4099              		.loc 1 740 20 is_stmt 0
 4100 0ed0 17050000 		lla	a0,.LC11
 4100      13050500 
 4101 0ed8 97000000 		call	_Z11printStringPKc@plt
 4101      E7800000 
 4102              	.LVL443:
 741:test/Test8.cpp ****         printString("\n");
 4103              		.loc 1 741 9 is_stmt 1
 741:test/Test8.cpp ****         printString("\n");
 4104              		.loc 1 741 17 is_stmt 0
 4105 0ee0 13060000 		li	a2,0
 4106 0ee4 9305A000 		li	a1,10
 4107 0ee8 03250902 		lw	a0,32(s2)
 4108 0eec 97000000 		call	_Z8printIntiii@plt
 4108      E7800000 
 4109              	.LVL444:
 742:test/Test8.cpp ****         printString("Iteracija: ");
 4110              		.loc 1 742 9 is_stmt 1
 742:test/Test8.cpp ****         printString("Iteracija: ");
 4111              		.loc 1 742 20 is_stmt 0
 4112 0ef4 17050000 		lla	a0,.LC1
 4112      13050500 
 4113 0efc 97000000 		call	_Z11printStringPKc@plt
 4113      E7800000 
 4114              	.LVL445:
 743:test/Test8.cpp ****         printInt(m);
 4115              		.loc 1 743 9 is_stmt 1
 743:test/Test8.cpp ****         printInt(m);
 4116              		.loc 1 743 20 is_stmt 0
 4117 0f04 17050000 		lla	a0,.LC10
 4117      13050500 
 4118 0f0c 97000000 		call	_Z11printStringPKc@plt
 4118      E7800000 
GAS LISTING /tmp/ccCnP6rB.s 			page 110


 4119              	.LVL446:
 744:test/Test8.cpp ****         printString("\n");
 4120              		.loc 1 744 9 is_stmt 1
 744:test/Test8.cpp ****         printString("\n");
 4121              		.loc 1 744 17 is_stmt 0
 4122 0f14 13060000 		li	a2,0
 4123 0f18 9305A000 		li	a1,10
 4124 0f1c 13850900 		mv	a0,s3
 4125 0f20 97000000 		call	_Z8printIntiii@plt
 4125      E7800000 
 4126              	.LVL447:
 745:test/Test8.cpp ****         if(type){
 4127              		.loc 1 745 9 is_stmt 1
 745:test/Test8.cpp ****         if(type){
 4128              		.loc 1 745 20 is_stmt 0
 4129 0f28 17050000 		lla	a0,.LC1
 4129      13050500 
 4130 0f30 97000000 		call	_Z11printStringPKc@plt
 4130      E7800000 
 4131              	.LVL448:
 746:test/Test8.cpp ****             cook();
 4132              		.loc 1 746 9 is_stmt 1
 746:test/Test8.cpp ****             cook();
 4133              		.loc 1 746 12 is_stmt 0
 4134 0f38 83274902 		lw	a5,36(s2)
 746:test/Test8.cpp ****             cook();
 4135              		.loc 1 746 9
 4136 0f3c 6382070A 		beqz	a5,.L189
 747:test/Test8.cpp ****         }else if(type==0){
 4137              		.loc 1 747 13 is_stmt 1
 747:test/Test8.cpp ****         }else if(type==0){
 4138              		.loc 1 747 17 is_stmt 0
 4139 0f40 13050900 		mv	a0,s2
 4140 0f44 97000000 		call	_ZN6Thread4cookEv@plt
 4140      E7800000 
 4141              	.LVL449:
 4142              	.L190:
 751:test/Test8.cpp ****         printString("Jedna itercija gotova\n");
 4143              		.loc 1 751 9 is_stmt 1 discriminator 2
 751:test/Test8.cpp ****         printString("Jedna itercija gotova\n");
 4144              		.loc 1 751 24 is_stmt 0 discriminator 2
 4145 0f4c 97000000 		call	_Z15thread_dispatchv@plt
 4145      E7800000 
 4146              	.LVL450:
 752:test/Test8.cpp ****     }
 4147              		.loc 1 752 9 is_stmt 1 discriminator 2
 752:test/Test8.cpp ****     }
 4148              		.loc 1 752 20 is_stmt 0 discriminator 2
 4149 0f54 17050000 		lla	a0,.LC12
 4149      13050500 
 4150 0f5c 97000000 		call	_Z11printStringPKc@plt
 4150      E7800000 
 4151              	.LVL451:
 4152              	.LBE249:
 729:test/Test8.cpp ****         printString("Nit, pocetak wrappera- id: ");
 4153              		.loc 1 729 5 is_stmt 1 discriminator 2
 4154 0f64 9B891900 		addiw	s3,s3,1
GAS LISTING /tmp/ccCnP6rB.s 			page 111


 4155              	.LVL452:
 4156              	.L191:
 729:test/Test8.cpp ****         printString("Nit, pocetak wrappera- id: ");
 4157              		.loc 1 729 18 discriminator 1
 4158 0f68 93072000 		li	a5,2
 4159 0f6c 63C43709 		bgt	s3,a5,.L183
 4160              	.LBB255:
 730:test/Test8.cpp ****         printInt(id);
 4161              		.loc 1 730 9
 730:test/Test8.cpp ****         printInt(id);
 4162              		.loc 1 730 20 is_stmt 0
 4163 0f70 17050000 		lla	a0,.LC9
 4163      13050500 
 4164 0f78 97000000 		call	_Z11printStringPKc@plt
 4164      E7800000 
 4165              	.LVL453:
 731:test/Test8.cpp ****         printString("\n");
 4166              		.loc 1 731 9 is_stmt 1
 731:test/Test8.cpp ****         printString("\n");
 4167              		.loc 1 731 17 is_stmt 0
 4168 0f80 13060000 		li	a2,0
 4169 0f84 9305A000 		li	a1,10
 4170 0f88 03250902 		lw	a0,32(s2)
 4171 0f8c 97000000 		call	_Z8printIntiii@plt
 4171      E7800000 
 4172              	.LVL454:
 732:test/Test8.cpp ****         printString("Iteracija: ");
 4173              		.loc 1 732 9 is_stmt 1
 732:test/Test8.cpp ****         printString("Iteracija: ");
 4174              		.loc 1 732 20 is_stmt 0
 4175 0f94 17050000 		lla	a0,.LC1
 4175      13050500 
 4176 0f9c 97000000 		call	_Z11printStringPKc@plt
 4176      E7800000 
 4177              	.LVL455:
 733:test/Test8.cpp ****         printInt(m);
 4178              		.loc 1 733 9 is_stmt 1
 733:test/Test8.cpp ****         printInt(m);
 4179              		.loc 1 733 20 is_stmt 0
 4180 0fa4 17050000 		lla	a0,.LC10
 4180      13050500 
 4181 0fac 97000000 		call	_Z11printStringPKc@plt
 4181      E7800000 
 4182              	.LVL456:
 734:test/Test8.cpp ****         printString("\n");
 4183              		.loc 1 734 9 is_stmt 1
 734:test/Test8.cpp ****         printString("\n");
 4184              		.loc 1 734 17 is_stmt 0
 4185 0fb4 13060000 		li	a2,0
 4186 0fb8 9305A000 		li	a1,10
 4187 0fbc 13850900 		mv	a0,s3
 4188 0fc0 97000000 		call	_Z8printIntiii@plt
 4188      E7800000 
 4189              	.LVL457:
 735:test/Test8.cpp ****         for(int i=0;i<1000;i++){
 4190              		.loc 1 735 9 is_stmt 1
 735:test/Test8.cpp ****         for(int i=0;i<1000;i++){
GAS LISTING /tmp/ccCnP6rB.s 			page 112


 4191              		.loc 1 735 20 is_stmt 0
 4192 0fc8 17050000 		lla	a0,.LC1
 4192      13050500 
 4193 0fd0 97000000 		call	_Z11printStringPKc@plt
 4193      E7800000 
 4194              	.LVL458:
 736:test/Test8.cpp ****             for(int j=0;j<1000;j++){}
 4195              		.loc 1 736 9 is_stmt 1
 4196              	.LBB254:
 736:test/Test8.cpp ****             for(int j=0;j<1000;j++){}
 4197              		.loc 1 736 17 is_stmt 0
 4198 0fd8 93040000 		li	s1,0
 4199 0fdc 6FF09FED 		j	.L188
 4200              	.LVL459:
 4201              	.L189:
 4202              	.LBE254:
 748:test/Test8.cpp ****             savage(id);
 4203              		.loc 1 748 15 is_stmt 1
 749:test/Test8.cpp ****         }
 4204              		.loc 1 749 13
 749:test/Test8.cpp ****         }
 4205              		.loc 1 749 19 is_stmt 0
 4206 0fe0 83250902 		lw	a1,32(s2)
 4207 0fe4 13050900 		mv	a0,s2
 4208 0fe8 97000000 		call	_ZN6Thread6savageEj@plt
 4208      E7800000 
 4209              	.LVL460:
 4210 0ff0 6FF0DFF5 		j	.L190
 4211              	.LVL461:
 4212              	.L183:
 4213              	.LBE255:
 4214              	.LBE248:
 755:test/Test8.cpp **** 
 4215              		.loc 1 755 1
 4216 0ff4 83308102 		ld	ra,40(sp)
 4217              		.cfi_restore 1
 4218 0ff8 03340102 		ld	s0,32(sp)
 4219              		.cfi_restore 8
 4220              		.cfi_def_cfa 2, 48
 4221 0ffc 83348101 		ld	s1,24(sp)
 4222              		.cfi_restore 9
 4223 1000 03390101 		ld	s2,16(sp)
 4224              		.cfi_restore 18
 4225              	.LVL462:
 4226 1004 83398100 		ld	s3,8(sp)
 4227              		.cfi_restore 19
 4228              	.LVL463:
 4229 1008 13010103 		addi	sp,sp,48
 4230              		.cfi_def_cfa_offset 0
 4231 100c 67800000 		jr	ra
 4232              		.cfi_endproc
 4233              	.LFE71:
 4235              		.align	2
 4236              		.globl	_ZN3A103runEv
 4238              	_ZN3A103runEv:
 4239              	.LFB76:
 796:test/Test8.cpp ****     for(int m=0;m<3;m++){
GAS LISTING /tmp/ccCnP6rB.s 			page 113


 4240              		.loc 1 796 17 is_stmt 1
 4241              		.cfi_startproc
 4242              	.LVL464:
 4243 1010 130101FD 		addi	sp,sp,-48
 4244              		.cfi_def_cfa_offset 48
 4245 1014 23341102 		sd	ra,40(sp)
 4246 1018 23308102 		sd	s0,32(sp)
 4247 101c 233C9100 		sd	s1,24(sp)
 4248 1020 23382101 		sd	s2,16(sp)
 4249 1024 23343101 		sd	s3,8(sp)
 4250              		.cfi_offset 1, -8
 4251              		.cfi_offset 8, -16
 4252              		.cfi_offset 9, -24
 4253              		.cfi_offset 18, -32
 4254              		.cfi_offset 19, -40
 4255 1028 13040103 		addi	s0,sp,48
 4256              		.cfi_def_cfa 8, 0
 4257 102c 13090500 		mv	s2,a0
 797:test/Test8.cpp ****         printString("Nit, pocetak wrappera- id: ");
 4258              		.loc 1 797 5
 4259              	.LVL465:
 4260              	.LBB256:
 797:test/Test8.cpp ****         printString("Nit, pocetak wrappera- id: ");
 4261              		.loc 1 797 13 is_stmt 0
 4262 1030 93090000 		li	s3,0
 4263 1034 6F00000C 		j	.L201
 4264              	.LVL466:
 4265              	.L196:
 4266              	.LBB257:
 4267              	.LBB258:
 4268              	.LBB259:
 806:test/Test8.cpp ****         }
 4269              		.loc 1 806 13 is_stmt 1 discriminator 2
 806:test/Test8.cpp ****         }
 4270              		.loc 1 806 28 is_stmt 0 discriminator 2
 4271 1038 97000000 		call	_Z15thread_dispatchv@plt
 4271      E7800000 
 4272              	.LVL467:
 4273              	.LBE259:
 804:test/Test8.cpp ****             for(int j=0;j<1000;j++){}
 4274              		.loc 1 804 9 is_stmt 1 discriminator 2
 4275 1040 9B841400 		addiw	s1,s1,1
 4276              	.LVL468:
 4277              	.L198:
 804:test/Test8.cpp ****             for(int j=0;j<1000;j++){}
 4278              		.loc 1 804 22 discriminator 1
 4279 1044 9307703E 		li	a5,999
 4280 1048 63CC9700 		bgt	s1,a5,.L195
 4281              	.LBB261:
 4282              	.LBB260:
 805:test/Test8.cpp ****             thread_dispatch();
 4283              		.loc 1 805 21 is_stmt 0
 4284 104c 93070000 		li	a5,0
 4285              	.L197:
 4286              	.LVL469:
 805:test/Test8.cpp ****             thread_dispatch();
 4287              		.loc 1 805 26 is_stmt 1 discriminator 3
GAS LISTING /tmp/ccCnP6rB.s 			page 114


 4288 1050 1307703E 		li	a4,999
 4289 1054 E342F7FE 		bgt	a5,a4,.L196
 805:test/Test8.cpp ****             thread_dispatch();
 4290              		.loc 1 805 13 discriminator 2
 4291 1058 9B871700 		addiw	a5,a5,1
 4292              	.LVL470:
 4293 105c 6FF05FFF 		j	.L197
 4294              	.L195:
 4295              	.LBE260:
 4296              	.LBE261:
 4297              	.LBE258:
 808:test/Test8.cpp ****         printInt(id);
 4298              		.loc 1 808 9
 808:test/Test8.cpp ****         printInt(id);
 4299              		.loc 1 808 20 is_stmt 0
 4300 1060 17050000 		lla	a0,.LC11
 4300      13050500 
 4301 1068 97000000 		call	_Z11printStringPKc@plt
 4301      E7800000 
 4302              	.LVL471:
 809:test/Test8.cpp ****         printString("\n");
 4303              		.loc 1 809 9 is_stmt 1
 809:test/Test8.cpp ****         printString("\n");
 4304              		.loc 1 809 17 is_stmt 0
 4305 1070 13060000 		li	a2,0
 4306 1074 9305A000 		li	a1,10
 4307 1078 03250902 		lw	a0,32(s2)
 4308 107c 97000000 		call	_Z8printIntiii@plt
 4308      E7800000 
 4309              	.LVL472:
 810:test/Test8.cpp ****         printString("Iteracija: ");
 4310              		.loc 1 810 9 is_stmt 1
 810:test/Test8.cpp ****         printString("Iteracija: ");
 4311              		.loc 1 810 20 is_stmt 0
 4312 1084 17050000 		lla	a0,.LC1
 4312      13050500 
 4313 108c 97000000 		call	_Z11printStringPKc@plt
 4313      E7800000 
 4314              	.LVL473:
 811:test/Test8.cpp ****         printInt(m);
 4315              		.loc 1 811 9 is_stmt 1
 811:test/Test8.cpp ****         printInt(m);
 4316              		.loc 1 811 20 is_stmt 0
 4317 1094 17050000 		lla	a0,.LC10
 4317      13050500 
 4318 109c 97000000 		call	_Z11printStringPKc@plt
 4318      E7800000 
 4319              	.LVL474:
 812:test/Test8.cpp ****         printString("\n");
 4320              		.loc 1 812 9 is_stmt 1
 812:test/Test8.cpp ****         printString("\n");
 4321              		.loc 1 812 17 is_stmt 0
 4322 10a4 13060000 		li	a2,0
 4323 10a8 9305A000 		li	a1,10
 4324 10ac 13850900 		mv	a0,s3
 4325 10b0 97000000 		call	_Z8printIntiii@plt
 4325      E7800000 
GAS LISTING /tmp/ccCnP6rB.s 			page 115


 4326              	.LVL475:
 813:test/Test8.cpp ****         if(type){
 4327              		.loc 1 813 9 is_stmt 1
 813:test/Test8.cpp ****         if(type){
 4328              		.loc 1 813 20 is_stmt 0
 4329 10b8 17050000 		lla	a0,.LC1
 4329      13050500 
 4330 10c0 97000000 		call	_Z11printStringPKc@plt
 4330      E7800000 
 4331              	.LVL476:
 814:test/Test8.cpp ****             birdParent(id);
 4332              		.loc 1 814 9 is_stmt 1
 814:test/Test8.cpp ****             birdParent(id);
 4333              		.loc 1 814 12 is_stmt 0
 4334 10c8 83274902 		lw	a5,36(s2)
 814:test/Test8.cpp ****             birdParent(id);
 4335              		.loc 1 814 9
 4336 10cc 6380070A 		beqz	a5,.L199
 815:test/Test8.cpp ****         }else if(type==0){
 4337              		.loc 1 815 13 is_stmt 1
 815:test/Test8.cpp ****         }else if(type==0){
 4338              		.loc 1 815 23 is_stmt 0
 4339 10d0 83250902 		lw	a1,32(s2)
 4340 10d4 13050900 		mv	a0,s2
 4341 10d8 97000000 		call	_ZN6Thread10birdParentEj@plt
 4341      E7800000 
 4342              	.LVL477:
 4343              	.L200:
 820:test/Test8.cpp ****     }
 4344              		.loc 1 820 9 is_stmt 1 discriminator 2
 820:test/Test8.cpp ****     }
 4345              		.loc 1 820 20 is_stmt 0 discriminator 2
 4346 10e0 17050000 		lla	a0,.LC12
 4346      13050500 
 4347 10e8 97000000 		call	_Z11printStringPKc@plt
 4347      E7800000 
 4348              	.LVL478:
 4349              	.LBE257:
 797:test/Test8.cpp ****         printString("Nit, pocetak wrappera- id: ");
 4350              		.loc 1 797 5 is_stmt 1 discriminator 2
 4351 10f0 9B891900 		addiw	s3,s3,1
 4352              	.LVL479:
 4353              	.L201:
 797:test/Test8.cpp ****         printString("Nit, pocetak wrappera- id: ");
 4354              		.loc 1 797 18 discriminator 1
 4355 10f4 93072000 		li	a5,2
 4356 10f8 63C43709 		bgt	s3,a5,.L193
 4357              	.LBB263:
 798:test/Test8.cpp ****         printInt(id);
 4358              		.loc 1 798 9
 798:test/Test8.cpp ****         printInt(id);
 4359              		.loc 1 798 20 is_stmt 0
 4360 10fc 17050000 		lla	a0,.LC9
 4360      13050500 
 4361 1104 97000000 		call	_Z11printStringPKc@plt
 4361      E7800000 
 4362              	.LVL480:
GAS LISTING /tmp/ccCnP6rB.s 			page 116


 799:test/Test8.cpp ****         printString("\n");
 4363              		.loc 1 799 9 is_stmt 1
 799:test/Test8.cpp ****         printString("\n");
 4364              		.loc 1 799 17 is_stmt 0
 4365 110c 13060000 		li	a2,0
 4366 1110 9305A000 		li	a1,10
 4367 1114 03250902 		lw	a0,32(s2)
 4368 1118 97000000 		call	_Z8printIntiii@plt
 4368      E7800000 
 4369              	.LVL481:
 800:test/Test8.cpp ****         printString("Iteracija: ");
 4370              		.loc 1 800 9 is_stmt 1
 800:test/Test8.cpp ****         printString("Iteracija: ");
 4371              		.loc 1 800 20 is_stmt 0
 4372 1120 17050000 		lla	a0,.LC1
 4372      13050500 
 4373 1128 97000000 		call	_Z11printStringPKc@plt
 4373      E7800000 
 4374              	.LVL482:
 801:test/Test8.cpp ****         printInt(m);
 4375              		.loc 1 801 9 is_stmt 1
 801:test/Test8.cpp ****         printInt(m);
 4376              		.loc 1 801 20 is_stmt 0
 4377 1130 17050000 		lla	a0,.LC10
 4377      13050500 
 4378 1138 97000000 		call	_Z11printStringPKc@plt
 4378      E7800000 
 4379              	.LVL483:
 802:test/Test8.cpp ****         printString("\n");
 4380              		.loc 1 802 9 is_stmt 1
 802:test/Test8.cpp ****         printString("\n");
 4381              		.loc 1 802 17 is_stmt 0
 4382 1140 13060000 		li	a2,0
 4383 1144 9305A000 		li	a1,10
 4384 1148 13850900 		mv	a0,s3
 4385 114c 97000000 		call	_Z8printIntiii@plt
 4385      E7800000 
 4386              	.LVL484:
 803:test/Test8.cpp ****         for(int i=0;i<1000;i++){
 4387              		.loc 1 803 9 is_stmt 1
 803:test/Test8.cpp ****         for(int i=0;i<1000;i++){
 4388              		.loc 1 803 20 is_stmt 0
 4389 1154 17050000 		lla	a0,.LC1
 4389      13050500 
 4390 115c 97000000 		call	_Z11printStringPKc@plt
 4390      E7800000 
 4391              	.LVL485:
 804:test/Test8.cpp ****             for(int j=0;j<1000;j++){}
 4392              		.loc 1 804 9 is_stmt 1
 4393              	.LBB262:
 804:test/Test8.cpp ****             for(int j=0;j<1000;j++){}
 4394              		.loc 1 804 17 is_stmt 0
 4395 1164 93040000 		li	s1,0
 4396 1168 6FF0DFED 		j	.L198
 4397              	.LVL486:
 4398              	.L199:
 4399              	.LBE262:
GAS LISTING /tmp/ccCnP6rB.s 			page 117


 816:test/Test8.cpp ****             birdChild(id);
 4400              		.loc 1 816 15 is_stmt 1
 817:test/Test8.cpp ****         }
 4401              		.loc 1 817 13
 817:test/Test8.cpp ****         }
 4402              		.loc 1 817 22 is_stmt 0
 4403 116c 83250902 		lw	a1,32(s2)
 4404 1170 13050900 		mv	a0,s2
 4405 1174 97000000 		call	_ZN6Thread9birdChildEj@plt
 4405      E7800000 
 4406              	.LVL487:
 4407 117c 6FF05FF6 		j	.L200
 4408              	.LVL488:
 4409              	.L193:
 4410              	.LBE263:
 4411              	.LBE256:
 823:test/Test8.cpp **** 
 4412              		.loc 1 823 1
 4413 1180 83308102 		ld	ra,40(sp)
 4414              		.cfi_restore 1
 4415 1184 03340102 		ld	s0,32(sp)
 4416              		.cfi_restore 8
 4417              		.cfi_def_cfa 2, 48
 4418 1188 83348101 		ld	s1,24(sp)
 4419              		.cfi_restore 9
 4420 118c 03390101 		ld	s2,16(sp)
 4421              		.cfi_restore 18
 4422              	.LVL489:
 4423 1190 83398100 		ld	s3,8(sp)
 4424              		.cfi_restore 19
 4425              	.LVL490:
 4426 1194 13010103 		addi	sp,sp,48
 4427              		.cfi_def_cfa_offset 0
 4428 1198 67800000 		jr	ra
 4429              		.cfi_endproc
 4430              	.LFE76:
 4432              		.align	2
 4433              		.globl	_ZN3A113runEv
 4435              	_ZN3A113runEv:
 4436              	.LFB81:
 879:test/Test8.cpp ****     for(int m=0;m<3;m++){
 4437              		.loc 1 879 17 is_stmt 1
 4438              		.cfi_startproc
 4439              	.LVL491:
 4440 119c 130101FD 		addi	sp,sp,-48
 4441              		.cfi_def_cfa_offset 48
 4442 11a0 23341102 		sd	ra,40(sp)
 4443 11a4 23308102 		sd	s0,32(sp)
 4444 11a8 233C9100 		sd	s1,24(sp)
 4445 11ac 23382101 		sd	s2,16(sp)
 4446 11b0 23343101 		sd	s3,8(sp)
 4447              		.cfi_offset 1, -8
 4448              		.cfi_offset 8, -16
 4449              		.cfi_offset 9, -24
 4450              		.cfi_offset 18, -32
 4451              		.cfi_offset 19, -40
 4452 11b4 13040103 		addi	s0,sp,48
GAS LISTING /tmp/ccCnP6rB.s 			page 118


 4453              		.cfi_def_cfa 8, 0
 4454 11b8 13090500 		mv	s2,a0
 880:test/Test8.cpp ****         printString("Nit, pocetak wrappera- id: ");
 4455              		.loc 1 880 5
 4456              	.LVL492:
 4457              	.LBB264:
 880:test/Test8.cpp ****         printString("Nit, pocetak wrappera- id: ");
 4458              		.loc 1 880 13 is_stmt 0
 4459 11bc 93090000 		li	s3,0
 4460 11c0 6F00C00B 		j	.L211
 4461              	.LVL493:
 4462              	.L206:
 4463              	.LBB265:
 4464              	.LBB266:
 4465              	.LBB267:
 889:test/Test8.cpp ****         }
 4466              		.loc 1 889 13 is_stmt 1 discriminator 2
 889:test/Test8.cpp ****         }
 4467              		.loc 1 889 28 is_stmt 0 discriminator 2
 4468 11c4 97000000 		call	_Z15thread_dispatchv@plt
 4468      E7800000 
 4469              	.LVL494:
 4470              	.LBE267:
 887:test/Test8.cpp ****             for(int j=0;j<1000;j++){}
 4471              		.loc 1 887 9 is_stmt 1 discriminator 2
 4472 11cc 9B841400 		addiw	s1,s1,1
 4473              	.LVL495:
 4474              	.L208:
 887:test/Test8.cpp ****             for(int j=0;j<1000;j++){}
 4475              		.loc 1 887 22 discriminator 1
 4476 11d0 9307703E 		li	a5,999
 4477 11d4 63CC9700 		bgt	s1,a5,.L205
 4478              	.LBB269:
 4479              	.LBB268:
 888:test/Test8.cpp ****             thread_dispatch();
 4480              		.loc 1 888 21 is_stmt 0
 4481 11d8 93070000 		li	a5,0
 4482              	.L207:
 4483              	.LVL496:
 888:test/Test8.cpp ****             thread_dispatch();
 4484              		.loc 1 888 26 is_stmt 1 discriminator 3
 4485 11dc 1307703E 		li	a4,999
 4486 11e0 E342F7FE 		bgt	a5,a4,.L206
 888:test/Test8.cpp ****             thread_dispatch();
 4487              		.loc 1 888 13 discriminator 2
 4488 11e4 9B871700 		addiw	a5,a5,1
 4489              	.LVL497:
 4490 11e8 6FF05FFF 		j	.L207
 4491              	.L205:
 4492              	.LBE268:
 4493              	.LBE269:
 4494              	.LBE266:
 891:test/Test8.cpp ****         printInt(id);
 4495              		.loc 1 891 9
 891:test/Test8.cpp ****         printInt(id);
 4496              		.loc 1 891 20 is_stmt 0
 4497 11ec 17050000 		lla	a0,.LC11
GAS LISTING /tmp/ccCnP6rB.s 			page 119


 4497      13050500 
 4498 11f4 97000000 		call	_Z11printStringPKc@plt
 4498      E7800000 
 4499              	.LVL498:
 892:test/Test8.cpp ****         printString("\n");
 4500              		.loc 1 892 9 is_stmt 1
 892:test/Test8.cpp ****         printString("\n");
 4501              		.loc 1 892 17 is_stmt 0
 4502 11fc 13060000 		li	a2,0
 4503 1200 9305A000 		li	a1,10
 4504 1204 03250902 		lw	a0,32(s2)
 4505 1208 97000000 		call	_Z8printIntiii@plt
 4505      E7800000 
 4506              	.LVL499:
 893:test/Test8.cpp ****         printString("Iteracija: ");
 4507              		.loc 1 893 9 is_stmt 1
 893:test/Test8.cpp ****         printString("Iteracija: ");
 4508              		.loc 1 893 20 is_stmt 0
 4509 1210 17050000 		lla	a0,.LC1
 4509      13050500 
 4510 1218 97000000 		call	_Z11printStringPKc@plt
 4510      E7800000 
 4511              	.LVL500:
 894:test/Test8.cpp ****         printInt(m);
 4512              		.loc 1 894 9 is_stmt 1
 894:test/Test8.cpp ****         printInt(m);
 4513              		.loc 1 894 20 is_stmt 0
 4514 1220 17050000 		lla	a0,.LC10
 4514      13050500 
 4515 1228 97000000 		call	_Z11printStringPKc@plt
 4515      E7800000 
 4516              	.LVL501:
 895:test/Test8.cpp ****         printString("\n");
 4517              		.loc 1 895 9 is_stmt 1
 895:test/Test8.cpp ****         printString("\n");
 4518              		.loc 1 895 17 is_stmt 0
 4519 1230 13060000 		li	a2,0
 4520 1234 9305A000 		li	a1,10
 4521 1238 13850900 		mv	a0,s3
 4522 123c 97000000 		call	_Z8printIntiii@plt
 4522      E7800000 
 4523              	.LVL502:
 896:test/Test8.cpp ****         if(type){
 4524              		.loc 1 896 9 is_stmt 1
 896:test/Test8.cpp ****         if(type){
 4525              		.loc 1 896 20 is_stmt 0
 4526 1244 17050000 		lla	a0,.LC1
 4526      13050500 
 4527 124c 97000000 		call	_Z11printStringPKc@plt
 4527      E7800000 
 4528              	.LVL503:
 897:test/Test8.cpp ****             meda();
 4529              		.loc 1 897 9 is_stmt 1
 897:test/Test8.cpp ****             meda();
 4530              		.loc 1 897 12 is_stmt 0
 4531 1254 83274902 		lw	a5,36(s2)
 897:test/Test8.cpp ****             meda();
GAS LISTING /tmp/ccCnP6rB.s 			page 120


 4532              		.loc 1 897 9
 4533 1258 638E0708 		beqz	a5,.L209
 898:test/Test8.cpp ****         }else if(type==0){
 4534              		.loc 1 898 13 is_stmt 1
 898:test/Test8.cpp ****         }else if(type==0){
 4535              		.loc 1 898 17 is_stmt 0
 4536 125c 13050900 		mv	a0,s2
 4537 1260 97000000 		call	_ZN6Thread4medaEv@plt
 4537      E7800000 
 4538              	.LVL504:
 4539              	.L210:
 903:test/Test8.cpp ****     }
 4540              		.loc 1 903 9 is_stmt 1 discriminator 2
 903:test/Test8.cpp ****     }
 4541              		.loc 1 903 20 is_stmt 0 discriminator 2
 4542 1268 17050000 		lla	a0,.LC12
 4542      13050500 
 4543 1270 97000000 		call	_Z11printStringPKc@plt
 4543      E7800000 
 4544              	.LVL505:
 4545              	.LBE265:
 880:test/Test8.cpp ****         printString("Nit, pocetak wrappera- id: ");
 4546              		.loc 1 880 5 is_stmt 1 discriminator 2
 4547 1278 9B891900 		addiw	s3,s3,1
 4548              	.LVL506:
 4549              	.L211:
 880:test/Test8.cpp ****         printString("Nit, pocetak wrappera- id: ");
 4550              		.loc 1 880 18 discriminator 1
 4551 127c 93072000 		li	a5,2
 4552 1280 63C43709 		bgt	s3,a5,.L203
 4553              	.LBB271:
 881:test/Test8.cpp ****         printInt(id);
 4554              		.loc 1 881 9
 881:test/Test8.cpp ****         printInt(id);
 4555              		.loc 1 881 20 is_stmt 0
 4556 1284 17050000 		lla	a0,.LC9
 4556      13050500 
 4557 128c 97000000 		call	_Z11printStringPKc@plt
 4557      E7800000 
 4558              	.LVL507:
 882:test/Test8.cpp ****         printString("\n");
 4559              		.loc 1 882 9 is_stmt 1
 882:test/Test8.cpp ****         printString("\n");
 4560              		.loc 1 882 17 is_stmt 0
 4561 1294 13060000 		li	a2,0
 4562 1298 9305A000 		li	a1,10
 4563 129c 03250902 		lw	a0,32(s2)
 4564 12a0 97000000 		call	_Z8printIntiii@plt
 4564      E7800000 
 4565              	.LVL508:
 883:test/Test8.cpp ****         printString("Iteracija: ");
 4566              		.loc 1 883 9 is_stmt 1
 883:test/Test8.cpp ****         printString("Iteracija: ");
 4567              		.loc 1 883 20 is_stmt 0
 4568 12a8 17050000 		lla	a0,.LC1
 4568      13050500 
 4569 12b0 97000000 		call	_Z11printStringPKc@plt
GAS LISTING /tmp/ccCnP6rB.s 			page 121


 4569      E7800000 
 4570              	.LVL509:
 884:test/Test8.cpp ****         printInt(m);
 4571              		.loc 1 884 9 is_stmt 1
 884:test/Test8.cpp ****         printInt(m);
 4572              		.loc 1 884 20 is_stmt 0
 4573 12b8 17050000 		lla	a0,.LC10
 4573      13050500 
 4574 12c0 97000000 		call	_Z11printStringPKc@plt
 4574      E7800000 
 4575              	.LVL510:
 885:test/Test8.cpp ****         printString("\n");
 4576              		.loc 1 885 9 is_stmt 1
 885:test/Test8.cpp ****         printString("\n");
 4577              		.loc 1 885 17 is_stmt 0
 4578 12c8 13060000 		li	a2,0
 4579 12cc 9305A000 		li	a1,10
 4580 12d0 13850900 		mv	a0,s3
 4581 12d4 97000000 		call	_Z8printIntiii@plt
 4581      E7800000 
 4582              	.LVL511:
 886:test/Test8.cpp ****         for(int i=0;i<1000;i++){
 4583              		.loc 1 886 9 is_stmt 1
 886:test/Test8.cpp ****         for(int i=0;i<1000;i++){
 4584              		.loc 1 886 20 is_stmt 0
 4585 12dc 17050000 		lla	a0,.LC1
 4585      13050500 
 4586 12e4 97000000 		call	_Z11printStringPKc@plt
 4586      E7800000 
 4587              	.LVL512:
 887:test/Test8.cpp ****             for(int j=0;j<1000;j++){}
 4588              		.loc 1 887 9 is_stmt 1
 4589              	.LBB270:
 887:test/Test8.cpp ****             for(int j=0;j<1000;j++){}
 4590              		.loc 1 887 17 is_stmt 0
 4591 12ec 93040000 		li	s1,0
 4592 12f0 6FF01FEE 		j	.L208
 4593              	.LVL513:
 4594              	.L209:
 4595              	.LBE270:
 899:test/Test8.cpp ****             pcela(id);
 4596              		.loc 1 899 15 is_stmt 1
 900:test/Test8.cpp ****         }
 4597              		.loc 1 900 13
 900:test/Test8.cpp ****         }
 4598              		.loc 1 900 18 is_stmt 0
 4599 12f4 83250902 		lw	a1,32(s2)
 4600 12f8 13050900 		mv	a0,s2
 4601 12fc 97000000 		call	_ZN6Thread5pcelaEj@plt
 4601      E7800000 
 4602              	.LVL514:
 4603 1304 6FF05FF6 		j	.L210
 4604              	.LVL515:
 4605              	.L203:
 4606              	.LBE271:
 4607              	.LBE264:
 906:test/Test8.cpp **** 
GAS LISTING /tmp/ccCnP6rB.s 			page 122


 4608              		.loc 1 906 1
 4609 1308 83308102 		ld	ra,40(sp)
 4610              		.cfi_restore 1
 4611 130c 03340102 		ld	s0,32(sp)
 4612              		.cfi_restore 8
 4613              		.cfi_def_cfa 2, 48
 4614 1310 83348101 		ld	s1,24(sp)
 4615              		.cfi_restore 9
 4616 1314 03390101 		ld	s2,16(sp)
 4617              		.cfi_restore 18
 4618              	.LVL516:
 4619 1318 83398100 		ld	s3,8(sp)
 4620              		.cfi_restore 19
 4621              	.LVL517:
 4622 131c 13010103 		addi	sp,sp,48
 4623              		.cfi_def_cfa_offset 0
 4624 1320 67800000 		jr	ra
 4625              		.cfi_endproc
 4626              	.LFE81:
 4628              		.section	.rodata.str1.8
 4629 0335 000000   		.align	3
 4630              	.LC47:
 4631 0338 4E697420 		.string	"Nit A obrada...\n"
 4631      41206F62 
 4631      72616461 
 4631      2E2E2E0A 
 4631      00
 4632 0349 00000000 		.align	3
 4632      000000
 4633              	.LC48:
 4634 0350 4E697420 		.string	"Nit A hoce 10 zetona...\n"
 4634      4120686F 
 4634      63652031 
 4634      30207A65 
 4634      746F6E61 
 4635 0369 00000000 		.align	3
 4635      000000
 4636              	.LC49:
 4637 0370 4E697420 		.string	"Nit uzela 10 zetona \n"
 4637      757A656C 
 4637      61203130 
 4637      207A6574 
 4637      6F6E6120 
 4638 0386 0000     		.align	3
 4639              	.LC50:
 4640 0388 413A207A 		.string	"A: zavrsila\n"
 4640      61767273 
 4640      696C610A 
 4640      00
 4641              		.text
 4642              		.align	2
 4643              		.globl	_ZN3A123runEv
 4645              	_ZN3A123runEv:
 4646              	.LFB89:
 962:test/Test8.cpp ****     printString("Nit A obrada...\n");
 4647              		.loc 1 962 17 is_stmt 1
 4648              		.cfi_startproc
GAS LISTING /tmp/ccCnP6rB.s 			page 123


 4649              	.LVL518:
 4650 1324 130101FE 		addi	sp,sp,-32
 4651              		.cfi_def_cfa_offset 32
 4652 1328 233C1100 		sd	ra,24(sp)
 4653 132c 23388100 		sd	s0,16(sp)
 4654 1330 23349100 		sd	s1,8(sp)
 4655              		.cfi_offset 1, -8
 4656              		.cfi_offset 8, -16
 4657              		.cfi_offset 9, -24
 4658 1334 13040102 		addi	s0,sp,32
 4659              		.cfi_def_cfa 8, 0
 963:test/Test8.cpp ****     for(int i=0;i<1000;i++){
 4660              		.loc 1 963 5
 963:test/Test8.cpp ****     for(int i=0;i<1000;i++){
 4661              		.loc 1 963 16 is_stmt 0
 4662 1338 17050000 		lla	a0,.LC47
 4662      13050500 
 4663              	.LVL519:
 4664 1340 97000000 		call	_Z11printStringPKc@plt
 4664      E7800000 
 4665              	.LVL520:
 964:test/Test8.cpp ****         for(int j=0;j<1000;j++){}
 4666              		.loc 1 964 5 is_stmt 1
 4667              	.LBB272:
 964:test/Test8.cpp ****         for(int j=0;j<1000;j++){}
 4668              		.loc 1 964 13 is_stmt 0
 4669 1348 93040000 		li	s1,0
 4670 134c 6F000001 		j	.L217
 4671              	.LVL521:
 4672              	.L215:
 4673              	.LBB273:
 966:test/Test8.cpp ****     };
 4674              		.loc 1 966 9 is_stmt 1 discriminator 2
 966:test/Test8.cpp ****     };
 4675              		.loc 1 966 24 is_stmt 0 discriminator 2
 4676 1350 97000000 		call	_Z15thread_dispatchv@plt
 4676      E7800000 
 4677              	.LVL522:
 4678              	.LBE273:
 964:test/Test8.cpp ****         for(int j=0;j<1000;j++){}
 4679              		.loc 1 964 5 is_stmt 1 discriminator 2
 4680 1358 9B841400 		addiw	s1,s1,1
 4681              	.LVL523:
 4682              	.L217:
 964:test/Test8.cpp ****         for(int j=0;j<1000;j++){}
 4683              		.loc 1 964 18 discriminator 1
 4684 135c 9307703E 		li	a5,999
 4685 1360 63CC9700 		bgt	s1,a5,.L214
 4686              	.LBB275:
 4687              	.LBB274:
 965:test/Test8.cpp ****         thread_dispatch();
 4688              		.loc 1 965 17 is_stmt 0
 4689 1364 93070000 		li	a5,0
 4690              	.L216:
 4691              	.LVL524:
 965:test/Test8.cpp ****         thread_dispatch();
 4692              		.loc 1 965 22 is_stmt 1 discriminator 3
GAS LISTING /tmp/ccCnP6rB.s 			page 124


 4693 1368 1307703E 		li	a4,999
 4694 136c E342F7FE 		bgt	a5,a4,.L215
 965:test/Test8.cpp ****         thread_dispatch();
 4695              		.loc 1 965 9 discriminator 2
 4696 1370 9B871700 		addiw	a5,a5,1
 4697              	.LVL525:
 4698 1374 6FF05FFF 		j	.L216
 4699              	.L214:
 4700              	.LBE274:
 4701              	.LBE275:
 4702              	.LBE272:
 967:test/Test8.cpp ****     printString("Nit A hoce 10 zetona...\n");
 4703              		.loc 1 967 6
 968:test/Test8.cpp ****     sem2->waitN(10);
 4704              		.loc 1 968 5
 968:test/Test8.cpp ****     sem2->waitN(10);
 4705              		.loc 1 968 16 is_stmt 0
 4706 1378 17050000 		lla	a0,.LC48
 4706      13050500 
 4707 1380 97000000 		call	_Z11printStringPKc@plt
 4707      E7800000 
 4708              	.LVL526:
 969:test/Test8.cpp ****     printString("Nit uzela 10 zetona \n");
 4709              		.loc 1 969 5 is_stmt 1
 969:test/Test8.cpp ****     printString("Nit uzela 10 zetona \n");
 4710              		.loc 1 969 16 is_stmt 0
 4711 1388 9305A000 		li	a1,10
 4712 138c 17050000 		ld	a0,.LANCHOR0
 4712      03350500 
 4713 1394 97000000 		call	_ZN9Semaphore5waitNEi@plt
 4713      E7800000 
 4714              	.LVL527:
 970:test/Test8.cpp **** 
 4715              		.loc 1 970 5 is_stmt 1
 970:test/Test8.cpp **** 
 4716              		.loc 1 970 16 is_stmt 0
 4717 139c 17050000 		lla	a0,.LC49
 4717      13050500 
 4718 13a4 97000000 		call	_Z11printStringPKc@plt
 4718      E7800000 
 4719              	.LVL528:
 975:test/Test8.cpp **** 
 4720              		.loc 1 975 5 is_stmt 1
 975:test/Test8.cpp **** 
 4721              		.loc 1 975 16 is_stmt 0
 4722 13ac 17050000 		lla	a0,.LC50
 4722      13050500 
 4723 13b4 97000000 		call	_Z11printStringPKc@plt
 4723      E7800000 
 4724              	.LVL529:
 977:test/Test8.cpp **** 
 4725              		.loc 1 977 1
 4726 13bc 83308101 		ld	ra,24(sp)
 4727              		.cfi_restore 1
 4728 13c0 03340101 		ld	s0,16(sp)
 4729              		.cfi_restore 8
 4730              		.cfi_def_cfa 2, 32
GAS LISTING /tmp/ccCnP6rB.s 			page 125


 4731 13c4 83348100 		ld	s1,8(sp)
 4732              		.cfi_restore 9
 4733              	.LVL530:
 4734 13c8 13010102 		addi	sp,sp,32
 4735              		.cfi_def_cfa_offset 0
 4736 13cc 67800000 		jr	ra
 4737              		.cfi_endproc
 4738              	.LFE89:
 4740              		.section	.rodata.str1.8
 4741 0395 000000   		.align	3
 4742              	.LC51:
 4743 0398 4E697420 		.string	"Nit B signalizira semafor 2\n"
 4743      42207369 
 4743      676E616C 
 4743      697A6972 
 4743      61207365 
 4744 03b5 000000   		.align	3
 4745              	.LC52:
 4746 03b8 4E697420 		.string	"Nit B hoce 5 zetona\n"
 4746      4220686F 
 4746      63652035 
 4746      207A6574 
 4746      6F6E610A 
 4747 03cd 000000   		.align	3
 4748              	.LC53:
 4749 03d0 4E697420 		.string	"Nit B uzela 5 zetona.\n"
 4749      4220757A 
 4749      656C6120 
 4749      35207A65 
 4749      746F6E61 
 4750 03e7 00       		.align	3
 4751              	.LC54:
 4752 03e8 423A205A 		.string	"B: Zavrsila!\n"
 4752      61767273 
 4752      696C6121 
 4752      0A00
 4753              		.text
 4754              		.align	2
 4755              		.globl	_ZN3B123runEv
 4757              	_ZN3B123runEv:
 4758              	.LFB90:
 979:test/Test8.cpp **** 
 4759              		.loc 1 979 17 is_stmt 1
 4760              		.cfi_startproc
 4761              	.LVL531:
 4762 13d0 130101FE 		addi	sp,sp,-32
 4763              		.cfi_def_cfa_offset 32
 4764 13d4 233C1100 		sd	ra,24(sp)
 4765 13d8 23388100 		sd	s0,16(sp)
 4766 13dc 23349100 		sd	s1,8(sp)
 4767              		.cfi_offset 1, -8
 4768              		.cfi_offset 8, -16
 4769              		.cfi_offset 9, -24
 4770 13e0 13040102 		addi	s0,sp,32
 4771              		.cfi_def_cfa 8, 0
 981:test/Test8.cpp ****         sem2->signalN();
 4772              		.loc 1 981 5
GAS LISTING /tmp/ccCnP6rB.s 			page 126


 4773              	.LVL532:
 4774              	.LBB276:
 981:test/Test8.cpp ****         sem2->signalN();
 4775              		.loc 1 981 13 is_stmt 0
 4776 13e4 93040000 		li	s1,0
 4777 13e8 6F008002 		j	.L221
 4778              	.LVL533:
 4779              	.L227:
 982:test/Test8.cpp ****         printString("Nit B signalizira semafor 2\n");
 4780              		.loc 1 982 9 is_stmt 1 discriminator 2
 982:test/Test8.cpp ****         printString("Nit B signalizira semafor 2\n");
 4781              		.loc 1 982 22 is_stmt 0 discriminator 2
 4782 13ec 17050000 		ld	a0,.LANCHOR0
 4782      03350500 
 4783 13f4 97000000 		call	_ZN9Semaphore7signalNEv@plt
 4783      E7800000 
 4784              	.LVL534:
 983:test/Test8.cpp **** 
 4785              		.loc 1 983 9 is_stmt 1 discriminator 2
 983:test/Test8.cpp **** 
 4786              		.loc 1 983 20 is_stmt 0 discriminator 2
 4787 13fc 17050000 		lla	a0,.LC51
 4787      13050500 
 4788 1404 97000000 		call	_Z11printStringPKc@plt
 4788      E7800000 
 4789              	.LVL535:
 981:test/Test8.cpp ****         sem2->signalN();
 4790              		.loc 1 981 5 is_stmt 1 discriminator 2
 4791 140c 9B841400 		addiw	s1,s1,1
 4792              	.LVL536:
 4793              	.L221:
 981:test/Test8.cpp ****         sem2->signalN();
 4794              		.loc 1 981 19 discriminator 3
 4795 1410 93074000 		li	a5,4
 4796 1414 E3DC97FC 		ble	s1,a5,.L227
 4797              	.LBE276:
 4798              	.LBB277:
 987:test/Test8.cpp ****         for(int j=0;j<1000;j++){}
 4799              		.loc 1 987 13 is_stmt 0
 4800 1418 93040000 		li	s1,0
 4801              	.LVL537:
 4802 141c 6F000001 		j	.L220
 4803              	.LVL538:
 4804              	.L223:
 4805              	.LBB278:
 989:test/Test8.cpp ****     };
 4806              		.loc 1 989 9 is_stmt 1 discriminator 2
 989:test/Test8.cpp ****     };
 4807              		.loc 1 989 24 is_stmt 0 discriminator 2
 4808 1420 97000000 		call	_Z15thread_dispatchv@plt
 4808      E7800000 
 4809              	.LVL539:
 4810              	.LBE278:
 987:test/Test8.cpp ****         for(int j=0;j<1000;j++){}
 4811              		.loc 1 987 5 is_stmt 1 discriminator 2
 4812 1428 9B841400 		addiw	s1,s1,1
 4813              	.LVL540:
GAS LISTING /tmp/ccCnP6rB.s 			page 127


 4814              	.L220:
 987:test/Test8.cpp ****         for(int j=0;j<1000;j++){}
 4815              		.loc 1 987 18 discriminator 1
 4816 142c 9307703E 		li	a5,999
 4817 1430 63CC9700 		bgt	s1,a5,.L222
 4818              	.LBB280:
 4819              	.LBB279:
 988:test/Test8.cpp ****         thread_dispatch();
 4820              		.loc 1 988 17 is_stmt 0
 4821 1434 93070000 		li	a5,0
 4822              	.L224:
 4823              	.LVL541:
 988:test/Test8.cpp ****         thread_dispatch();
 4824              		.loc 1 988 22 is_stmt 1 discriminator 3
 4825 1438 1307703E 		li	a4,999
 4826 143c E342F7FE 		bgt	a5,a4,.L223
 988:test/Test8.cpp ****         thread_dispatch();
 4827              		.loc 1 988 9 discriminator 2
 4828 1440 9B871700 		addiw	a5,a5,1
 4829              	.LVL542:
 4830 1444 6FF05FFF 		j	.L224
 4831              	.L222:
 4832              	.LBE279:
 4833              	.LBE280:
 4834              	.LBE277:
 990:test/Test8.cpp ****     printString("Nit B hoce 5 zetona\n");
 4835              		.loc 1 990 6
 991:test/Test8.cpp ****     sem3->waitN(5);
 4836              		.loc 1 991 5
 991:test/Test8.cpp ****     sem3->waitN(5);
 4837              		.loc 1 991 16 is_stmt 0
 4838 1448 17050000 		lla	a0,.LC52
 4838      13050500 
 4839 1450 97000000 		call	_Z11printStringPKc@plt
 4839      E7800000 
 4840              	.LVL543:
 992:test/Test8.cpp ****     printString("Nit B uzela 5 zetona.\n");
 4841              		.loc 1 992 5 is_stmt 1
 992:test/Test8.cpp ****     printString("Nit B uzela 5 zetona.\n");
 4842              		.loc 1 992 16 is_stmt 0
 4843 1458 93055000 		li	a1,5
 4844 145c 17050000 		ld	a0,.LANCHOR0+8
 4844      03350500 
 4845 1464 97000000 		call	_ZN9Semaphore5waitNEi@plt
 4845      E7800000 
 4846              	.LVL544:
 993:test/Test8.cpp **** 
 4847              		.loc 1 993 5 is_stmt 1
 993:test/Test8.cpp **** 
 4848              		.loc 1 993 16 is_stmt 0
 4849 146c 17050000 		lla	a0,.LC53
 4849      13050500 
 4850 1474 97000000 		call	_Z11printStringPKc@plt
 4850      E7800000 
 4851              	.LVL545:
 996:test/Test8.cpp **** 
 4852              		.loc 1 996 5 is_stmt 1
GAS LISTING /tmp/ccCnP6rB.s 			page 128


 996:test/Test8.cpp **** 
 4853              		.loc 1 996 16 is_stmt 0
 4854 147c 17050000 		lla	a0,.LC54
 4854      13050500 
 4855 1484 97000000 		call	_Z11printStringPKc@plt
 4855      E7800000 
 4856              	.LVL546:
 998:test/Test8.cpp **** 
 4857              		.loc 1 998 1
 4858 148c 83308101 		ld	ra,24(sp)
 4859              		.cfi_restore 1
 4860 1490 03340101 		ld	s0,16(sp)
 4861              		.cfi_restore 8
 4862              		.cfi_def_cfa 2, 32
 4863 1494 83348100 		ld	s1,8(sp)
 4864              		.cfi_restore 9
 4865              	.LVL547:
 4866 1498 13010102 		addi	sp,sp,32
 4867              		.cfi_def_cfa_offset 0
 4868 149c 67800000 		jr	ra
 4869              		.cfi_endproc
 4870              	.LFE90:
 4872              		.section	.rodata.str1.8
 4873 03f6 0000     		.align	3
 4874              	.LC55:
 4875 03f8 413A2050 		.string	"A: Pinging B...\n"
 4875      696E6769 
 4875      6E672042 
 4875      2E2E2E0A 
 4875      00
 4876              		.text
 4877              		.align	2
 4878              		.globl	_ZN3A133runEv
 4880              	_ZN3A133runEv:
 4881              	.LFB96:
1034:test/Test8.cpp **** //    int* test = new int[600];
 4882              		.loc 1 1034 16 is_stmt 1
 4883              		.cfi_startproc
 4884              	.LVL548:
 4885 14a0 130101FD 		addi	sp,sp,-48
 4886              		.cfi_def_cfa_offset 48
 4887 14a4 23341102 		sd	ra,40(sp)
 4888 14a8 23308102 		sd	s0,32(sp)
 4889 14ac 233C9100 		sd	s1,24(sp)
 4890 14b0 23382101 		sd	s2,16(sp)
 4891 14b4 23343101 		sd	s3,8(sp)
 4892              		.cfi_offset 1, -8
 4893              		.cfi_offset 8, -16
 4894              		.cfi_offset 9, -24
 4895              		.cfi_offset 18, -32
 4896              		.cfi_offset 19, -40
 4897 14b8 13040103 		addi	s0,sp,48
 4898              		.cfi_def_cfa 8, 0
 4899 14bc 93090500 		mv	s3,a0
1037:test/Test8.cpp ****         for(uint64 j=0;j<30000;j++){
 4900              		.loc 1 1037 5
 4901              	.LVL549:
GAS LISTING /tmp/ccCnP6rB.s 			page 129


 4902              	.LBB281:
1037:test/Test8.cpp ****         for(uint64 j=0;j<30000;j++){
 4903              		.loc 1 1037 13 is_stmt 0
 4904 14c0 13090000 		li	s2,0
 4905 14c4 6F008008 		j	.L235
 4906              	.LVL550:
 4907              	.L231:
 4908              	.LBB282:
 4909              	.LBB283:
 4910              	.LBB284:
1040:test/Test8.cpp ****         }
 4911              		.loc 1 1040 13 is_stmt 1 discriminator 2
1040:test/Test8.cpp ****         }
 4912              		.loc 1 1040 28 is_stmt 0 discriminator 2
 4913 14c8 97000000 		call	_Z15thread_dispatchv@plt
 4913      E7800000 
 4914              	.LVL551:
 4915              	.LBE284:
1038:test/Test8.cpp ****             for(int k=0;k<1000;k++){}
 4916              		.loc 1 1038 9 is_stmt 1 discriminator 2
 4917 14d0 93841400 		addi	s1,s1,1
 4918              	.LVL552:
 4919              	.L233:
1038:test/Test8.cpp ****             for(int k=0;k<1000;k++){}
 4920              		.loc 1 1038 25 discriminator 1
 4921 14d4 B7770000 		li	a5,28672
 4922 14d8 9387F752 		addi	a5,a5,1327
 4923 14dc 63EC9700 		bgtu	s1,a5,.L230
 4924              	.LBB286:
 4925              	.LBB285:
1039:test/Test8.cpp ****             thread_dispatch();
 4926              		.loc 1 1039 21 is_stmt 0
 4927 14e0 93070000 		li	a5,0
 4928              	.L232:
 4929              	.LVL553:
1039:test/Test8.cpp ****             thread_dispatch();
 4930              		.loc 1 1039 26 is_stmt 1 discriminator 3
 4931 14e4 1307703E 		li	a4,999
 4932 14e8 E340F7FE 		bgt	a5,a4,.L231
1039:test/Test8.cpp ****             thread_dispatch();
 4933              		.loc 1 1039 13 discriminator 2
 4934 14ec 9B871700 		addiw	a5,a5,1
 4935              	.LVL554:
 4936 14f0 6FF05FFF 		j	.L232
 4937              	.L230:
 4938              	.LBE285:
 4939              	.LBE286:
 4940              	.LBE283:
1042:test/Test8.cpp ****         printInt(i);
 4941              		.loc 1 1042 9
1042:test/Test8.cpp ****         printInt(i);
 4942              		.loc 1 1042 20 is_stmt 0
 4943 14f4 17050000 		lla	a0,.LC23
 4943      13050500 
 4944 14fc 97000000 		call	_Z11printStringPKc@plt
 4944      E7800000 
 4945              	.LVL555:
GAS LISTING /tmp/ccCnP6rB.s 			page 130


1043:test/Test8.cpp ****         printString("\n");
 4946              		.loc 1 1043 9 is_stmt 1
1043:test/Test8.cpp ****         printString("\n");
 4947              		.loc 1 1043 17 is_stmt 0
 4948 1504 13060000 		li	a2,0
 4949 1508 9305A000 		li	a1,10
 4950 150c 13050900 		mv	a0,s2
 4951 1510 97000000 		call	_Z8printIntiii@plt
 4951      E7800000 
 4952              	.LVL556:
1044:test/Test8.cpp ****         if(i==7){
 4953              		.loc 1 1044 9 is_stmt 1
1044:test/Test8.cpp ****         if(i==7){
 4954              		.loc 1 1044 20 is_stmt 0
 4955 1518 17050000 		lla	a0,.LC1
 4955      13050500 
 4956 1520 97000000 		call	_Z11printStringPKc@plt
 4956      E7800000 
 4957              	.LVL557:
1045:test/Test8.cpp ****             printString("A: Pinging B...\n");
 4958              		.loc 1 1045 9 is_stmt 1
 4959 1528 93077000 		li	a5,7
 4960 152c 6308F902 		beq	s2,a5,.L237
 4961              	.L234:
1049:test/Test8.cpp ****         thread_dispatch();
 4962              		.loc 1 1049 9 discriminator 2
1049:test/Test8.cpp ****         thread_dispatch();
 4963              		.loc 1 1049 20 is_stmt 0 discriminator 2
 4964 1530 17050000 		lla	a0,.LC1
 4964      13050500 
 4965 1538 97000000 		call	_Z11printStringPKc@plt
 4965      E7800000 
 4966              	.LVL558:
1050:test/Test8.cpp ****     }
 4967              		.loc 1 1050 9 is_stmt 1 discriminator 2
1050:test/Test8.cpp ****     }
 4968              		.loc 1 1050 24 is_stmt 0 discriminator 2
 4969 1540 97000000 		call	_Z15thread_dispatchv@plt
 4969      E7800000 
 4970              	.LVL559:
 4971              	.LBE282:
1037:test/Test8.cpp ****         for(uint64 j=0;j<30000;j++){
 4972              		.loc 1 1037 5 is_stmt 1 discriminator 2
 4973 1548 1B091900 		addiw	s2,s2,1
 4974              	.LVL560:
 4975              	.L235:
1037:test/Test8.cpp ****         for(uint64 j=0;j<30000;j++){
 4976              		.loc 1 1037 18 discriminator 1
 4977 154c 93079000 		li	a5,9
 4978 1550 63C62703 		bgt	s2,a5,.L228
 4979              	.LBB288:
 4980              	.LBB287:
1038:test/Test8.cpp ****             for(int k=0;k<1000;k++){}
 4981              		.loc 1 1038 20 is_stmt 0
 4982 1554 93040000 		li	s1,0
 4983 1558 6FF0DFF7 		j	.L233
 4984              	.LVL561:
GAS LISTING /tmp/ccCnP6rB.s 			page 131


 4985              	.L237:
 4986              	.LBE287:
1046:test/Test8.cpp ****             toPing->pingThread();
 4987              		.loc 1 1046 13 is_stmt 1
1046:test/Test8.cpp ****             toPing->pingThread();
 4988              		.loc 1 1046 24 is_stmt 0
 4989 155c 17050000 		lla	a0,.LC55
 4989      13050500 
 4990 1564 97000000 		call	_Z11printStringPKc@plt
 4990      E7800000 
 4991              	.LVL562:
1047:test/Test8.cpp ****         }
 4992              		.loc 1 1047 13 is_stmt 1
1047:test/Test8.cpp ****         }
 4993              		.loc 1 1047 31 is_stmt 0
 4994 156c 03B50902 		ld	a0,32(s3)
 4995 1570 97000000 		call	_ZN6Thread10pingThreadEv@plt
 4995      E7800000 
 4996              	.LVL563:
 4997 1578 6FF09FFB 		j	.L234
 4998              	.LVL564:
 4999              	.L228:
 5000              	.LBE288:
 5001              	.LBE281:
1052:test/Test8.cpp **** 
 5002              		.loc 1 1052 1
 5003 157c 83308102 		ld	ra,40(sp)
 5004              		.cfi_restore 1
 5005 1580 03340102 		ld	s0,32(sp)
 5006              		.cfi_restore 8
 5007              		.cfi_def_cfa 2, 48
 5008 1584 83348101 		ld	s1,24(sp)
 5009              		.cfi_restore 9
 5010 1588 03390101 		ld	s2,16(sp)
 5011              		.cfi_restore 18
 5012              	.LVL565:
 5013 158c 83398100 		ld	s3,8(sp)
 5014              		.cfi_restore 19
 5015              	.LVL566:
 5016 1590 13010103 		addi	sp,sp,48
 5017              		.cfi_def_cfa_offset 0
 5018 1594 67800000 		jr	ra
 5019              		.cfi_endproc
 5020              	.LFE96:
 5022              		.section	.rodata.str1.8
 5023 0409 00000000 		.align	3
 5023      000000
 5024              	.LC56:
 5025 0410 433A2050 		.string	"C: Pinging A...\n"
 5025      696E6769 
 5025      6E672041 
 5025      2E2E2E0A 
 5025      00
 5026              		.text
 5027              		.align	2
 5028              		.globl	_ZN3C133runEv
 5030              	_ZN3C133runEv:
GAS LISTING /tmp/ccCnP6rB.s 			page 132


 5031              	.LFB104:
1089:test/Test8.cpp **** //    int* test = new int[600];
 5032              		.loc 1 1089 16 is_stmt 1
 5033              		.cfi_startproc
 5034              	.LVL567:
 5035 1598 130101FD 		addi	sp,sp,-48
 5036              		.cfi_def_cfa_offset 48
 5037 159c 23341102 		sd	ra,40(sp)
 5038 15a0 23308102 		sd	s0,32(sp)
 5039 15a4 233C9100 		sd	s1,24(sp)
 5040 15a8 23382101 		sd	s2,16(sp)
 5041 15ac 23343101 		sd	s3,8(sp)
 5042              		.cfi_offset 1, -8
 5043              		.cfi_offset 8, -16
 5044              		.cfi_offset 9, -24
 5045              		.cfi_offset 18, -32
 5046              		.cfi_offset 19, -40
 5047 15b0 13040103 		addi	s0,sp,48
 5048              		.cfi_def_cfa 8, 0
 5049 15b4 93090500 		mv	s3,a0
1092:test/Test8.cpp ****         for(uint64 j=0;j<30000;j++){
 5050              		.loc 1 1092 5
 5051              	.LVL568:
 5052              	.LBB289:
1092:test/Test8.cpp ****         for(uint64 j=0;j<30000;j++){
 5053              		.loc 1 1092 13 is_stmt 0
 5054 15b8 13090000 		li	s2,0
 5055 15bc 6F008007 		j	.L245
 5056              	.LVL569:
 5057              	.L241:
 5058              	.LBB290:
 5059              	.LBB291:
 5060              	.LBB292:
1095:test/Test8.cpp ****         }
 5061              		.loc 1 1095 13 is_stmt 1 discriminator 2
1095:test/Test8.cpp ****         }
 5062              		.loc 1 1095 28 is_stmt 0 discriminator 2
 5063 15c0 97000000 		call	_Z15thread_dispatchv@plt
 5063      E7800000 
 5064              	.LVL570:
 5065              	.LBE292:
1093:test/Test8.cpp ****             for(int k=0;k<1000;k++){}
 5066              		.loc 1 1093 9 is_stmt 1 discriminator 2
 5067 15c8 93841400 		addi	s1,s1,1
 5068              	.LVL571:
 5069              	.L243:
1093:test/Test8.cpp ****             for(int k=0;k<1000;k++){}
 5070              		.loc 1 1093 25 discriminator 1
 5071 15cc B7770000 		li	a5,28672
 5072 15d0 9387F752 		addi	a5,a5,1327
 5073 15d4 63EC9700 		bgtu	s1,a5,.L240
 5074              	.LBB294:
 5075              	.LBB293:
1094:test/Test8.cpp ****             thread_dispatch();
 5076              		.loc 1 1094 21 is_stmt 0
 5077 15d8 93070000 		li	a5,0
 5078              	.L242:
GAS LISTING /tmp/ccCnP6rB.s 			page 133


 5079              	.LVL572:
1094:test/Test8.cpp ****             thread_dispatch();
 5080              		.loc 1 1094 26 is_stmt 1 discriminator 3
 5081 15dc 1307703E 		li	a4,999
 5082 15e0 E340F7FE 		bgt	a5,a4,.L241
1094:test/Test8.cpp ****             thread_dispatch();
 5083              		.loc 1 1094 13 discriminator 2
 5084 15e4 9B871700 		addiw	a5,a5,1
 5085              	.LVL573:
 5086 15e8 6FF05FFF 		j	.L242
 5087              	.L240:
 5088              	.LBE293:
 5089              	.LBE294:
 5090              	.LBE291:
1097:test/Test8.cpp ****         printInt(i);
 5091              		.loc 1 1097 9
1097:test/Test8.cpp ****         printInt(i);
 5092              		.loc 1 1097 20 is_stmt 0
 5093 15ec 17050000 		lla	a0,.LC34
 5093      13050500 
 5094 15f4 97000000 		call	_Z11printStringPKc@plt
 5094      E7800000 
 5095              	.LVL574:
1098:test/Test8.cpp ****         printString("\n");
 5096              		.loc 1 1098 9 is_stmt 1
1098:test/Test8.cpp ****         printString("\n");
 5097              		.loc 1 1098 17 is_stmt 0
 5098 15fc 13060000 		li	a2,0
 5099 1600 9305A000 		li	a1,10
 5100 1604 13050900 		mv	a0,s2
 5101 1608 97000000 		call	_Z8printIntiii@plt
 5101      E7800000 
 5102              	.LVL575:
1099:test/Test8.cpp ****         if(i==5){
 5103              		.loc 1 1099 9 is_stmt 1
1099:test/Test8.cpp ****         if(i==5){
 5104              		.loc 1 1099 20 is_stmt 0
 5105 1610 17050000 		lla	a0,.LC1
 5105      13050500 
 5106 1618 97000000 		call	_Z11printStringPKc@plt
 5106      E7800000 
 5107              	.LVL576:
1100:test/Test8.cpp ****             printString("C: Pinging A...\n");
 5108              		.loc 1 1100 9 is_stmt 1
 5109 1620 93075000 		li	a5,5
 5110 1624 6300F902 		beq	s2,a5,.L247
 5111              	.L244:
1104:test/Test8.cpp ****     }
 5112              		.loc 1 1104 9 discriminator 2
1104:test/Test8.cpp ****     }
 5113              		.loc 1 1104 24 is_stmt 0 discriminator 2
 5114 1628 97000000 		call	_Z15thread_dispatchv@plt
 5114      E7800000 
 5115              	.LVL577:
 5116              	.LBE290:
1092:test/Test8.cpp ****         for(uint64 j=0;j<30000;j++){
 5117              		.loc 1 1092 5 is_stmt 1 discriminator 2
GAS LISTING /tmp/ccCnP6rB.s 			page 134


 5118 1630 1B091900 		addiw	s2,s2,1
 5119              	.LVL578:
 5120              	.L245:
1092:test/Test8.cpp ****         for(uint64 j=0;j<30000;j++){
 5121              		.loc 1 1092 18 discriminator 1
 5122 1634 93079000 		li	a5,9
 5123 1638 63C62703 		bgt	s2,a5,.L238
 5124              	.LBB296:
 5125              	.LBB295:
1093:test/Test8.cpp ****             for(int k=0;k<1000;k++){}
 5126              		.loc 1 1093 20 is_stmt 0
 5127 163c 93040000 		li	s1,0
 5128 1640 6FF0DFF8 		j	.L243
 5129              	.LVL579:
 5130              	.L247:
 5131              	.LBE295:
1101:test/Test8.cpp ****             toPing->pingThread();
 5132              		.loc 1 1101 13 is_stmt 1
1101:test/Test8.cpp ****             toPing->pingThread();
 5133              		.loc 1 1101 24 is_stmt 0
 5134 1644 17050000 		lla	a0,.LC56
 5134      13050500 
 5135 164c 97000000 		call	_Z11printStringPKc@plt
 5135      E7800000 
 5136              	.LVL580:
1102:test/Test8.cpp ****         }
 5137              		.loc 1 1102 13 is_stmt 1
1102:test/Test8.cpp ****         }
 5138              		.loc 1 1102 31 is_stmt 0
 5139 1654 03B50902 		ld	a0,32(s3)
 5140 1658 97000000 		call	_ZN6Thread10pingThreadEv@plt
 5140      E7800000 
 5141              	.LVL581:
 5142 1660 6FF09FFC 		j	.L244
 5143              	.LVL582:
 5144              	.L238:
 5145              	.LBE296:
 5146              	.LBE289:
1106:test/Test8.cpp **** 
 5147              		.loc 1 1106 1
 5148 1664 83308102 		ld	ra,40(sp)
 5149              		.cfi_restore 1
 5150 1668 03340102 		ld	s0,32(sp)
 5151              		.cfi_restore 8
 5152              		.cfi_def_cfa 2, 48
 5153 166c 83348101 		ld	s1,24(sp)
 5154              		.cfi_restore 9
 5155 1670 03390101 		ld	s2,16(sp)
 5156              		.cfi_restore 18
 5157              	.LVL583:
 5158 1674 83398100 		ld	s3,8(sp)
 5159              		.cfi_restore 19
 5160              	.LVL584:
 5161 1678 13010103 		addi	sp,sp,48
 5162              		.cfi_def_cfa_offset 0
 5163 167c 67800000 		jr	ra
 5164              		.cfi_endproc
GAS LISTING /tmp/ccCnP6rB.s 			page 135


 5165              	.LFE104:
 5167              		.section	.rodata._ZN11testTRYWait3runEv.str1.8,"aMS",@progbits,1
 5168              		.align	3
 5169              	.LC57:
 5170 0000 4E697420 		.string	"Nit usla u kriticnu sekciju i smanjila semafor, njen id je: "
 5170      75736C61 
 5170      2075206B 
 5170      72697469 
 5170      636E7520 
 5171 003d 000000   		.align	3
 5172              	.LC58:
 5173 0040 4E697420 		.string	"Nit izasla iz kriticne sekcije, njen id je: "
 5173      697A6173 
 5173      6C612069 
 5173      7A206B72 
 5173      69746963 
 5174 006d 000000   		.align	3
 5175              	.LC59:
 5176 0070 4E697420 		.string	"Nit nije uspela da se prodje semafor, nastavlja dalje, njen id je: "
 5176      6E696A65 
 5176      20757370 
 5176      656C6120 
 5176      64612073 
 5177 00b4 00000000 		.align	3
 5178              	.LC60:
 5179 00b8 53656D61 		.string	"Semafor zatvoren i oslobodjen\n"
 5179      666F7220 
 5179      7A617476 
 5179      6F72656E 
 5179      2069206F 
 5180 00d7 00       		.align	3
 5181              	.LC61:
 5182 00d8 4E697420 		.string	"Nit zavrsila\n"
 5182      7A617672 
 5182      73696C61 
 5182      0A00
 5183              		.section	.text._ZN11testTRYWait3runEv,"axG",@progbits,_ZN11testTRYWait3runEv,comdat
 5184              		.align	2
 5185              		.weak	_ZN11testTRYWait3runEv
 5187              	_ZN11testTRYWait3runEv:
 5188              	.LFB109:
1142:test/Test8.cpp **** private:
1143:test/Test8.cpp ****     Semaphore * sem;
1144:test/Test8.cpp **** public:
1145:test/Test8.cpp ****     testTRYWait(Semaphore* s): Thread(), sem(s){};
1146:test/Test8.cpp **** 
1147:test/Test8.cpp **** protected:
1148:test/Test8.cpp ****     void run() override{
 5189              		.loc 1 1148 10 is_stmt 1
 5190              		.cfi_startproc
 5191              	.LVL585:
 5192 0000 130101FD 		addi	sp,sp,-48
 5193              		.cfi_def_cfa_offset 48
 5194 0004 23341102 		sd	ra,40(sp)
 5195 0008 23308102 		sd	s0,32(sp)
 5196 000c 233C9100 		sd	s1,24(sp)
 5197 0010 23382101 		sd	s2,16(sp)
GAS LISTING /tmp/ccCnP6rB.s 			page 136


 5198 0014 23343101 		sd	s3,8(sp)
 5199 0018 23304101 		sd	s4,0(sp)
 5200              		.cfi_offset 1, -8
 5201              		.cfi_offset 8, -16
 5202              		.cfi_offset 9, -24
 5203              		.cfi_offset 18, -32
 5204              		.cfi_offset 19, -40
 5205              		.cfi_offset 20, -48
 5206 001c 13040103 		addi	s0,sp,48
 5207              		.cfi_def_cfa 8, 0
 5208 0020 13090500 		mv	s2,a0
1149:test/Test8.cpp ****         int i = 3;
 5209              		.loc 1 1149 9
 5210              	.LVL586:
 5211              		.loc 1 1149 13 is_stmt 0
 5212 0024 130A3000 		li	s4,3
 5213 0028 6F008016 		j	.L260
 5214              	.LVL587:
 5215              	.L262:
 5216              	.LBB297:
 5217              	.LBB298:
 5218              	.LBB299:
1150:test/Test8.cpp ****         while(i>0){
1151:test/Test8.cpp ****             int id = getThreadId();
1152:test/Test8.cpp ****             int res = sem->trywait();
1153:test/Test8.cpp ****             //thread_dispatch();
1154:test/Test8.cpp ****             if(res==1){
1155:test/Test8.cpp ****                 printString("Nit usla u kriticnu sekciju i smanjila semafor, njen id je: ");
 5219              		.loc 1 1155 17 is_stmt 1
 5220              		.loc 1 1155 28 is_stmt 0
 5221 002c 17050000 		lla	a0,.LC57
 5221      13050500 
 5222              	.LVL588:
 5223 0034 97000000 		call	_Z11printStringPKc@plt
 5223      E7800000 
 5224              	.LVL589:
1156:test/Test8.cpp ****                 printInt(id,10,0);
 5225              		.loc 1 1156 17 is_stmt 1
 5226              		.loc 1 1156 25 is_stmt 0
 5227 003c 13060000 		li	a2,0
 5228 0040 9305A000 		li	a1,10
 5229 0044 13850900 		mv	a0,s3
 5230 0048 97000000 		call	_Z8printIntiii@plt
 5230      E7800000 
 5231              	.LVL590:
1157:test/Test8.cpp ****                 printString("\n");
 5232              		.loc 1 1157 17 is_stmt 1
 5233              		.loc 1 1157 28 is_stmt 0
 5234 0050 17050000 		lla	a0,.LC1
 5234      13050500 
 5235 0058 97000000 		call	_Z11printStringPKc@plt
 5235      E7800000 
 5236              	.LVL591:
1158:test/Test8.cpp ****                 for(int j=0;j<10000;j++){
 5237              		.loc 1 1158 17 is_stmt 1
 5238              	.LBB300:
 5239              		.loc 1 1158 25 is_stmt 0
GAS LISTING /tmp/ccCnP6rB.s 			page 137


 5240 0060 93040000 		li	s1,0
 5241 0064 6F000001 		j	.L254
 5242              	.LVL592:
 5243              	.L252:
 5244              	.LBB301:
1159:test/Test8.cpp ****                     for(int k=0;k<30000;k++){}
1160:test/Test8.cpp ****                     thread_dispatch();
 5245              		.loc 1 1160 21 is_stmt 1 discriminator 2
 5246              		.loc 1 1160 36 is_stmt 0 discriminator 2
 5247 0068 97000000 		call	_Z15thread_dispatchv@plt
 5247      E7800000 
 5248              	.LVL593:
 5249              	.LBE301:
1158:test/Test8.cpp ****                 for(int j=0;j<10000;j++){
 5250              		.loc 1 1158 17 is_stmt 1 discriminator 2
 5251 0070 9B841400 		addiw	s1,s1,1
 5252              	.LVL594:
 5253              	.L254:
1158:test/Test8.cpp ****                 for(int j=0;j<10000;j++){
 5254              		.loc 1 1158 30 discriminator 1
 5255 0074 B7270000 		li	a5,8192
 5256 0078 9387F770 		addi	a5,a5,1807
 5257 007c 63CE9700 		bgt	s1,a5,.L251
 5258              	.LBB303:
 5259              	.LBB302:
1159:test/Test8.cpp ****                     for(int k=0;k<30000;k++){}
 5260              		.loc 1 1159 29 is_stmt 0
 5261 0080 13070000 		li	a4,0
 5262              	.L253:
 5263              	.LVL595:
1159:test/Test8.cpp ****                     for(int k=0;k<30000;k++){}
 5264              		.loc 1 1159 34 is_stmt 1 discriminator 3
 5265 0084 B7770000 		li	a5,28672
 5266 0088 9387F752 		addi	a5,a5,1327
 5267 008c E3CEE7FC 		bgt	a4,a5,.L252
1159:test/Test8.cpp ****                     for(int k=0;k<30000;k++){}
 5268              		.loc 1 1159 21 discriminator 2
 5269 0090 1B071700 		addiw	a4,a4,1
 5270              	.LVL596:
 5271 0094 6FF01FFF 		j	.L253
 5272              	.L251:
 5273              	.LBE302:
 5274              	.LBE303:
 5275              	.LBE300:
1161:test/Test8.cpp ****                 }
1162:test/Test8.cpp ****                 sem->signal();
 5276              		.loc 1 1162 17
 5277              		.loc 1 1162 28 is_stmt 0
 5278 0098 03350902 		ld	a0,32(s2)
 5279 009c 97000000 		call	_ZN9Semaphore6signalEv@plt
 5279      E7800000 
 5280              	.LVL597:
1163:test/Test8.cpp ****                 printString("Nit izasla iz kriticne sekcije, njen id je: ");
 5281              		.loc 1 1163 17 is_stmt 1
 5282              		.loc 1 1163 28 is_stmt 0
 5283 00a4 17050000 		lla	a0,.LC58
 5283      13050500 
GAS LISTING /tmp/ccCnP6rB.s 			page 138


 5284 00ac 97000000 		call	_Z11printStringPKc@plt
 5284      E7800000 
 5285              	.LVL598:
1164:test/Test8.cpp ****                 printInt(id,10,0);
 5286              		.loc 1 1164 17 is_stmt 1
 5287              		.loc 1 1164 25 is_stmt 0
 5288 00b4 13060000 		li	a2,0
 5289 00b8 9305A000 		li	a1,10
 5290 00bc 13850900 		mv	a0,s3
 5291 00c0 97000000 		call	_Z8printIntiii@plt
 5291      E7800000 
 5292              	.LVL599:
1165:test/Test8.cpp ****                 printString("\n");
 5293              		.loc 1 1165 17 is_stmt 1
 5294              		.loc 1 1165 28 is_stmt 0
 5295 00c8 17050000 		lla	a0,.LC1
 5295      13050500 
 5296 00d0 97000000 		call	_Z11printStringPKc@plt
 5296      E7800000 
 5297              	.LVL600:
1166:test/Test8.cpp **** 
1167:test/Test8.cpp ****                 break;
 5298              		.loc 1 1167 17 is_stmt 1
 5299              	.L249:
 5300              	.LBE299:
 5301              	.LBE298:
 5302              	.LBE297:
1168:test/Test8.cpp **** 
1169:test/Test8.cpp **** 
1170:test/Test8.cpp **** 
1171:test/Test8.cpp ****             }
1172:test/Test8.cpp ****             else if(res == -1){
1173:test/Test8.cpp ****                 printString("Nit nije uspela da se prodje semafor, nastavlja dalje, njen id je: ");
1174:test/Test8.cpp ****                 printInt(id,10,0);
1175:test/Test8.cpp ****                 printString("\n");
1176:test/Test8.cpp ****                 for(int j=0;j<10000;j++){
1177:test/Test8.cpp ****                     for(int k=0;k<30000;k++){}
1178:test/Test8.cpp ****                     thread_dispatch();
1179:test/Test8.cpp ****                 }
1180:test/Test8.cpp ****             }
1181:test/Test8.cpp ****             else{
1182:test/Test8.cpp ****                 printString("Semafor zatvoren i oslobodjen\n");
1183:test/Test8.cpp ****             }
1184:test/Test8.cpp ****             i--;
1185:test/Test8.cpp ****             thread_dispatch();
1186:test/Test8.cpp **** 
1187:test/Test8.cpp ****         }
1188:test/Test8.cpp ****         waitNiti->signal();
 5303              		.loc 1 1188 9
 5304              		.loc 1 1188 25 is_stmt 0
 5305 00d8 17050000 		ld	a0,.LANCHOR0+16
 5305      03350500 
 5306 00e0 97000000 		call	_ZN9Semaphore6signalEv@plt
 5306      E7800000 
 5307              	.LVL601:
1189:test/Test8.cpp ****         printString("Nit zavrsila\n");
 5308              		.loc 1 1189 9 is_stmt 1
GAS LISTING /tmp/ccCnP6rB.s 			page 139


 5309              		.loc 1 1189 20 is_stmt 0
 5310 00e8 17050000 		lla	a0,.LC61
 5310      13050500 
 5311 00f0 97000000 		call	_Z11printStringPKc@plt
 5311      E7800000 
 5312              	.LVL602:
1190:test/Test8.cpp ****     };
 5313              		.loc 1 1190 5
 5314 00f8 83308102 		ld	ra,40(sp)
 5315              		.cfi_remember_state
 5316              		.cfi_restore 1
 5317 00fc 03340102 		ld	s0,32(sp)
 5318              		.cfi_restore 8
 5319              		.cfi_def_cfa 2, 48
 5320 0100 83348101 		ld	s1,24(sp)
 5321              		.cfi_restore 9
 5322 0104 03390101 		ld	s2,16(sp)
 5323              		.cfi_restore 18
 5324              	.LVL603:
 5325 0108 83398100 		ld	s3,8(sp)
 5326              		.cfi_restore 19
 5327 010c 033A0100 		ld	s4,0(sp)
 5328              		.cfi_restore 20
 5329              	.LVL604:
 5330 0110 13010103 		addi	sp,sp,48
 5331              		.cfi_def_cfa_offset 0
 5332 0114 67800000 		jr	ra
 5333              	.LVL605:
 5334              	.L263:
 5335              		.cfi_restore_state
 5336              	.LBB314:
 5337              	.LBB311:
 5338              	.LBB304:
 5339              	.LBB305:
1173:test/Test8.cpp ****                 printInt(id,10,0);
 5340              		.loc 1 1173 17 is_stmt 1
1173:test/Test8.cpp ****                 printInt(id,10,0);
 5341              		.loc 1 1173 28 is_stmt 0
 5342 0118 17050000 		lla	a0,.LC59
 5342      13050500 
 5343              	.LVL606:
 5344 0120 97000000 		call	_Z11printStringPKc@plt
 5344      E7800000 
 5345              	.LVL607:
1174:test/Test8.cpp ****                 printString("\n");
 5346              		.loc 1 1174 17 is_stmt 1
1174:test/Test8.cpp ****                 printString("\n");
 5347              		.loc 1 1174 25 is_stmt 0
 5348 0128 13060000 		li	a2,0
 5349 012c 9305A000 		li	a1,10
 5350 0130 13850900 		mv	a0,s3
 5351 0134 97000000 		call	_Z8printIntiii@plt
 5351      E7800000 
 5352              	.LVL608:
1175:test/Test8.cpp ****                 for(int j=0;j<10000;j++){
 5353              		.loc 1 1175 17 is_stmt 1
1175:test/Test8.cpp ****                 for(int j=0;j<10000;j++){
GAS LISTING /tmp/ccCnP6rB.s 			page 140


 5354              		.loc 1 1175 28 is_stmt 0
 5355 013c 17050000 		lla	a0,.LC1
 5355      13050500 
 5356 0144 97000000 		call	_Z11printStringPKc@plt
 5356      E7800000 
 5357              	.LVL609:
1176:test/Test8.cpp ****                     for(int k=0;k<30000;k++){}
 5358              		.loc 1 1176 17 is_stmt 1
 5359              	.LBB306:
1176:test/Test8.cpp ****                     for(int k=0;k<30000;k++){}
 5360              		.loc 1 1176 25 is_stmt 0
 5361 014c 93040000 		li	s1,0
 5362 0150 6F000001 		j	.L259
 5363              	.LVL610:
 5364              	.L257:
 5365              	.LBB307:
1178:test/Test8.cpp ****                 }
 5366              		.loc 1 1178 21 is_stmt 1 discriminator 2
1178:test/Test8.cpp ****                 }
 5367              		.loc 1 1178 36 is_stmt 0 discriminator 2
 5368 0154 97000000 		call	_Z15thread_dispatchv@plt
 5368      E7800000 
 5369              	.LVL611:
 5370              	.LBE307:
1176:test/Test8.cpp ****                     for(int k=0;k<30000;k++){}
 5371              		.loc 1 1176 17 is_stmt 1 discriminator 2
 5372 015c 9B841400 		addiw	s1,s1,1
 5373              	.LVL612:
 5374              	.L259:
1176:test/Test8.cpp ****                     for(int k=0;k<30000;k++){}
 5375              		.loc 1 1176 30 discriminator 1
 5376 0160 B7270000 		li	a5,8192
 5377 0164 9387F770 		addi	a5,a5,1807
 5378 0168 63CE9700 		bgt	s1,a5,.L256
 5379              	.LBB309:
 5380              	.LBB308:
1177:test/Test8.cpp ****                     thread_dispatch();
 5381              		.loc 1 1177 29 is_stmt 0
 5382 016c 13070000 		li	a4,0
 5383              	.L258:
 5384              	.LVL613:
1177:test/Test8.cpp ****                     thread_dispatch();
 5385              		.loc 1 1177 34 is_stmt 1 discriminator 3
 5386 0170 B7770000 		li	a5,28672
 5387 0174 9387F752 		addi	a5,a5,1327
 5388 0178 E3CEE7FC 		bgt	a4,a5,.L257
1177:test/Test8.cpp ****                     thread_dispatch();
 5389              		.loc 1 1177 21 discriminator 2
 5390 017c 1B071700 		addiw	a4,a4,1
 5391              	.LVL614:
 5392 0180 6FF01FFF 		j	.L258
 5393              	.LVL615:
 5394              	.L256:
 5395              	.LBE308:
 5396              	.LBE309:
 5397              	.LBE306:
 5398              	.LBE305:
GAS LISTING /tmp/ccCnP6rB.s 			page 141


 5399              	.LBE304:
 5400              	.LBE311:
1184:test/Test8.cpp ****             thread_dispatch();
 5401              		.loc 1 1184 13
1184:test/Test8.cpp ****             thread_dispatch();
 5402              		.loc 1 1184 14 is_stmt 0
 5403 0184 1B0AFAFF 		addiw	s4,s4,-1
 5404              	.LVL616:
1185:test/Test8.cpp **** 
 5405              		.loc 1 1185 13 is_stmt 1
1185:test/Test8.cpp **** 
 5406              		.loc 1 1185 28 is_stmt 0
 5407 0188 97000000 		call	_Z15thread_dispatchv@plt
 5407      E7800000 
 5408              	.LVL617:
 5409              	.L260:
 5410              	.LBE314:
1150:test/Test8.cpp ****             int id = getThreadId();
 5411              		.loc 1 1150 9 is_stmt 1
1150:test/Test8.cpp ****             int id = getThreadId();
 5412              		.loc 1 1150 16
 5413 0190 E35440F5 		blez	s4,.L249
 5414              	.LBB315:
1151:test/Test8.cpp ****             int res = sem->trywait();
 5415              		.loc 1 1151 13
1151:test/Test8.cpp ****             int res = sem->trywait();
 5416              		.loc 1 1151 33 is_stmt 0
 5417 0194 13050900 		mv	a0,s2
 5418 0198 97000000 		call	_ZN6Thread11getThreadIdEv@plt
 5418      E7800000 
 5419              	.LVL618:
 5420 01a0 93090500 		mv	s3,a0
 5421              	.LVL619:
1152:test/Test8.cpp ****             //thread_dispatch();
 5422              		.loc 1 1152 13 is_stmt 1
1152:test/Test8.cpp ****             //thread_dispatch();
 5423              		.loc 1 1152 35 is_stmt 0
 5424 01a4 03350902 		ld	a0,32(s2)
 5425 01a8 97000000 		call	_ZN9Semaphore7trywaitEv@plt
 5425      E7800000 
 5426              	.LVL620:
1154:test/Test8.cpp ****                 printString("Nit usla u kriticnu sekciju i smanjila semafor, njen id je: ");
 5427              		.loc 1 1154 13 is_stmt 1
 5428              	.LBB312:
 5429 01b0 13071000 		li	a4,1
 5430 01b4 E30CE5E6 		beq	a0,a4,.L262
 5431              	.LBE312:
 5432              	.LBE315:
1172:test/Test8.cpp ****                 printString("Nit nije uspela da se prodje semafor, nastavlja dalje, njen id je: ");
 5433              		.loc 1 1172 18
 5434              	.LBB316:
 5435              	.LBB313:
 5436              	.LBB310:
 5437 01b8 1307F0FF 		li	a4,-1
 5438 01bc E30EE5F4 		beq	a0,a4,.L263
1182:test/Test8.cpp ****             }
 5439              		.loc 1 1182 17
GAS LISTING /tmp/ccCnP6rB.s 			page 142


1182:test/Test8.cpp ****             }
 5440              		.loc 1 1182 28 is_stmt 0
 5441 01c0 17050000 		lla	a0,.LC60
 5441      13050500 
 5442              	.LVL621:
 5443 01c8 97000000 		call	_Z11printStringPKc@plt
 5443      E7800000 
 5444              	.LVL622:
 5445 01d0 6FF05FFB 		j	.L256
 5446              	.LBE310:
 5447              	.LBE313:
 5448              	.LBE316:
 5449              		.cfi_endproc
 5450              	.LFE109:
 5452              		.section	.rodata.str1.8
 5453 0421 00000000 		.align	3
 5453      000000
 5454              	.LC62:
 5455 0428 4E697420 		.string	"Nit B kreirana - id: "
 5455      42206B72 
 5455      65697261 
 5455      6E61202D 
 5455      2069643A 
 5456 043e 0000     		.align	3
 5457              	.LC63:
 5458 0440 4E697420 		.string	"Nit C kreirana - id: "
 5458      43206B72 
 5458      65697261 
 5458      6E61202D 
 5458      2069643A 
 5459 0456 0000     		.align	3
 5460              	.LC64:
 5461 0458 41206F62 		.string	"A obrada...\n "
 5461      72616461 
 5461      2E2E2E0A 
 5461      2000
 5462 0466 0000     		.align	3
 5463              	.LC65:
 5464 0468 41207A61 		.string	"A zavrsila\n"
 5464      76727369 
 5464      6C610A00 
 5465              		.text
 5466              		.align	2
 5467              		.globl	_ZN2A43runEv
 5469              	_ZN2A43runEv:
 5470              	.LFB45:
 440:test/Test8.cpp **** 
 5471              		.loc 1 440 15 is_stmt 1
 5472              		.cfi_startproc
 5473              		.cfi_personality 0x9b,DW.ref.__gxx_personality_v0
 5474              		.cfi_lsda 0x1b,.LLSDA45
 5475              	.LVL623:
 5476 1680 130101FC 		addi	sp,sp,-64
 5477              		.cfi_def_cfa_offset 64
 5478 1684 233C1102 		sd	ra,56(sp)
 5479 1688 23388102 		sd	s0,48(sp)
 5480 168c 23349102 		sd	s1,40(sp)
GAS LISTING /tmp/ccCnP6rB.s 			page 143


 5481 1690 23302103 		sd	s2,32(sp)
 5482 1694 233C3101 		sd	s3,24(sp)
 5483 1698 23384101 		sd	s4,16(sp)
 5484 169c 23345101 		sd	s5,8(sp)
 5485              		.cfi_offset 1, -8
 5486              		.cfi_offset 8, -16
 5487              		.cfi_offset 9, -24
 5488              		.cfi_offset 18, -32
 5489              		.cfi_offset 19, -40
 5490              		.cfi_offset 20, -48
 5491              		.cfi_offset 21, -56
 5492 16a0 13040104 		addi	s0,sp,64
 5493              		.cfi_def_cfa 8, 0
 442:test/Test8.cpp ****     B4* b2 = new B4();
 5494              		.loc 1 442 5
 442:test/Test8.cpp ****     B4* b2 = new B4();
 5495              		.loc 1 442 21 is_stmt 0
 5496 16a4 13058002 		li	a0,40
 5497              	.LVL624:
 5498              	.LEHB0:
 5499 16a8 97000000 		call	_Znwm@plt
 5499      E7800000 
 5500              	.LVL625:
 5501              	.LEHE0:
 5502 16b0 930A0500 		mv	s5,a0
 5503              	.LVL626:
 5504              	.LEHB1:
 5505              	.LBB332:
 5506              	.LBB333:
 418:test/Test8.cpp ****         printString("Nit B kreirana - id: ");
 5507              		.loc 1 418 28
 5508 16b4 97000000 		call	_ZN6ThreadC2Ev@plt
 5508      E7800000 
 5509              	.LVL627:
 5510              	.LEHE1:
 5511 16bc 97070000 		lla	a5,_ZTV2B4+16
 5511      93870700 
 5512 16c4 23B0FA00 		sd	a5,0(s5)
 418:test/Test8.cpp ****         printString("Nit B kreirana - id: ");
 5513              		.loc 1 418 26
 5514 16c8 17070000 		lla	a4,.LANCHOR1
 5514      13070700 
 5515 16d0 83270700 		lw	a5,0(a4)
 5516 16d4 9B861700 		addiw	a3,a5,1
 5517 16d8 2320D700 		sw	a3,0(a4)
 418:test/Test8.cpp ****         printString("Nit B kreirana - id: ");
 5518              		.loc 1 418 28
 5519 16dc 23A0FA02 		sw	a5,32(s5)
 419:test/Test8.cpp ****         printInt(id);
 5520              		.loc 1 419 9 is_stmt 1
 419:test/Test8.cpp ****         printInt(id);
 5521              		.loc 1 419 20 is_stmt 0
 5522 16e0 17050000 		lla	a0,.LC62
 5522      13050500 
 5523              	.LEHB2:
 5524 16e8 97000000 		call	_Z11printStringPKc@plt
 5524      E7800000 
GAS LISTING /tmp/ccCnP6rB.s 			page 144


 5525              	.LVL628:
 420:test/Test8.cpp ****         printString("\n");
 5526              		.loc 1 420 9 is_stmt 1
 420:test/Test8.cpp ****         printString("\n");
 5527              		.loc 1 420 17 is_stmt 0
 5528 16f0 13060000 		li	a2,0
 5529 16f4 9305A000 		li	a1,10
 5530 16f8 03A50A02 		lw	a0,32(s5)
 5531 16fc 97000000 		call	_Z8printIntiii@plt
 5531      E7800000 
 5532              	.LVL629:
 421:test/Test8.cpp ****     }
 5533              		.loc 1 421 9 is_stmt 1
 421:test/Test8.cpp ****     }
 5534              		.loc 1 421 20 is_stmt 0
 5535 1704 17050000 		lla	a0,.LC1
 5535      13050500 
 5536 170c 97000000 		call	_Z11printStringPKc@plt
 5536      E7800000 
 5537              	.LVL630:
 5538              	.LEHE2:
 5539 1714 6F00C002 		j	.L295
 5540              	.L285:
 5541 1718 93040500 		mv	s1,a0
 418:test/Test8.cpp ****         printString("Nit B kreirana - id: ");
 5542              		.loc 1 418 28
 5543 171c 13850A00 		mv	a0,s5
 5544 1720 97000000 		call	_ZN6ThreadD2Ev@plt
 5544      E7800000 
 5545              	.LVL631:
 5546              	.L267:
 5547              	.LBE333:
 5548              	.LBE332:
 442:test/Test8.cpp ****     B4* b2 = new B4();
 5549              		.loc 1 442 21 discriminator 1
 5550 1728 13850A00 		mv	a0,s5
 5551 172c 97000000 		call	_ZdlPv@plt
 5551      E7800000 
 5552              	.LVL632:
 5553 1734 13850400 		mv	a0,s1
 5554              	.LEHB3:
 5555 1738 97000000 		call	_Unwind_Resume@plt
 5555      E7800000 
 5556              	.LVL633:
 5557              	.L295:
 443:test/Test8.cpp ****     B4* b3 = new B4();
 5558              		.loc 1 443 5 is_stmt 1 discriminator 2
 443:test/Test8.cpp ****     B4* b3 = new B4();
 5559              		.loc 1 443 21 is_stmt 0 discriminator 2
 5560 1740 13058002 		li	a0,40
 5561 1744 97000000 		call	_Znwm@plt
 5561      E7800000 
 5562              	.LVL634:
 5563              	.LEHE3:
 5564 174c 130A0500 		mv	s4,a0
 5565              	.LVL635:
 5566              	.LEHB4:
GAS LISTING /tmp/ccCnP6rB.s 			page 145


 5567              	.LBB334:
 5568              	.LBB335:
 418:test/Test8.cpp ****         printString("Nit B kreirana - id: ");
 5569              		.loc 1 418 28 discriminator 2
 5570 1750 97000000 		call	_ZN6ThreadC2Ev@plt
 5570      E7800000 
 5571              	.LVL636:
 5572              	.LEHE4:
 418:test/Test8.cpp ****         printString("Nit B kreirana - id: ");
 5573              		.loc 1 418 28
 5574 1758 97070000 		lla	a5,_ZTV2B4+16
 5574      93870700 
 5575 1760 2330FA00 		sd	a5,0(s4)
 418:test/Test8.cpp ****         printString("Nit B kreirana - id: ");
 5576              		.loc 1 418 26
 5577 1764 17070000 		lla	a4,.LANCHOR1
 5577      13070700 
 5578 176c 83270700 		lw	a5,0(a4)
 5579 1770 9B861700 		addiw	a3,a5,1
 5580 1774 2320D700 		sw	a3,0(a4)
 418:test/Test8.cpp ****         printString("Nit B kreirana - id: ");
 5581              		.loc 1 418 28
 5582 1778 2320FA02 		sw	a5,32(s4)
 419:test/Test8.cpp ****         printInt(id);
 5583              		.loc 1 419 9 is_stmt 1
 419:test/Test8.cpp ****         printInt(id);
 5584              		.loc 1 419 20 is_stmt 0
 5585 177c 17050000 		lla	a0,.LC62
 5585      13050500 
 5586              	.LEHB5:
 5587 1784 97000000 		call	_Z11printStringPKc@plt
 5587      E7800000 
 5588              	.LVL637:
 420:test/Test8.cpp ****         printString("\n");
 5589              		.loc 1 420 9 is_stmt 1
 420:test/Test8.cpp ****         printString("\n");
 5590              		.loc 1 420 17 is_stmt 0
 5591 178c 13060000 		li	a2,0
 5592 1790 9305A000 		li	a1,10
 5593 1794 03250A02 		lw	a0,32(s4)
 5594 1798 97000000 		call	_Z8printIntiii@plt
 5594      E7800000 
 5595              	.LVL638:
 421:test/Test8.cpp ****     }
 5596              		.loc 1 421 9 is_stmt 1
 421:test/Test8.cpp ****     }
 5597              		.loc 1 421 20 is_stmt 0
 5598 17a0 17050000 		lla	a0,.LC1
 5598      13050500 
 5599 17a8 97000000 		call	_Z11printStringPKc@plt
 5599      E7800000 
 5600              	.LVL639:
 5601              	.LEHE5:
 5602 17b0 6F00C002 		j	.L296
 5603              	.L286:
 5604 17b4 93040500 		mv	s1,a0
 418:test/Test8.cpp ****         printString("Nit B kreirana - id: ");
GAS LISTING /tmp/ccCnP6rB.s 			page 146


 5605              		.loc 1 418 28
 5606 17b8 13050A00 		mv	a0,s4
 5607 17bc 97000000 		call	_ZN6ThreadD2Ev@plt
 5607      E7800000 
 5608              	.LVL640:
 5609              	.L270:
 5610              	.LBE335:
 5611              	.LBE334:
 443:test/Test8.cpp ****     B4* b3 = new B4();
 5612              		.loc 1 443 21 discriminator 3
 5613 17c4 13050A00 		mv	a0,s4
 5614 17c8 97000000 		call	_ZdlPv@plt
 5614      E7800000 
 5615              	.LVL641:
 5616 17d0 13850400 		mv	a0,s1
 5617              	.LEHB6:
 5618 17d4 97000000 		call	_Unwind_Resume@plt
 5618      E7800000 
 5619              	.LVL642:
 5620              	.L296:
 444:test/Test8.cpp ****     C4* c1 = new C4();
 5621              		.loc 1 444 5 is_stmt 1 discriminator 4
 444:test/Test8.cpp ****     C4* c1 = new C4();
 5622              		.loc 1 444 21 is_stmt 0 discriminator 4
 5623 17dc 13058002 		li	a0,40
 5624 17e0 97000000 		call	_Znwm@plt
 5624      E7800000 
 5625              	.LVL643:
 5626              	.LEHE6:
 5627 17e8 93090500 		mv	s3,a0
 5628              	.LVL644:
 5629              	.LEHB7:
 5630              	.LBB336:
 5631              	.LBB337:
 418:test/Test8.cpp ****         printString("Nit B kreirana - id: ");
 5632              		.loc 1 418 28 discriminator 4
 5633 17ec 97000000 		call	_ZN6ThreadC2Ev@plt
 5633      E7800000 
 5634              	.LVL645:
 5635              	.LEHE7:
 418:test/Test8.cpp ****         printString("Nit B kreirana - id: ");
 5636              		.loc 1 418 28
 5637 17f4 97070000 		lla	a5,_ZTV2B4+16
 5637      93870700 
 5638 17fc 23B0F900 		sd	a5,0(s3)
 418:test/Test8.cpp ****         printString("Nit B kreirana - id: ");
 5639              		.loc 1 418 26
 5640 1800 17070000 		lla	a4,.LANCHOR1
 5640      13070700 
 5641 1808 83270700 		lw	a5,0(a4)
 5642 180c 9B861700 		addiw	a3,a5,1
 5643 1810 2320D700 		sw	a3,0(a4)
 418:test/Test8.cpp ****         printString("Nit B kreirana - id: ");
 5644              		.loc 1 418 28
 5645 1814 23A0F902 		sw	a5,32(s3)
 419:test/Test8.cpp ****         printInt(id);
 5646              		.loc 1 419 9 is_stmt 1
GAS LISTING /tmp/ccCnP6rB.s 			page 147


 419:test/Test8.cpp ****         printInt(id);
 5647              		.loc 1 419 20 is_stmt 0
 5648 1818 17050000 		lla	a0,.LC62
 5648      13050500 
 5649              	.LEHB8:
 5650 1820 97000000 		call	_Z11printStringPKc@plt
 5650      E7800000 
 5651              	.LVL646:
 420:test/Test8.cpp ****         printString("\n");
 5652              		.loc 1 420 9 is_stmt 1
 420:test/Test8.cpp ****         printString("\n");
 5653              		.loc 1 420 17 is_stmt 0
 5654 1828 13060000 		li	a2,0
 5655 182c 9305A000 		li	a1,10
 5656 1830 03A50902 		lw	a0,32(s3)
 5657 1834 97000000 		call	_Z8printIntiii@plt
 5657      E7800000 
 5658              	.LVL647:
 421:test/Test8.cpp ****     }
 5659              		.loc 1 421 9 is_stmt 1
 421:test/Test8.cpp ****     }
 5660              		.loc 1 421 20 is_stmt 0
 5661 183c 17050000 		lla	a0,.LC1
 5661      13050500 
 5662 1844 97000000 		call	_Z11printStringPKc@plt
 5662      E7800000 
 5663              	.LVL648:
 5664              	.LEHE8:
 5665 184c 6F00C002 		j	.L297
 5666              	.L287:
 5667 1850 93040500 		mv	s1,a0
 418:test/Test8.cpp ****         printString("Nit B kreirana - id: ");
 5668              		.loc 1 418 28
 5669 1854 13850900 		mv	a0,s3
 5670 1858 97000000 		call	_ZN6ThreadD2Ev@plt
 5670      E7800000 
 5671              	.LVL649:
 5672              	.L273:
 5673              	.LBE337:
 5674              	.LBE336:
 444:test/Test8.cpp ****     C4* c1 = new C4();
 5675              		.loc 1 444 21 discriminator 5
 5676 1860 13850900 		mv	a0,s3
 5677 1864 97000000 		call	_ZdlPv@plt
 5677      E7800000 
 5678              	.LVL650:
 5679 186c 13850400 		mv	a0,s1
 5680              	.LEHB9:
 5681 1870 97000000 		call	_Unwind_Resume@plt
 5681      E7800000 
 5682              	.LVL651:
 5683              	.L297:
 445:test/Test8.cpp ****     b1->start();
 5684              		.loc 1 445 5 is_stmt 1 discriminator 6
 445:test/Test8.cpp ****     b1->start();
 5685              		.loc 1 445 21 is_stmt 0 discriminator 6
 5686 1878 13058002 		li	a0,40
GAS LISTING /tmp/ccCnP6rB.s 			page 148


 5687 187c 97000000 		call	_Znwm@plt
 5687      E7800000 
 5688              	.LVL652:
 5689              	.LEHE9:
 5690 1884 13090500 		mv	s2,a0
 5691              	.LVL653:
 5692              	.LEHB10:
 5693              	.LBB338:
 5694              	.LBB339:
 431:test/Test8.cpp ****         printString("Nit C kreirana - id: ");
 5695              		.loc 1 431 28 discriminator 6
 5696 1888 97000000 		call	_ZN6ThreadC2Ev@plt
 5696      E7800000 
 5697              	.LVL654:
 5698              	.LEHE10:
 431:test/Test8.cpp ****         printString("Nit C kreirana - id: ");
 5699              		.loc 1 431 28
 5700 1890 97070000 		lla	a5,_ZTV2C4+16
 5700      93870700 
 5701 1898 2330F900 		sd	a5,0(s2)
 431:test/Test8.cpp ****         printString("Nit C kreirana - id: ");
 5702              		.loc 1 431 26
 5703 189c 17070000 		lla	a4,.LANCHOR1
 5703      13070700 
 5704 18a4 83270700 		lw	a5,0(a4)
 5705 18a8 9B861700 		addiw	a3,a5,1
 5706 18ac 2320D700 		sw	a3,0(a4)
 431:test/Test8.cpp ****         printString("Nit C kreirana - id: ");
 5707              		.loc 1 431 28
 5708 18b0 2320F902 		sw	a5,32(s2)
 432:test/Test8.cpp ****         printInt(id);
 5709              		.loc 1 432 9 is_stmt 1
 432:test/Test8.cpp ****         printInt(id);
 5710              		.loc 1 432 20 is_stmt 0
 5711 18b4 17050000 		lla	a0,.LC63
 5711      13050500 
 5712              	.LEHB11:
 5713 18bc 97000000 		call	_Z11printStringPKc@plt
 5713      E7800000 
 5714              	.LVL655:
 433:test/Test8.cpp ****         printString("\n");
 5715              		.loc 1 433 9 is_stmt 1
 433:test/Test8.cpp ****         printString("\n");
 5716              		.loc 1 433 17 is_stmt 0
 5717 18c4 13060000 		li	a2,0
 5718 18c8 9305A000 		li	a1,10
 5719 18cc 03250902 		lw	a0,32(s2)
 5720 18d0 97000000 		call	_Z8printIntiii@plt
 5720      E7800000 
 5721              	.LVL656:
 434:test/Test8.cpp ****     }
 5722              		.loc 1 434 9 is_stmt 1
 434:test/Test8.cpp ****     }
 5723              		.loc 1 434 20 is_stmt 0
 5724 18d8 17050000 		lla	a0,.LC1
 5724      13050500 
 5725 18e0 97000000 		call	_Z11printStringPKc@plt
GAS LISTING /tmp/ccCnP6rB.s 			page 149


 5725      E7800000 
 5726              	.LVL657:
 5727              	.LEHE11:
 5728 18e8 6F00C002 		j	.L298
 5729              	.L288:
 5730 18ec 93040500 		mv	s1,a0
 431:test/Test8.cpp ****         printString("Nit C kreirana - id: ");
 5731              		.loc 1 431 28
 5732 18f0 13050900 		mv	a0,s2
 5733 18f4 97000000 		call	_ZN6ThreadD2Ev@plt
 5733      E7800000 
 5734              	.LVL658:
 5735              	.L276:
 5736              	.LBE339:
 5737              	.LBE338:
 445:test/Test8.cpp ****     b1->start();
 5738              		.loc 1 445 21 discriminator 7
 5739 18fc 13050900 		mv	a0,s2
 5740 1900 97000000 		call	_ZdlPv@plt
 5740      E7800000 
 5741              	.LVL659:
 5742 1908 13850400 		mv	a0,s1
 5743              	.LEHB12:
 5744 190c 97000000 		call	_Unwind_Resume@plt
 5744      E7800000 
 5745              	.LVL660:
 5746              	.L298:
 446:test/Test8.cpp ****     b2->start();
 5747              		.loc 1 446 5 is_stmt 1
 446:test/Test8.cpp ****     b2->start();
 5748              		.loc 1 446 14 is_stmt 0
 5749 1914 13850A00 		mv	a0,s5
 5750 1918 97000000 		call	_ZN6Thread5startEv@plt
 5750      E7800000 
 5751              	.LVL661:
 447:test/Test8.cpp ****     b3->start();
 5752              		.loc 1 447 5 is_stmt 1
 447:test/Test8.cpp ****     b3->start();
 5753              		.loc 1 447 14 is_stmt 0
 5754 1920 13050A00 		mv	a0,s4
 5755 1924 97000000 		call	_ZN6Thread5startEv@plt
 5755      E7800000 
 5756              	.LVL662:
 448:test/Test8.cpp ****     c1->start();
 5757              		.loc 1 448 5 is_stmt 1
 448:test/Test8.cpp ****     c1->start();
 5758              		.loc 1 448 14 is_stmt 0
 5759 192c 13850900 		mv	a0,s3
 5760 1930 97000000 		call	_ZN6Thread5startEv@plt
 5760      E7800000 
 5761              	.LVL663:
 449:test/Test8.cpp ****     printString("A obrada...\n ");
 5762              		.loc 1 449 5 is_stmt 1
 449:test/Test8.cpp ****     printString("A obrada...\n ");
 5763              		.loc 1 449 14 is_stmt 0
 5764 1938 13050900 		mv	a0,s2
 5765 193c 97000000 		call	_ZN6Thread5startEv@plt
GAS LISTING /tmp/ccCnP6rB.s 			page 150


 5765      E7800000 
 5766              	.LVL664:
 450:test/Test8.cpp ****     for(int i=0;i<1000;i++){
 5767              		.loc 1 450 5 is_stmt 1
 450:test/Test8.cpp ****     for(int i=0;i<1000;i++){
 5768              		.loc 1 450 16 is_stmt 0
 5769 1944 17050000 		lla	a0,.LC64
 5769      13050500 
 5770 194c 97000000 		call	_Z11printStringPKc@plt
 5770      E7800000 
 5771              	.LVL665:
 451:test/Test8.cpp ****         for(int j=0;j<10000;j++){
 5772              		.loc 1 451 5 is_stmt 1
 5773              	.LBB340:
 451:test/Test8.cpp ****         for(int j=0;j<10000;j++){
 5774              		.loc 1 451 13 is_stmt 0
 5775 1954 93040000 		li	s1,0
 5776 1958 6F000001 		j	.L280
 5777              	.LVL666:
 5778              	.L278:
 5779              	.LBB341:
 455:test/Test8.cpp ****     }
 5780              		.loc 1 455 9 is_stmt 1 discriminator 2
 455:test/Test8.cpp ****     }
 5781              		.loc 1 455 24 is_stmt 0 discriminator 2
 5782 195c 97000000 		call	_Z15thread_dispatchv@plt
 5782      E7800000 
 5783              	.LVL667:
 5784              	.LBE341:
 451:test/Test8.cpp ****         for(int j=0;j<10000;j++){
 5785              		.loc 1 451 5 is_stmt 1 discriminator 2
 5786 1964 9B841400 		addiw	s1,s1,1
 5787              	.LVL668:
 5788              	.L280:
 451:test/Test8.cpp ****         for(int j=0;j<10000;j++){
 5789              		.loc 1 451 18 discriminator 1
 5790 1968 9307703E 		li	a5,999
 5791 196c 63CE9700 		bgt	s1,a5,.L277
 5792              	.LBB343:
 5793              	.LBB342:
 452:test/Test8.cpp **** 
 5794              		.loc 1 452 17 is_stmt 0
 5795 1970 13070000 		li	a4,0
 5796              	.L279:
 5797              	.LVL669:
 452:test/Test8.cpp **** 
 5798              		.loc 1 452 22 is_stmt 1 discriminator 3
 5799 1974 B7270000 		li	a5,8192
 5800 1978 9387F770 		addi	a5,a5,1807
 5801 197c E3C0E7FE 		bgt	a4,a5,.L278
 452:test/Test8.cpp **** 
 5802              		.loc 1 452 9 discriminator 2
 5803 1980 1B071700 		addiw	a4,a4,1
 5804              	.LVL670:
 5805 1984 6FF01FFF 		j	.L279
 5806              	.L277:
 5807              	.LBE342:
GAS LISTING /tmp/ccCnP6rB.s 			page 151


 5808              	.LBE343:
 5809              	.LBE340:
 457:test/Test8.cpp ****     printString("A zavrsila\n");
 5810              		.loc 1 457 5
 457:test/Test8.cpp ****     printString("A zavrsila\n");
 5811              		.loc 1 457 12 is_stmt 0
 5812 1988 97000000 		call	_ZN6Thread7joinALLEv@plt
 5812      E7800000 
 5813              	.LVL671:
 458:test/Test8.cpp **** 
 5814              		.loc 1 458 5 is_stmt 1
 458:test/Test8.cpp **** 
 5815              		.loc 1 458 16 is_stmt 0
 5816 1990 17050000 		lla	a0,.LC65
 5816      13050500 
 5817 1998 97000000 		call	_Z11printStringPKc@plt
 5817      E7800000 
 5818              	.LVL672:
 5819              	.LEHE12:
 461:test/Test8.cpp **** 
 5820              		.loc 1 461 1
 5821 19a0 83308103 		ld	ra,56(sp)
 5822              		.cfi_remember_state
 5823              		.cfi_restore 1
 5824 19a4 03340103 		ld	s0,48(sp)
 5825              		.cfi_restore 8
 5826              		.cfi_def_cfa 2, 64
 5827 19a8 83348102 		ld	s1,40(sp)
 5828              		.cfi_restore 9
 5829              	.LVL673:
 5830 19ac 03390102 		ld	s2,32(sp)
 5831              		.cfi_restore 18
 5832              	.LVL674:
 5833 19b0 83398101 		ld	s3,24(sp)
 5834              		.cfi_restore 19
 5835              	.LVL675:
 5836 19b4 033A0101 		ld	s4,16(sp)
 5837              		.cfi_restore 20
 5838              	.LVL676:
 5839 19b8 833A8100 		ld	s5,8(sp)
 5840              		.cfi_restore 21
 5841              	.LVL677:
 5842 19bc 13010104 		addi	sp,sp,64
 5843              		.cfi_def_cfa_offset 0
 5844 19c0 67800000 		jr	ra
 5845              	.LVL678:
 5846              	.L281:
 5847              		.cfi_restore_state
 5848 19c4 93040500 		mv	s1,a0
 5849 19c8 6FF01FD6 		j	.L267
 5850              	.LVL679:
 5851              	.L282:
 5852 19cc 93040500 		mv	s1,a0
 5853 19d0 6FF05FDF 		j	.L270
 5854              	.LVL680:
 5855              	.L283:
 5856 19d4 93040500 		mv	s1,a0
GAS LISTING /tmp/ccCnP6rB.s 			page 152


 5857 19d8 6FF09FE8 		j	.L273
 5858              	.LVL681:
 5859              	.L284:
 5860 19dc 93040500 		mv	s1,a0
 5861 19e0 6FF0DFF1 		j	.L276
 5862              		.cfi_endproc
 5863              	.LFE45:
 5864              		.globl	__gxx_personality_v0
 5865              		.section	.gcc_except_table,"a",@progbits
 5866              	.LLSDA45:
 5867 0000 FF       		.byte	0xff
 5868 0001 FF       		.byte	0xff
 5869 0002 03       		.byte	0x3
 5870 0003 A901     		.byte	0xa9,0x1
 5871 0005 00000000 		.4byte	.LEHB0-.LFB45
 5872 0009 00000000 		.4byte	.LEHE0-.LEHB0
 5873 000d 00000000 		.4byte	0
 5874 0011 00       		.byte	0
 5875 0012 00000000 		.4byte	.LEHB1-.LFB45
 5876 0016 00000000 		.4byte	.LEHE1-.LEHB1
 5877 001a 00000000 		.4byte	.L281-.LFB45
 5878 001e 00       		.byte	0
 5879 001f 00000000 		.4byte	.LEHB2-.LFB45
 5880 0023 00000000 		.4byte	.LEHE2-.LEHB2
 5881 0027 00000000 		.4byte	.L285-.LFB45
 5882 002b 00       		.byte	0
 5883 002c 00000000 		.4byte	.LEHB3-.LFB45
 5884 0030 00000000 		.4byte	.LEHE3-.LEHB3
 5885 0034 00000000 		.4byte	0
 5886 0038 00       		.byte	0
 5887 0039 00000000 		.4byte	.LEHB4-.LFB45
 5888 003d 00000000 		.4byte	.LEHE4-.LEHB4
 5889 0041 00000000 		.4byte	.L282-.LFB45
 5890 0045 00       		.byte	0
 5891 0046 00000000 		.4byte	.LEHB5-.LFB45
 5892 004a 00000000 		.4byte	.LEHE5-.LEHB5
 5893 004e 00000000 		.4byte	.L286-.LFB45
 5894 0052 00       		.byte	0
 5895 0053 00000000 		.4byte	.LEHB6-.LFB45
 5896 0057 00000000 		.4byte	.LEHE6-.LEHB6
 5897 005b 00000000 		.4byte	0
 5898 005f 00       		.byte	0
 5899 0060 00000000 		.4byte	.LEHB7-.LFB45
 5900 0064 00000000 		.4byte	.LEHE7-.LEHB7
 5901 0068 00000000 		.4byte	.L283-.LFB45
 5902 006c 00       		.byte	0
 5903 006d 00000000 		.4byte	.LEHB8-.LFB45
 5904 0071 00000000 		.4byte	.LEHE8-.LEHB8
 5905 0075 00000000 		.4byte	.L287-.LFB45
 5906 0079 00       		.byte	0
 5907 007a 00000000 		.4byte	.LEHB9-.LFB45
 5908 007e 00000000 		.4byte	.LEHE9-.LEHB9
 5909 0082 00000000 		.4byte	0
 5910 0086 00       		.byte	0
 5911 0087 00000000 		.4byte	.LEHB10-.LFB45
 5912 008b 00000000 		.4byte	.LEHE10-.LEHB10
 5913 008f 00000000 		.4byte	.L284-.LFB45
GAS LISTING /tmp/ccCnP6rB.s 			page 153


 5914 0093 00       		.byte	0
 5915 0094 00000000 		.4byte	.LEHB11-.LFB45
 5916 0098 00000000 		.4byte	.LEHE11-.LEHB11
 5917 009c 00000000 		.4byte	.L288-.LFB45
 5918 00a0 00       		.byte	0
 5919 00a1 00000000 		.4byte	.LEHB12-.LFB45
 5920 00a5 00000000 		.4byte	.LEHE12-.LEHB12
 5921 00a9 00000000 		.4byte	0
 5922 00ad 00       		.byte	0
 5923              		.text
 5925              		.section	.rodata.str1.8
 5926 0474 00000000 		.align	3
 5927              	.LC66:
 5928 0478 42206F62 		.string	"B obrada...\n"
 5928      72616461 
 5928      2E2E2E0A 
 5928      00
 5929 0485 000000   		.align	3
 5930              	.LC67:
 5931 0488 42207A61 		.string	"B zavrsila \n"
 5931      76727369 
 5931      6C61200A 
 5931      00
 5932              		.text
 5933              		.align	2
 5934              		.globl	_ZN2B43runEv
 5936              	_ZN2B43runEv:
 5937              	.LFB46:
 463:test/Test8.cpp **** 
 5938              		.loc 1 463 15 is_stmt 1
 5939              		.cfi_startproc
 5940              		.cfi_personality 0x9b,DW.ref.__gxx_personality_v0
 5941              		.cfi_lsda 0x1b,.LLSDA46
 5942              	.LVL682:
 5943 19e4 130101FD 		addi	sp,sp,-48
 5944              		.cfi_def_cfa_offset 48
 5945 19e8 23341102 		sd	ra,40(sp)
 5946 19ec 23308102 		sd	s0,32(sp)
 5947 19f0 233C9100 		sd	s1,24(sp)
 5948 19f4 23382101 		sd	s2,16(sp)
 5949 19f8 23343101 		sd	s3,8(sp)
 5950 19fc 23304101 		sd	s4,0(sp)
 5951              		.cfi_offset 1, -8
 5952              		.cfi_offset 8, -16
 5953              		.cfi_offset 9, -24
 5954              		.cfi_offset 18, -32
 5955              		.cfi_offset 19, -40
 5956              		.cfi_offset 20, -48
 5957 1a00 13040103 		addi	s0,sp,48
 5958              		.cfi_def_cfa 8, 0
 465:test/Test8.cpp ****     C4* c2 = new C4();
 5959              		.loc 1 465 5
 465:test/Test8.cpp ****     C4* c2 = new C4();
 5960              		.loc 1 465 21 is_stmt 0
 5961 1a04 13058002 		li	a0,40
 5962              	.LVL683:
 5963              	.LEHB13:
GAS LISTING /tmp/ccCnP6rB.s 			page 154


 5964 1a08 97000000 		call	_Znwm@plt
 5964      E7800000 
 5965              	.LVL684:
 5966              	.LEHE13:
 5967 1a10 130A0500 		mv	s4,a0
 5968              	.LVL685:
 5969              	.LEHB14:
 5970              	.LBB356:
 5971              	.LBB357:
 431:test/Test8.cpp ****         printString("Nit C kreirana - id: ");
 5972              		.loc 1 431 28
 5973 1a14 97000000 		call	_ZN6ThreadC2Ev@plt
 5973      E7800000 
 5974              	.LVL686:
 5975              	.LEHE14:
 5976 1a1c 97070000 		lla	a5,_ZTV2C4+16
 5976      93870700 
 5977 1a24 2330FA00 		sd	a5,0(s4)
 431:test/Test8.cpp ****         printString("Nit C kreirana - id: ");
 5978              		.loc 1 431 26
 5979 1a28 17070000 		lla	a4,.LANCHOR1
 5979      13070700 
 5980 1a30 83270700 		lw	a5,0(a4)
 5981 1a34 9B861700 		addiw	a3,a5,1
 5982 1a38 2320D700 		sw	a3,0(a4)
 431:test/Test8.cpp ****         printString("Nit C kreirana - id: ");
 5983              		.loc 1 431 28
 5984 1a3c 2320FA02 		sw	a5,32(s4)
 432:test/Test8.cpp ****         printInt(id);
 5985              		.loc 1 432 9 is_stmt 1
 432:test/Test8.cpp ****         printInt(id);
 5986              		.loc 1 432 20 is_stmt 0
 5987 1a40 17050000 		lla	a0,.LC63
 5987      13050500 
 5988              	.LEHB15:
 5989 1a48 97000000 		call	_Z11printStringPKc@plt
 5989      E7800000 
 5990              	.LVL687:
 433:test/Test8.cpp ****         printString("\n");
 5991              		.loc 1 433 9 is_stmt 1
 433:test/Test8.cpp ****         printString("\n");
 5992              		.loc 1 433 17 is_stmt 0
 5993 1a50 13060000 		li	a2,0
 5994 1a54 9305A000 		li	a1,10
 5995 1a58 03250A02 		lw	a0,32(s4)
 5996 1a5c 97000000 		call	_Z8printIntiii@plt
 5996      E7800000 
 5997              	.LVL688:
 434:test/Test8.cpp ****     }
 5998              		.loc 1 434 9 is_stmt 1
 434:test/Test8.cpp ****     }
 5999              		.loc 1 434 20 is_stmt 0
 6000 1a64 17050000 		lla	a0,.LC1
 6000      13050500 
 6001 1a6c 97000000 		call	_Z11printStringPKc@plt
 6001      E7800000 
 6002              	.LVL689:
GAS LISTING /tmp/ccCnP6rB.s 			page 155


 6003              	.LEHE15:
 6004 1a74 6F00C002 		j	.L324
 6005              	.L316:
 6006 1a78 93040500 		mv	s1,a0
 431:test/Test8.cpp ****         printString("Nit C kreirana - id: ");
 6007              		.loc 1 431 28
 6008 1a7c 13050A00 		mv	a0,s4
 6009 1a80 97000000 		call	_ZN6ThreadD2Ev@plt
 6009      E7800000 
 6010              	.LVL690:
 6011              	.L302:
 6012              	.LBE357:
 6013              	.LBE356:
 465:test/Test8.cpp ****     C4* c2 = new C4();
 6014              		.loc 1 465 21 discriminator 1
 6015 1a88 13050A00 		mv	a0,s4
 6016 1a8c 97000000 		call	_ZdlPv@plt
 6016      E7800000 
 6017              	.LVL691:
 6018 1a94 13850400 		mv	a0,s1
 6019              	.LEHB16:
 6020 1a98 97000000 		call	_Unwind_Resume@plt
 6020      E7800000 
 6021              	.LVL692:
 6022              	.L324:
 466:test/Test8.cpp ****     C4* c3 = new C4();
 6023              		.loc 1 466 5 is_stmt 1 discriminator 2
 466:test/Test8.cpp ****     C4* c3 = new C4();
 6024              		.loc 1 466 21 is_stmt 0 discriminator 2
 6025 1aa0 13058002 		li	a0,40
 6026 1aa4 97000000 		call	_Znwm@plt
 6026      E7800000 
 6027              	.LVL693:
 6028              	.LEHE16:
 6029 1aac 93090500 		mv	s3,a0
 6030              	.LVL694:
 6031              	.LEHB17:
 6032              	.LBB358:
 6033              	.LBB359:
 431:test/Test8.cpp ****         printString("Nit C kreirana - id: ");
 6034              		.loc 1 431 28 discriminator 2
 6035 1ab0 97000000 		call	_ZN6ThreadC2Ev@plt
 6035      E7800000 
 6036              	.LVL695:
 6037              	.LEHE17:
 431:test/Test8.cpp ****         printString("Nit C kreirana - id: ");
 6038              		.loc 1 431 28
 6039 1ab8 97070000 		lla	a5,_ZTV2C4+16
 6039      93870700 
 6040 1ac0 23B0F900 		sd	a5,0(s3)
 431:test/Test8.cpp ****         printString("Nit C kreirana - id: ");
 6041              		.loc 1 431 26
 6042 1ac4 17070000 		lla	a4,.LANCHOR1
 6042      13070700 
 6043 1acc 83270700 		lw	a5,0(a4)
 6044 1ad0 9B861700 		addiw	a3,a5,1
 6045 1ad4 2320D700 		sw	a3,0(a4)
GAS LISTING /tmp/ccCnP6rB.s 			page 156


 431:test/Test8.cpp ****         printString("Nit C kreirana - id: ");
 6046              		.loc 1 431 28
 6047 1ad8 23A0F902 		sw	a5,32(s3)
 432:test/Test8.cpp ****         printInt(id);
 6048              		.loc 1 432 9 is_stmt 1
 432:test/Test8.cpp ****         printInt(id);
 6049              		.loc 1 432 20 is_stmt 0
 6050 1adc 17050000 		lla	a0,.LC63
 6050      13050500 
 6051              	.LEHB18:
 6052 1ae4 97000000 		call	_Z11printStringPKc@plt
 6052      E7800000 
 6053              	.LVL696:
 433:test/Test8.cpp ****         printString("\n");
 6054              		.loc 1 433 9 is_stmt 1
 433:test/Test8.cpp ****         printString("\n");
 6055              		.loc 1 433 17 is_stmt 0
 6056 1aec 13060000 		li	a2,0
 6057 1af0 9305A000 		li	a1,10
 6058 1af4 03A50902 		lw	a0,32(s3)
 6059 1af8 97000000 		call	_Z8printIntiii@plt
 6059      E7800000 
 6060              	.LVL697:
 434:test/Test8.cpp ****     }
 6061              		.loc 1 434 9 is_stmt 1
 434:test/Test8.cpp ****     }
 6062              		.loc 1 434 20 is_stmt 0
 6063 1b00 17050000 		lla	a0,.LC1
 6063      13050500 
 6064 1b08 97000000 		call	_Z11printStringPKc@plt
 6064      E7800000 
 6065              	.LVL698:
 6066              	.LEHE18:
 6067 1b10 6F00C002 		j	.L325
 6068              	.L317:
 6069 1b14 93040500 		mv	s1,a0
 431:test/Test8.cpp ****         printString("Nit C kreirana - id: ");
 6070              		.loc 1 431 28
 6071 1b18 13850900 		mv	a0,s3
 6072 1b1c 97000000 		call	_ZN6ThreadD2Ev@plt
 6072      E7800000 
 6073              	.LVL699:
 6074              	.L305:
 6075              	.LBE359:
 6076              	.LBE358:
 466:test/Test8.cpp ****     C4* c3 = new C4();
 6077              		.loc 1 466 21 discriminator 3
 6078 1b24 13850900 		mv	a0,s3
 6079 1b28 97000000 		call	_ZdlPv@plt
 6079      E7800000 
 6080              	.LVL700:
 6081 1b30 13850400 		mv	a0,s1
 6082              	.LEHB19:
 6083 1b34 97000000 		call	_Unwind_Resume@plt
 6083      E7800000 
 6084              	.LVL701:
 6085              	.L325:
GAS LISTING /tmp/ccCnP6rB.s 			page 157


 467:test/Test8.cpp ****     c1->start();
 6086              		.loc 1 467 5 is_stmt 1 discriminator 4
 467:test/Test8.cpp ****     c1->start();
 6087              		.loc 1 467 21 is_stmt 0 discriminator 4
 6088 1b3c 13058002 		li	a0,40
 6089 1b40 97000000 		call	_Znwm@plt
 6089      E7800000 
 6090              	.LVL702:
 6091              	.LEHE19:
 6092 1b48 13090500 		mv	s2,a0
 6093              	.LVL703:
 6094              	.LEHB20:
 6095              	.LBB360:
 6096              	.LBB361:
 431:test/Test8.cpp ****         printString("Nit C kreirana - id: ");
 6097              		.loc 1 431 28 discriminator 4
 6098 1b4c 97000000 		call	_ZN6ThreadC2Ev@plt
 6098      E7800000 
 6099              	.LVL704:
 6100              	.LEHE20:
 431:test/Test8.cpp ****         printString("Nit C kreirana - id: ");
 6101              		.loc 1 431 28
 6102 1b54 97070000 		lla	a5,_ZTV2C4+16
 6102      93870700 
 6103 1b5c 2330F900 		sd	a5,0(s2)
 431:test/Test8.cpp ****         printString("Nit C kreirana - id: ");
 6104              		.loc 1 431 26
 6105 1b60 17070000 		lla	a4,.LANCHOR1
 6105      13070700 
 6106 1b68 83270700 		lw	a5,0(a4)
 6107 1b6c 9B861700 		addiw	a3,a5,1
 6108 1b70 2320D700 		sw	a3,0(a4)
 431:test/Test8.cpp ****         printString("Nit C kreirana - id: ");
 6109              		.loc 1 431 28
 6110 1b74 2320F902 		sw	a5,32(s2)
 432:test/Test8.cpp ****         printInt(id);
 6111              		.loc 1 432 9 is_stmt 1
 432:test/Test8.cpp ****         printInt(id);
 6112              		.loc 1 432 20 is_stmt 0
 6113 1b78 17050000 		lla	a0,.LC63
 6113      13050500 
 6114              	.LEHB21:
 6115 1b80 97000000 		call	_Z11printStringPKc@plt
 6115      E7800000 
 6116              	.LVL705:
 433:test/Test8.cpp ****         printString("\n");
 6117              		.loc 1 433 9 is_stmt 1
 433:test/Test8.cpp ****         printString("\n");
 6118              		.loc 1 433 17 is_stmt 0
 6119 1b88 13060000 		li	a2,0
 6120 1b8c 9305A000 		li	a1,10
 6121 1b90 03250902 		lw	a0,32(s2)
 6122 1b94 97000000 		call	_Z8printIntiii@plt
 6122      E7800000 
 6123              	.LVL706:
 434:test/Test8.cpp ****     }
 6124              		.loc 1 434 9 is_stmt 1
GAS LISTING /tmp/ccCnP6rB.s 			page 158


 434:test/Test8.cpp ****     }
 6125              		.loc 1 434 20 is_stmt 0
 6126 1b9c 17050000 		lla	a0,.LC1
 6126      13050500 
 6127 1ba4 97000000 		call	_Z11printStringPKc@plt
 6127      E7800000 
 6128              	.LVL707:
 6129              	.LEHE21:
 6130 1bac 6F00C002 		j	.L326
 6131              	.L318:
 6132 1bb0 93040500 		mv	s1,a0
 431:test/Test8.cpp ****         printString("Nit C kreirana - id: ");
 6133              		.loc 1 431 28
 6134 1bb4 13050900 		mv	a0,s2
 6135 1bb8 97000000 		call	_ZN6ThreadD2Ev@plt
 6135      E7800000 
 6136              	.LVL708:
 6137              	.L308:
 6138              	.LBE361:
 6139              	.LBE360:
 467:test/Test8.cpp ****     c1->start();
 6140              		.loc 1 467 21 discriminator 5
 6141 1bc0 13050900 		mv	a0,s2
 6142 1bc4 97000000 		call	_ZdlPv@plt
 6142      E7800000 
 6143              	.LVL709:
 6144 1bcc 13850400 		mv	a0,s1
 6145              	.LEHB22:
 6146 1bd0 97000000 		call	_Unwind_Resume@plt
 6146      E7800000 
 6147              	.LVL710:
 6148              	.L326:
 468:test/Test8.cpp ****     c2->start();
 6149              		.loc 1 468 5 is_stmt 1
 468:test/Test8.cpp ****     c2->start();
 6150              		.loc 1 468 14 is_stmt 0
 6151 1bd8 13050A00 		mv	a0,s4
 6152 1bdc 97000000 		call	_ZN6Thread5startEv@plt
 6152      E7800000 
 6153              	.LVL711:
 469:test/Test8.cpp ****     c3->start();
 6154              		.loc 1 469 5 is_stmt 1
 469:test/Test8.cpp ****     c3->start();
 6155              		.loc 1 469 14 is_stmt 0
 6156 1be4 13850900 		mv	a0,s3
 6157 1be8 97000000 		call	_ZN6Thread5startEv@plt
 6157      E7800000 
 6158              	.LVL712:
 470:test/Test8.cpp ****     printString("B obrada...\n");
 6159              		.loc 1 470 5 is_stmt 1
 470:test/Test8.cpp ****     printString("B obrada...\n");
 6160              		.loc 1 470 14 is_stmt 0
 6161 1bf0 13050900 		mv	a0,s2
 6162 1bf4 97000000 		call	_ZN6Thread5startEv@plt
 6162      E7800000 
 6163              	.LVL713:
 471:test/Test8.cpp ****     for(int i=0;i<1000;i++){
GAS LISTING /tmp/ccCnP6rB.s 			page 159


 6164              		.loc 1 471 5 is_stmt 1
 471:test/Test8.cpp ****     for(int i=0;i<1000;i++){
 6165              		.loc 1 471 16 is_stmt 0
 6166 1bfc 17050000 		lla	a0,.LC66
 6166      13050500 
 6167 1c04 97000000 		call	_Z11printStringPKc@plt
 6167      E7800000 
 6168              	.LVL714:
 472:test/Test8.cpp ****         for(int j=0;j<10000;j++){
 6169              		.loc 1 472 5 is_stmt 1
 6170              	.LBB362:
 472:test/Test8.cpp ****         for(int j=0;j<10000;j++){
 6171              		.loc 1 472 13 is_stmt 0
 6172 1c0c 93040000 		li	s1,0
 6173 1c10 6F000001 		j	.L312
 6174              	.LVL715:
 6175              	.L310:
 6176              	.LBB363:
 476:test/Test8.cpp ****     }
 6177              		.loc 1 476 9 is_stmt 1 discriminator 2
 476:test/Test8.cpp ****     }
 6178              		.loc 1 476 24 is_stmt 0 discriminator 2
 6179 1c14 97000000 		call	_Z15thread_dispatchv@plt
 6179      E7800000 
 6180              	.LVL716:
 6181              	.LBE363:
 472:test/Test8.cpp ****         for(int j=0;j<10000;j++){
 6182              		.loc 1 472 5 is_stmt 1 discriminator 2
 6183 1c1c 9B841400 		addiw	s1,s1,1
 6184              	.LVL717:
 6185              	.L312:
 472:test/Test8.cpp ****         for(int j=0;j<10000;j++){
 6186              		.loc 1 472 18 discriminator 1
 6187 1c20 9307703E 		li	a5,999
 6188 1c24 63CE9700 		bgt	s1,a5,.L309
 6189              	.LBB365:
 6190              	.LBB364:
 473:test/Test8.cpp **** 
 6191              		.loc 1 473 17 is_stmt 0
 6192 1c28 13070000 		li	a4,0
 6193              	.L311:
 6194              	.LVL718:
 473:test/Test8.cpp **** 
 6195              		.loc 1 473 22 is_stmt 1 discriminator 3
 6196 1c2c B7270000 		li	a5,8192
 6197 1c30 9387F770 		addi	a5,a5,1807
 6198 1c34 E3C0E7FE 		bgt	a4,a5,.L310
 473:test/Test8.cpp **** 
 6199              		.loc 1 473 9 discriminator 2
 6200 1c38 1B071700 		addiw	a4,a4,1
 6201              	.LVL719:
 6202 1c3c 6FF01FFF 		j	.L311
 6203              	.L309:
 6204              	.LBE364:
 6205              	.LBE365:
 6206              	.LBE362:
 478:test/Test8.cpp ****     printString("B zavrsila \n");
GAS LISTING /tmp/ccCnP6rB.s 			page 160


 6207              		.loc 1 478 5
 478:test/Test8.cpp ****     printString("B zavrsila \n");
 6208              		.loc 1 478 12 is_stmt 0
 6209 1c40 97000000 		call	_ZN6Thread7joinALLEv@plt
 6209      E7800000 
 6210              	.LVL720:
 479:test/Test8.cpp **** 
 6211              		.loc 1 479 5 is_stmt 1
 479:test/Test8.cpp **** 
 6212              		.loc 1 479 16 is_stmt 0
 6213 1c48 17050000 		lla	a0,.LC67
 6213      13050500 
 6214 1c50 97000000 		call	_Z11printStringPKc@plt
 6214      E7800000 
 6215              	.LVL721:
 6216              	.LEHE22:
 481:test/Test8.cpp **** void C4::run(){
 6217              		.loc 1 481 1
 6218 1c58 83308102 		ld	ra,40(sp)
 6219              		.cfi_remember_state
 6220              		.cfi_restore 1
 6221 1c5c 03340102 		ld	s0,32(sp)
 6222              		.cfi_restore 8
 6223              		.cfi_def_cfa 2, 48
 6224 1c60 83348101 		ld	s1,24(sp)
 6225              		.cfi_restore 9
 6226              	.LVL722:
 6227 1c64 03390101 		ld	s2,16(sp)
 6228              		.cfi_restore 18
 6229              	.LVL723:
 6230 1c68 83398100 		ld	s3,8(sp)
 6231              		.cfi_restore 19
 6232              	.LVL724:
 6233 1c6c 033A0100 		ld	s4,0(sp)
 6234              		.cfi_restore 20
 6235              	.LVL725:
 6236 1c70 13010103 		addi	sp,sp,48
 6237              		.cfi_def_cfa_offset 0
 6238 1c74 67800000 		jr	ra
 6239              	.LVL726:
 6240              	.L313:
 6241              		.cfi_restore_state
 6242 1c78 93040500 		mv	s1,a0
 6243 1c7c 6FF0DFE0 		j	.L302
 6244              	.LVL727:
 6245              	.L314:
 6246 1c80 93040500 		mv	s1,a0
 6247 1c84 6FF01FEA 		j	.L305
 6248              	.LVL728:
 6249              	.L315:
 6250 1c88 93040500 		mv	s1,a0
 6251 1c8c 6FF05FF3 		j	.L308
 6252              		.cfi_endproc
 6253              	.LFE46:
 6254              		.section	.gcc_except_table
 6255              	.LLSDA46:
 6256 00ae FF       		.byte	0xff
GAS LISTING /tmp/ccCnP6rB.s 			page 161


 6257 00af FF       		.byte	0xff
 6258 00b0 03       		.byte	0x3
 6259 00b1 8201     		.byte	0x82,0x1
 6260 00b3 00000000 		.4byte	.LEHB13-.LFB46
 6261 00b7 00000000 		.4byte	.LEHE13-.LEHB13
 6262 00bb 00000000 		.4byte	0
 6263 00bf 00       		.byte	0
 6264 00c0 00000000 		.4byte	.LEHB14-.LFB46
 6265 00c4 00000000 		.4byte	.LEHE14-.LEHB14
 6266 00c8 00000000 		.4byte	.L313-.LFB46
 6267 00cc 00       		.byte	0
 6268 00cd 00000000 		.4byte	.LEHB15-.LFB46
 6269 00d1 00000000 		.4byte	.LEHE15-.LEHB15
 6270 00d5 00000000 		.4byte	.L316-.LFB46
 6271 00d9 00       		.byte	0
 6272 00da 00000000 		.4byte	.LEHB16-.LFB46
 6273 00de 00000000 		.4byte	.LEHE16-.LEHB16
 6274 00e2 00000000 		.4byte	0
 6275 00e6 00       		.byte	0
 6276 00e7 00000000 		.4byte	.LEHB17-.LFB46
 6277 00eb 00000000 		.4byte	.LEHE17-.LEHB17
 6278 00ef 00000000 		.4byte	.L314-.LFB46
 6279 00f3 00       		.byte	0
 6280 00f4 00000000 		.4byte	.LEHB18-.LFB46
 6281 00f8 00000000 		.4byte	.LEHE18-.LEHB18
 6282 00fc 00000000 		.4byte	.L317-.LFB46
 6283 0100 00       		.byte	0
 6284 0101 00000000 		.4byte	.LEHB19-.LFB46
 6285 0105 00000000 		.4byte	.LEHE19-.LEHB19
 6286 0109 00000000 		.4byte	0
 6287 010d 00       		.byte	0
 6288 010e 00000000 		.4byte	.LEHB20-.LFB46
 6289 0112 00000000 		.4byte	.LEHE20-.LEHB20
 6290 0116 00000000 		.4byte	.L315-.LFB46
 6291 011a 00       		.byte	0
 6292 011b 00000000 		.4byte	.LEHB21-.LFB46
 6293 011f 00000000 		.4byte	.LEHE21-.LEHB21
 6294 0123 00000000 		.4byte	.L318-.LFB46
 6295 0127 00       		.byte	0
 6296 0128 00000000 		.4byte	.LEHB22-.LFB46
 6297 012c 00000000 		.4byte	.LEHE22-.LEHB22
 6298 0130 00000000 		.4byte	0
 6299 0134 00       		.byte	0
 6300              		.text
 6302              		.section	.rodata.str1.8
 6303 0495 000000   		.align	3
 6304              	.LC68:
 6305 0498 4E697420 		.string	"Nit kreirana - id: "
 6305      6B726569 
 6305      72616E61 
 6305      202D2069 
 6305      643A2000 
 6306 04ac 00000000 		.align	3
 6307              	.LC69:
 6308 04b0 54455354 		.string	"TEST 8 - unisex WC gotov\n"
 6308      2038202D 
 6308      20756E69 
GAS LISTING /tmp/ccCnP6rB.s 			page 162


 6308      73657820 
 6308      57432067 
 6309              		.text
 6310              		.align	2
 6311              		.globl	_Z5test8v
 6313              	_Z5test8v:
 6314              	.LFB9:
  54:test/Test8.cpp ****     A1* niz[X];
 6315              		.loc 1 54 13 is_stmt 1
 6316              		.cfi_startproc
 6317              		.cfi_personality 0x9b,DW.ref.__gxx_personality_v0
 6318              		.cfi_lsda 0x1b,.LLSDA9
 6319 1c90 130101F6 		addi	sp,sp,-160
 6320              		.cfi_def_cfa_offset 160
 6321 1c94 233C1108 		sd	ra,152(sp)
 6322 1c98 23388108 		sd	s0,144(sp)
 6323 1c9c 23349108 		sd	s1,136(sp)
 6324 1ca0 23302109 		sd	s2,128(sp)
 6325 1ca4 233C3107 		sd	s3,120(sp)
 6326              		.cfi_offset 1, -8
 6327              		.cfi_offset 8, -16
 6328              		.cfi_offset 9, -24
 6329              		.cfi_offset 18, -32
 6330              		.cfi_offset 19, -40
 6331 1ca8 1304010A 		addi	s0,sp,160
 6332              		.cfi_def_cfa 8, 0
  55:test/Test8.cpp ****     for(int i=0;i<X;i++){
 6333              		.loc 1 55 5
 6334              	.LVL729:
  56:test/Test8.cpp ****         if(i%3==0){
 6335              		.loc 1 56 5
 6336              	.LBB376:
  56:test/Test8.cpp ****         if(i%3==0){
 6337              		.loc 1 56 13 is_stmt 0
 6338 1cac 93040000 		li	s1,0
 6339 1cb0 6F00000A 		j	.L337
 6340              	.LVL730:
 6341              	.L354:
 6342              	.LBB377:
 6343              	.LBB378:
  17:test/Test8.cpp ****         printString("Nit kreirana - id: ");
 6344              		.loc 1 17 39
 6345 1cb4 97070000 		lla	a5,_ZTV2A1+16
 6345      93870700 
 6346 1cbc 2330F900 		sd	a5,0(s2)
  17:test/Test8.cpp ****         printString("Nit kreirana - id: ");
 6347              		.loc 1 17 29
 6348 1cc0 17070000 		lla	a4,.LANCHOR1
 6348      13070700 
 6349 1cc8 83274700 		lw	a5,4(a4)
 6350 1ccc 9B861700 		addiw	a3,a5,1
 6351 1cd0 2322D700 		sw	a3,4(a4)
  17:test/Test8.cpp ****         printString("Nit kreirana - id: ");
 6352              		.loc 1 17 39
 6353 1cd4 2320F902 		sw	a5,32(s2)
 6354 1cd8 23220902 		sw	zero,36(s2)
  18:test/Test8.cpp ****         printInt(id);
GAS LISTING /tmp/ccCnP6rB.s 			page 163


 6355              		.loc 1 18 9 is_stmt 1
  18:test/Test8.cpp ****         printInt(id);
 6356              		.loc 1 18 20 is_stmt 0
 6357 1cdc 17050000 		lla	a0,.LC68
 6357      13050500 
 6358              	.LEHB23:
 6359 1ce4 97000000 		call	_Z11printStringPKc@plt
 6359      E7800000 
 6360              	.LVL731:
  19:test/Test8.cpp ****         printString("\n");
 6361              		.loc 1 19 9 is_stmt 1
  19:test/Test8.cpp ****         printString("\n");
 6362              		.loc 1 19 17 is_stmt 0
 6363 1cec 13060000 		li	a2,0
 6364 1cf0 9305A000 		li	a1,10
 6365 1cf4 03250902 		lw	a0,32(s2)
 6366 1cf8 97000000 		call	_Z8printIntiii@plt
 6366      E7800000 
 6367              	.LVL732:
  20:test/Test8.cpp ****     }
 6368              		.loc 1 20 9 is_stmt 1
  20:test/Test8.cpp ****     }
 6369              		.loc 1 20 20 is_stmt 0
 6370 1d00 17050000 		lla	a0,.LC1
 6370      13050500 
 6371 1d08 97000000 		call	_Z11printStringPKc@plt
 6371      E7800000 
 6372              	.LVL733:
 6373              	.LEHE23:
 6374 1d10 6F00C002 		j	.L353
 6375              	.L347:
 6376 1d14 93040500 		mv	s1,a0
 6377              	.LVL734:
  17:test/Test8.cpp ****         printString("Nit kreirana - id: ");
 6378              		.loc 1 17 39
 6379 1d18 13850900 		mv	a0,s3
 6380 1d1c 97000000 		call	_ZN6ThreadD2Ev@plt
 6380      E7800000 
 6381              	.LVL735:
 6382              	.L332:
 6383              	.LBE378:
 6384              	.LBE377:
  58:test/Test8.cpp ****         }else{
 6385              		.loc 1 58 28 discriminator 2
 6386 1d24 13050900 		mv	a0,s2
 6387 1d28 97000000 		call	_ZdlPv@plt
 6387      E7800000 
 6388              	.LVL736:
 6389 1d30 13850400 		mv	a0,s1
 6390              	.LEHB24:
 6391 1d34 97000000 		call	_Unwind_Resume@plt
 6391      E7800000 
 6392              	.LVL737:
 6393              	.L353:
  58:test/Test8.cpp ****         }else{
 6394              		.loc 1 58 19 discriminator 3
 6395 1d3c 93973400 		slli	a5,s1,3
GAS LISTING /tmp/ccCnP6rB.s 			page 164


 6396 1d40 130704FD 		addi	a4,s0,-48
 6397 1d44 B307F700 		add	a5,a4,a5
 6398 1d48 23BC27F9 		sd	s2,-104(a5)
 6399              	.L333:
  56:test/Test8.cpp ****         if(i%3==0){
 6400              		.loc 1 56 5 is_stmt 1 discriminator 2
 6401 1d4c 9B841400 		addiw	s1,s1,1
 6402              	.LVL738:
 6403              	.L337:
  56:test/Test8.cpp ****         if(i%3==0){
 6404              		.loc 1 56 18 discriminator 1
 6405 1d50 9307C000 		li	a5,12
 6406 1d54 63C6970E 		bgt	s1,a5,.L328
  57:test/Test8.cpp ****             niz[i]=new A1(0);
 6407              		.loc 1 57 9
  57:test/Test8.cpp ****             niz[i]=new A1(0);
 6408              		.loc 1 57 13 is_stmt 0
 6409 1d58 93073000 		li	a5,3
 6410 1d5c BBE7F402 		remw	a5,s1,a5
  57:test/Test8.cpp ****             niz[i]=new A1(0);
 6411              		.loc 1 57 9
 6412 1d60 63920702 		bnez	a5,.L329
  58:test/Test8.cpp ****         }else{
 6413              		.loc 1 58 13 is_stmt 1
  58:test/Test8.cpp ****         }else{
 6414              		.loc 1 58 28 is_stmt 0
 6415 1d64 13058002 		li	a0,40
 6416 1d68 97000000 		call	_Znwm@plt
 6416      E7800000 
 6417              	.LVL739:
 6418              	.LEHE24:
 6419 1d70 13090500 		mv	s2,a0
 6420              	.LVL740:
 6421              	.LBB380:
 6422              	.LBB379:
  17:test/Test8.cpp ****         printString("Nit kreirana - id: ");
 6423              		.loc 1 17 39
 6424 1d74 93090500 		mv	s3,a0
 6425              	.LEHB25:
 6426 1d78 97000000 		call	_ZN6ThreadC2Ev@plt
 6426      E7800000 
 6427              	.LVL741:
 6428              	.LEHE25:
 6429 1d80 6FF05FF3 		j	.L354
 6430              	.LVL742:
 6431              	.L329:
 6432              	.LBE379:
 6433              	.LBE380:
  60:test/Test8.cpp ****         }
 6434              		.loc 1 60 13 is_stmt 1
  60:test/Test8.cpp ****         }
 6435              		.loc 1 60 28 is_stmt 0
 6436 1d84 13058002 		li	a0,40
 6437              	.LEHB26:
 6438 1d88 97000000 		call	_Znwm@plt
 6438      E7800000 
 6439              	.LVL743:
GAS LISTING /tmp/ccCnP6rB.s 			page 165


 6440              	.LEHE26:
 6441 1d90 13090500 		mv	s2,a0
 6442              	.LVL744:
 6443              	.LBB381:
 6444              	.LBB382:
  17:test/Test8.cpp ****         printString("Nit kreirana - id: ");
 6445              		.loc 1 17 39
 6446 1d94 93090500 		mv	s3,a0
 6447              	.LEHB27:
 6448 1d98 97000000 		call	_ZN6ThreadC2Ev@plt
 6448      E7800000 
 6449              	.LVL745:
 6450              	.LEHE27:
 6451 1da0 97070000 		lla	a5,_ZTV2A1+16
 6451      93870700 
 6452 1da8 2330F900 		sd	a5,0(s2)
  17:test/Test8.cpp ****         printString("Nit kreirana - id: ");
 6453              		.loc 1 17 29
 6454 1dac 17070000 		lla	a4,.LANCHOR1
 6454      13070700 
 6455 1db4 83274700 		lw	a5,4(a4)
 6456 1db8 9B861700 		addiw	a3,a5,1
 6457 1dbc 2322D700 		sw	a3,4(a4)
  17:test/Test8.cpp ****         printString("Nit kreirana - id: ");
 6458              		.loc 1 17 39
 6459 1dc0 2320F902 		sw	a5,32(s2)
 6460 1dc4 93071000 		li	a5,1
 6461 1dc8 2322F902 		sw	a5,36(s2)
  18:test/Test8.cpp ****         printInt(id);
 6462              		.loc 1 18 9 is_stmt 1
  18:test/Test8.cpp ****         printInt(id);
 6463              		.loc 1 18 20 is_stmt 0
 6464 1dcc 17050000 		lla	a0,.LC68
 6464      13050500 
 6465              	.LEHB28:
 6466 1dd4 97000000 		call	_Z11printStringPKc@plt
 6466      E7800000 
 6467              	.LVL746:
  19:test/Test8.cpp ****         printString("\n");
 6468              		.loc 1 19 9 is_stmt 1
  19:test/Test8.cpp ****         printString("\n");
 6469              		.loc 1 19 17 is_stmt 0
 6470 1ddc 13060000 		li	a2,0
 6471 1de0 9305A000 		li	a1,10
 6472 1de4 03250902 		lw	a0,32(s2)
 6473 1de8 97000000 		call	_Z8printIntiii@plt
 6473      E7800000 
 6474              	.LVL747:
  20:test/Test8.cpp ****     }
 6475              		.loc 1 20 9 is_stmt 1
  20:test/Test8.cpp ****     }
 6476              		.loc 1 20 20 is_stmt 0
 6477 1df0 17050000 		lla	a0,.LC1
 6477      13050500 
 6478 1df8 97000000 		call	_Z11printStringPKc@plt
 6478      E7800000 
 6479              	.LVL748:
GAS LISTING /tmp/ccCnP6rB.s 			page 166


 6480              	.LEHE28:
 6481 1e00 6F00C002 		j	.L355
 6482              	.L348:
 6483 1e04 93040500 		mv	s1,a0
 6484              	.LVL749:
  17:test/Test8.cpp ****         printString("Nit kreirana - id: ");
 6485              		.loc 1 17 39
 6486 1e08 13850900 		mv	a0,s3
 6487 1e0c 97000000 		call	_ZN6ThreadD2Ev@plt
 6487      E7800000 
 6488              	.LVL750:
 6489              	.L336:
 6490              	.LBE382:
 6491              	.LBE381:
  60:test/Test8.cpp ****         }
 6492              		.loc 1 60 28 discriminator 2
 6493 1e14 13050900 		mv	a0,s2
 6494 1e18 97000000 		call	_ZdlPv@plt
 6494      E7800000 
 6495              	.LVL751:
 6496 1e20 13850400 		mv	a0,s1
 6497              	.LEHB29:
 6498 1e24 97000000 		call	_Unwind_Resume@plt
 6498      E7800000 
 6499              	.LVL752:
 6500              	.L355:
  60:test/Test8.cpp ****         }
 6501              		.loc 1 60 19 discriminator 3
 6502 1e2c 93973400 		slli	a5,s1,3
 6503 1e30 130704FD 		addi	a4,s0,-48
 6504 1e34 B307F700 		add	a5,a4,a5
 6505 1e38 23BC27F9 		sd	s2,-104(a5)
 6506 1e3c 6FF01FF1 		j	.L333
 6507              	.L328:
 6508              	.LBE376:
  63:test/Test8.cpp ****         nit->start();
 6509              		.loc 1 63 5 is_stmt 1
 6510              	.LVL753:
 6511              	.LBB383:
  63:test/Test8.cpp ****         nit->start();
 6512              		.loc 1 63 18 is_stmt 0
 6513 1e40 130904FD 		addi	s2,s0,-48
 6514              	.LVL754:
 6515 1e44 930484F6 		addi	s1,s0,-152
 6516              	.LVL755:
 6517              	.L339:
  63:test/Test8.cpp ****         nit->start();
 6518              		.loc 1 63 18 is_stmt 1 discriminator 1
 6519 1e48 638C2401 		beq	s1,s2,.L343
 6520              	.LVL756:
  64:test/Test8.cpp ****     }
 6521              		.loc 1 64 9 discriminator 2
  64:test/Test8.cpp ****     }
 6522              		.loc 1 64 19 is_stmt 0 discriminator 2
 6523 1e4c 03B50400 		ld	a0,0(s1)
 6524 1e50 97000000 		call	_ZN6Thread5startEv@plt
 6524      E7800000 
GAS LISTING /tmp/ccCnP6rB.s 			page 167


 6525              	.LVL757:
  63:test/Test8.cpp ****         nit->start();
 6526              		.loc 1 63 5 is_stmt 1 discriminator 2
 6527 1e58 93848400 		addi	s1,s1,8
 6528              	.LVL758:
 6529 1e5c 6FF0DFFE 		j	.L339
 6530              	.L343:
 6531              	.LBE383:
 6532              	.LBB384:
  67:test/Test8.cpp ****         nit->join();
 6533              		.loc 1 67 18 is_stmt 0
 6534 1e60 930484F6 		addi	s1,s0,-152
 6535              	.LVL759:
 6536              	.L338:
  67:test/Test8.cpp ****         nit->join();
 6537              		.loc 1 67 18 is_stmt 1 discriminator 1
 6538 1e64 638C2401 		beq	s1,s2,.L344
 6539              	.LVL760:
  68:test/Test8.cpp ****     }
 6540              		.loc 1 68 9 discriminator 2
  68:test/Test8.cpp ****     }
 6541              		.loc 1 68 18 is_stmt 0 discriminator 2
 6542 1e68 03B50400 		ld	a0,0(s1)
 6543 1e6c 97000000 		call	_ZN6Thread4joinEv@plt
 6543      E7800000 
 6544              	.LVL761:
  67:test/Test8.cpp ****         nit->join();
 6545              		.loc 1 67 5 is_stmt 1 discriminator 2
 6546 1e74 93848400 		addi	s1,s1,8
 6547              	.LVL762:
 6548 1e78 6FF0DFFE 		j	.L338
 6549              	.L344:
 6550              	.LBE384:
 6551              	.LBB385:
  70:test/Test8.cpp ****         delete nit;
 6552              		.loc 1 70 18 is_stmt 0
 6553 1e7c 930484F6 		addi	s1,s0,-152
 6554              	.LVL763:
 6555 1e80 6F008000 		j	.L340
 6556              	.LVL764:
 6557              	.L342:
  70:test/Test8.cpp ****         delete nit;
 6558              		.loc 1 70 5 is_stmt 1 discriminator 3
 6559 1e84 93848400 		addi	s1,s1,8
 6560              	.LVL765:
 6561              	.L340:
  70:test/Test8.cpp ****         delete nit;
 6562              		.loc 1 70 18 discriminator 1
 6563 1e88 638E2401 		beq	s1,s2,.L341
  70:test/Test8.cpp ****         delete nit;
 6564              		.loc 1 70 14 is_stmt 0 discriminator 2
 6565 1e8c 03B50400 		ld	a0,0(s1)
 6566              	.LVL766:
  71:test/Test8.cpp ****     }
 6567              		.loc 1 71 9 is_stmt 1 discriminator 2
  71:test/Test8.cpp ****     }
 6568              		.loc 1 71 19 is_stmt 0 discriminator 2
GAS LISTING /tmp/ccCnP6rB.s 			page 168


 6569 1e90 E30A05FE 		beqz	a0,.L342
  71:test/Test8.cpp ****     }
 6570              		.loc 1 71 16 discriminator 1
 6571 1e94 83370500 		ld	a5,0(a0)
 6572 1e98 83B78700 		ld	a5,8(a5)
 6573 1e9c E7800700 		jalr	a5
 6574              	.LVL767:
 6575 1ea0 6FF05FFE 		j	.L342
 6576              	.L341:
 6577              	.LBE385:
  73:test/Test8.cpp **** };
 6578              		.loc 1 73 5 is_stmt 1
  73:test/Test8.cpp **** };
 6579              		.loc 1 73 16 is_stmt 0
 6580 1ea4 17050000 		lla	a0,.LC69
 6580      13050500 
 6581 1eac 97000000 		call	_Z11printStringPKc@plt
 6581      E7800000 
 6582              	.LVL768:
 6583              	.LEHE29:
  74:test/Test8.cpp **** 
 6584              		.loc 1 74 1
 6585 1eb4 83308109 		ld	ra,152(sp)
 6586              		.cfi_remember_state
 6587              		.cfi_restore 1
 6588 1eb8 03340109 		ld	s0,144(sp)
 6589              		.cfi_restore 8
 6590              		.cfi_def_cfa 2, 160
 6591              	.LVL769:
 6592 1ebc 83348108 		ld	s1,136(sp)
 6593              		.cfi_restore 9
 6594              	.LVL770:
 6595 1ec0 03390108 		ld	s2,128(sp)
 6596              		.cfi_restore 18
 6597              	.LVL771:
 6598 1ec4 83398107 		ld	s3,120(sp)
 6599              		.cfi_restore 19
 6600 1ec8 1301010A 		addi	sp,sp,160
 6601              		.cfi_def_cfa_offset 0
 6602              	.LVL772:
 6603 1ecc 67800000 		jr	ra
 6604              	.LVL773:
 6605              	.L345:
 6606              		.cfi_restore_state
 6607 1ed0 93040500 		mv	s1,a0
 6608              	.LVL774:
 6609 1ed4 6FF01FE5 		j	.L332
 6610              	.LVL775:
 6611              	.L346:
 6612 1ed8 93040500 		mv	s1,a0
 6613              	.LVL776:
 6614 1edc 6FF09FF3 		j	.L336
 6615              		.cfi_endproc
 6616              	.LFE9:
 6617              		.section	.gcc_except_table
 6618              	.LLSDA9:
 6619 0135 FF       		.byte	0xff
GAS LISTING /tmp/ccCnP6rB.s 			page 169


 6620 0136 FF       		.byte	0xff
 6621 0137 03       		.byte	0x3
 6622 0138 5B       		.byte	0x5b
 6623 0139 00000000 		.4byte	.LEHB23-.LFB9
 6624 013d 00000000 		.4byte	.LEHE23-.LEHB23
 6625 0141 00000000 		.4byte	.L347-.LFB9
 6626 0145 00       		.byte	0
 6627 0146 00000000 		.4byte	.LEHB24-.LFB9
 6628 014a 00000000 		.4byte	.LEHE24-.LEHB24
 6629 014e 00000000 		.4byte	0
 6630 0152 00       		.byte	0
 6631 0153 00000000 		.4byte	.LEHB25-.LFB9
 6632 0157 00000000 		.4byte	.LEHE25-.LEHB25
 6633 015b 00000000 		.4byte	.L345-.LFB9
 6634 015f 00       		.byte	0
 6635 0160 00000000 		.4byte	.LEHB26-.LFB9
 6636 0164 00000000 		.4byte	.LEHE26-.LEHB26
 6637 0168 00000000 		.4byte	0
 6638 016c 00       		.byte	0
 6639 016d 00000000 		.4byte	.LEHB27-.LFB9
 6640 0171 00000000 		.4byte	.LEHE27-.LEHB27
 6641 0175 00000000 		.4byte	.L346-.LFB9
 6642 0179 00       		.byte	0
 6643 017a 00000000 		.4byte	.LEHB28-.LFB9
 6644 017e 00000000 		.4byte	.LEHE28-.LEHB28
 6645 0182 00000000 		.4byte	.L348-.LFB9
 6646 0186 00       		.byte	0
 6647 0187 00000000 		.4byte	.LEHB29-.LFB9
 6648 018b 00000000 		.4byte	.LEHE29-.LEHB29
 6649 018f 00000000 		.4byte	0
 6650 0193 00       		.byte	0
 6651              		.text
 6653              		.section	.rodata.str1.8
 6654 04ca 00000000 		.align	3
 6654      0000
 6655              	.LC70:
 6656 04d0 4E697420 		.string	"Nit A kreirana\n"
 6656      41206B72 
 6656      65697261 
 6656      6E610A00 
 6657              		.align	3
 6658              	.LC71:
 6659 04e0 54455354 		.string	"TEST 8 - sinhronizacija na BARIJERI uspesno zavrsen\n"
 6659      2038202D 
 6659      2073696E 
 6659      68726F6E 
 6659      697A6163 
 6660              		.text
 6661              		.align	2
 6662              		.globl	_Z12testBarijerav
 6664              	_Z12testBarijerav:
 6665              	.LFB14:
 121:test/Test8.cpp ****     A2* niti[6];
 6666              		.loc 1 121 20 is_stmt 1
 6667              		.cfi_startproc
 6668              		.cfi_personality 0x9b,DW.ref.__gxx_personality_v0
 6669              		.cfi_lsda 0x1b,.LLSDA14
GAS LISTING /tmp/ccCnP6rB.s 			page 170


 6670 1ee0 130101FA 		addi	sp,sp,-96
 6671              		.cfi_def_cfa_offset 96
 6672 1ee4 233C1104 		sd	ra,88(sp)
 6673 1ee8 23388104 		sd	s0,80(sp)
 6674 1eec 23349104 		sd	s1,72(sp)
 6675 1ef0 23302105 		sd	s2,64(sp)
 6676 1ef4 233C3103 		sd	s3,56(sp)
 6677              		.cfi_offset 1, -8
 6678              		.cfi_offset 8, -16
 6679              		.cfi_offset 9, -24
 6680              		.cfi_offset 18, -32
 6681              		.cfi_offset 19, -40
 6682 1ef8 13040106 		addi	s0,sp,96
 6683              		.cfi_def_cfa 8, 0
 122:test/Test8.cpp ****     for(auto & nit:niti){
 6684              		.loc 1 122 5
 123:test/Test8.cpp ****         nit = new A2();
 6685              		.loc 1 123 5
 6686              	.LVL777:
 6687              	.LBB393:
 123:test/Test8.cpp ****         nit = new A2();
 6688              		.loc 1 123 20 is_stmt 0
 6689 1efc 130904FA 		addi	s2,s0,-96
 6690              	.LVL778:
 6691 1f00 6F00C006 		j	.L361
 6692              	.LVL779:
 6693              	.L375:
 6694              	.LBB394:
 6695              	.LBB395:
  83:test/Test8.cpp ****         printString("Nit A kreirana\n");
 6696              		.loc 1 83 27
 6697 1f04 97070000 		lla	a5,_ZTV2A2+16
 6697      93870700 
 6698 1f0c 23B0F400 		sd	a5,0(s1)
  83:test/Test8.cpp ****         printString("Nit A kreirana\n");
 6699              		.loc 1 83 25
 6700 1f10 17070000 		lla	a4,.LANCHOR1
 6700      13070700 
 6701 1f18 83278700 		lw	a5,8(a4)
 6702 1f1c 9B861700 		addiw	a3,a5,1
 6703 1f20 2324D700 		sw	a3,8(a4)
  83:test/Test8.cpp ****         printString("Nit A kreirana\n");
 6704              		.loc 1 83 27
 6705 1f24 23A0F402 		sw	a5,32(s1)
  84:test/Test8.cpp ****     }
 6706              		.loc 1 84 9 is_stmt 1
  84:test/Test8.cpp ****     }
 6707              		.loc 1 84 20 is_stmt 0
 6708 1f28 17050000 		lla	a0,.LC70
 6708      13050500 
 6709              	.LEHB30:
 6710 1f30 97000000 		call	_Z11printStringPKc@plt
 6710      E7800000 
 6711              	.LVL780:
 6712              	.LEHE30:
 6713 1f38 6F00C002 		j	.L374
 6714              	.L370:
GAS LISTING /tmp/ccCnP6rB.s 			page 171


 6715 1f3c 13090500 		mv	s2,a0
 6716              	.LVL781:
  83:test/Test8.cpp ****         printString("Nit A kreirana\n");
 6717              		.loc 1 83 27
 6718 1f40 13850900 		mv	a0,s3
 6719 1f44 97000000 		call	_ZN6ThreadD2Ev@plt
 6719      E7800000 
 6720              	.LVL782:
 6721              	.L360:
 6722              	.LBE395:
 6723              	.LBE394:
 124:test/Test8.cpp ****     }
 6724              		.loc 1 124 22 discriminator 1
 6725 1f4c 13850400 		mv	a0,s1
 6726 1f50 97000000 		call	_ZdlPv@plt
 6726      E7800000 
 6727              	.LVL783:
 6728 1f58 13050900 		mv	a0,s2
 6729              	.LEHB31:
 6730 1f5c 97000000 		call	_Unwind_Resume@plt
 6730      E7800000 
 6731              	.LVL784:
 6732              	.L374:
 124:test/Test8.cpp ****     }
 6733              		.loc 1 124 13 discriminator 3
 6734 1f64 23309900 		sd	s1,0(s2)
 123:test/Test8.cpp ****         nit = new A2();
 6735              		.loc 1 123 5 is_stmt 1 discriminator 3
 6736 1f68 13098900 		addi	s2,s2,8
 6737              	.LVL785:
 6738              	.L361:
 123:test/Test8.cpp ****         nit = new A2();
 6739              		.loc 1 123 20 discriminator 1
 6740 1f6c 930704FD 		addi	a5,s0,-48
 6741              	.LVL786:
 6742 1f70 6302F902 		beq	s2,a5,.L366
 6743              	.LVL787:
 124:test/Test8.cpp ****     }
 6744              		.loc 1 124 9 discriminator 2
 124:test/Test8.cpp ****     }
 6745              		.loc 1 124 22 is_stmt 0 discriminator 2
 6746 1f74 13058002 		li	a0,40
 6747 1f78 97000000 		call	_Znwm@plt
 6747      E7800000 
 6748              	.LVL788:
 6749              	.LEHE31:
 6750 1f80 93040500 		mv	s1,a0
 6751              	.LVL789:
 6752              	.LBB397:
 6753              	.LBB396:
  83:test/Test8.cpp ****         printString("Nit A kreirana\n");
 6754              		.loc 1 83 27 discriminator 2
 6755 1f84 93090500 		mv	s3,a0
 6756              	.LEHB32:
 6757 1f88 97000000 		call	_ZN6ThreadC2Ev@plt
 6757      E7800000 
 6758              	.LVL790:
GAS LISTING /tmp/ccCnP6rB.s 			page 172


 6759              	.LEHE32:
 6760 1f90 6FF05FF7 		j	.L375
 6761              	.LVL791:
 6762              	.L366:
 6763              	.LBE396:
 6764              	.LBE397:
 6765              	.LBE393:
 6766              	.LBB398:
 126:test/Test8.cpp ****         nit->start();
 6767              		.loc 1 126 20
 6768 1f94 930404FA 		addi	s1,s0,-96
 6769              	.LVL792:
 6770              	.L357:
 126:test/Test8.cpp ****         nit->start();
 6771              		.loc 1 126 20 is_stmt 1 discriminator 1
 6772 1f98 930704FD 		addi	a5,s0,-48
 6773              	.LVL793:
 6774 1f9c 638CF400 		beq	s1,a5,.L367
 6775              	.LVL794:
 127:test/Test8.cpp ****     }
 6776              		.loc 1 127 9 discriminator 2
 127:test/Test8.cpp ****     }
 6777              		.loc 1 127 19 is_stmt 0 discriminator 2
 6778 1fa0 03B50400 		ld	a0,0(s1)
 6779              	.LEHB33:
 6780 1fa4 97000000 		call	_ZN6Thread5startEv@plt
 6780      E7800000 
 6781              	.LVL795:
 126:test/Test8.cpp ****         nit->start();
 6782              		.loc 1 126 5 is_stmt 1 discriminator 2
 6783 1fac 93848400 		addi	s1,s1,8
 6784              	.LVL796:
 6785 1fb0 6FF09FFE 		j	.L357
 6786              	.LVL797:
 6787              	.L367:
 6788              	.LBE398:
 6789              	.LBB399:
 129:test/Test8.cpp ****         nit->join();
 6790              		.loc 1 129 20 is_stmt 0
 6791 1fb4 930404FA 		addi	s1,s0,-96
 6792              	.LVL798:
 6793              	.L362:
 129:test/Test8.cpp ****         nit->join();
 6794              		.loc 1 129 20 is_stmt 1 discriminator 1
 6795 1fb8 930704FD 		addi	a5,s0,-48
 6796              	.LVL799:
 6797 1fbc 638CF400 		beq	s1,a5,.L368
 6798              	.LVL800:
 130:test/Test8.cpp ****     }
 6799              		.loc 1 130 9 discriminator 2
 130:test/Test8.cpp ****     }
 6800              		.loc 1 130 18 is_stmt 0 discriminator 2
 6801 1fc0 03B50400 		ld	a0,0(s1)
 6802 1fc4 97000000 		call	_ZN6Thread4joinEv@plt
 6802      E7800000 
 6803              	.LVL801:
 129:test/Test8.cpp ****         nit->join();
GAS LISTING /tmp/ccCnP6rB.s 			page 173


 6804              		.loc 1 129 5 is_stmt 1 discriminator 2
 6805 1fcc 93848400 		addi	s1,s1,8
 6806              	.LVL802:
 6807 1fd0 6FF09FFE 		j	.L362
 6808              	.LVL803:
 6809              	.L368:
 6810              	.LBE399:
 6811              	.LBB400:
 132:test/Test8.cpp ****         delete nit;
 6812              		.loc 1 132 20 is_stmt 0
 6813 1fd4 930404FA 		addi	s1,s0,-96
 6814              	.LVL804:
 6815 1fd8 6F008000 		j	.L363
 6816              	.LVL805:
 6817              	.L365:
 132:test/Test8.cpp ****         delete nit;
 6818              		.loc 1 132 5 is_stmt 1 discriminator 3
 6819 1fdc 93848400 		addi	s1,s1,8
 6820              	.LVL806:
 6821              	.L363:
 132:test/Test8.cpp ****         delete nit;
 6822              		.loc 1 132 20 discriminator 1
 6823 1fe0 930704FD 		addi	a5,s0,-48
 6824              	.LVL807:
 6825 1fe4 638EF400 		beq	s1,a5,.L364
 6826              	.LVL808:
 133:test/Test8.cpp ****     }
 6827              		.loc 1 133 9 discriminator 2
 133:test/Test8.cpp ****     }
 6828              		.loc 1 133 16 is_stmt 0 discriminator 2
 6829 1fe8 03B50400 		ld	a0,0(s1)
 133:test/Test8.cpp ****     }
 6830              		.loc 1 133 19 discriminator 2
 6831 1fec E30805FE 		beqz	a0,.L365
 133:test/Test8.cpp ****     }
 6832              		.loc 1 133 16 discriminator 1
 6833 1ff0 83370500 		ld	a5,0(a0)
 6834              	.LVL809:
 6835 1ff4 83B78700 		ld	a5,8(a5)
 6836 1ff8 E7800700 		jalr	a5
 6837              	.LVL810:
 6838 1ffc 6FF01FFE 		j	.L365
 6839              	.LVL811:
 6840              	.L364:
 6841              	.LBE400:
 135:test/Test8.cpp **** }
 6842              		.loc 1 135 5 is_stmt 1
 135:test/Test8.cpp **** }
 6843              		.loc 1 135 16 is_stmt 0
 6844 2000 17050000 		lla	a0,.LC71
 6844      13050500 
 6845 2008 97000000 		call	_Z11printStringPKc@plt
 6845      E7800000 
 6846              	.LVL812:
 6847              	.LEHE33:
 136:test/Test8.cpp **** 
 6848              		.loc 1 136 1
GAS LISTING /tmp/ccCnP6rB.s 			page 174


 6849 2010 83308105 		ld	ra,88(sp)
 6850              		.cfi_remember_state
 6851              		.cfi_restore 1
 6852 2014 03340105 		ld	s0,80(sp)
 6853              		.cfi_restore 8
 6854              		.cfi_def_cfa 2, 96
 6855              	.LVL813:
 6856 2018 83348104 		ld	s1,72(sp)
 6857              		.cfi_restore 9
 6858              	.LVL814:
 6859 201c 03390104 		ld	s2,64(sp)
 6860              		.cfi_restore 18
 6861              	.LVL815:
 6862 2020 83398103 		ld	s3,56(sp)
 6863              		.cfi_restore 19
 6864 2024 13010106 		addi	sp,sp,96
 6865              		.cfi_def_cfa_offset 0
 6866              	.LVL816:
 6867 2028 67800000 		jr	ra
 6868              	.LVL817:
 6869              	.L369:
 6870              		.cfi_restore_state
 6871 202c 13090500 		mv	s2,a0
 6872              	.LVL818:
 6873 2030 6FF0DFF1 		j	.L360
 6874              		.cfi_endproc
 6875              	.LFE14:
 6876              		.section	.gcc_except_table
 6877              	.LLSDA14:
 6878 0194 FF       		.byte	0xff
 6879 0195 FF       		.byte	0xff
 6880 0196 03       		.byte	0x3
 6881 0197 34       		.byte	0x34
 6882 0198 00000000 		.4byte	.LEHB30-.LFB14
 6883 019c 00000000 		.4byte	.LEHE30-.LEHB30
 6884 01a0 00000000 		.4byte	.L370-.LFB14
 6885 01a4 00       		.byte	0
 6886 01a5 00000000 		.4byte	.LEHB31-.LFB14
 6887 01a9 00000000 		.4byte	.LEHE31-.LEHB31
 6888 01ad 00000000 		.4byte	0
 6889 01b1 00       		.byte	0
 6890 01b2 00000000 		.4byte	.LEHB32-.LFB14
 6891 01b6 00000000 		.4byte	.LEHE32-.LEHB32
 6892 01ba 00000000 		.4byte	.L369-.LFB14
 6893 01be 00       		.byte	0
 6894 01bf 00000000 		.4byte	.LEHB33-.LFB14
 6895 01c3 00000000 		.4byte	.LEHE33-.LEHB33
 6896 01c7 00000000 		.4byte	0
 6897 01cb 00       		.byte	0
 6898              		.text
 6900              		.section	.rodata.str1.8
 6901 0515 000000   		.align	3
 6902              	.LC72:
 6903 0518 206B7265 		.string	" kreirana\n"
 6903      6972616E 
 6903      610A00
 6904 0523 00000000 		.align	3
GAS LISTING /tmp/ccCnP6rB.s 			page 175


 6904      00
 6905              	.LC73:
 6906 0528 54657374 		.string	"Test 8 - blokiranje na barijeri sa dvojakim vratima- USPESNO ZAVRSEN\n"
 6906      2038202D 
 6906      20626C6F 
 6906      6B697261 
 6906      6E6A6520 
 6907              		.text
 6908              		.align	2
 6909              		.globl	_Z13testBarijera2v
 6911              	_Z13testBarijera2v:
 6912              	.LFB19:
 181:test/Test8.cpp ****     A6* niz[10];
 6913              		.loc 1 181 21 is_stmt 1
 6914              		.cfi_startproc
 6915              		.cfi_personality 0x9b,DW.ref.__gxx_personality_v0
 6916              		.cfi_lsda 0x1b,.LLSDA19
 6917 2034 130101F8 		addi	sp,sp,-128
 6918              		.cfi_def_cfa_offset 128
 6919 2038 233C1106 		sd	ra,120(sp)
 6920 203c 23388106 		sd	s0,112(sp)
 6921 2040 23349106 		sd	s1,104(sp)
 6922 2044 23302107 		sd	s2,96(sp)
 6923 2048 233C3105 		sd	s3,88(sp)
 6924              		.cfi_offset 1, -8
 6925              		.cfi_offset 8, -16
 6926              		.cfi_offset 9, -24
 6927              		.cfi_offset 18, -32
 6928              		.cfi_offset 19, -40
 6929 204c 13040108 		addi	s0,sp,128
 6930              		.cfi_def_cfa 8, 0
 182:test/Test8.cpp ****     for(auto & nit:niz){
 6931              		.loc 1 182 5
 183:test/Test8.cpp ****         nit = new A6();
 6932              		.loc 1 183 5
 6933              	.LVL819:
 6934              	.LBB408:
 183:test/Test8.cpp ****         nit = new A6();
 6935              		.loc 1 183 20 is_stmt 0
 6936 2050 130904F8 		addi	s2,s0,-128
 6937              	.LVL820:
 6938 2054 6F000009 		j	.L381
 6939              	.LVL821:
 6940              	.L395:
 6941              	.LBB409:
 6942              	.LBB410:
 143:test/Test8.cpp ****         printString("Nit id - ");
 6943              		.loc 1 143 25
 6944 2058 97070000 		lla	a5,_ZTV2A6+16
 6944      93870700 
 6945 2060 23B0F400 		sd	a5,0(s1)
 143:test/Test8.cpp ****         printString("Nit id - ");
 6946              		.loc 1 143 23
 6947 2064 17070000 		lla	a4,.LANCHOR1
 6947      13070700 
 6948 206c 8327C700 		lw	a5,12(a4)
 6949 2070 9B861700 		addiw	a3,a5,1
GAS LISTING /tmp/ccCnP6rB.s 			page 176


 6950 2074 2326D700 		sw	a3,12(a4)
 143:test/Test8.cpp ****         printString("Nit id - ");
 6951              		.loc 1 143 25
 6952 2078 23A0F402 		sw	a5,32(s1)
 144:test/Test8.cpp ****         printInt(id);
 6953              		.loc 1 144 9 is_stmt 1
 144:test/Test8.cpp ****         printInt(id);
 6954              		.loc 1 144 20 is_stmt 0
 6955 207c 17050000 		lla	a0,.LC20
 6955      13050500 
 6956              	.LEHB34:
 6957 2084 97000000 		call	_Z11printStringPKc@plt
 6957      E7800000 
 6958              	.LVL822:
 145:test/Test8.cpp ****         printString(" kreirana\n");
 6959              		.loc 1 145 9 is_stmt 1
 145:test/Test8.cpp ****         printString(" kreirana\n");
 6960              		.loc 1 145 17 is_stmt 0
 6961 208c 13060000 		li	a2,0
 6962 2090 9305A000 		li	a1,10
 6963 2094 03A50402 		lw	a0,32(s1)
 6964 2098 97000000 		call	_Z8printIntiii@plt
 6964      E7800000 
 6965              	.LVL823:
 146:test/Test8.cpp ****     }
 6966              		.loc 1 146 9 is_stmt 1
 146:test/Test8.cpp ****     }
 6967              		.loc 1 146 20 is_stmt 0
 6968 20a0 17050000 		lla	a0,.LC72
 6968      13050500 
 6969 20a8 97000000 		call	_Z11printStringPKc@plt
 6969      E7800000 
 6970              	.LVL824:
 6971              	.LEHE34:
 6972 20b0 6F00C002 		j	.L394
 6973              	.L390:
 6974 20b4 13090500 		mv	s2,a0
 6975              	.LVL825:
 143:test/Test8.cpp ****         printString("Nit id - ");
 6976              		.loc 1 143 25
 6977 20b8 13850900 		mv	a0,s3
 6978 20bc 97000000 		call	_ZN6ThreadD2Ev@plt
 6978      E7800000 
 6979              	.LVL826:
 6980              	.L380:
 6981              	.LBE410:
 6982              	.LBE409:
 184:test/Test8.cpp ****     }
 6983              		.loc 1 184 22 discriminator 1
 6984 20c4 13850400 		mv	a0,s1
 6985 20c8 97000000 		call	_ZdlPv@plt
 6985      E7800000 
 6986              	.LVL827:
 6987 20d0 13050900 		mv	a0,s2
 6988              	.LEHB35:
 6989 20d4 97000000 		call	_Unwind_Resume@plt
 6989      E7800000 
GAS LISTING /tmp/ccCnP6rB.s 			page 177


 6990              	.LVL828:
 6991              	.L394:
 184:test/Test8.cpp ****     }
 6992              		.loc 1 184 13 discriminator 3
 6993 20dc 23309900 		sd	s1,0(s2)
 183:test/Test8.cpp ****         nit = new A6();
 6994              		.loc 1 183 5 is_stmt 1 discriminator 3
 6995 20e0 13098900 		addi	s2,s2,8
 6996              	.LVL829:
 6997              	.L381:
 183:test/Test8.cpp ****         nit = new A6();
 6998              		.loc 1 183 20 discriminator 1
 6999 20e4 930704FD 		addi	a5,s0,-48
 7000              	.LVL830:
 7001 20e8 6302F902 		beq	s2,a5,.L386
 7002              	.LVL831:
 184:test/Test8.cpp ****     }
 7003              		.loc 1 184 9 discriminator 2
 184:test/Test8.cpp ****     }
 7004              		.loc 1 184 22 is_stmt 0 discriminator 2
 7005 20ec 13058002 		li	a0,40
 7006 20f0 97000000 		call	_Znwm@plt
 7006      E7800000 
 7007              	.LVL832:
 7008              	.LEHE35:
 7009 20f8 93040500 		mv	s1,a0
 7010              	.LVL833:
 7011              	.LBB412:
 7012              	.LBB411:
 143:test/Test8.cpp ****         printString("Nit id - ");
 7013              		.loc 1 143 25 discriminator 2
 7014 20fc 93090500 		mv	s3,a0
 7015              	.LEHB36:
 7016 2100 97000000 		call	_ZN6ThreadC2Ev@plt
 7016      E7800000 
 7017              	.LVL834:
 7018              	.LEHE36:
 7019 2108 6FF01FF5 		j	.L395
 7020              	.LVL835:
 7021              	.L386:
 7022              	.LBE411:
 7023              	.LBE412:
 7024              	.LBE408:
 7025              	.LBB413:
 186:test/Test8.cpp ****         nit->start();
 7026              		.loc 1 186 21
 7027 210c 930404F8 		addi	s1,s0,-128
 7028              	.LVL836:
 7029              	.L377:
 186:test/Test8.cpp ****         nit->start();
 7030              		.loc 1 186 21 is_stmt 1 discriminator 1
 7031 2110 930704FD 		addi	a5,s0,-48
 7032              	.LVL837:
 7033 2114 638CF400 		beq	s1,a5,.L387
 7034              	.LVL838:
 187:test/Test8.cpp ****     }
 7035              		.loc 1 187 9 discriminator 2
GAS LISTING /tmp/ccCnP6rB.s 			page 178


 187:test/Test8.cpp ****     }
 7036              		.loc 1 187 19 is_stmt 0 discriminator 2
 7037 2118 03B50400 		ld	a0,0(s1)
 7038              	.LEHB37:
 7039 211c 97000000 		call	_ZN6Thread5startEv@plt
 7039      E7800000 
 7040              	.LVL839:
 186:test/Test8.cpp ****         nit->start();
 7041              		.loc 1 186 5 is_stmt 1 discriminator 2
 7042 2124 93848400 		addi	s1,s1,8
 7043              	.LVL840:
 7044 2128 6FF09FFE 		j	.L377
 7045              	.LVL841:
 7046              	.L387:
 7047              	.LBE413:
 7048              	.LBB414:
 189:test/Test8.cpp ****         nit->join();
 7049              		.loc 1 189 21 is_stmt 0
 7050 212c 930404F8 		addi	s1,s0,-128
 7051              	.LVL842:
 7052              	.L382:
 189:test/Test8.cpp ****         nit->join();
 7053              		.loc 1 189 21 is_stmt 1 discriminator 1
 7054 2130 930704FD 		addi	a5,s0,-48
 7055              	.LVL843:
 7056 2134 638CF400 		beq	s1,a5,.L388
 7057              	.LVL844:
 190:test/Test8.cpp ****     }
 7058              		.loc 1 190 9 discriminator 2
 190:test/Test8.cpp ****     }
 7059              		.loc 1 190 18 is_stmt 0 discriminator 2
 7060 2138 03B50400 		ld	a0,0(s1)
 7061 213c 97000000 		call	_ZN6Thread4joinEv@plt
 7061      E7800000 
 7062              	.LVL845:
 189:test/Test8.cpp ****         nit->join();
 7063              		.loc 1 189 5 is_stmt 1 discriminator 2
 7064 2144 93848400 		addi	s1,s1,8
 7065              	.LVL846:
 7066 2148 6FF09FFE 		j	.L382
 7067              	.LVL847:
 7068              	.L388:
 7069              	.LBE414:
 7070              	.LBB415:
 192:test/Test8.cpp ****         delete nit;
 7071              		.loc 1 192 21 is_stmt 0
 7072 214c 930404F8 		addi	s1,s0,-128
 7073              	.LVL848:
 7074 2150 6F008000 		j	.L383
 7075              	.LVL849:
 7076              	.L385:
 192:test/Test8.cpp ****         delete nit;
 7077              		.loc 1 192 5 is_stmt 1 discriminator 3
 7078 2154 93848400 		addi	s1,s1,8
 7079              	.LVL850:
 7080              	.L383:
 192:test/Test8.cpp ****         delete nit;
GAS LISTING /tmp/ccCnP6rB.s 			page 179


 7081              		.loc 1 192 21 discriminator 1
 7082 2158 930704FD 		addi	a5,s0,-48
 7083              	.LVL851:
 7084 215c 638EF400 		beq	s1,a5,.L384
 7085              	.LVL852:
 193:test/Test8.cpp ****     }
 7086              		.loc 1 193 9 discriminator 2
 193:test/Test8.cpp ****     }
 7087              		.loc 1 193 16 is_stmt 0 discriminator 2
 7088 2160 03B50400 		ld	a0,0(s1)
 193:test/Test8.cpp ****     }
 7089              		.loc 1 193 19 discriminator 2
 7090 2164 E30805FE 		beqz	a0,.L385
 193:test/Test8.cpp ****     }
 7091              		.loc 1 193 16 discriminator 1
 7092 2168 83370500 		ld	a5,0(a0)
 7093              	.LVL853:
 7094 216c 83B78700 		ld	a5,8(a5)
 7095 2170 E7800700 		jalr	a5
 7096              	.LVL854:
 7097 2174 6FF01FFE 		j	.L385
 7098              	.LVL855:
 7099              	.L384:
 7100              	.LBE415:
 195:test/Test8.cpp **** }
 7101              		.loc 1 195 5 is_stmt 1
 195:test/Test8.cpp **** }
 7102              		.loc 1 195 16 is_stmt 0
 7103 2178 17050000 		lla	a0,.LC73
 7103      13050500 
 7104 2180 97000000 		call	_Z11printStringPKc@plt
 7104      E7800000 
 7105              	.LVL856:
 7106              	.LEHE37:
 196:test/Test8.cpp **** 
 7107              		.loc 1 196 1
 7108 2188 83308107 		ld	ra,120(sp)
 7109              		.cfi_remember_state
 7110              		.cfi_restore 1
 7111 218c 03340107 		ld	s0,112(sp)
 7112              		.cfi_restore 8
 7113              		.cfi_def_cfa 2, 128
 7114              	.LVL857:
 7115 2190 83348106 		ld	s1,104(sp)
 7116              		.cfi_restore 9
 7117              	.LVL858:
 7118 2194 03390106 		ld	s2,96(sp)
 7119              		.cfi_restore 18
 7120              	.LVL859:
 7121 2198 83398105 		ld	s3,88(sp)
 7122              		.cfi_restore 19
 7123 219c 13010108 		addi	sp,sp,128
 7124              		.cfi_def_cfa_offset 0
 7125              	.LVL860:
 7126 21a0 67800000 		jr	ra
 7127              	.LVL861:
 7128              	.L389:
GAS LISTING /tmp/ccCnP6rB.s 			page 180


 7129              		.cfi_restore_state
 7130 21a4 13090500 		mv	s2,a0
 7131              	.LVL862:
 7132 21a8 6FF0DFF1 		j	.L380
 7133              		.cfi_endproc
 7134              	.LFE19:
 7135              		.section	.gcc_except_table
 7136              	.LLSDA19:
 7137 01cc FF       		.byte	0xff
 7138 01cd FF       		.byte	0xff
 7139 01ce 03       		.byte	0x3
 7140 01cf 34       		.byte	0x34
 7141 01d0 00000000 		.4byte	.LEHB34-.LFB19
 7142 01d4 00000000 		.4byte	.LEHE34-.LEHB34
 7143 01d8 00000000 		.4byte	.L390-.LFB19
 7144 01dc 00       		.byte	0
 7145 01dd 00000000 		.4byte	.LEHB35-.LFB19
 7146 01e1 00000000 		.4byte	.LEHE35-.LEHB35
 7147 01e5 00000000 		.4byte	0
 7148 01e9 00       		.byte	0
 7149 01ea 00000000 		.4byte	.LEHB36-.LFB19
 7150 01ee 00000000 		.4byte	.LEHE36-.LEHB36
 7151 01f2 00000000 		.4byte	.L389-.LFB19
 7152 01f6 00       		.byte	0
 7153 01f7 00000000 		.4byte	.LEHB37-.LFB19
 7154 01fb 00000000 		.4byte	.LEHE37-.LEHB37
 7155 01ff 00000000 		.4byte	0
 7156 0203 00       		.byte	0
 7157              		.text
 7159              		.section	.rodata.str1.8
 7160 056e 0000     		.align	3
 7161              	.LC74:
 7162 0570 4E697420 		.string	"Nit A kreirana - id: "
 7162      41206B72 
 7162      65697261 
 7162      6E61202D 
 7162      2069643A 
 7163 0586 0000     		.align	3
 7164              	.LC75:
 7165 0588 54455354 		.string	"TEST 8 - Send/Receive message uspesno zavrsen\n"
 7165      2038202D 
 7165      2053656E 
 7165      642F5265 
 7165      63656976 
 7166              		.text
 7167              		.align	2
 7168              		.globl	_Z16testSEND_RECEIVEv
 7170              	_Z16testSEND_RECEIVEv:
 7171              	.LFB35:
 374:test/Test8.cpp ****     A3* a3 = new A3();
 7172              		.loc 1 374 24 is_stmt 1
 7173              		.cfi_startproc
 7174              		.cfi_personality 0x9b,DW.ref.__gxx_personality_v0
 7175              		.cfi_lsda 0x1b,.LLSDA35
 7176 21ac 130101FD 		addi	sp,sp,-48
 7177              		.cfi_def_cfa_offset 48
 7178 21b0 23341102 		sd	ra,40(sp)
GAS LISTING /tmp/ccCnP6rB.s 			page 181


 7179 21b4 23308102 		sd	s0,32(sp)
 7180 21b8 233C9100 		sd	s1,24(sp)
 7181 21bc 23382101 		sd	s2,16(sp)
 7182 21c0 23343101 		sd	s3,8(sp)
 7183              		.cfi_offset 1, -8
 7184              		.cfi_offset 8, -16
 7185              		.cfi_offset 9, -24
 7186              		.cfi_offset 18, -32
 7187              		.cfi_offset 19, -40
 7188 21c4 13040103 		addi	s0,sp,48
 7189              		.cfi_def_cfa 8, 0
 375:test/Test8.cpp ****     B3* b3=new B3();
 7190              		.loc 1 375 5
 375:test/Test8.cpp ****     B3* b3=new B3();
 7191              		.loc 1 375 21 is_stmt 0
 7192 21c8 13058003 		li	a0,56
 7193              	.LEHB38:
 7194 21cc 97000000 		call	_Znwm@plt
 7194      E7800000 
 7195              	.LVL863:
 7196              	.LEHE38:
 7197 21d4 13090500 		mv	s2,a0
 7198              	.LVL864:
 7199              	.LEHB39:
 7200              	.LBB431:
 7201              	.LBB432:
 211:test/Test8.cpp ****         printString("Nit A kreirana - id: ");
 7202              		.loc 1 211 61
 7203 21d8 97000000 		call	_ZN6ThreadC2Ev@plt
 7203      E7800000 
 7204              	.LVL865:
 7205              	.LEHE39:
 7206 21e0 97070000 		lla	a5,_ZTV2A3+16
 7206      93870700 
 7207 21e8 2330F900 		sd	a5,0(s2)
 211:test/Test8.cpp ****         printString("Nit A kreirana - id: ");
 7208              		.loc 1 211 25
 7209 21ec 17070000 		lla	a4,.LANCHOR1
 7209      13070700 
 7210 21f4 83270701 		lw	a5,16(a4)
 7211 21f8 9B861700 		addiw	a3,a5,1
 7212 21fc 2328D700 		sw	a3,16(a4)
 211:test/Test8.cpp ****         printString("Nit A kreirana - id: ");
 7213              		.loc 1 211 61
 7214 2200 2320F902 		sw	a5,32(s2)
 7215 2204 23340902 		sd	zero,40(s2)
 7216 2208 23380902 		sd	zero,48(s2)
 212:test/Test8.cpp ****         printInt(id);
 7217              		.loc 1 212 9 is_stmt 1
 212:test/Test8.cpp ****         printInt(id);
 7218              		.loc 1 212 20 is_stmt 0
 7219 220c 17050000 		lla	a0,.LC74
 7219      13050500 
 7220              	.LEHB40:
 7221 2214 97000000 		call	_Z11printStringPKc@plt
 7221      E7800000 
 7222              	.LVL866:
GAS LISTING /tmp/ccCnP6rB.s 			page 182


 213:test/Test8.cpp ****         printString("\n");
 7223              		.loc 1 213 9 is_stmt 1
 213:test/Test8.cpp ****         printString("\n");
 7224              		.loc 1 213 17 is_stmt 0
 7225 221c 13060000 		li	a2,0
 7226 2220 9305A000 		li	a1,10
 7227 2224 03250902 		lw	a0,32(s2)
 7228 2228 97000000 		call	_Z8printIntiii@plt
 7228      E7800000 
 7229              	.LVL867:
 214:test/Test8.cpp ****     }
 7230              		.loc 1 214 9 is_stmt 1
 214:test/Test8.cpp ****     }
 7231              		.loc 1 214 20 is_stmt 0
 7232 2230 17050000 		lla	a0,.LC1
 7232      13050500 
 7233 2238 97000000 		call	_Z11printStringPKc@plt
 7233      E7800000 
 7234              	.LVL868:
 7235              	.LEHE40:
 7236 2240 6F00C002 		j	.L420
 7237              	.L412:
 7238 2244 93040500 		mv	s1,a0
 211:test/Test8.cpp ****         printString("Nit A kreirana - id: ");
 7239              		.loc 1 211 61
 7240 2248 13050900 		mv	a0,s2
 7241 224c 97000000 		call	_ZN6ThreadD2Ev@plt
 7241      E7800000 
 7242              	.LVL869:
 7243              	.L399:
 7244              	.LBE432:
 7245              	.LBE431:
 375:test/Test8.cpp ****     B3* b3=new B3();
 7246              		.loc 1 375 21 discriminator 1
 7247 2254 13050900 		mv	a0,s2
 7248 2258 97000000 		call	_ZdlPv@plt
 7248      E7800000 
 7249              	.LVL870:
 7250 2260 13850400 		mv	a0,s1
 7251              	.LEHB41:
 7252 2264 97000000 		call	_Unwind_Resume@plt
 7252      E7800000 
 7253              	.LVL871:
 7254              	.L420:
 376:test/Test8.cpp ****     C3* c3 = new C3();
 7255              		.loc 1 376 5 is_stmt 1 discriminator 2
 376:test/Test8.cpp ****     C3* c3 = new C3();
 7256              		.loc 1 376 19 is_stmt 0 discriminator 2
 7257 226c 13058003 		li	a0,56
 7258 2270 97000000 		call	_Znwm@plt
 7258      E7800000 
 7259              	.LVL872:
 7260              	.LEHE41:
 7261 2278 93040500 		mv	s1,a0
 7262              	.LVL873:
 7263              	.LEHB42:
 7264              	.LBB433:
GAS LISTING /tmp/ccCnP6rB.s 			page 183


 7265              	.LBB434:
 268:test/Test8.cpp ****         printString("Nit B kreirana - id: ");
 7266              		.loc 1 268 61 discriminator 2
 7267 227c 97000000 		call	_ZN6ThreadC2Ev@plt
 7267      E7800000 
 7268              	.LVL874:
 7269              	.LEHE42:
 268:test/Test8.cpp ****         printString("Nit B kreirana - id: ");
 7270              		.loc 1 268 61
 7271 2284 97070000 		lla	a5,_ZTV2B3+16
 7271      93870700 
 7272 228c 23B0F400 		sd	a5,0(s1)
 268:test/Test8.cpp ****         printString("Nit B kreirana - id: ");
 7273              		.loc 1 268 25
 7274 2290 17070000 		lla	a4,.LANCHOR1
 7274      13070700 
 7275 2298 83270701 		lw	a5,16(a4)
 7276 229c 9B861700 		addiw	a3,a5,1
 7277 22a0 2328D700 		sw	a3,16(a4)
 268:test/Test8.cpp ****         printString("Nit B kreirana - id: ");
 7278              		.loc 1 268 61
 7279 22a4 23A0F402 		sw	a5,32(s1)
 7280 22a8 23B40402 		sd	zero,40(s1)
 7281 22ac 23B80402 		sd	zero,48(s1)
 269:test/Test8.cpp ****         printInt(id);
 7282              		.loc 1 269 9 is_stmt 1
 269:test/Test8.cpp ****         printInt(id);
 7283              		.loc 1 269 20 is_stmt 0
 7284 22b0 17050000 		lla	a0,.LC62
 7284      13050500 
 7285              	.LEHB43:
 7286 22b8 97000000 		call	_Z11printStringPKc@plt
 7286      E7800000 
 7287              	.LVL875:
 270:test/Test8.cpp ****         printString("\n");
 7288              		.loc 1 270 9 is_stmt 1
 270:test/Test8.cpp ****         printString("\n");
 7289              		.loc 1 270 17 is_stmt 0
 7290 22c0 13060000 		li	a2,0
 7291 22c4 9305A000 		li	a1,10
 7292 22c8 03A50402 		lw	a0,32(s1)
 7293 22cc 97000000 		call	_Z8printIntiii@plt
 7293      E7800000 
 7294              	.LVL876:
 271:test/Test8.cpp ****     }
 7295              		.loc 1 271 9 is_stmt 1
 271:test/Test8.cpp ****     }
 7296              		.loc 1 271 20 is_stmt 0
 7297 22d4 17050000 		lla	a0,.LC1
 7297      13050500 
 7298 22dc 97000000 		call	_Z11printStringPKc@plt
 7298      E7800000 
 7299              	.LVL877:
 7300              	.LEHE43:
 7301 22e4 6F00C002 		j	.L421
 7302              	.L413:
 7303 22e8 13090500 		mv	s2,a0
GAS LISTING /tmp/ccCnP6rB.s 			page 184


 7304              	.LVL878:
 268:test/Test8.cpp ****         printString("Nit B kreirana - id: ");
 7305              		.loc 1 268 61
 7306 22ec 13850400 		mv	a0,s1
 7307 22f0 97000000 		call	_ZN6ThreadD2Ev@plt
 7307      E7800000 
 7308              	.LVL879:
 7309              	.L402:
 7310              	.LBE434:
 7311              	.LBE433:
 376:test/Test8.cpp ****     C3* c3 = new C3();
 7312              		.loc 1 376 19 discriminator 3
 7313 22f8 13850400 		mv	a0,s1
 7314 22fc 97000000 		call	_ZdlPv@plt
 7314      E7800000 
 7315              	.LVL880:
 7316 2304 13050900 		mv	a0,s2
 7317              	.LEHB44:
 7318 2308 97000000 		call	_Unwind_Resume@plt
 7318      E7800000 
 7319              	.LVL881:
 7320              	.L421:
 377:test/Test8.cpp **** 
 7321              		.loc 1 377 5 is_stmt 1 discriminator 4
 377:test/Test8.cpp **** 
 7322              		.loc 1 377 21 is_stmt 0 discriminator 4
 7323 2310 13058003 		li	a0,56
 7324 2314 97000000 		call	_Znwm@plt
 7324      E7800000 
 7325              	.LVL882:
 7326              	.LEHE44:
 7327 231c 93090500 		mv	s3,a0
 7328              	.LVL883:
 7329              	.LEHB45:
 7330              	.LBB435:
 7331              	.LBB436:
 323:test/Test8.cpp ****         printString("Nit kreirana - id: ");
 7332              		.loc 1 323 61 discriminator 4
 7333 2320 97000000 		call	_ZN6ThreadC2Ev@plt
 7333      E7800000 
 7334              	.LVL884:
 7335              	.LEHE45:
 323:test/Test8.cpp ****         printString("Nit kreirana - id: ");
 7336              		.loc 1 323 61
 7337 2328 97070000 		lla	a5,_ZTV2C3+16
 7337      93870700 
 7338 2330 23B0F900 		sd	a5,0(s3)
 323:test/Test8.cpp ****         printString("Nit kreirana - id: ");
 7339              		.loc 1 323 25
 7340 2334 17070000 		lla	a4,.LANCHOR1
 7340      13070700 
 7341 233c 83270701 		lw	a5,16(a4)
 7342 2340 9B861700 		addiw	a3,a5,1
 7343 2344 2328D700 		sw	a3,16(a4)
 323:test/Test8.cpp ****         printString("Nit kreirana - id: ");
 7344              		.loc 1 323 61
 7345 2348 23A0F902 		sw	a5,32(s3)
GAS LISTING /tmp/ccCnP6rB.s 			page 185


 7346 234c 23B40902 		sd	zero,40(s3)
 7347 2350 23B80902 		sd	zero,48(s3)
 324:test/Test8.cpp ****         printInt(id);
 7348              		.loc 1 324 9 is_stmt 1
 324:test/Test8.cpp ****         printInt(id);
 7349              		.loc 1 324 20 is_stmt 0
 7350 2354 17050000 		lla	a0,.LC68
 7350      13050500 
 7351              	.LEHB46:
 7352 235c 97000000 		call	_Z11printStringPKc@plt
 7352      E7800000 
 7353              	.LVL885:
 325:test/Test8.cpp ****         printString("\n");
 7354              		.loc 1 325 9 is_stmt 1
 325:test/Test8.cpp ****         printString("\n");
 7355              		.loc 1 325 17 is_stmt 0
 7356 2364 13060000 		li	a2,0
 7357 2368 9305A000 		li	a1,10
 7358 236c 03A50902 		lw	a0,32(s3)
 7359 2370 97000000 		call	_Z8printIntiii@plt
 7359      E7800000 
 7360              	.LVL886:
 326:test/Test8.cpp ****     }
 7361              		.loc 1 326 9 is_stmt 1
 326:test/Test8.cpp ****     }
 7362              		.loc 1 326 20 is_stmt 0
 7363 2378 17050000 		lla	a0,.LC1
 7363      13050500 
 7364 2380 97000000 		call	_Z11printStringPKc@plt
 7364      E7800000 
 7365              	.LVL887:
 7366              	.LEHE46:
 7367 2388 6F00C002 		j	.L422
 7368              	.L414:
 7369 238c 93040500 		mv	s1,a0
 7370              	.LVL888:
 323:test/Test8.cpp ****         printString("Nit kreirana - id: ");
 7371              		.loc 1 323 61
 7372 2390 13850900 		mv	a0,s3
 7373 2394 97000000 		call	_ZN6ThreadD2Ev@plt
 7373      E7800000 
 7374              	.LVL889:
 7375              	.L405:
 7376              	.LBE436:
 7377              	.LBE435:
 377:test/Test8.cpp **** 
 7378              		.loc 1 377 21 discriminator 5
 7379 239c 13850900 		mv	a0,s3
 7380 23a0 97000000 		call	_ZdlPv@plt
 7380      E7800000 
 7381              	.LVL890:
 7382 23a8 13850400 		mv	a0,s1
 7383              	.LEHB47:
 7384 23ac 97000000 		call	_Unwind_Resume@plt
 7384      E7800000 
 7385              	.LVL891:
 7386              	.L422:
GAS LISTING /tmp/ccCnP6rB.s 			page 186


 379:test/Test8.cpp ****     b3->setToSend(a3, nullptr);
 7387              		.loc 1 379 5 is_stmt 1
 7388              	.LBB437:
 7389              	.LBB438:
 217:test/Test8.cpp ****         toSend2 = t2;
 7390              		.loc 1 217 9
 217:test/Test8.cpp ****         toSend2 = t2;
 7391              		.loc 1 217 17 is_stmt 0
 7392 23b4 23349902 		sd	s1,40(s2)
 218:test/Test8.cpp ****     }
 7393              		.loc 1 218 9 is_stmt 1
 218:test/Test8.cpp ****     }
 7394              		.loc 1 218 17 is_stmt 0
 7395 23b8 23383903 		sd	s3,48(s2)
 7396              	.LVL892:
 7397              	.LBE438:
 7398              	.LBE437:
 380:test/Test8.cpp ****     c3->setToSend(a3,b3);
 7399              		.loc 1 380 5 is_stmt 1
 7400              	.LBB439:
 7401              	.LBB440:
 274:test/Test8.cpp ****         toSend2 = t2;
 7402              		.loc 1 274 9
 274:test/Test8.cpp ****         toSend2 = t2;
 7403              		.loc 1 274 17 is_stmt 0
 7404 23bc 23B42403 		sd	s2,40(s1)
 275:test/Test8.cpp ****     }
 7405              		.loc 1 275 9 is_stmt 1
 275:test/Test8.cpp ****     }
 7406              		.loc 1 275 17 is_stmt 0
 7407 23c0 23B80402 		sd	zero,48(s1)
 7408              	.LVL893:
 7409              	.LBE440:
 7410              	.LBE439:
 381:test/Test8.cpp **** 
 7411              		.loc 1 381 5 is_stmt 1
 7412              	.LBB441:
 7413              	.LBB442:
 329:test/Test8.cpp ****         toSend2 = t2;
 7414              		.loc 1 329 9
 329:test/Test8.cpp ****         toSend2 = t2;
 7415              		.loc 1 329 17 is_stmt 0
 7416 23c4 23B42903 		sd	s2,40(s3)
 330:test/Test8.cpp ****     }
 7417              		.loc 1 330 9 is_stmt 1
 330:test/Test8.cpp ****     }
 7418              		.loc 1 330 17 is_stmt 0
 7419 23c8 23B89902 		sd	s1,48(s3)
 7420              	.LVL894:
 7421              	.LBE442:
 7422              	.LBE441:
 383:test/Test8.cpp ****     b3->start();
 7423              		.loc 1 383 5 is_stmt 1
 383:test/Test8.cpp ****     b3->start();
 7424              		.loc 1 383 14 is_stmt 0
 7425 23cc 13050900 		mv	a0,s2
 7426 23d0 97000000 		call	_ZN6Thread5startEv@plt
GAS LISTING /tmp/ccCnP6rB.s 			page 187


 7426      E7800000 
 7427              	.LVL895:
 384:test/Test8.cpp ****     c3->start();
 7428              		.loc 1 384 5 is_stmt 1
 384:test/Test8.cpp ****     c3->start();
 7429              		.loc 1 384 14 is_stmt 0
 7430 23d8 13850400 		mv	a0,s1
 7431 23dc 97000000 		call	_ZN6Thread5startEv@plt
 7431      E7800000 
 7432              	.LVL896:
 385:test/Test8.cpp **** 
 7433              		.loc 1 385 5 is_stmt 1
 385:test/Test8.cpp **** 
 7434              		.loc 1 385 14 is_stmt 0
 7435 23e4 13850900 		mv	a0,s3
 7436 23e8 97000000 		call	_ZN6Thread5startEv@plt
 7436      E7800000 
 7437              	.LVL897:
 387:test/Test8.cpp ****     b3->join();
 7438              		.loc 1 387 5 is_stmt 1
 387:test/Test8.cpp ****     b3->join();
 7439              		.loc 1 387 13 is_stmt 0
 7440 23f0 13050900 		mv	a0,s2
 7441 23f4 97000000 		call	_ZN6Thread4joinEv@plt
 7441      E7800000 
 7442              	.LVL898:
 388:test/Test8.cpp ****     c3->join();
 7443              		.loc 1 388 5 is_stmt 1
 388:test/Test8.cpp ****     c3->join();
 7444              		.loc 1 388 13 is_stmt 0
 7445 23fc 13850400 		mv	a0,s1
 7446 2400 97000000 		call	_ZN6Thread4joinEv@plt
 7446      E7800000 
 7447              	.LVL899:
 389:test/Test8.cpp **** 
 7448              		.loc 1 389 5 is_stmt 1
 389:test/Test8.cpp **** 
 7449              		.loc 1 389 13 is_stmt 0
 7450 2408 13850900 		mv	a0,s3
 7451 240c 97000000 		call	_ZN6Thread4joinEv@plt
 7451      E7800000 
 7452              	.LVL900:
 391:test/Test8.cpp ****     delete b3;
 7453              		.loc 1 391 5 is_stmt 1
 391:test/Test8.cpp ****     delete b3;
 7454              		.loc 1 391 14 is_stmt 0
 7455 2414 630A0900 		beqz	s2,.L406
 391:test/Test8.cpp ****     delete b3;
 7456              		.loc 1 391 12 discriminator 1
 7457 2418 83370900 		ld	a5,0(s2)
 7458 241c 83B78700 		ld	a5,8(a5)
 7459 2420 13050900 		mv	a0,s2
 7460 2424 E7800700 		jalr	a5
 7461              	.LVL901:
 7462              	.L406:
 392:test/Test8.cpp ****     delete c3;
 7463              		.loc 1 392 5 is_stmt 1
GAS LISTING /tmp/ccCnP6rB.s 			page 188


 392:test/Test8.cpp ****     delete c3;
 7464              		.loc 1 392 14 is_stmt 0
 7465 2428 638A0400 		beqz	s1,.L407
 392:test/Test8.cpp ****     delete c3;
 7466              		.loc 1 392 12 discriminator 1
 7467 242c 83B70400 		ld	a5,0(s1)
 7468 2430 83B78700 		ld	a5,8(a5)
 7469 2434 13850400 		mv	a0,s1
 7470 2438 E7800700 		jalr	a5
 7471              	.LVL902:
 7472              	.L407:
 393:test/Test8.cpp **** 
 7473              		.loc 1 393 5 is_stmt 1
 393:test/Test8.cpp **** 
 7474              		.loc 1 393 14 is_stmt 0
 7475 243c 638A0900 		beqz	s3,.L408
 393:test/Test8.cpp **** 
 7476              		.loc 1 393 12 discriminator 1
 7477 2440 83B70900 		ld	a5,0(s3)
 7478 2444 83B78700 		ld	a5,8(a5)
 7479 2448 13850900 		mv	a0,s3
 7480 244c E7800700 		jalr	a5
 7481              	.LVL903:
 7482              	.L408:
 395:test/Test8.cpp **** }
 7483              		.loc 1 395 5 is_stmt 1
 395:test/Test8.cpp **** }
 7484              		.loc 1 395 16 is_stmt 0
 7485 2450 17050000 		lla	a0,.LC75
 7485      13050500 
 7486 2458 97000000 		call	_Z11printStringPKc@plt
 7486      E7800000 
 7487              	.LVL904:
 7488              	.LEHE47:
 396:test/Test8.cpp **** 
 7489              		.loc 1 396 1
 7490 2460 83308102 		ld	ra,40(sp)
 7491              		.cfi_remember_state
 7492              		.cfi_restore 1
 7493 2464 03340102 		ld	s0,32(sp)
 7494              		.cfi_restore 8
 7495              		.cfi_def_cfa 2, 48
 7496 2468 83348101 		ld	s1,24(sp)
 7497              		.cfi_restore 9
 7498              	.LVL905:
 7499 246c 03390101 		ld	s2,16(sp)
 7500              		.cfi_restore 18
 7501              	.LVL906:
 7502 2470 83398100 		ld	s3,8(sp)
 7503              		.cfi_restore 19
 7504              	.LVL907:
 7505 2474 13010103 		addi	sp,sp,48
 7506              		.cfi_def_cfa_offset 0
 7507 2478 67800000 		jr	ra
 7508              	.LVL908:
 7509              	.L409:
 7510              		.cfi_restore_state
GAS LISTING /tmp/ccCnP6rB.s 			page 189


 7511 247c 93040500 		mv	s1,a0
 7512 2480 6FF05FDD 		j	.L399
 7513              	.LVL909:
 7514              	.L410:
 7515 2484 13090500 		mv	s2,a0
 7516              	.LVL910:
 7517 2488 6FF01FE7 		j	.L402
 7518              	.LVL911:
 7519              	.L411:
 7520 248c 93040500 		mv	s1,a0
 7521              	.LVL912:
 7522 2490 6FF0DFF0 		j	.L405
 7523              		.cfi_endproc
 7524              	.LFE35:
 7525              		.section	.gcc_except_table
 7526              	.LLSDA35:
 7527 0204 FF       		.byte	0xff
 7528 0205 FF       		.byte	0xff
 7529 0206 03       		.byte	0x3
 7530 0207 8201     		.byte	0x82,0x1
 7531 0209 00000000 		.4byte	.LEHB38-.LFB35
 7532 020d 00000000 		.4byte	.LEHE38-.LEHB38
 7533 0211 00000000 		.4byte	0
 7534 0215 00       		.byte	0
 7535 0216 00000000 		.4byte	.LEHB39-.LFB35
 7536 021a 00000000 		.4byte	.LEHE39-.LEHB39
 7537 021e 00000000 		.4byte	.L409-.LFB35
 7538 0222 00       		.byte	0
 7539 0223 00000000 		.4byte	.LEHB40-.LFB35
 7540 0227 00000000 		.4byte	.LEHE40-.LEHB40
 7541 022b 00000000 		.4byte	.L412-.LFB35
 7542 022f 00       		.byte	0
 7543 0230 00000000 		.4byte	.LEHB41-.LFB35
 7544 0234 00000000 		.4byte	.LEHE41-.LEHB41
 7545 0238 00000000 		.4byte	0
 7546 023c 00       		.byte	0
 7547 023d 00000000 		.4byte	.LEHB42-.LFB35
 7548 0241 00000000 		.4byte	.LEHE42-.LEHB42
 7549 0245 00000000 		.4byte	.L410-.LFB35
 7550 0249 00       		.byte	0
 7551 024a 00000000 		.4byte	.LEHB43-.LFB35
 7552 024e 00000000 		.4byte	.LEHE43-.LEHB43
 7553 0252 00000000 		.4byte	.L413-.LFB35
 7554 0256 00       		.byte	0
 7555 0257 00000000 		.4byte	.LEHB44-.LFB35
 7556 025b 00000000 		.4byte	.LEHE44-.LEHB44
 7557 025f 00000000 		.4byte	0
 7558 0263 00       		.byte	0
 7559 0264 00000000 		.4byte	.LEHB45-.LFB35
 7560 0268 00000000 		.4byte	.LEHE45-.LEHB45
 7561 026c 00000000 		.4byte	.L411-.LFB35
 7562 0270 00       		.byte	0
 7563 0271 00000000 		.4byte	.LEHB46-.LFB35
 7564 0275 00000000 		.4byte	.LEHE46-.LEHB46
 7565 0279 00000000 		.4byte	.L414-.LFB35
 7566 027d 00       		.byte	0
 7567 027e 00000000 		.4byte	.LEHB47-.LFB35
GAS LISTING /tmp/ccCnP6rB.s 			page 190


 7568 0282 00000000 		.4byte	.LEHE47-.LEHB47
 7569 0286 00000000 		.4byte	0
 7570 028a 00       		.byte	0
 7571              		.text
 7573              		.section	.rodata.str1.8
 7574 05b7 00       		.align	3
 7575              	.LC76:
 7576 05b8 54455354 		.string	"TEST 8 - join ALL uspesno zavrsen\n"
 7576      2038202D 
 7576      206A6F69 
 7576      6E20414C 
 7576      4C207573 
 7577              		.text
 7578              		.align	2
 7579              		.globl	_Z13test_JOIN_allv
 7581              	_Z13test_JOIN_allv:
 7582              	.LFB48:
 500:test/Test8.cpp ****     A4* a4 = new A4();
 7583              		.loc 1 500 21 is_stmt 1
 7584              		.cfi_startproc
 7585              		.cfi_personality 0x9b,DW.ref.__gxx_personality_v0
 7586              		.cfi_lsda 0x1b,.LLSDA48
 7587 2494 130101FE 		addi	sp,sp,-32
 7588              		.cfi_def_cfa_offset 32
 7589 2498 233C1100 		sd	ra,24(sp)
 7590 249c 23388100 		sd	s0,16(sp)
 7591 24a0 23349100 		sd	s1,8(sp)
 7592 24a4 23302101 		sd	s2,0(sp)
 7593              		.cfi_offset 1, -8
 7594              		.cfi_offset 8, -16
 7595              		.cfi_offset 9, -24
 7596              		.cfi_offset 18, -32
 7597 24a8 13040102 		addi	s0,sp,32
 7598              		.cfi_def_cfa 8, 0
 501:test/Test8.cpp ****     a4->start();
 7599              		.loc 1 501 5
 501:test/Test8.cpp ****     a4->start();
 7600              		.loc 1 501 21 is_stmt 0
 7601 24ac 13058002 		li	a0,40
 7602              	.LEHB48:
 7603 24b0 97000000 		call	_Znwm@plt
 7603      E7800000 
 7604              	.LVL913:
 7605              	.LEHE48:
 7606 24b8 93040500 		mv	s1,a0
 7607              	.LVL914:
 7608              	.LEHB49:
 7609              	.LBB446:
 7610              	.LBB447:
 404:test/Test8.cpp ****         printString("Nit A kreirana - id: ");
 7611              		.loc 1 404 28
 7612 24bc 97000000 		call	_ZN6ThreadC2Ev@plt
 7612      E7800000 
 7613              	.LVL915:
 7614              	.LEHE49:
 7615 24c4 97070000 		lla	a5,_ZTV2A4+16
 7615      93870700 
GAS LISTING /tmp/ccCnP6rB.s 			page 191


 7616 24cc 23B0F400 		sd	a5,0(s1)
 404:test/Test8.cpp ****         printString("Nit A kreirana - id: ");
 7617              		.loc 1 404 26
 7618 24d0 17070000 		lla	a4,.LANCHOR1
 7618      13070700 
 7619 24d8 83270700 		lw	a5,0(a4)
 7620 24dc 9B861700 		addiw	a3,a5,1
 7621 24e0 2320D700 		sw	a3,0(a4)
 404:test/Test8.cpp ****         printString("Nit A kreirana - id: ");
 7622              		.loc 1 404 28
 7623 24e4 23A0F402 		sw	a5,32(s1)
 405:test/Test8.cpp ****         printInt(id);
 7624              		.loc 1 405 9 is_stmt 1
 405:test/Test8.cpp ****         printInt(id);
 7625              		.loc 1 405 20 is_stmt 0
 7626 24e8 17050000 		lla	a0,.LC74
 7626      13050500 
 7627              	.LEHB50:
 7628 24f0 97000000 		call	_Z11printStringPKc@plt
 7628      E7800000 
 7629              	.LVL916:
 406:test/Test8.cpp ****         printString("\n");
 7630              		.loc 1 406 9 is_stmt 1
 406:test/Test8.cpp ****         printString("\n");
 7631              		.loc 1 406 17 is_stmt 0
 7632 24f8 13060000 		li	a2,0
 7633 24fc 9305A000 		li	a1,10
 7634 2500 03A50402 		lw	a0,32(s1)
 7635 2504 97000000 		call	_Z8printIntiii@plt
 7635      E7800000 
 7636              	.LVL917:
 407:test/Test8.cpp ****     }
 7637              		.loc 1 407 9 is_stmt 1
 407:test/Test8.cpp ****     }
 7638              		.loc 1 407 20 is_stmt 0
 7639 250c 17050000 		lla	a0,.LC1
 7639      13050500 
 7640 2514 97000000 		call	_Z11printStringPKc@plt
 7640      E7800000 
 7641              	.LVL918:
 7642              	.LEHE50:
 7643 251c 6F00C002 		j	.L433
 7644              	.L429:
 7645 2520 13090500 		mv	s2,a0
 404:test/Test8.cpp ****         printString("Nit A kreirana - id: ");
 7646              		.loc 1 404 28
 7647 2524 13850400 		mv	a0,s1
 7648 2528 97000000 		call	_ZN6ThreadD2Ev@plt
 7648      E7800000 
 7649              	.LVL919:
 7650              	.L426:
 7651              	.LBE447:
 7652              	.LBE446:
 501:test/Test8.cpp ****     a4->start();
 7653              		.loc 1 501 21 discriminator 1
 7654 2530 13850400 		mv	a0,s1
 7655 2534 97000000 		call	_ZdlPv@plt
GAS LISTING /tmp/ccCnP6rB.s 			page 192


 7655      E7800000 
 7656              	.LVL920:
 7657 253c 13050900 		mv	a0,s2
 7658              	.LEHB51:
 7659 2540 97000000 		call	_Unwind_Resume@plt
 7659      E7800000 
 7660              	.LVL921:
 7661              	.L433:
 502:test/Test8.cpp ****     a4->join();
 7662              		.loc 1 502 5 is_stmt 1
 502:test/Test8.cpp ****     a4->join();
 7663              		.loc 1 502 14 is_stmt 0
 7664 2548 13850400 		mv	a0,s1
 7665 254c 97000000 		call	_ZN6Thread5startEv@plt
 7665      E7800000 
 7666              	.LVL922:
 503:test/Test8.cpp ****     delete a4;
 7667              		.loc 1 503 5 is_stmt 1
 503:test/Test8.cpp ****     delete a4;
 7668              		.loc 1 503 13 is_stmt 0
 7669 2554 13850400 		mv	a0,s1
 7670 2558 97000000 		call	_ZN6Thread4joinEv@plt
 7670      E7800000 
 7671              	.LVL923:
 504:test/Test8.cpp **** 
 7672              		.loc 1 504 5 is_stmt 1
 504:test/Test8.cpp **** 
 7673              		.loc 1 504 14 is_stmt 0
 7674 2560 638A0400 		beqz	s1,.L427
 504:test/Test8.cpp **** 
 7675              		.loc 1 504 12 discriminator 1
 7676 2564 83B70400 		ld	a5,0(s1)
 7677 2568 83B78700 		ld	a5,8(a5)
 7678 256c 13850400 		mv	a0,s1
 7679 2570 E7800700 		jalr	a5
 7680              	.LVL924:
 7681              	.L427:
 506:test/Test8.cpp **** 
 7682              		.loc 1 506 5 is_stmt 1
 506:test/Test8.cpp **** 
 7683              		.loc 1 506 16 is_stmt 0
 7684 2574 17050000 		lla	a0,.LC76
 7684      13050500 
 7685 257c 97000000 		call	_Z11printStringPKc@plt
 7685      E7800000 
 7686              	.LVL925:
 7687              	.LEHE51:
 508:test/Test8.cpp **** 
 7688              		.loc 1 508 1
 7689 2584 83308101 		ld	ra,24(sp)
 7690              		.cfi_remember_state
 7691              		.cfi_restore 1
 7692 2588 03340101 		ld	s0,16(sp)
 7693              		.cfi_restore 8
 7694              		.cfi_def_cfa 2, 32
 7695 258c 83348100 		ld	s1,8(sp)
 7696              		.cfi_restore 9
GAS LISTING /tmp/ccCnP6rB.s 			page 193


 7697              	.LVL926:
 7698 2590 03390100 		ld	s2,0(sp)
 7699              		.cfi_restore 18
 7700 2594 13010102 		addi	sp,sp,32
 7701              		.cfi_def_cfa_offset 0
 7702 2598 67800000 		jr	ra
 7703              	.LVL927:
 7704              	.L428:
 7705              		.cfi_restore_state
 7706 259c 13090500 		mv	s2,a0
 7707 25a0 6FF01FF9 		j	.L426
 7708              		.cfi_endproc
 7709              	.LFE48:
 7710              		.section	.gcc_except_table
 7711              	.LLSDA48:
 7712 028b FF       		.byte	0xff
 7713 028c FF       		.byte	0xff
 7714 028d 03       		.byte	0x3
 7715 028e 34       		.byte	0x34
 7716 028f 00000000 		.4byte	.LEHB48-.LFB48
 7717 0293 00000000 		.4byte	.LEHE48-.LEHB48
 7718 0297 00000000 		.4byte	0
 7719 029b 00       		.byte	0
 7720 029c 00000000 		.4byte	.LEHB49-.LFB48
 7721 02a0 00000000 		.4byte	.LEHE49-.LEHB49
 7722 02a4 00000000 		.4byte	.L428-.LFB48
 7723 02a8 00       		.byte	0
 7724 02a9 00000000 		.4byte	.LEHB50-.LFB48
 7725 02ad 00000000 		.4byte	.LEHE50-.LEHB50
 7726 02b1 00000000 		.4byte	.L429-.LFB48
 7727 02b5 00       		.byte	0
 7728 02b6 00000000 		.4byte	.LEHB51-.LFB48
 7729 02ba 00000000 		.4byte	.LEHE51-.LEHB51
 7730 02be 00000000 		.4byte	0
 7731 02c2 00       		.byte	0
 7732              		.text
 7734              		.section	.rodata.str1.8
 7735 05db 00000000 		.align	3
 7735      00
 7736              	.LC77:
 7737 05e0 4E697420 		.string	"Nit A kreirana, ID: "
 7737      41206B72 
 7737      65697261 
 7737      6E612C20 
 7737      49443A20 
 7738 05f5 000000   		.align	3
 7739              	.LC78:
 7740 05f8 54455354 		.string	"TEST 8 - Maksimalan Broj Korisnickih Niti - USPESNO ZAVRSEN\n"
 7740      2038202D 
 7740      204D616B 
 7740      73696D61 
 7740      6C616E20 
 7741              		.text
 7742              		.align	2
 7743              		.globl	_Z17testSetMaxThreadsv
 7745              	_Z17testSetMaxThreadsv:
 7746              	.LFB53:
GAS LISTING /tmp/ccCnP6rB.s 			page 194


 555:test/Test8.cpp ****     Thread* threads[21];
 7747              		.loc 1 555 25 is_stmt 1
 7748              		.cfi_startproc
 7749              		.cfi_personality 0x9b,DW.ref.__gxx_personality_v0
 7750              		.cfi_lsda 0x1b,.LLSDA53
 7751 25a4 130101F2 		addi	sp,sp,-224
 7752              		.cfi_def_cfa_offset 224
 7753 25a8 233C110C 		sd	ra,216(sp)
 7754 25ac 2338810C 		sd	s0,208(sp)
 7755 25b0 2334910C 		sd	s1,200(sp)
 7756 25b4 2330210D 		sd	s2,192(sp)
 7757 25b8 233C310B 		sd	s3,184(sp)
 7758              		.cfi_offset 1, -8
 7759              		.cfi_offset 8, -16
 7760              		.cfi_offset 9, -24
 7761              		.cfi_offset 18, -32
 7762              		.cfi_offset 19, -40
 7763 25bc 1304010E 		addi	s0,sp,224
 7764              		.cfi_def_cfa 8, 0
 556:test/Test8.cpp ****     Thread::setMaxThreads(7);
 7765              		.loc 1 556 5
 557:test/Test8.cpp ****     for(auto& th:threads){
 7766              		.loc 1 557 5
 557:test/Test8.cpp ****     for(auto& th:threads){
 7767              		.loc 1 557 26 is_stmt 0
 7768 25c0 13057000 		li	a0,7
 7769              	.LEHB52:
 7770 25c4 97000000 		call	_ZN6Thread13setMaxThreadsEi@plt
 7770      E7800000 
 7771              	.LVL928:
 7772              	.LEHE52:
 7773              	.LBB455:
 558:test/Test8.cpp ****         th=new A5();
 7774              		.loc 1 558 18
 7775 25cc 130984F2 		addi	s2,s0,-216
 7776 25d0 6F000009 		j	.L439
 7777              	.LVL929:
 7778              	.L453:
 7779              	.LBB456:
 7780              	.LBB457:
 515:test/Test8.cpp ****         printString("Nit A kreirana, ID: ");
 7781              		.loc 1 515 37
 7782 25d4 97070000 		lla	a5,_ZTV2A5+16
 7782      93870700 
 7783 25dc 23B0F400 		sd	a5,0(s1)
 515:test/Test8.cpp ****         printString("Nit A kreirana, ID: ");
 7784              		.loc 1 515 35
 7785 25e0 17070000 		lla	a4,.LANCHOR1
 7785      13070700 
 7786 25e8 83274701 		lw	a5,20(a4)
 7787 25ec 9B861700 		addiw	a3,a5,1
 7788 25f0 232AD700 		sw	a3,20(a4)
 515:test/Test8.cpp ****         printString("Nit A kreirana, ID: ");
 7789              		.loc 1 515 37
 7790 25f4 23A0F402 		sw	a5,32(s1)
 516:test/Test8.cpp ****         printInt(id);
 7791              		.loc 1 516 9 is_stmt 1
GAS LISTING /tmp/ccCnP6rB.s 			page 195


 516:test/Test8.cpp ****         printInt(id);
 7792              		.loc 1 516 20 is_stmt 0
 7793 25f8 17050000 		lla	a0,.LC77
 7793      13050500 
 7794              	.LEHB53:
 7795 2600 97000000 		call	_Z11printStringPKc@plt
 7795      E7800000 
 7796              	.LVL930:
 517:test/Test8.cpp ****         printString("\n");
 7797              		.loc 1 517 9 is_stmt 1
 517:test/Test8.cpp ****         printString("\n");
 7798              		.loc 1 517 17 is_stmt 0
 7799 2608 13060000 		li	a2,0
 7800 260c 9305A000 		li	a1,10
 7801 2610 03A50402 		lw	a0,32(s1)
 7802 2614 97000000 		call	_Z8printIntiii@plt
 7802      E7800000 
 7803              	.LVL931:
 518:test/Test8.cpp ****     }
 7804              		.loc 1 518 9 is_stmt 1
 518:test/Test8.cpp ****     }
 7805              		.loc 1 518 20 is_stmt 0
 7806 261c 17050000 		lla	a0,.LC1
 7806      13050500 
 7807 2624 97000000 		call	_Z11printStringPKc@plt
 7807      E7800000 
 7808              	.LVL932:
 7809              	.LEHE53:
 7810 262c 6F00C002 		j	.L452
 7811              	.L448:
 7812 2630 13090500 		mv	s2,a0
 7813              	.LVL933:
 515:test/Test8.cpp ****         printString("Nit A kreirana, ID: ");
 7814              		.loc 1 515 37
 7815 2634 13850900 		mv	a0,s3
 7816 2638 97000000 		call	_ZN6ThreadD2Ev@plt
 7816      E7800000 
 7817              	.LVL934:
 7818              	.L438:
 7819              	.LBE457:
 7820              	.LBE456:
 559:test/Test8.cpp ****     }
 7821              		.loc 1 559 19 discriminator 1
 7822 2640 13850400 		mv	a0,s1
 7823 2644 97000000 		call	_ZdlPv@plt
 7823      E7800000 
 7824              	.LVL935:
 7825 264c 13050900 		mv	a0,s2
 7826              	.LEHB54:
 7827 2650 97000000 		call	_Unwind_Resume@plt
 7827      E7800000 
 7828              	.LVL936:
 7829              	.L452:
 559:test/Test8.cpp ****     }
 7830              		.loc 1 559 11 discriminator 3
 7831 2658 23309900 		sd	s1,0(s2)
 558:test/Test8.cpp ****         th=new A5();
GAS LISTING /tmp/ccCnP6rB.s 			page 196


 7832              		.loc 1 558 5 is_stmt 1 discriminator 3
 7833 265c 13098900 		addi	s2,s2,8
 7834              	.LVL937:
 7835              	.L439:
 558:test/Test8.cpp ****         th=new A5();
 7836              		.loc 1 558 18 discriminator 1
 7837 2660 930704FD 		addi	a5,s0,-48
 7838 2664 6302F902 		beq	s2,a5,.L444
 7839              	.LVL938:
 559:test/Test8.cpp ****     }
 7840              		.loc 1 559 9 discriminator 2
 559:test/Test8.cpp ****     }
 7841              		.loc 1 559 19 is_stmt 0 discriminator 2
 7842 2668 13058002 		li	a0,40
 7843 266c 97000000 		call	_Znwm@plt
 7843      E7800000 
 7844              	.LVL939:
 7845              	.LEHE54:
 7846 2674 93040500 		mv	s1,a0
 7847              	.LVL940:
 7848              	.LBB459:
 7849              	.LBB458:
 515:test/Test8.cpp ****         printString("Nit A kreirana, ID: ");
 7850              		.loc 1 515 37 discriminator 2
 7851 2678 93090500 		mv	s3,a0
 7852              	.LEHB55:
 7853 267c 97000000 		call	_ZN6ThreadC2Ev@plt
 7853      E7800000 
 7854              	.LVL941:
 7855              	.LEHE55:
 7856 2684 6FF01FF5 		j	.L453
 7857              	.LVL942:
 7858              	.L444:
 7859              	.LBE458:
 7860              	.LBE459:
 7861              	.LBE455:
 7862              	.LBB460:
 561:test/Test8.cpp ****         th->start();
 7863              		.loc 1 561 18
 7864 2688 930484F2 		addi	s1,s0,-216
 7865 268c 6F004001 		j	.L435
 7866              	.LVL943:
 7867              	.L454:
 562:test/Test8.cpp ****     }
 7868              		.loc 1 562 9 is_stmt 1 discriminator 2
 562:test/Test8.cpp ****     }
 7869              		.loc 1 562 18 is_stmt 0 discriminator 2
 7870 2690 03B50400 		ld	a0,0(s1)
 7871              	.LEHB56:
 7872 2694 97000000 		call	_ZN6Thread5startEv@plt
 7872      E7800000 
 7873              	.LVL944:
 561:test/Test8.cpp ****         th->start();
 7874              		.loc 1 561 5 is_stmt 1 discriminator 2
 7875 269c 93848400 		addi	s1,s1,8
 7876              	.LVL945:
 7877              	.L435:
GAS LISTING /tmp/ccCnP6rB.s 			page 197


 561:test/Test8.cpp ****         th->start();
 7878              		.loc 1 561 18 discriminator 1
 7879 26a0 930704FD 		addi	a5,s0,-48
 7880 26a4 E396F4FE 		bne	s1,a5,.L454
 7881              	.LBE460:
 7882              	.LBB461:
 564:test/Test8.cpp ****         th->join();
 7883              		.loc 1 564 18 is_stmt 0
 7884 26a8 930484F2 		addi	s1,s0,-216
 7885              	.LVL946:
 7886 26ac 6F004001 		j	.L440
 7887              	.LVL947:
 7888              	.L455:
 565:test/Test8.cpp ****     }
 7889              		.loc 1 565 9 is_stmt 1 discriminator 2
 565:test/Test8.cpp ****     }
 7890              		.loc 1 565 17 is_stmt 0 discriminator 2
 7891 26b0 03B50400 		ld	a0,0(s1)
 7892 26b4 97000000 		call	_ZN6Thread4joinEv@plt
 7892      E7800000 
 7893              	.LVL948:
 564:test/Test8.cpp ****         th->join();
 7894              		.loc 1 564 5 is_stmt 1 discriminator 2
 7895 26bc 93848400 		addi	s1,s1,8
 7896              	.LVL949:
 7897              	.L440:
 564:test/Test8.cpp ****         th->join();
 7898              		.loc 1 564 18 discriminator 1
 7899 26c0 930704FD 		addi	a5,s0,-48
 7900 26c4 E396F4FE 		bne	s1,a5,.L455
 7901              	.LBE461:
 7902              	.LBB462:
 567:test/Test8.cpp ****         delete th;
 7903              		.loc 1 567 18 is_stmt 0
 7904 26c8 930484F2 		addi	s1,s0,-216
 7905              	.LVL950:
 7906 26cc 6F008000 		j	.L441
 7907              	.LVL951:
 7908              	.L443:
 567:test/Test8.cpp ****         delete th;
 7909              		.loc 1 567 5 is_stmt 1 discriminator 3
 7910 26d0 93848400 		addi	s1,s1,8
 7911              	.LVL952:
 7912              	.L441:
 567:test/Test8.cpp ****         delete th;
 7913              		.loc 1 567 18 discriminator 1
 7914 26d4 930704FD 		addi	a5,s0,-48
 7915 26d8 638EF400 		beq	s1,a5,.L442
 7916              	.LVL953:
 568:test/Test8.cpp ****     }
 7917              		.loc 1 568 9 discriminator 2
 568:test/Test8.cpp ****     }
 7918              		.loc 1 568 16 is_stmt 0 discriminator 2
 7919 26dc 03B50400 		ld	a0,0(s1)
 568:test/Test8.cpp ****     }
 7920              		.loc 1 568 18 discriminator 2
 7921 26e0 E30805FE 		beqz	a0,.L443
GAS LISTING /tmp/ccCnP6rB.s 			page 198


 568:test/Test8.cpp ****     }
 7922              		.loc 1 568 16 discriminator 1
 7923 26e4 83370500 		ld	a5,0(a0)
 7924 26e8 83B78700 		ld	a5,8(a5)
 7925 26ec E7800700 		jalr	a5
 7926              	.LVL954:
 7927 26f0 6FF01FFE 		j	.L443
 7928              	.LVL955:
 7929              	.L442:
 7930              	.LBE462:
 570:test/Test8.cpp **** 
 7931              		.loc 1 570 5 is_stmt 1
 570:test/Test8.cpp **** 
 7932              		.loc 1 570 16 is_stmt 0
 7933 26f4 17050000 		lla	a0,.LC78
 7933      13050500 
 7934 26fc 97000000 		call	_Z11printStringPKc@plt
 7934      E7800000 
 7935              	.LVL956:
 7936              	.LEHE56:
 572:test/Test8.cpp **** static int x=0;
 7937              		.loc 1 572 1
 7938 2704 8330810D 		ld	ra,216(sp)
 7939              		.cfi_remember_state
 7940              		.cfi_restore 1
 7941 2708 0334010D 		ld	s0,208(sp)
 7942              		.cfi_restore 8
 7943              		.cfi_def_cfa 2, 224
 7944 270c 8334810C 		ld	s1,200(sp)
 7945              		.cfi_restore 9
 7946              	.LVL957:
 7947 2710 0339010C 		ld	s2,192(sp)
 7948              		.cfi_restore 18
 7949              	.LVL958:
 7950 2714 8339810B 		ld	s3,184(sp)
 7951              		.cfi_restore 19
 7952 2718 1301010E 		addi	sp,sp,224
 7953              		.cfi_def_cfa_offset 0
 7954 271c 67800000 		jr	ra
 7955              	.LVL959:
 7956              	.L447:
 7957              		.cfi_restore_state
 7958 2720 13090500 		mv	s2,a0
 7959              	.LVL960:
 7960 2724 6FF0DFF1 		j	.L438
 7961              		.cfi_endproc
 7962              	.LFE53:
 7963              		.section	.gcc_except_table
 7964              	.LLSDA53:
 7965 02c3 FF       		.byte	0xff
 7966 02c4 FF       		.byte	0xff
 7967 02c5 03       		.byte	0x3
 7968 02c6 41       		.byte	0x41
 7969 02c7 00000000 		.4byte	.LEHB52-.LFB53
 7970 02cb 00000000 		.4byte	.LEHE52-.LEHB52
 7971 02cf 00000000 		.4byte	0
 7972 02d3 00       		.byte	0
GAS LISTING /tmp/ccCnP6rB.s 			page 199


 7973 02d4 00000000 		.4byte	.LEHB53-.LFB53
 7974 02d8 00000000 		.4byte	.LEHE53-.LEHB53
 7975 02dc 00000000 		.4byte	.L448-.LFB53
 7976 02e0 00       		.byte	0
 7977 02e1 00000000 		.4byte	.LEHB54-.LFB53
 7978 02e5 00000000 		.4byte	.LEHE54-.LEHB54
 7979 02e9 00000000 		.4byte	0
 7980 02ed 00       		.byte	0
 7981 02ee 00000000 		.4byte	.LEHB55-.LFB53
 7982 02f2 00000000 		.4byte	.LEHE55-.LEHB55
 7983 02f6 00000000 		.4byte	.L447-.LFB53
 7984 02fa 00       		.byte	0
 7985 02fb 00000000 		.4byte	.LEHB56-.LFB53
 7986 02ff 00000000 		.4byte	.LEHE56-.LEHB56
 7987 0303 00000000 		.4byte	0
 7988 0307 00       		.byte	0
 7989              		.text
 7991              		.section	.rodata.str1.8
 7992 0635 000000   		.align	3
 7993              	.LC79:
 7994 0638 50726F64 		.string	"Producer kreiran\n"
 7994      75636572 
 7994      206B7265 
 7994      6972616E 
 7994      0A00
 7995 064a 00000000 		.align	3
 7995      0000
 7996              	.LC80:
 7997 0650 436F6E73 		.string	"Consumer kreiran\n"
 7997      756D6572 
 7997      206B7265 
 7997      6972616E 
 7997      0A00
 7998 0662 00000000 		.align	3
 7998      0000
 7999              	.LC81:
 8000 0668 74657374 		.string	"test 8 - atomic broadcast uspesno zavrsen\n"
 8000      2038202D 
 8000      2061746F 
 8000      6D696320 
 8000      62726F61 
 8001              		.text
 8002              		.align	2
 8003              		.globl	_Z19testAtomicBroadcastv
 8005              	_Z19testAtomicBroadcastv:
 8006              	.LFB62:
 621:test/Test8.cpp ****     Thread* array[9];
 8007              		.loc 1 621 27 is_stmt 1
 8008              		.cfi_startproc
 8009              		.cfi_personality 0x9b,DW.ref.__gxx_personality_v0
 8010              		.cfi_lsda 0x1b,.LLSDA62
 8011 2728 130101F8 		addi	sp,sp,-128
 8012              		.cfi_def_cfa_offset 128
 8013 272c 233C1106 		sd	ra,120(sp)
 8014 2730 23388106 		sd	s0,112(sp)
 8015 2734 23349106 		sd	s1,104(sp)
 8016 2738 23302107 		sd	s2,96(sp)
GAS LISTING /tmp/ccCnP6rB.s 			page 200


 8017 273c 233C3105 		sd	s3,88(sp)
 8018              		.cfi_offset 1, -8
 8019              		.cfi_offset 8, -16
 8020              		.cfi_offset 9, -24
 8021              		.cfi_offset 18, -32
 8022              		.cfi_offset 19, -40
 8023 2740 13040108 		addi	s0,sp,128
 8024              		.cfi_def_cfa 8, 0
 622:test/Test8.cpp ****     array[0] = new A7();
 8025              		.loc 1 622 5
 623:test/Test8.cpp ****     //array[1] = new A7();
 8026              		.loc 1 623 5
 623:test/Test8.cpp ****     //array[1] = new A7();
 8027              		.loc 1 623 23 is_stmt 0
 8028 2744 13058002 		li	a0,40
 8029              	.LEHB57:
 8030 2748 97000000 		call	_Znwm@plt
 8030      E7800000 
 8031              	.LVL961:
 8032              	.LEHE57:
 8033 2750 93040500 		mv	s1,a0
 8034              	.LVL962:
 8035              	.LEHB58:
 8036              	.LBB473:
 8037              	.LBB474:
 577:test/Test8.cpp ****         printString("Producer kreiran\n");
 8038              		.loc 1 577 26
 8039 2754 97000000 		call	_ZN6ThreadC2Ev@plt
 8039      E7800000 
 8040              	.LVL963:
 8041              	.LEHE58:
 8042 275c 97070000 		lla	a5,_ZTV2A7+16
 8042      93870700 
 8043 2764 23B0F400 		sd	a5,0(s1)
 577:test/Test8.cpp ****         printString("Producer kreiran\n");
 8044              		.loc 1 577 24
 8045 2768 17070000 		lla	a4,.LANCHOR0
 8045      13070700 
 8046 2770 83278701 		lw	a5,24(a4)
 8047 2774 9B861700 		addiw	a3,a5,1
 8048 2778 232CD700 		sw	a3,24(a4)
 577:test/Test8.cpp ****         printString("Producer kreiran\n");
 8049              		.loc 1 577 26
 8050 277c 23A0F402 		sw	a5,32(s1)
 578:test/Test8.cpp ****     }
 8051              		.loc 1 578 9 is_stmt 1
 578:test/Test8.cpp ****     }
 8052              		.loc 1 578 20 is_stmt 0
 8053 2780 17050000 		lla	a0,.LC79
 8053      13050500 
 8054              	.LEHB59:
 8055 2788 97000000 		call	_Z11printStringPKc@plt
 8055      E7800000 
 8056              	.LVL964:
 8057              	.LEHE59:
 8058 2790 6F00C002 		j	.L480
 8059              	.L474:
GAS LISTING /tmp/ccCnP6rB.s 			page 201


 8060 2794 13090500 		mv	s2,a0
 577:test/Test8.cpp ****         printString("Producer kreiran\n");
 8061              		.loc 1 577 26
 8062 2798 13850400 		mv	a0,s1
 8063 279c 97000000 		call	_ZN6ThreadD2Ev@plt
 8063      E7800000 
 8064              	.LVL965:
 8065              	.L459:
 8066              	.LBE474:
 8067              	.LBE473:
 623:test/Test8.cpp ****     //array[1] = new A7();
 8068              		.loc 1 623 23 discriminator 1
 8069 27a4 13850400 		mv	a0,s1
 8070 27a8 97000000 		call	_ZdlPv@plt
 8070      E7800000 
 8071              	.LVL966:
 8072 27b0 13050900 		mv	a0,s2
 8073              	.LEHB60:
 8074 27b4 97000000 		call	_Unwind_Resume@plt
 8074      E7800000 
 8075              	.LVL967:
 8076              	.LEHE60:
 8077              	.L480:
 623:test/Test8.cpp ****     //array[1] = new A7();
 8078              		.loc 1 623 14
 8079 27bc 233494F8 		sd	s1,-120(s0)
 626:test/Test8.cpp ****     for(int i=1;i<9;i++){
 8080              		.loc 1 626 5 is_stmt 1
 626:test/Test8.cpp ****     for(int i=1;i<9;i++){
 8081              		.loc 1 626 6 is_stmt 0
 8082 27c0 97070000 		sw	zero,.LANCHOR0+24,a5
 8082      23A00700 
 627:test/Test8.cpp ****         array[i] = new B7();
 8083              		.loc 1 627 5 is_stmt 1
 8084              	.LVL968:
 8085              	.LBB475:
 627:test/Test8.cpp ****         array[i] = new B7();
 8086              		.loc 1 627 13 is_stmt 0
 8087 27c8 13091000 		li	s2,1
 8088 27cc 6F008007 		j	.L464
 8089              	.LVL969:
 8090              	.L482:
 8091              	.LBB476:
 8092              	.LBB477:
 600:test/Test8.cpp ****         printString("Consumer kreiran\n");
 8093              		.loc 1 600 28
 8094 27d0 97070000 		lla	a5,_ZTV2B7+16
 8094      93870700 
 8095 27d8 23B0F400 		sd	a5,0(s1)
 600:test/Test8.cpp ****         printString("Consumer kreiran\n");
 8096              		.loc 1 600 26
 8097 27dc 17070000 		lla	a4,.LANCHOR0
 8097      13070700 
 8098 27e4 83278701 		lw	a5,24(a4)
 8099 27e8 9B861700 		addiw	a3,a5,1
 8100 27ec 232CD700 		sw	a3,24(a4)
 600:test/Test8.cpp ****         printString("Consumer kreiran\n");
GAS LISTING /tmp/ccCnP6rB.s 			page 202


 8101              		.loc 1 600 28
 8102 27f0 23A0F402 		sw	a5,32(s1)
 601:test/Test8.cpp ****     }
 8103              		.loc 1 601 9 is_stmt 1
 601:test/Test8.cpp ****     }
 8104              		.loc 1 601 20 is_stmt 0
 8105 27f4 17050000 		lla	a0,.LC80
 8105      13050500 
 8106              	.LEHB61:
 8107 27fc 97000000 		call	_Z11printStringPKc@plt
 8107      E7800000 
 8108              	.LVL970:
 8109              	.LEHE61:
 8110 2804 6F00C002 		j	.L481
 8111              	.L475:
 8112 2808 13090500 		mv	s2,a0
 8113              	.LVL971:
 600:test/Test8.cpp ****         printString("Consumer kreiran\n");
 8114              		.loc 1 600 28
 8115 280c 13850900 		mv	a0,s3
 8116 2810 97000000 		call	_ZN6ThreadD2Ev@plt
 8116      E7800000 
 8117              	.LVL972:
 8118              	.L463:
 8119              	.LBE477:
 8120              	.LBE476:
 628:test/Test8.cpp ****     }
 8121              		.loc 1 628 27 discriminator 2
 8122 2818 13850400 		mv	a0,s1
 8123 281c 97000000 		call	_ZdlPv@plt
 8123      E7800000 
 8124              	.LVL973:
 8125 2824 13050900 		mv	a0,s2
 8126              	.LEHB62:
 8127 2828 97000000 		call	_Unwind_Resume@plt
 8127      E7800000 
 8128              	.LVL974:
 8129              	.L481:
 628:test/Test8.cpp ****     }
 8130              		.loc 1 628 18 discriminator 2
 8131 2830 93173900 		slli	a5,s2,3
 8132 2834 130704FD 		addi	a4,s0,-48
 8133 2838 B307F700 		add	a5,a4,a5
 8134 283c 23BC97FA 		sd	s1,-72(a5)
 627:test/Test8.cpp ****         array[i] = new B7();
 8135              		.loc 1 627 5 is_stmt 1 discriminator 2
 8136 2840 1B091900 		addiw	s2,s2,1
 8137              	.LVL975:
 8138              	.L464:
 627:test/Test8.cpp ****         array[i] = new B7();
 8139              		.loc 1 627 18 discriminator 1
 8140 2844 93078000 		li	a5,8
 8141 2848 63C22703 		bgt	s2,a5,.L469
 628:test/Test8.cpp ****     }
 8142              		.loc 1 628 9
 628:test/Test8.cpp ****     }
 8143              		.loc 1 628 27 is_stmt 0
GAS LISTING /tmp/ccCnP6rB.s 			page 203


 8144 284c 13058002 		li	a0,40
 8145 2850 97000000 		call	_Znwm@plt
 8145      E7800000 
 8146              	.LVL976:
 8147              	.LEHE62:
 8148 2858 93040500 		mv	s1,a0
 8149              	.LVL977:
 8150              	.LBB479:
 8151              	.LBB478:
 600:test/Test8.cpp ****         printString("Consumer kreiran\n");
 8152              		.loc 1 600 28
 8153 285c 93090500 		mv	s3,a0
 8154              	.LEHB63:
 8155 2860 97000000 		call	_ZN6ThreadC2Ev@plt
 8155      E7800000 
 8156              	.LVL978:
 8157              	.LEHE63:
 8158 2868 6FF09FF6 		j	.L482
 8159              	.LVL979:
 8160              	.L469:
 8161              	.LBE478:
 8162              	.LBE479:
 8163              	.LBE475:
 8164              	.LBB480:
 630:test/Test8.cpp ****         nit->start();
 8165              		.loc 1 630 19
 8166 286c 930484F8 		addi	s1,s0,-120
 8167 2870 6F004001 		j	.L460
 8168              	.LVL980:
 8169              	.L483:
 631:test/Test8.cpp ****     }
 8170              		.loc 1 631 9 is_stmt 1 discriminator 2
 631:test/Test8.cpp ****     }
 8171              		.loc 1 631 19 is_stmt 0 discriminator 2
 8172 2874 03B50400 		ld	a0,0(s1)
 8173              	.LEHB64:
 8174 2878 97000000 		call	_ZN6Thread5startEv@plt
 8174      E7800000 
 8175              	.LVL981:
 630:test/Test8.cpp ****         nit->start();
 8176              		.loc 1 630 5 is_stmt 1 discriminator 2
 8177 2880 93848400 		addi	s1,s1,8
 8178              	.LVL982:
 8179              	.L460:
 630:test/Test8.cpp ****         nit->start();
 8180              		.loc 1 630 19 discriminator 1
 8181 2884 930704FD 		addi	a5,s0,-48
 8182 2888 E396F4FE 		bne	s1,a5,.L483
 8183              	.LBE480:
 8184              	.LBB481:
 634:test/Test8.cpp ****         nit->join();
 8185              		.loc 1 634 19 is_stmt 0
 8186 288c 930484F8 		addi	s1,s0,-120
 8187              	.LVL983:
 8188 2890 6F004001 		j	.L465
 8189              	.LVL984:
 8190              	.L484:
GAS LISTING /tmp/ccCnP6rB.s 			page 204


 635:test/Test8.cpp ****     }
 8191              		.loc 1 635 9 is_stmt 1 discriminator 2
 635:test/Test8.cpp ****     }
 8192              		.loc 1 635 18 is_stmt 0 discriminator 2
 8193 2894 03B50400 		ld	a0,0(s1)
 8194 2898 97000000 		call	_ZN6Thread4joinEv@plt
 8194      E7800000 
 8195              	.LVL985:
 634:test/Test8.cpp ****         nit->join();
 8196              		.loc 1 634 5 is_stmt 1 discriminator 2
 8197 28a0 93848400 		addi	s1,s1,8
 8198              	.LVL986:
 8199              	.L465:
 634:test/Test8.cpp ****         nit->join();
 8200              		.loc 1 634 19 discriminator 1
 8201 28a4 930704FD 		addi	a5,s0,-48
 8202 28a8 E396F4FE 		bne	s1,a5,.L484
 8203              	.LBE481:
 8204              	.LBB482:
 638:test/Test8.cpp ****         delete nit;
 8205              		.loc 1 638 19 is_stmt 0
 8206 28ac 930484F8 		addi	s1,s0,-120
 8207              	.LVL987:
 8208 28b0 6F008000 		j	.L466
 8209              	.LVL988:
 8210              	.L468:
 638:test/Test8.cpp ****         delete nit;
 8211              		.loc 1 638 5 is_stmt 1 discriminator 3
 8212 28b4 93848400 		addi	s1,s1,8
 8213              	.LVL989:
 8214              	.L466:
 638:test/Test8.cpp ****         delete nit;
 8215              		.loc 1 638 19 discriminator 1
 8216 28b8 930704FD 		addi	a5,s0,-48
 8217 28bc 638EF400 		beq	s1,a5,.L467
 8218              	.LVL990:
 639:test/Test8.cpp ****     }
 8219              		.loc 1 639 9 discriminator 2
 639:test/Test8.cpp ****     }
 8220              		.loc 1 639 16 is_stmt 0 discriminator 2
 8221 28c0 03B50400 		ld	a0,0(s1)
 639:test/Test8.cpp ****     }
 8222              		.loc 1 639 19 discriminator 2
 8223 28c4 E30805FE 		beqz	a0,.L468
 639:test/Test8.cpp ****     }
 8224              		.loc 1 639 16 discriminator 1
 8225 28c8 83370500 		ld	a5,0(a0)
 8226 28cc 83B78700 		ld	a5,8(a5)
 8227 28d0 E7800700 		jalr	a5
 8228              	.LVL991:
 8229 28d4 6FF01FFE 		j	.L468
 8230              	.LVL992:
 8231              	.L467:
 8232              	.LBE482:
 641:test/Test8.cpp **** }
 8233              		.loc 1 641 5 is_stmt 1
 641:test/Test8.cpp **** }
GAS LISTING /tmp/ccCnP6rB.s 			page 205


 8234              		.loc 1 641 16 is_stmt 0
 8235 28d8 17050000 		lla	a0,.LC81
 8235      13050500 
 8236 28e0 97000000 		call	_Z11printStringPKc@plt
 8236      E7800000 
 8237              	.LVL993:
 8238              	.LEHE64:
 642:test/Test8.cpp **** 
 8239              		.loc 1 642 1
 8240 28e8 83308107 		ld	ra,120(sp)
 8241              		.cfi_remember_state
 8242              		.cfi_restore 1
 8243 28ec 03340107 		ld	s0,112(sp)
 8244              		.cfi_restore 8
 8245              		.cfi_def_cfa 2, 128
 8246 28f0 83348106 		ld	s1,104(sp)
 8247              		.cfi_restore 9
 8248              	.LVL994:
 8249 28f4 03390106 		ld	s2,96(sp)
 8250              		.cfi_restore 18
 8251              	.LVL995:
 8252 28f8 83398105 		ld	s3,88(sp)
 8253              		.cfi_restore 19
 8254 28fc 13010108 		addi	sp,sp,128
 8255              		.cfi_def_cfa_offset 0
 8256 2900 67800000 		jr	ra
 8257              	.LVL996:
 8258              	.L472:
 8259              		.cfi_restore_state
 8260 2904 13090500 		mv	s2,a0
 8261 2908 6FF0DFE9 		j	.L459
 8262              	.LVL997:
 8263              	.L473:
 8264 290c 13090500 		mv	s2,a0
 8265              	.LVL998:
 8266 2910 6FF09FF0 		j	.L463
 8267              		.cfi_endproc
 8268              	.LFE62:
 8269              		.section	.gcc_except_table
 8270              	.LLSDA62:
 8271 0308 FF       		.byte	0xff
 8272 0309 FF       		.byte	0xff
 8273 030a 03       		.byte	0x3
 8274 030b 68       		.byte	0x68
 8275 030c 00000000 		.4byte	.LEHB57-.LFB62
 8276 0310 00000000 		.4byte	.LEHE57-.LEHB57
 8277 0314 00000000 		.4byte	0
 8278 0318 00       		.byte	0
 8279 0319 00000000 		.4byte	.LEHB58-.LFB62
 8280 031d 00000000 		.4byte	.LEHE58-.LEHB58
 8281 0321 00000000 		.4byte	.L472-.LFB62
 8282 0325 00       		.byte	0
 8283 0326 00000000 		.4byte	.LEHB59-.LFB62
 8284 032a 00000000 		.4byte	.LEHE59-.LEHB59
 8285 032e 00000000 		.4byte	.L474-.LFB62
 8286 0332 00       		.byte	0
 8287 0333 00000000 		.4byte	.LEHB60-.LFB62
GAS LISTING /tmp/ccCnP6rB.s 			page 206


 8288 0337 00000000 		.4byte	.LEHE60-.LEHB60
 8289 033b 00000000 		.4byte	0
 8290 033f 00       		.byte	0
 8291 0340 00000000 		.4byte	.LEHB61-.LFB62
 8292 0344 00000000 		.4byte	.LEHE61-.LEHB61
 8293 0348 00000000 		.4byte	.L475-.LFB62
 8294 034c 00       		.byte	0
 8295 034d 00000000 		.4byte	.LEHB62-.LFB62
 8296 0351 00000000 		.4byte	.LEHE62-.LEHB62
 8297 0355 00000000 		.4byte	0
 8298 0359 00       		.byte	0
 8299 035a 00000000 		.4byte	.LEHB63-.LFB62
 8300 035e 00000000 		.4byte	.LEHE63-.LEHB63
 8301 0362 00000000 		.4byte	.L473-.LFB62
 8302 0366 00       		.byte	0
 8303 0367 00000000 		.4byte	.LEHB64-.LFB62
 8304 036b 00000000 		.4byte	.LEHE64-.LEHB64
 8305 036f 00000000 		.4byte	0
 8306 0373 00       		.byte	0
 8307              		.text
 8309              		.section	.rodata.str1.8
 8310 0693 00000000 		.align	3
 8310      00
 8311              	.LC82:
 8312 0698 54455354 		.string	"TEST 8 - molekul kiseonika gotov\n"
 8312      2038202D 
 8312      206D6F6C 
 8312      656B756C 
 8312      206B6973 
 8313              		.text
 8314              		.align	2
 8315              		.globl	_Z7testH2Ov
 8317              	_Z7testH2Ov:
 8318              	.LFB67:
 689:test/Test8.cpp ****     A8* niz[TH];
 8319              		.loc 1 689 15 is_stmt 1
 8320              		.cfi_startproc
 8321              		.cfi_personality 0x9b,DW.ref.__gxx_personality_v0
 8322              		.cfi_lsda 0x1b,.LLSDA67
 8323 2914 130101F5 		addi	sp,sp,-176
 8324              		.cfi_def_cfa_offset 176
 8325 2918 2334110A 		sd	ra,168(sp)
 8326 291c 2330810A 		sd	s0,160(sp)
 8327 2920 233C9108 		sd	s1,152(sp)
 8328 2924 23382109 		sd	s2,144(sp)
 8329 2928 23343109 		sd	s3,136(sp)
 8330              		.cfi_offset 1, -8
 8331              		.cfi_offset 8, -16
 8332              		.cfi_offset 9, -24
 8333              		.cfi_offset 18, -32
 8334              		.cfi_offset 19, -40
 8335 292c 1304010B 		addi	s0,sp,176
 8336              		.cfi_def_cfa 8, 0
 690:test/Test8.cpp ****     for(int i=0;i<TH;i++){
 8337              		.loc 1 690 5
 8338              	.LVL999:
 691:test/Test8.cpp ****         if(i%3==0){
GAS LISTING /tmp/ccCnP6rB.s 			page 207


 8339              		.loc 1 691 5
 8340              	.LBB493:
 691:test/Test8.cpp ****         if(i%3==0){
 8341              		.loc 1 691 13 is_stmt 0
 8342 2930 93040000 		li	s1,0
 8343 2934 6F00000A 		j	.L495
 8344              	.LVL1000:
 8345              	.L512:
 8346              	.LBB494:
 8347              	.LBB495:
 652:test/Test8.cpp ****         printString("Nit kreirana - id: ");
 8348              		.loc 1 652 39
 8349 2938 97070000 		lla	a5,_ZTV2A8+16
 8349      93870700 
 8350 2940 2330F900 		sd	a5,0(s2)
 652:test/Test8.cpp ****         printString("Nit kreirana - id: ");
 8351              		.loc 1 652 29
 8352 2944 17070000 		lla	a4,.LANCHOR1
 8352      13070700 
 8353 294c 83278701 		lw	a5,24(a4)
 8354 2950 9B861700 		addiw	a3,a5,1
 8355 2954 232CD700 		sw	a3,24(a4)
 652:test/Test8.cpp ****         printString("Nit kreirana - id: ");
 8356              		.loc 1 652 39
 8357 2958 2320F902 		sw	a5,32(s2)
 8358 295c 23220902 		sw	zero,36(s2)
 653:test/Test8.cpp ****         printInt(id);
 8359              		.loc 1 653 9 is_stmt 1
 653:test/Test8.cpp ****         printInt(id);
 8360              		.loc 1 653 20 is_stmt 0
 8361 2960 17050000 		lla	a0,.LC68
 8361      13050500 
 8362              	.LEHB65:
 8363 2968 97000000 		call	_Z11printStringPKc@plt
 8363      E7800000 
 8364              	.LVL1001:
 654:test/Test8.cpp ****         printString("\n");
 8365              		.loc 1 654 9 is_stmt 1
 654:test/Test8.cpp ****         printString("\n");
 8366              		.loc 1 654 17 is_stmt 0
 8367 2970 13060000 		li	a2,0
 8368 2974 9305A000 		li	a1,10
 8369 2978 03250902 		lw	a0,32(s2)
 8370 297c 97000000 		call	_Z8printIntiii@plt
 8370      E7800000 
 8371              	.LVL1002:
 655:test/Test8.cpp ****     }
 8372              		.loc 1 655 9 is_stmt 1
 655:test/Test8.cpp ****     }
 8373              		.loc 1 655 20 is_stmt 0
 8374 2984 17050000 		lla	a0,.LC1
 8374      13050500 
 8375 298c 97000000 		call	_Z11printStringPKc@plt
 8375      E7800000 
 8376              	.LVL1003:
 8377              	.LEHE65:
 8378 2994 6F00C002 		j	.L511
GAS LISTING /tmp/ccCnP6rB.s 			page 208


 8379              	.L505:
 8380 2998 93040500 		mv	s1,a0
 8381              	.LVL1004:
 652:test/Test8.cpp ****         printString("Nit kreirana - id: ");
 8382              		.loc 1 652 39
 8383 299c 13850900 		mv	a0,s3
 8384 29a0 97000000 		call	_ZN6ThreadD2Ev@plt
 8384      E7800000 
 8385              	.LVL1005:
 8386              	.L490:
 8387              	.LBE495:
 8388              	.LBE494:
 693:test/Test8.cpp ****         }else{
 8389              		.loc 1 693 28 discriminator 2
 8390 29a8 13050900 		mv	a0,s2
 8391 29ac 97000000 		call	_ZdlPv@plt
 8391      E7800000 
 8392              	.LVL1006:
 8393 29b4 13850400 		mv	a0,s1
 8394              	.LEHB66:
 8395 29b8 97000000 		call	_Unwind_Resume@plt
 8395      E7800000 
 8396              	.LVL1007:
 8397              	.L511:
 693:test/Test8.cpp ****         }else{
 8398              		.loc 1 693 19 discriminator 3
 8399 29c0 93973400 		slli	a5,s1,3
 8400 29c4 130704FD 		addi	a4,s0,-48
 8401 29c8 B307F700 		add	a5,a4,a5
 8402 29cc 23B427F9 		sd	s2,-120(a5)
 8403              	.L491:
 691:test/Test8.cpp ****         if(i%3==0){
 8404              		.loc 1 691 5 is_stmt 1 discriminator 2
 8405 29d0 9B841400 		addiw	s1,s1,1
 8406              	.LVL1008:
 8407              	.L495:
 691:test/Test8.cpp ****         if(i%3==0){
 8408              		.loc 1 691 18 discriminator 1
 8409 29d4 9307E000 		li	a5,14
 8410 29d8 63C6970E 		bgt	s1,a5,.L486
 692:test/Test8.cpp ****             niz[i]=new A8(0);
 8411              		.loc 1 692 9
 692:test/Test8.cpp ****             niz[i]=new A8(0);
 8412              		.loc 1 692 13 is_stmt 0
 8413 29dc 93073000 		li	a5,3
 8414 29e0 BBE7F402 		remw	a5,s1,a5
 692:test/Test8.cpp ****             niz[i]=new A8(0);
 8415              		.loc 1 692 9
 8416 29e4 63920702 		bnez	a5,.L487
 693:test/Test8.cpp ****         }else{
 8417              		.loc 1 693 13 is_stmt 1
 693:test/Test8.cpp ****         }else{
 8418              		.loc 1 693 28 is_stmt 0
 8419 29e8 13058002 		li	a0,40
 8420 29ec 97000000 		call	_Znwm@plt
 8420      E7800000 
 8421              	.LVL1009:
GAS LISTING /tmp/ccCnP6rB.s 			page 209


 8422              	.LEHE66:
 8423 29f4 13090500 		mv	s2,a0
 8424              	.LVL1010:
 8425              	.LBB497:
 8426              	.LBB496:
 652:test/Test8.cpp ****         printString("Nit kreirana - id: ");
 8427              		.loc 1 652 39
 8428 29f8 93090500 		mv	s3,a0
 8429              	.LEHB67:
 8430 29fc 97000000 		call	_ZN6ThreadC2Ev@plt
 8430      E7800000 
 8431              	.LVL1011:
 8432              	.LEHE67:
 8433 2a04 6FF05FF3 		j	.L512
 8434              	.LVL1012:
 8435              	.L487:
 8436              	.LBE496:
 8437              	.LBE497:
 695:test/Test8.cpp ****         }
 8438              		.loc 1 695 13 is_stmt 1
 695:test/Test8.cpp ****         }
 8439              		.loc 1 695 28 is_stmt 0
 8440 2a08 13058002 		li	a0,40
 8441              	.LEHB68:
 8442 2a0c 97000000 		call	_Znwm@plt
 8442      E7800000 
 8443              	.LVL1013:
 8444              	.LEHE68:
 8445 2a14 13090500 		mv	s2,a0
 8446              	.LVL1014:
 8447              	.LBB498:
 8448              	.LBB499:
 652:test/Test8.cpp ****         printString("Nit kreirana - id: ");
 8449              		.loc 1 652 39
 8450 2a18 93090500 		mv	s3,a0
 8451              	.LEHB69:
 8452 2a1c 97000000 		call	_ZN6ThreadC2Ev@plt
 8452      E7800000 
 8453              	.LVL1015:
 8454              	.LEHE69:
 8455 2a24 97070000 		lla	a5,_ZTV2A8+16
 8455      93870700 
 8456 2a2c 2330F900 		sd	a5,0(s2)
 652:test/Test8.cpp ****         printString("Nit kreirana - id: ");
 8457              		.loc 1 652 29
 8458 2a30 17070000 		lla	a4,.LANCHOR1
 8458      13070700 
 8459 2a38 83278701 		lw	a5,24(a4)
 8460 2a3c 9B861700 		addiw	a3,a5,1
 8461 2a40 232CD700 		sw	a3,24(a4)
 652:test/Test8.cpp ****         printString("Nit kreirana - id: ");
 8462              		.loc 1 652 39
 8463 2a44 2320F902 		sw	a5,32(s2)
 8464 2a48 93071000 		li	a5,1
 8465 2a4c 2322F902 		sw	a5,36(s2)
 653:test/Test8.cpp ****         printInt(id);
 8466              		.loc 1 653 9 is_stmt 1
GAS LISTING /tmp/ccCnP6rB.s 			page 210


 653:test/Test8.cpp ****         printInt(id);
 8467              		.loc 1 653 20 is_stmt 0
 8468 2a50 17050000 		lla	a0,.LC68
 8468      13050500 
 8469              	.LEHB70:
 8470 2a58 97000000 		call	_Z11printStringPKc@plt
 8470      E7800000 
 8471              	.LVL1016:
 654:test/Test8.cpp ****         printString("\n");
 8472              		.loc 1 654 9 is_stmt 1
 654:test/Test8.cpp ****         printString("\n");
 8473              		.loc 1 654 17 is_stmt 0
 8474 2a60 13060000 		li	a2,0
 8475 2a64 9305A000 		li	a1,10
 8476 2a68 03250902 		lw	a0,32(s2)
 8477 2a6c 97000000 		call	_Z8printIntiii@plt
 8477      E7800000 
 8478              	.LVL1017:
 655:test/Test8.cpp ****     }
 8479              		.loc 1 655 9 is_stmt 1
 655:test/Test8.cpp ****     }
 8480              		.loc 1 655 20 is_stmt 0
 8481 2a74 17050000 		lla	a0,.LC1
 8481      13050500 
 8482 2a7c 97000000 		call	_Z11printStringPKc@plt
 8482      E7800000 
 8483              	.LVL1018:
 8484              	.LEHE70:
 8485 2a84 6F00C002 		j	.L513
 8486              	.L506:
 8487 2a88 93040500 		mv	s1,a0
 8488              	.LVL1019:
 652:test/Test8.cpp ****         printString("Nit kreirana - id: ");
 8489              		.loc 1 652 39
 8490 2a8c 13850900 		mv	a0,s3
 8491 2a90 97000000 		call	_ZN6ThreadD2Ev@plt
 8491      E7800000 
 8492              	.LVL1020:
 8493              	.L494:
 8494              	.LBE499:
 8495              	.LBE498:
 695:test/Test8.cpp ****         }
 8496              		.loc 1 695 28 discriminator 2
 8497 2a98 13050900 		mv	a0,s2
 8498 2a9c 97000000 		call	_ZdlPv@plt
 8498      E7800000 
 8499              	.LVL1021:
 8500 2aa4 13850400 		mv	a0,s1
 8501              	.LEHB71:
 8502 2aa8 97000000 		call	_Unwind_Resume@plt
 8502      E7800000 
 8503              	.LVL1022:
 8504              	.L513:
 695:test/Test8.cpp ****         }
 8505              		.loc 1 695 19 discriminator 3
 8506 2ab0 93973400 		slli	a5,s1,3
 8507 2ab4 130704FD 		addi	a4,s0,-48
GAS LISTING /tmp/ccCnP6rB.s 			page 211


 8508 2ab8 B307F700 		add	a5,a4,a5
 8509 2abc 23B427F9 		sd	s2,-120(a5)
 8510 2ac0 6FF01FF1 		j	.L491
 8511              	.L486:
 8512              	.LBE493:
 698:test/Test8.cpp ****         nit->start();
 8513              		.loc 1 698 5 is_stmt 1
 8514              	.LVL1023:
 8515              	.LBB500:
 698:test/Test8.cpp ****         nit->start();
 8516              		.loc 1 698 18 is_stmt 0
 8517 2ac4 130904FD 		addi	s2,s0,-48
 8518              	.LVL1024:
 8519 2ac8 930484F5 		addi	s1,s0,-168
 8520              	.LVL1025:
 8521              	.L497:
 698:test/Test8.cpp ****         nit->start();
 8522              		.loc 1 698 18 is_stmt 1 discriminator 1
 8523 2acc 638C2401 		beq	s1,s2,.L501
 8524              	.LVL1026:
 699:test/Test8.cpp ****     }
 8525              		.loc 1 699 9 discriminator 2
 699:test/Test8.cpp ****     }
 8526              		.loc 1 699 19 is_stmt 0 discriminator 2
 8527 2ad0 03B50400 		ld	a0,0(s1)
 8528 2ad4 97000000 		call	_ZN6Thread5startEv@plt
 8528      E7800000 
 8529              	.LVL1027:
 698:test/Test8.cpp ****         nit->start();
 8530              		.loc 1 698 5 is_stmt 1 discriminator 2
 8531 2adc 93848400 		addi	s1,s1,8
 8532              	.LVL1028:
 8533 2ae0 6FF0DFFE 		j	.L497
 8534              	.L501:
 8535              	.LBE500:
 8536              	.LBB501:
 702:test/Test8.cpp ****         nit->join();
 8537              		.loc 1 702 18 is_stmt 0
 8538 2ae4 930484F5 		addi	s1,s0,-168
 8539              	.LVL1029:
 8540              	.L496:
 702:test/Test8.cpp ****         nit->join();
 8541              		.loc 1 702 18 is_stmt 1 discriminator 1
 8542 2ae8 638C2401 		beq	s1,s2,.L502
 8543              	.LVL1030:
 703:test/Test8.cpp ****     }
 8544              		.loc 1 703 9 discriminator 2
 703:test/Test8.cpp ****     }
 8545              		.loc 1 703 18 is_stmt 0 discriminator 2
 8546 2aec 03B50400 		ld	a0,0(s1)
 8547 2af0 97000000 		call	_ZN6Thread4joinEv@plt
 8547      E7800000 
 8548              	.LVL1031:
 702:test/Test8.cpp ****         nit->join();
 8549              		.loc 1 702 5 is_stmt 1 discriminator 2
 8550 2af8 93848400 		addi	s1,s1,8
 8551              	.LVL1032:
GAS LISTING /tmp/ccCnP6rB.s 			page 212


 8552 2afc 6FF0DFFE 		j	.L496
 8553              	.L502:
 8554              	.LBE501:
 8555              	.LBB502:
 705:test/Test8.cpp ****         delete nit;
 8556              		.loc 1 705 18 is_stmt 0
 8557 2b00 930484F5 		addi	s1,s0,-168
 8558              	.LVL1033:
 8559 2b04 6F008000 		j	.L498
 8560              	.LVL1034:
 8561              	.L500:
 705:test/Test8.cpp ****         delete nit;
 8562              		.loc 1 705 5 is_stmt 1 discriminator 3
 8563 2b08 93848400 		addi	s1,s1,8
 8564              	.LVL1035:
 8565              	.L498:
 705:test/Test8.cpp ****         delete nit;
 8566              		.loc 1 705 18 discriminator 1
 8567 2b0c 638E2401 		beq	s1,s2,.L499
 705:test/Test8.cpp ****         delete nit;
 8568              		.loc 1 705 14 is_stmt 0 discriminator 2
 8569 2b10 03B50400 		ld	a0,0(s1)
 8570              	.LVL1036:
 706:test/Test8.cpp ****     }
 8571              		.loc 1 706 9 is_stmt 1 discriminator 2
 706:test/Test8.cpp ****     }
 8572              		.loc 1 706 19 is_stmt 0 discriminator 2
 8573 2b14 E30A05FE 		beqz	a0,.L500
 706:test/Test8.cpp ****     }
 8574              		.loc 1 706 16 discriminator 1
 8575 2b18 83370500 		ld	a5,0(a0)
 8576 2b1c 83B78700 		ld	a5,8(a5)
 8577 2b20 E7800700 		jalr	a5
 8578              	.LVL1037:
 8579 2b24 6FF05FFE 		j	.L500
 8580              	.L499:
 8581              	.LBE502:
 708:test/Test8.cpp **** };
 8582              		.loc 1 708 5 is_stmt 1
 708:test/Test8.cpp **** };
 8583              		.loc 1 708 16 is_stmt 0
 8584 2b28 17050000 		lla	a0,.LC82
 8584      13050500 
 8585 2b30 97000000 		call	_Z11printStringPKc@plt
 8585      E7800000 
 8586              	.LVL1038:
 8587              	.LEHE71:
 709:test/Test8.cpp **** 
 8588              		.loc 1 709 1
 8589 2b38 8330810A 		ld	ra,168(sp)
 8590              		.cfi_remember_state
 8591              		.cfi_restore 1
 8592 2b3c 0334010A 		ld	s0,160(sp)
 8593              		.cfi_restore 8
 8594              		.cfi_def_cfa 2, 176
 8595              	.LVL1039:
 8596 2b40 83348109 		ld	s1,152(sp)
GAS LISTING /tmp/ccCnP6rB.s 			page 213


 8597              		.cfi_restore 9
 8598              	.LVL1040:
 8599 2b44 03390109 		ld	s2,144(sp)
 8600              		.cfi_restore 18
 8601              	.LVL1041:
 8602 2b48 83398108 		ld	s3,136(sp)
 8603              		.cfi_restore 19
 8604 2b4c 1301010B 		addi	sp,sp,176
 8605              		.cfi_def_cfa_offset 0
 8606              	.LVL1042:
 8607 2b50 67800000 		jr	ra
 8608              	.LVL1043:
 8609              	.L503:
 8610              		.cfi_restore_state
 8611 2b54 93040500 		mv	s1,a0
 8612              	.LVL1044:
 8613 2b58 6FF01FE5 		j	.L490
 8614              	.LVL1045:
 8615              	.L504:
 8616 2b5c 93040500 		mv	s1,a0
 8617              	.LVL1046:
 8618 2b60 6FF09FF3 		j	.L494
 8619              		.cfi_endproc
 8620              	.LFE67:
 8621              		.section	.gcc_except_table
 8622              	.LLSDA67:
 8623 0374 FF       		.byte	0xff
 8624 0375 FF       		.byte	0xff
 8625 0376 03       		.byte	0x3
 8626 0377 5B       		.byte	0x5b
 8627 0378 00000000 		.4byte	.LEHB65-.LFB67
 8628 037c 00000000 		.4byte	.LEHE65-.LEHB65
 8629 0380 00000000 		.4byte	.L505-.LFB67
 8630 0384 00       		.byte	0
 8631 0385 00000000 		.4byte	.LEHB66-.LFB67
 8632 0389 00000000 		.4byte	.LEHE66-.LEHB66
 8633 038d 00000000 		.4byte	0
 8634 0391 00       		.byte	0
 8635 0392 00000000 		.4byte	.LEHB67-.LFB67
 8636 0396 00000000 		.4byte	.LEHE67-.LEHB67
 8637 039a 00000000 		.4byte	.L503-.LFB67
 8638 039e 00       		.byte	0
 8639 039f 00000000 		.4byte	.LEHB68-.LFB67
 8640 03a3 00000000 		.4byte	.LEHE68-.LEHB68
 8641 03a7 00000000 		.4byte	0
 8642 03ab 00       		.byte	0
 8643 03ac 00000000 		.4byte	.LEHB69-.LFB67
 8644 03b0 00000000 		.4byte	.LEHE69-.LEHB69
 8645 03b4 00000000 		.4byte	.L504-.LFB67
 8646 03b8 00       		.byte	0
 8647 03b9 00000000 		.4byte	.LEHB70-.LFB67
 8648 03bd 00000000 		.4byte	.LEHE70-.LEHB70
 8649 03c1 00000000 		.4byte	.L506-.LFB67
 8650 03c5 00       		.byte	0
 8651 03c6 00000000 		.4byte	.LEHB71-.LFB67
 8652 03ca 00000000 		.4byte	.LEHE71-.LEHB71
 8653 03ce 00000000 		.4byte	0
GAS LISTING /tmp/ccCnP6rB.s 			page 214


 8654 03d2 00       		.byte	0
 8655              		.text
 8657              		.section	.rodata.str1.8
 8658 06ba 00000000 		.align	3
 8658      0000
 8659              	.LC83:
 8660 06c0 54455354 		.string	"TEST 8 - DINING SAVAGE gotov\n"
 8660      2038202D 
 8660      2044494E 
 8660      494E4720 
 8660      53415641 
 8661              		.text
 8662              		.align	2
 8663              		.globl	_Z17testDiningSavagesv
 8665              	_Z17testDiningSavagesv:
 8666              	.LFB72:
 757:test/Test8.cpp ****     A9* niz[XX];
 8667              		.loc 1 757 25 is_stmt 1
 8668              		.cfi_startproc
 8669              		.cfi_personality 0x9b,DW.ref.__gxx_personality_v0
 8670              		.cfi_lsda 0x1b,.LLSDA72
 8671 2b64 130101FD 		addi	sp,sp,-48
 8672              		.cfi_def_cfa_offset 48
 8673 2b68 23341102 		sd	ra,40(sp)
 8674 2b6c 23308102 		sd	s0,32(sp)
 8675 2b70 233C9100 		sd	s1,24(sp)
 8676 2b74 23382101 		sd	s2,16(sp)
 8677 2b78 23343101 		sd	s3,8(sp)
 8678 2b7c 23304101 		sd	s4,0(sp)
 8679              		.cfi_offset 1, -8
 8680              		.cfi_offset 8, -16
 8681              		.cfi_offset 9, -24
 8682              		.cfi_offset 18, -32
 8683              		.cfi_offset 19, -40
 8684              		.cfi_offset 20, -48
 8685 2b80 13040103 		addi	s0,sp,48
 8686              		.cfi_def_cfa 8, 0
 758:test/Test8.cpp ****     for(int i=0;i<30;i++){
 8687              		.loc 1 758 5
 8688              	.LVL1047:
 758:test/Test8.cpp ****     for(int i=0;i<30;i++){
 8689              		.loc 1 758 9 is_stmt 0
 8690 2b84 130101E7 		addi	sp,sp,-400
 8691 2b88 93090100 		mv	s3,sp
 8692              	.LVL1048:
 759:test/Test8.cpp ****         niz[i]=new A9(0);
 8693              		.loc 1 759 5 is_stmt 1
 8694              	.LBB517:
 759:test/Test8.cpp ****         niz[i]=new A9(0);
 8695              		.loc 1 759 13 is_stmt 0
 8696 2b8c 13090000 		li	s2,0
 8697 2b90 6F00C009 		j	.L519
 8698              	.LVL1049:
 8699              	.L546:
 8700              	.LBB518:
 8701              	.LBB519:
 719:test/Test8.cpp ****         printString("Nit kreirana - id: ");
GAS LISTING /tmp/ccCnP6rB.s 			page 215


 8702              		.loc 1 719 41
 8703 2b94 97070000 		lla	a5,_ZTV2A9+16
 8703      93870700 
 8704 2b9c 23B0F400 		sd	a5,0(s1)
 719:test/Test8.cpp ****         printString("Nit kreirana - id: ");
 8705              		.loc 1 719 31
 8706 2ba0 17070000 		lla	a4,.LANCHOR1
 8706      13070700 
 8707 2ba8 8327C701 		lw	a5,28(a4)
 8708 2bac 9B861700 		addiw	a3,a5,1
 8709 2bb0 232ED700 		sw	a3,28(a4)
 719:test/Test8.cpp ****         printString("Nit kreirana - id: ");
 8710              		.loc 1 719 41
 8711 2bb4 23A0F402 		sw	a5,32(s1)
 8712 2bb8 23A20402 		sw	zero,36(s1)
 720:test/Test8.cpp ****         printInt(id);
 8713              		.loc 1 720 9 is_stmt 1
 720:test/Test8.cpp ****         printInt(id);
 8714              		.loc 1 720 20 is_stmt 0
 8715 2bbc 17050000 		lla	a0,.LC68
 8715      13050500 
 8716              	.LEHB72:
 8717 2bc4 97000000 		call	_Z11printStringPKc@plt
 8717      E7800000 
 8718              	.LVL1050:
 721:test/Test8.cpp ****         printString("\n");
 8719              		.loc 1 721 9 is_stmt 1
 721:test/Test8.cpp ****         printString("\n");
 8720              		.loc 1 721 17 is_stmt 0
 8721 2bcc 13060000 		li	a2,0
 8722 2bd0 9305A000 		li	a1,10
 8723 2bd4 03A50402 		lw	a0,32(s1)
 8724 2bd8 97000000 		call	_Z8printIntiii@plt
 8724      E7800000 
 8725              	.LVL1051:
 722:test/Test8.cpp ****     }
 8726              		.loc 1 722 9 is_stmt 1
 722:test/Test8.cpp ****     }
 8727              		.loc 1 722 20 is_stmt 0
 8728 2be0 17050000 		lla	a0,.LC1
 8728      13050500 
 8729 2be8 97000000 		call	_Z11printStringPKc@plt
 8729      E7800000 
 8730              	.LVL1052:
 8731              	.LEHE72:
 8732 2bf0 6F00C002 		j	.L545
 8733              	.L537:
 8734 2bf4 13090500 		mv	s2,a0
 8735              	.LVL1053:
 719:test/Test8.cpp ****         printString("Nit kreirana - id: ");
 8736              		.loc 1 719 41
 8737 2bf8 13050A00 		mv	a0,s4
 8738 2bfc 97000000 		call	_ZN6ThreadD2Ev@plt
 8738      E7800000 
 8739              	.LVL1054:
 8740              	.L518:
 8741              	.LBE519:
GAS LISTING /tmp/ccCnP6rB.s 			page 216


 8742              	.LBE518:
 760:test/Test8.cpp ****     }
 8743              		.loc 1 760 24 discriminator 2
 8744 2c04 13850400 		mv	a0,s1
 8745 2c08 97000000 		call	_ZdlPv@plt
 8745      E7800000 
 8746              	.LVL1055:
 8747 2c10 13050900 		mv	a0,s2
 8748              	.LEHB73:
 8749 2c14 97000000 		call	_Unwind_Resume@plt
 8749      E7800000 
 8750              	.LVL1056:
 8751              	.L545:
 760:test/Test8.cpp ****     }
 8752              		.loc 1 760 15 discriminator 3
 8753 2c1c 93173900 		slli	a5,s2,3
 8754 2c20 B387F900 		add	a5,s3,a5
 8755 2c24 23B09700 		sd	s1,0(a5)
 759:test/Test8.cpp ****         niz[i]=new A9(0);
 8756              		.loc 1 759 5 is_stmt 1 discriminator 3
 8757 2c28 1B091900 		addiw	s2,s2,1
 8758              	.LVL1057:
 8759              	.L519:
 759:test/Test8.cpp ****         niz[i]=new A9(0);
 8760              		.loc 1 759 18 discriminator 2
 8761 2c2c 9307D001 		li	a5,29
 8762 2c30 63C22703 		bgt	s2,a5,.L515
 760:test/Test8.cpp ****     }
 8763              		.loc 1 760 9
 760:test/Test8.cpp ****     }
 8764              		.loc 1 760 24 is_stmt 0
 8765 2c34 13058002 		li	a0,40
 8766 2c38 97000000 		call	_Znwm@plt
 8766      E7800000 
 8767              	.LVL1058:
 8768              	.LEHE73:
 8769 2c40 93040500 		mv	s1,a0
 8770              	.LVL1059:
 8771              	.LBB521:
 8772              	.LBB520:
 719:test/Test8.cpp ****         printString("Nit kreirana - id: ");
 8773              		.loc 1 719 41
 8774 2c44 130A0500 		mv	s4,a0
 8775              	.LEHB74:
 8776 2c48 97000000 		call	_ZN6ThreadC2Ev@plt
 8776      E7800000 
 8777              	.LVL1060:
 8778              	.LEHE74:
 8779 2c50 6FF05FF4 		j	.L546
 8780              	.LVL1061:
 8781              	.L515:
 8782              	.LBE520:
 8783              	.LBE521:
 8784              	.LBE517:
 762:test/Test8.cpp ****     for(int i=31;i<XX;i++){
 8785              		.loc 1 762 5 is_stmt 1
 762:test/Test8.cpp ****     for(int i=31;i<XX;i++){
GAS LISTING /tmp/ccCnP6rB.s 			page 217


 8786              		.loc 1 762 23 is_stmt 0
 8787 2c54 13058002 		li	a0,40
 8788              	.LEHB75:
 8789 2c58 97000000 		call	_Znwm@plt
 8789      E7800000 
 8790              	.LVL1062:
 8791              	.LEHE75:
 8792 2c60 93040500 		mv	s1,a0
 8793              	.LVL1063:
 8794              	.LEHB76:
 8795              	.LBB522:
 8796              	.LBB523:
 719:test/Test8.cpp ****         printString("Nit kreirana - id: ");
 8797              		.loc 1 719 41
 8798 2c64 97000000 		call	_ZN6ThreadC2Ev@plt
 8798      E7800000 
 8799              	.LVL1064:
 8800              	.LEHE76:
 8801 2c6c 97070000 		lla	a5,_ZTV2A9+16
 8801      93870700 
 8802 2c74 23B0F400 		sd	a5,0(s1)
 719:test/Test8.cpp ****         printString("Nit kreirana - id: ");
 8803              		.loc 1 719 31
 8804 2c78 17070000 		lla	a4,.LANCHOR1
 8804      13070700 
 8805 2c80 8327C701 		lw	a5,28(a4)
 8806 2c84 9B861700 		addiw	a3,a5,1
 8807 2c88 232ED700 		sw	a3,28(a4)
 719:test/Test8.cpp ****         printString("Nit kreirana - id: ");
 8808              		.loc 1 719 41
 8809 2c8c 23A0F402 		sw	a5,32(s1)
 8810 2c90 93071000 		li	a5,1
 8811 2c94 23A2F402 		sw	a5,36(s1)
 720:test/Test8.cpp ****         printInt(id);
 8812              		.loc 1 720 9 is_stmt 1
 720:test/Test8.cpp ****         printInt(id);
 8813              		.loc 1 720 20 is_stmt 0
 8814 2c98 17050000 		lla	a0,.LC68
 8814      13050500 
 8815              	.LEHB77:
 8816 2ca0 97000000 		call	_Z11printStringPKc@plt
 8816      E7800000 
 8817              	.LVL1065:
 721:test/Test8.cpp ****         printString("\n");
 8818              		.loc 1 721 9 is_stmt 1
 721:test/Test8.cpp ****         printString("\n");
 8819              		.loc 1 721 17 is_stmt 0
 8820 2ca8 13060000 		li	a2,0
 8821 2cac 9305A000 		li	a1,10
 8822 2cb0 03A50402 		lw	a0,32(s1)
 8823 2cb4 97000000 		call	_Z8printIntiii@plt
 8823      E7800000 
 8824              	.LVL1066:
 722:test/Test8.cpp ****     }
 8825              		.loc 1 722 9 is_stmt 1
 722:test/Test8.cpp ****     }
 8826              		.loc 1 722 20 is_stmt 0
GAS LISTING /tmp/ccCnP6rB.s 			page 218


 8827 2cbc 17050000 		lla	a0,.LC1
 8827      13050500 
 8828 2cc4 97000000 		call	_Z11printStringPKc@plt
 8828      E7800000 
 8829              	.LVL1067:
 8830              	.LEHE77:
 8831 2ccc 6F00C002 		j	.L547
 8832              	.L538:
 8833 2cd0 13090500 		mv	s2,a0
 8834              	.LVL1068:
 719:test/Test8.cpp ****         printString("Nit kreirana - id: ");
 8835              		.loc 1 719 41
 8836 2cd4 13850400 		mv	a0,s1
 8837 2cd8 97000000 		call	_ZN6ThreadD2Ev@plt
 8837      E7800000 
 8838              	.LVL1069:
 8839              	.L522:
 8840              	.LBE523:
 8841              	.LBE522:
 762:test/Test8.cpp ****     for(int i=31;i<XX;i++){
 8842              		.loc 1 762 23 discriminator 2
 8843 2ce0 13850400 		mv	a0,s1
 8844 2ce4 97000000 		call	_ZdlPv@plt
 8844      E7800000 
 8845              	.LVL1070:
 8846 2cec 13050900 		mv	a0,s2
 8847              	.LEHB78:
 8848 2cf0 97000000 		call	_Unwind_Resume@plt
 8848      E7800000 
 8849              	.LVL1071:
 8850              	.LEHE78:
 8851              	.L547:
 762:test/Test8.cpp ****     for(int i=31;i<XX;i++){
 8852              		.loc 1 762 13 discriminator 3
 8853 2cf8 23B8990E 		sd	s1,240(s3)
 763:test/Test8.cpp ****         niz[i]=new A9(0);
 8854              		.loc 1 763 5 is_stmt 1 discriminator 3
 8855              	.LVL1072:
 8856              	.LBB524:
 763:test/Test8.cpp ****         niz[i]=new A9(0);
 8857              		.loc 1 763 13 is_stmt 0 discriminator 3
 8858 2cfc 1309F001 		li	s2,31
 8859              	.LVL1073:
 8860 2d00 6F00C009 		j	.L527
 8861              	.LVL1074:
 8862              	.L549:
 8863              	.LBB525:
 8864              	.LBB526:
 719:test/Test8.cpp ****         printString("Nit kreirana - id: ");
 8865              		.loc 1 719 41
 8866 2d04 97070000 		lla	a5,_ZTV2A9+16
 8866      93870700 
 8867 2d0c 23B0F400 		sd	a5,0(s1)
 719:test/Test8.cpp ****         printString("Nit kreirana - id: ");
 8868              		.loc 1 719 31
 8869 2d10 17070000 		lla	a4,.LANCHOR1
 8869      13070700 
GAS LISTING /tmp/ccCnP6rB.s 			page 219


 8870 2d18 8327C701 		lw	a5,28(a4)
 8871 2d1c 9B861700 		addiw	a3,a5,1
 8872 2d20 232ED700 		sw	a3,28(a4)
 719:test/Test8.cpp ****         printString("Nit kreirana - id: ");
 8873              		.loc 1 719 41
 8874 2d24 23A0F402 		sw	a5,32(s1)
 8875 2d28 23A20402 		sw	zero,36(s1)
 720:test/Test8.cpp ****         printInt(id);
 8876              		.loc 1 720 9 is_stmt 1
 720:test/Test8.cpp ****         printInt(id);
 8877              		.loc 1 720 20 is_stmt 0
 8878 2d2c 17050000 		lla	a0,.LC68
 8878      13050500 
 8879              	.LEHB79:
 8880 2d34 97000000 		call	_Z11printStringPKc@plt
 8880      E7800000 
 8881              	.LVL1075:
 721:test/Test8.cpp ****         printString("\n");
 8882              		.loc 1 721 9 is_stmt 1
 721:test/Test8.cpp ****         printString("\n");
 8883              		.loc 1 721 17 is_stmt 0
 8884 2d3c 13060000 		li	a2,0
 8885 2d40 9305A000 		li	a1,10
 8886 2d44 03A50402 		lw	a0,32(s1)
 8887 2d48 97000000 		call	_Z8printIntiii@plt
 8887      E7800000 
 8888              	.LVL1076:
 722:test/Test8.cpp ****     }
 8889              		.loc 1 722 9 is_stmt 1
 722:test/Test8.cpp ****     }
 8890              		.loc 1 722 20 is_stmt 0
 8891 2d50 17050000 		lla	a0,.LC1
 8891      13050500 
 8892 2d58 97000000 		call	_Z11printStringPKc@plt
 8892      E7800000 
 8893              	.LVL1077:
 8894              	.LEHE79:
 8895 2d60 6F00C002 		j	.L548
 8896              	.L539:
 8897 2d64 13090500 		mv	s2,a0
 8898              	.LVL1078:
 719:test/Test8.cpp ****         printString("Nit kreirana - id: ");
 8899              		.loc 1 719 41
 8900 2d68 13050A00 		mv	a0,s4
 8901 2d6c 97000000 		call	_ZN6ThreadD2Ev@plt
 8901      E7800000 
 8902              	.LVL1079:
 8903              	.L526:
 8904              	.LBE526:
 8905              	.LBE525:
 764:test/Test8.cpp ****     }
 8906              		.loc 1 764 24 discriminator 2
 8907 2d74 13850400 		mv	a0,s1
 8908 2d78 97000000 		call	_ZdlPv@plt
 8908      E7800000 
 8909              	.LVL1080:
 8910 2d80 13050900 		mv	a0,s2
GAS LISTING /tmp/ccCnP6rB.s 			page 220


 8911              	.LEHB80:
 8912 2d84 97000000 		call	_Unwind_Resume@plt
 8912      E7800000 
 8913              	.LVL1081:
 8914              	.L548:
 764:test/Test8.cpp ****     }
 8915              		.loc 1 764 15 discriminator 3
 8916 2d8c 93173900 		slli	a5,s2,3
 8917 2d90 B387F900 		add	a5,s3,a5
 8918 2d94 23B09700 		sd	s1,0(a5)
 763:test/Test8.cpp ****         niz[i]=new A9(0);
 8919              		.loc 1 763 5 is_stmt 1 discriminator 3
 8920 2d98 1B091900 		addiw	s2,s2,1
 8921              	.LVL1082:
 8922              	.L527:
 763:test/Test8.cpp ****         niz[i]=new A9(0);
 8923              		.loc 1 763 19 discriminator 2
 8924 2d9c 93070003 		li	a5,48
 8925 2da0 63C22703 		bgt	s2,a5,.L523
 764:test/Test8.cpp ****     }
 8926              		.loc 1 764 9
 764:test/Test8.cpp ****     }
 8927              		.loc 1 764 24 is_stmt 0
 8928 2da4 13058002 		li	a0,40
 8929 2da8 97000000 		call	_Znwm@plt
 8929      E7800000 
 8930              	.LVL1083:
 8931              	.LEHE80:
 8932 2db0 93040500 		mv	s1,a0
 8933              	.LVL1084:
 8934              	.LBB528:
 8935              	.LBB527:
 719:test/Test8.cpp ****         printString("Nit kreirana - id: ");
 8936              		.loc 1 719 41
 8937 2db4 130A0500 		mv	s4,a0
 8938              	.LEHB81:
 8939 2db8 97000000 		call	_ZN6ThreadC2Ev@plt
 8939      E7800000 
 8940              	.LVL1085:
 8941              	.LEHE81:
 8942 2dc0 6FF05FF4 		j	.L549
 8943              	.LVL1086:
 8944              	.L523:
 8945              	.LBE527:
 8946              	.LBE528:
 8947              	.LBE524:
 766:test/Test8.cpp ****         nit->start();
 8948              		.loc 1 766 5 is_stmt 1
 8949              	.LBB529:
 766:test/Test8.cpp ****         nit->start();
 8950              		.loc 1 766 18 is_stmt 0
 8951 2dc4 13898918 		addi	s2,s3,392
 8952              	.LVL1087:
 8953 2dc8 93840900 		mv	s1,s3
 8954              	.LVL1088:
 8955              	.L529:
 766:test/Test8.cpp ****         nit->start();
GAS LISTING /tmp/ccCnP6rB.s 			page 221


 8956              		.loc 1 766 18 is_stmt 1 discriminator 1
 8957 2dcc 638C2401 		beq	s1,s2,.L533
 8958              	.LVL1089:
 767:test/Test8.cpp ****     }
 8959              		.loc 1 767 9 discriminator 2
 767:test/Test8.cpp ****     }
 8960              		.loc 1 767 19 is_stmt 0 discriminator 2
 8961 2dd0 03B50400 		ld	a0,0(s1)
 8962              	.LEHB82:
 8963 2dd4 97000000 		call	_ZN6Thread5startEv@plt
 8963      E7800000 
 8964              	.LVL1090:
 766:test/Test8.cpp ****         nit->start();
 8965              		.loc 1 766 5 is_stmt 1 discriminator 2
 8966 2ddc 93848400 		addi	s1,s1,8
 8967              	.LVL1091:
 8968 2de0 6FF0DFFE 		j	.L529
 8969              	.L533:
 8970              	.LBE529:
 8971              	.LBB530:
 770:test/Test8.cpp ****         nit->join();
 8972              		.loc 1 770 18 is_stmt 0
 8973 2de4 93840900 		mv	s1,s3
 8974              	.LVL1092:
 8975              	.L528:
 770:test/Test8.cpp ****         nit->join();
 8976              		.loc 1 770 18 is_stmt 1 discriminator 1
 8977 2de8 638E2401 		beq	s1,s2,.L530
 8978              	.LVL1093:
 771:test/Test8.cpp ****     }
 8979              		.loc 1 771 9 discriminator 2
 771:test/Test8.cpp ****     }
 8980              		.loc 1 771 18 is_stmt 0 discriminator 2
 8981 2dec 03B50400 		ld	a0,0(s1)
 8982 2df0 97000000 		call	_ZN6Thread4joinEv@plt
 8982      E7800000 
 8983              	.LVL1094:
 770:test/Test8.cpp ****         nit->join();
 8984              		.loc 1 770 5 is_stmt 1 discriminator 2
 8985 2df8 93848400 		addi	s1,s1,8
 8986              	.LVL1095:
 8987 2dfc 6FF0DFFE 		j	.L528
 8988              	.LVL1096:
 8989              	.L532:
 8990              	.LBE530:
 8991              	.LBB531:
 773:test/Test8.cpp ****         delete nit;
 8992              		.loc 1 773 5 discriminator 3
 8993 2e00 93898900 		addi	s3,s3,8
 8994              	.LVL1097:
 8995              	.L530:
 773:test/Test8.cpp ****         delete nit;
 8996              		.loc 1 773 18 discriminator 1
 8997 2e04 638E2901 		beq	s3,s2,.L531
 773:test/Test8.cpp ****         delete nit;
 8998              		.loc 1 773 14 is_stmt 0 discriminator 2
 8999 2e08 03B50900 		ld	a0,0(s3)
GAS LISTING /tmp/ccCnP6rB.s 			page 222


 9000              	.LVL1098:
 774:test/Test8.cpp ****     }
 9001              		.loc 1 774 9 is_stmt 1 discriminator 2
 774:test/Test8.cpp ****     }
 9002              		.loc 1 774 19 is_stmt 0 discriminator 2
 9003 2e0c E30A05FE 		beqz	a0,.L532
 774:test/Test8.cpp ****     }
 9004              		.loc 1 774 16 discriminator 1
 9005 2e10 83370500 		ld	a5,0(a0)
 9006 2e14 83B78700 		ld	a5,8(a5)
 9007 2e18 E7800700 		jalr	a5
 9008              	.LVL1099:
 9009 2e1c 6FF05FFE 		j	.L532
 9010              	.L531:
 9011              	.LBE531:
 776:test/Test8.cpp **** };
 9012              		.loc 1 776 5 is_stmt 1
 776:test/Test8.cpp **** };
 9013              		.loc 1 776 16 is_stmt 0
 9014 2e20 17050000 		lla	a0,.LC83
 9014      13050500 
 9015 2e28 97000000 		call	_Z11printStringPKc@plt
 9015      E7800000 
 9016              	.LVL1100:
 9017              	.LEHE82:
 777:test/Test8.cpp **** 
 9018              		.loc 1 777 1
 9019 2e30 130104FD 		addi	sp,s0,-48
 9020              		.cfi_remember_state
 9021              		.cfi_def_cfa 2, 48
 9022              	.LVL1101:
 9023 2e34 83308102 		ld	ra,40(sp)
 9024              		.cfi_restore 1
 9025 2e38 03340102 		ld	s0,32(sp)
 9026              		.cfi_restore 8
 9027 2e3c 83348101 		ld	s1,24(sp)
 9028              		.cfi_restore 9
 9029              	.LVL1102:
 9030 2e40 03390101 		ld	s2,16(sp)
 9031              		.cfi_restore 18
 9032              	.LVL1103:
 9033 2e44 83398100 		ld	s3,8(sp)
 9034              		.cfi_restore 19
 9035              	.LVL1104:
 9036 2e48 033A0100 		ld	s4,0(sp)
 9037              		.cfi_restore 20
 9038 2e4c 13010103 		addi	sp,sp,48
 9039              		.cfi_def_cfa_offset 0
 9040 2e50 67800000 		jr	ra
 9041              	.LVL1105:
 9042              	.L534:
 9043              		.cfi_restore_state
 9044 2e54 13090500 		mv	s2,a0
 9045              	.LVL1106:
 9046 2e58 6FF0DFDA 		j	.L518
 9047              	.LVL1107:
 9048              	.L535:
GAS LISTING /tmp/ccCnP6rB.s 			page 223


 9049 2e5c 13090500 		mv	s2,a0
 9050              	.LVL1108:
 9051 2e60 6FF01FE8 		j	.L522
 9052              	.LVL1109:
 9053              	.L536:
 9054 2e64 13090500 		mv	s2,a0
 9055              	.LVL1110:
 9056 2e68 6FF0DFF0 		j	.L526
 9057              		.cfi_endproc
 9058              	.LFE72:
 9059              		.section	.gcc_except_table
 9060              	.LLSDA72:
 9061 03d3 FF       		.byte	0xff
 9062 03d4 FF       		.byte	0xff
 9063 03d5 03       		.byte	0x3
 9064 03d6 8F01     		.byte	0x8f,0x1
 9065 03d8 00000000 		.4byte	.LEHB72-.LFB72
 9066 03dc 00000000 		.4byte	.LEHE72-.LEHB72
 9067 03e0 00000000 		.4byte	.L537-.LFB72
 9068 03e4 00       		.byte	0
 9069 03e5 00000000 		.4byte	.LEHB73-.LFB72
 9070 03e9 00000000 		.4byte	.LEHE73-.LEHB73
 9071 03ed 00000000 		.4byte	0
 9072 03f1 00       		.byte	0
 9073 03f2 00000000 		.4byte	.LEHB74-.LFB72
 9074 03f6 00000000 		.4byte	.LEHE74-.LEHB74
 9075 03fa 00000000 		.4byte	.L534-.LFB72
 9076 03fe 00       		.byte	0
 9077 03ff 00000000 		.4byte	.LEHB75-.LFB72
 9078 0403 00000000 		.4byte	.LEHE75-.LEHB75
 9079 0407 00000000 		.4byte	0
 9080 040b 00       		.byte	0
 9081 040c 00000000 		.4byte	.LEHB76-.LFB72
 9082 0410 00000000 		.4byte	.LEHE76-.LEHB76
 9083 0414 00000000 		.4byte	.L535-.LFB72
 9084 0418 00       		.byte	0
 9085 0419 00000000 		.4byte	.LEHB77-.LFB72
 9086 041d 00000000 		.4byte	.LEHE77-.LEHB77
 9087 0421 00000000 		.4byte	.L538-.LFB72
 9088 0425 00       		.byte	0
 9089 0426 00000000 		.4byte	.LEHB78-.LFB72
 9090 042a 00000000 		.4byte	.LEHE78-.LEHB78
 9091 042e 00000000 		.4byte	0
 9092 0432 00       		.byte	0
 9093 0433 00000000 		.4byte	.LEHB79-.LFB72
 9094 0437 00000000 		.4byte	.LEHE79-.LEHB79
 9095 043b 00000000 		.4byte	.L539-.LFB72
 9096 043f 00       		.byte	0
 9097 0440 00000000 		.4byte	.LEHB80-.LFB72
 9098 0444 00000000 		.4byte	.LEHE80-.LEHB80
 9099 0448 00000000 		.4byte	0
 9100 044c 00       		.byte	0
 9101 044d 00000000 		.4byte	.LEHB81-.LFB72
 9102 0451 00000000 		.4byte	.LEHE81-.LEHB81
 9103 0455 00000000 		.4byte	.L536-.LFB72
 9104 0459 00       		.byte	0
 9105 045a 00000000 		.4byte	.LEHB82-.LFB72
GAS LISTING /tmp/ccCnP6rB.s 			page 224


 9106 045e 00000000 		.4byte	.LEHE82-.LEHB82
 9107 0462 00000000 		.4byte	0
 9108 0466 00       		.byte	0
 9109              		.text
 9111              		.section	.rodata.str1.8
 9112 06de 0000     		.align	3
 9113              	.LC84:
 9114 06e0 54455354 		.string	"TEST 8 - HUNGRY BIRDS - gotov\n"
 9114      2038202D 
 9114      2048554E 
 9114      47525920 
 9114      42495244 
 9115              		.text
 9116              		.align	2
 9117              		.globl	_Z15testHungryBirdsv
 9119              	_Z15testHungryBirdsv:
 9120              	.LFB77:
 825:test/Test8.cpp ****     A10* niz[BIR];
 9121              		.loc 1 825 23 is_stmt 1
 9122              		.cfi_startproc
 9123              		.cfi_personality 0x9b,DW.ref.__gxx_personality_v0
 9124              		.cfi_lsda 0x1b,.LLSDA77
 9125 2e6c 130101FD 		addi	sp,sp,-48
 9126              		.cfi_def_cfa_offset 48
 9127 2e70 23341102 		sd	ra,40(sp)
 9128 2e74 23308102 		sd	s0,32(sp)
 9129 2e78 233C9100 		sd	s1,24(sp)
 9130 2e7c 23382101 		sd	s2,16(sp)
 9131 2e80 23343101 		sd	s3,8(sp)
 9132 2e84 23304101 		sd	s4,0(sp)
 9133              		.cfi_offset 1, -8
 9134              		.cfi_offset 8, -16
 9135              		.cfi_offset 9, -24
 9136              		.cfi_offset 18, -32
 9137              		.cfi_offset 19, -40
 9138              		.cfi_offset 20, -48
 9139 2e88 13040103 		addi	s0,sp,48
 9140              		.cfi_def_cfa 8, 0
 826:test/Test8.cpp ****     for(int i=0;i<BIR;i++){
 9141              		.loc 1 826 5
 9142              	.LVL1111:
 826:test/Test8.cpp ****     for(int i=0;i<BIR;i++){
 9143              		.loc 1 826 10 is_stmt 0
 9144 2e8c 130101E7 		addi	sp,sp,-400
 9145 2e90 13090100 		mv	s2,sp
 9146              	.LVL1112:
 827:test/Test8.cpp ****         switch (i) {
 9147              		.loc 1 827 5 is_stmt 1
 9148              	.LBB548:
 827:test/Test8.cpp ****         switch (i) {
 9149              		.loc 1 827 13 is_stmt 0
 9150 2e94 93040000 		li	s1,0
 9151 2e98 6F00000B 		j	.L568
 9152              	.LVL1113:
 9153              	.L590:
 829:test/Test8.cpp ****                 niz[0]=new A10(0);
 9154              		.loc 1 829 13 is_stmt 1
GAS LISTING /tmp/ccCnP6rB.s 			page 225


 829:test/Test8.cpp ****                 niz[0]=new A10(0);
 9155              		.loc 1 829 20
 830:test/Test8.cpp ****                 break;
 9156              		.loc 1 830 17
 830:test/Test8.cpp ****                 break;
 9157              		.loc 1 830 33 is_stmt 0
 9158 2e9c 13058002 		li	a0,40
 9159              	.LEHB83:
 9160 2ea0 97000000 		call	_Znwm@plt
 9160      E7800000 
 9161              	.LVL1114:
 9162              	.LEHE83:
 9163 2ea8 93090500 		mv	s3,a0
 9164              	.LVL1115:
 9165              	.LBB549:
 9166              	.LBB550:
 787:test/Test8.cpp ****         printString("Nit kreirana - id: ");
 9167              		.loc 1 787 41
 9168 2eac 130A0500 		mv	s4,a0
 9169              	.LEHB84:
 9170 2eb0 97000000 		call	_ZN6ThreadC2Ev@plt
 9170      E7800000 
 9171              	.LVL1116:
 9172              	.LEHE84:
 9173 2eb8 97070000 		lla	a5,_ZTV3A10+16
 9173      93870700 
 9174 2ec0 23B0F900 		sd	a5,0(s3)
 787:test/Test8.cpp ****         printString("Nit kreirana - id: ");
 9175              		.loc 1 787 31
 9176 2ec4 17070000 		lla	a4,.LANCHOR1
 9176      13070700 
 9177 2ecc 83270702 		lw	a5,32(a4)
 9178 2ed0 9B861700 		addiw	a3,a5,1
 9179 2ed4 2320D702 		sw	a3,32(a4)
 787:test/Test8.cpp ****         printString("Nit kreirana - id: ");
 9180              		.loc 1 787 41
 9181 2ed8 23A0F902 		sw	a5,32(s3)
 9182 2edc 23A20902 		sw	zero,36(s3)
 788:test/Test8.cpp ****         printInt(id);
 9183              		.loc 1 788 9 is_stmt 1
 788:test/Test8.cpp ****         printInt(id);
 9184              		.loc 1 788 20 is_stmt 0
 9185 2ee0 17050000 		lla	a0,.LC68
 9185      13050500 
 9186              	.LEHB85:
 9187 2ee8 97000000 		call	_Z11printStringPKc@plt
 9187      E7800000 
 9188              	.LVL1117:
 789:test/Test8.cpp ****         printString("\n");
 9189              		.loc 1 789 9 is_stmt 1
 789:test/Test8.cpp ****         printString("\n");
 9190              		.loc 1 789 17 is_stmt 0
 9191 2ef0 13060000 		li	a2,0
 9192 2ef4 9305A000 		li	a1,10
 9193 2ef8 03A50902 		lw	a0,32(s3)
 9194 2efc 97000000 		call	_Z8printIntiii@plt
 9194      E7800000 
GAS LISTING /tmp/ccCnP6rB.s 			page 226


 9195              	.LVL1118:
 790:test/Test8.cpp ****     }
 9196              		.loc 1 790 9 is_stmt 1
 790:test/Test8.cpp ****     }
 9197              		.loc 1 790 20 is_stmt 0
 9198 2f04 17050000 		lla	a0,.LC1
 9198      13050500 
 9199 2f0c 97000000 		call	_Z11printStringPKc@plt
 9199      E7800000 
 9200              	.LVL1119:
 9201              	.LEHE85:
 9202 2f14 6F00C002 		j	.L589
 9203              	.L579:
 9204 2f18 93040500 		mv	s1,a0
 9205              	.LVL1120:
 787:test/Test8.cpp ****         printString("Nit kreirana - id: ");
 9206              		.loc 1 787 41
 9207 2f1c 13050A00 		mv	a0,s4
 9208 2f20 97000000 		call	_ZN6ThreadD2Ev@plt
 9208      E7800000 
 9209              	.LVL1121:
 9210              	.L557:
 9211              	.LBE550:
 9212              	.LBE549:
 830:test/Test8.cpp ****                 break;
 9213              		.loc 1 830 33 discriminator 2
 9214 2f28 13850900 		mv	a0,s3
 9215 2f2c 97000000 		call	_ZdlPv@plt
 9215      E7800000 
 9216              	.LVL1122:
 9217 2f34 13850400 		mv	a0,s1
 9218              	.LEHB86:
 9219 2f38 97000000 		call	_Unwind_Resume@plt
 9219      E7800000 
 9220              	.LVL1123:
 9221              	.L589:
 830:test/Test8.cpp ****                 break;
 9222              		.loc 1 830 23 discriminator 3
 9223 2f40 23303901 		sd	s3,0(s2)
 831:test/Test8.cpp ****             }
 9224              		.loc 1 831 17 is_stmt 1 discriminator 3
 9225              	.L558:
 827:test/Test8.cpp ****         switch (i) {
 9226              		.loc 1 827 5 discriminator 2
 9227 2f44 9B841400 		addiw	s1,s1,1
 9228              	.LVL1124:
 9229              	.L568:
 827:test/Test8.cpp ****         switch (i) {
 9230              		.loc 1 827 18 discriminator 1
 9231 2f48 93071003 		li	a5,49
 9232 2f4c 63C89722 		bgt	s1,a5,.L551
 828:test/Test8.cpp ****             case 0:{
 9233              		.loc 1 828 9
 9234 2f50 93071000 		li	a5,1
 9235 2f54 6388F402 		beq	s1,a5,.L552
 9236 2f58 9307F001 		li	a5,31
 9237 2f5c 638CF40C 		beq	s1,a5,.L553
GAS LISTING /tmp/ccCnP6rB.s 			page 227


 9238 2f60 E38E04F2 		beqz	s1,.L590
 841:test/Test8.cpp ****                 niz[i] = new A10(0);
 9239              		.loc 1 841 13
 841:test/Test8.cpp ****                 niz[i] = new A10(0);
 9240              		.loc 1 841 21
 842:test/Test8.cpp ****                 break;
 9241              		.loc 1 842 17
 842:test/Test8.cpp ****                 break;
 9242              		.loc 1 842 35 is_stmt 0
 9243 2f64 13058002 		li	a0,40
 9244 2f68 97000000 		call	_Znwm@plt
 9244      E7800000 
 9245              	.LVL1125:
 9246              	.LEHE86:
 9247 2f70 93090500 		mv	s3,a0
 9248              	.LVL1126:
 9249              	.LBB551:
 9250              	.LBB552:
 787:test/Test8.cpp ****         printString("Nit kreirana - id: ");
 9251              		.loc 1 787 41
 9252 2f74 130A0500 		mv	s4,a0
 9253              	.LEHB87:
 9254 2f78 97000000 		call	_ZN6ThreadC2Ev@plt
 9254      E7800000 
 9255              	.LVL1127:
 9256              	.LEHE87:
 9257 2f80 6F004016 		j	.L591
 9258              	.LVL1128:
 9259              	.L552:
 9260              	.LBE552:
 9261              	.LBE551:
 833:test/Test8.cpp ****                 niz[1] =new A10(1);
 9262              		.loc 1 833 13 is_stmt 1
 833:test/Test8.cpp ****                 niz[1] =new A10(1);
 9263              		.loc 1 833 20
 834:test/Test8.cpp ****                 break;
 9264              		.loc 1 834 17
 834:test/Test8.cpp ****                 break;
 9265              		.loc 1 834 34 is_stmt 0
 9266 2f84 13058002 		li	a0,40
 9267              	.LEHB88:
 9268 2f88 97000000 		call	_Znwm@plt
 9268      E7800000 
 9269              	.LVL1129:
 9270              	.LEHE88:
 9271 2f90 93090500 		mv	s3,a0
 9272              	.LVL1130:
 9273              	.LBB554:
 9274              	.LBB555:
 787:test/Test8.cpp ****         printString("Nit kreirana - id: ");
 9275              		.loc 1 787 41
 9276 2f94 130A0500 		mv	s4,a0
 9277              	.LEHB89:
 9278 2f98 97000000 		call	_ZN6ThreadC2Ev@plt
 9278      E7800000 
 9279              	.LVL1131:
 9280              	.LEHE89:
GAS LISTING /tmp/ccCnP6rB.s 			page 228


 9281 2fa0 97070000 		lla	a5,_ZTV3A10+16
 9281      93870700 
 9282 2fa8 23B0F900 		sd	a5,0(s3)
 787:test/Test8.cpp ****         printString("Nit kreirana - id: ");
 9283              		.loc 1 787 31
 9284 2fac 17070000 		lla	a4,.LANCHOR1
 9284      13070700 
 9285 2fb4 83270702 		lw	a5,32(a4)
 9286 2fb8 9B861700 		addiw	a3,a5,1
 9287 2fbc 2320D702 		sw	a3,32(a4)
 787:test/Test8.cpp ****         printString("Nit kreirana - id: ");
 9288              		.loc 1 787 41
 9289 2fc0 23A0F902 		sw	a5,32(s3)
 9290 2fc4 93071000 		li	a5,1
 9291 2fc8 23A2F902 		sw	a5,36(s3)
 788:test/Test8.cpp ****         printInt(id);
 9292              		.loc 1 788 9 is_stmt 1
 788:test/Test8.cpp ****         printInt(id);
 9293              		.loc 1 788 20 is_stmt 0
 9294 2fcc 17050000 		lla	a0,.LC68
 9294      13050500 
 9295              	.LEHB90:
 9296 2fd4 97000000 		call	_Z11printStringPKc@plt
 9296      E7800000 
 9297              	.LVL1132:
 789:test/Test8.cpp ****         printString("\n");
 9298              		.loc 1 789 9 is_stmt 1
 789:test/Test8.cpp ****         printString("\n");
 9299              		.loc 1 789 17 is_stmt 0
 9300 2fdc 13060000 		li	a2,0
 9301 2fe0 9305A000 		li	a1,10
 9302 2fe4 03A50902 		lw	a0,32(s3)
 9303 2fe8 97000000 		call	_Z8printIntiii@plt
 9303      E7800000 
 9304              	.LVL1133:
 790:test/Test8.cpp ****     }
 9305              		.loc 1 790 9 is_stmt 1
 790:test/Test8.cpp ****     }
 9306              		.loc 1 790 20 is_stmt 0
 9307 2ff0 17050000 		lla	a0,.LC1
 9307      13050500 
 9308 2ff8 97000000 		call	_Z11printStringPKc@plt
 9308      E7800000 
 9309              	.LVL1134:
 9310              	.LEHE90:
 9311 3000 6F00C002 		j	.L592
 9312              	.L580:
 9313 3004 93040500 		mv	s1,a0
 9314              	.LVL1135:
 787:test/Test8.cpp ****         printString("Nit kreirana - id: ");
 9315              		.loc 1 787 41
 9316 3008 13050A00 		mv	a0,s4
 9317 300c 97000000 		call	_ZN6ThreadD2Ev@plt
 9317      E7800000 
 9318              	.LVL1136:
 9319              	.L561:
 9320              	.LBE555:
GAS LISTING /tmp/ccCnP6rB.s 			page 229


 9321              	.LBE554:
 834:test/Test8.cpp ****                 break;
 9322              		.loc 1 834 34 discriminator 2
 9323 3014 13850900 		mv	a0,s3
 9324 3018 97000000 		call	_ZdlPv@plt
 9324      E7800000 
 9325              	.LVL1137:
 9326 3020 13850400 		mv	a0,s1
 9327              	.LEHB91:
 9328 3024 97000000 		call	_Unwind_Resume@plt
 9328      E7800000 
 9329              	.LVL1138:
 9330              	.L592:
 834:test/Test8.cpp ****                 break;
 9331              		.loc 1 834 24 discriminator 3
 9332 302c 23343901 		sd	s3,8(s2)
 835:test/Test8.cpp ****             }
 9333              		.loc 1 835 17 is_stmt 1 discriminator 3
 9334 3030 6FF05FF1 		j	.L558
 9335              	.L553:
 837:test/Test8.cpp ****                 niz[31] = new A10(1);
 9336              		.loc 1 837 13
 837:test/Test8.cpp ****                 niz[31] = new A10(1);
 9337              		.loc 1 837 21
 838:test/Test8.cpp ****                 break;
 9338              		.loc 1 838 17
 838:test/Test8.cpp ****                 break;
 9339              		.loc 1 838 36 is_stmt 0
 9340 3034 13058002 		li	a0,40
 9341 3038 97000000 		call	_Znwm@plt
 9341      E7800000 
 9342              	.LVL1139:
 9343              	.LEHE91:
 9344 3040 93090500 		mv	s3,a0
 9345              	.LVL1140:
 9346              	.LBB556:
 9347              	.LBB557:
 787:test/Test8.cpp ****         printString("Nit kreirana - id: ");
 9348              		.loc 1 787 41
 9349 3044 130A0500 		mv	s4,a0
 9350              	.LEHB92:
 9351 3048 97000000 		call	_ZN6ThreadC2Ev@plt
 9351      E7800000 
 9352              	.LVL1141:
 9353              	.LEHE92:
 9354 3050 97070000 		lla	a5,_ZTV3A10+16
 9354      93870700 
 9355 3058 23B0F900 		sd	a5,0(s3)
 787:test/Test8.cpp ****         printString("Nit kreirana - id: ");
 9356              		.loc 1 787 31
 9357 305c 17070000 		lla	a4,.LANCHOR1
 9357      13070700 
 9358 3064 83270702 		lw	a5,32(a4)
 9359 3068 9B861700 		addiw	a3,a5,1
 9360 306c 2320D702 		sw	a3,32(a4)
 787:test/Test8.cpp ****         printString("Nit kreirana - id: ");
 9361              		.loc 1 787 41
GAS LISTING /tmp/ccCnP6rB.s 			page 230


 9362 3070 23A0F902 		sw	a5,32(s3)
 9363 3074 93071000 		li	a5,1
 9364 3078 23A2F902 		sw	a5,36(s3)
 788:test/Test8.cpp ****         printInt(id);
 9365              		.loc 1 788 9 is_stmt 1
 788:test/Test8.cpp ****         printInt(id);
 9366              		.loc 1 788 20 is_stmt 0
 9367 307c 17050000 		lla	a0,.LC68
 9367      13050500 
 9368              	.LEHB93:
 9369 3084 97000000 		call	_Z11printStringPKc@plt
 9369      E7800000 
 9370              	.LVL1142:
 789:test/Test8.cpp ****         printString("\n");
 9371              		.loc 1 789 9 is_stmt 1
 789:test/Test8.cpp ****         printString("\n");
 9372              		.loc 1 789 17 is_stmt 0
 9373 308c 13060000 		li	a2,0
 9374 3090 9305A000 		li	a1,10
 9375 3094 03A50902 		lw	a0,32(s3)
 9376 3098 97000000 		call	_Z8printIntiii@plt
 9376      E7800000 
 9377              	.LVL1143:
 790:test/Test8.cpp ****     }
 9378              		.loc 1 790 9 is_stmt 1
 790:test/Test8.cpp ****     }
 9379              		.loc 1 790 20 is_stmt 0
 9380 30a0 17050000 		lla	a0,.LC1
 9380      13050500 
 9381 30a8 97000000 		call	_Z11printStringPKc@plt
 9381      E7800000 
 9382              	.LVL1144:
 9383              	.LEHE93:
 9384 30b0 6F00C002 		j	.L593
 9385              	.L581:
 9386 30b4 93040500 		mv	s1,a0
 9387              	.LVL1145:
 787:test/Test8.cpp ****         printString("Nit kreirana - id: ");
 9388              		.loc 1 787 41
 9389 30b8 13050A00 		mv	a0,s4
 9390 30bc 97000000 		call	_ZN6ThreadD2Ev@plt
 9390      E7800000 
 9391              	.LVL1146:
 9392              	.L564:
 9393              	.LBE557:
 9394              	.LBE556:
 838:test/Test8.cpp ****                 break;
 9395              		.loc 1 838 36 discriminator 2
 9396 30c4 13850900 		mv	a0,s3
 9397 30c8 97000000 		call	_ZdlPv@plt
 9397      E7800000 
 9398              	.LVL1147:
 9399 30d0 13850400 		mv	a0,s1
 9400              	.LEHB94:
 9401 30d4 97000000 		call	_Unwind_Resume@plt
 9401      E7800000 
 9402              	.LVL1148:
GAS LISTING /tmp/ccCnP6rB.s 			page 231


 9403              	.LEHE94:
 9404              	.L593:
 838:test/Test8.cpp ****                 break;
 9405              		.loc 1 838 25 discriminator 3
 9406 30dc 233C390F 		sd	s3,248(s2)
 839:test/Test8.cpp ****             }
 9407              		.loc 1 839 17 is_stmt 1 discriminator 3
 9408 30e0 6FF05FE6 		j	.L558
 9409              	.LVL1149:
 9410              	.L591:
 9411              	.LBB558:
 9412              	.LBB553:
 787:test/Test8.cpp ****         printString("Nit kreirana - id: ");
 9413              		.loc 1 787 41 is_stmt 0
 9414 30e4 97070000 		lla	a5,_ZTV3A10+16
 9414      93870700 
 9415 30ec 23B0F900 		sd	a5,0(s3)
 787:test/Test8.cpp ****         printString("Nit kreirana - id: ");
 9416              		.loc 1 787 31
 9417 30f0 17070000 		lla	a4,.LANCHOR1
 9417      13070700 
 9418 30f8 83270702 		lw	a5,32(a4)
 9419 30fc 9B861700 		addiw	a3,a5,1
 9420 3100 2320D702 		sw	a3,32(a4)
 787:test/Test8.cpp ****         printString("Nit kreirana - id: ");
 9421              		.loc 1 787 41
 9422 3104 23A0F902 		sw	a5,32(s3)
 9423 3108 23A20902 		sw	zero,36(s3)
 788:test/Test8.cpp ****         printInt(id);
 9424              		.loc 1 788 9 is_stmt 1
 788:test/Test8.cpp ****         printInt(id);
 9425              		.loc 1 788 20 is_stmt 0
 9426 310c 17050000 		lla	a0,.LC68
 9426      13050500 
 9427              	.LEHB95:
 9428 3114 97000000 		call	_Z11printStringPKc@plt
 9428      E7800000 
 9429              	.LVL1150:
 789:test/Test8.cpp ****         printString("\n");
 9430              		.loc 1 789 9 is_stmt 1
 789:test/Test8.cpp ****         printString("\n");
 9431              		.loc 1 789 17 is_stmt 0
 9432 311c 13060000 		li	a2,0
 9433 3120 9305A000 		li	a1,10
 9434 3124 03A50902 		lw	a0,32(s3)
 9435 3128 97000000 		call	_Z8printIntiii@plt
 9435      E7800000 
 9436              	.LVL1151:
 790:test/Test8.cpp ****     }
 9437              		.loc 1 790 9 is_stmt 1
 790:test/Test8.cpp ****     }
 9438              		.loc 1 790 20 is_stmt 0
 9439 3130 17050000 		lla	a0,.LC1
 9439      13050500 
 9440 3138 97000000 		call	_Z11printStringPKc@plt
 9440      E7800000 
 9441              	.LVL1152:
GAS LISTING /tmp/ccCnP6rB.s 			page 232


 9442              	.LEHE95:
 9443 3140 6F00C002 		j	.L594
 9444              	.L582:
 9445 3144 93040500 		mv	s1,a0
 9446              	.LVL1153:
 787:test/Test8.cpp ****         printString("Nit kreirana - id: ");
 9447              		.loc 1 787 41
 9448 3148 13050A00 		mv	a0,s4
 9449 314c 97000000 		call	_ZN6ThreadD2Ev@plt
 9449      E7800000 
 9450              	.LVL1154:
 9451              	.L567:
 9452              	.LBE553:
 9453              	.LBE558:
 842:test/Test8.cpp ****                 break;
 9454              		.loc 1 842 35 discriminator 2
 9455 3154 13850900 		mv	a0,s3
 9456 3158 97000000 		call	_ZdlPv@plt
 9456      E7800000 
 9457              	.LVL1155:
 9458 3160 13850400 		mv	a0,s1
 9459              	.LEHB96:
 9460 3164 97000000 		call	_Unwind_Resume@plt
 9460      E7800000 
 9461              	.LVL1156:
 9462              	.L594:
 842:test/Test8.cpp ****                 break;
 9463              		.loc 1 842 24 discriminator 3
 9464 316c 93973400 		slli	a5,s1,3
 9465 3170 B307F900 		add	a5,s2,a5
 9466 3174 23B03701 		sd	s3,0(a5)
 843:test/Test8.cpp ****             }
 9467              		.loc 1 843 17 is_stmt 1 discriminator 3
 9468 3178 6FF0DFDC 		j	.L558
 9469              	.L551:
 9470              	.LBE548:
 849:test/Test8.cpp ****         nit->start();
 9471              		.loc 1 849 5
 9472              	.LVL1157:
 9473              	.LBB559:
 849:test/Test8.cpp ****         nit->start();
 9474              		.loc 1 849 18 is_stmt 0
 9475 317c 93090919 		addi	s3,s2,400
 9476              	.LVL1158:
 9477 3180 93040900 		mv	s1,s2
 9478              	.LVL1159:
 9479              	.L570:
 849:test/Test8.cpp ****         nit->start();
 9480              		.loc 1 849 18 is_stmt 1 discriminator 1
 9481 3184 638C3401 		beq	s1,s3,.L574
 9482              	.LVL1160:
 850:test/Test8.cpp ****     }
 9483              		.loc 1 850 9 discriminator 2
 850:test/Test8.cpp ****     }
 9484              		.loc 1 850 19 is_stmt 0 discriminator 2
 9485 3188 03B50400 		ld	a0,0(s1)
 9486 318c 97000000 		call	_ZN6Thread5startEv@plt
GAS LISTING /tmp/ccCnP6rB.s 			page 233


 9486      E7800000 
 9487              	.LVL1161:
 849:test/Test8.cpp ****         nit->start();
 9488              		.loc 1 849 5 is_stmt 1 discriminator 2
 9489 3194 93848400 		addi	s1,s1,8
 9490              	.LVL1162:
 9491 3198 6FF0DFFE 		j	.L570
 9492              	.L574:
 9493              	.LBE559:
 9494              	.LBB560:
 853:test/Test8.cpp ****         nit->join();
 9495              		.loc 1 853 18 is_stmt 0
 9496 319c 93040900 		mv	s1,s2
 9497              	.LVL1163:
 9498              	.L569:
 853:test/Test8.cpp ****         nit->join();
 9499              		.loc 1 853 18 is_stmt 1 discriminator 1
 9500 31a0 638E3401 		beq	s1,s3,.L571
 9501              	.LVL1164:
 854:test/Test8.cpp ****     }
 9502              		.loc 1 854 9 discriminator 2
 854:test/Test8.cpp ****     }
 9503              		.loc 1 854 18 is_stmt 0 discriminator 2
 9504 31a4 03B50400 		ld	a0,0(s1)
 9505 31a8 97000000 		call	_ZN6Thread4joinEv@plt
 9505      E7800000 
 9506              	.LVL1165:
 853:test/Test8.cpp ****         nit->join();
 9507              		.loc 1 853 5 is_stmt 1 discriminator 2
 9508 31b0 93848400 		addi	s1,s1,8
 9509              	.LVL1166:
 9510 31b4 6FF0DFFE 		j	.L569
 9511              	.LVL1167:
 9512              	.L573:
 9513              	.LBE560:
 9514              	.LBB561:
 856:test/Test8.cpp ****         delete nit;
 9515              		.loc 1 856 5 discriminator 3
 9516 31b8 13098900 		addi	s2,s2,8
 9517              	.LVL1168:
 9518              	.L571:
 856:test/Test8.cpp ****         delete nit;
 9519              		.loc 1 856 18 discriminator 1
 9520 31bc 630E3901 		beq	s2,s3,.L572
 856:test/Test8.cpp ****         delete nit;
 9521              		.loc 1 856 14 is_stmt 0 discriminator 2
 9522 31c0 03350900 		ld	a0,0(s2)
 9523              	.LVL1169:
 857:test/Test8.cpp ****     }
 9524              		.loc 1 857 9 is_stmt 1 discriminator 2
 857:test/Test8.cpp ****     }
 9525              		.loc 1 857 19 is_stmt 0 discriminator 2
 9526 31c4 E30A05FE 		beqz	a0,.L573
 857:test/Test8.cpp ****     }
 9527              		.loc 1 857 16 discriminator 1
 9528 31c8 83370500 		ld	a5,0(a0)
 9529 31cc 83B78700 		ld	a5,8(a5)
GAS LISTING /tmp/ccCnP6rB.s 			page 234


 9530 31d0 E7800700 		jalr	a5
 9531              	.LVL1170:
 9532 31d4 6FF05FFE 		j	.L573
 9533              	.L572:
 9534              	.LBE561:
 859:test/Test8.cpp **** }
 9535              		.loc 1 859 5 is_stmt 1
 859:test/Test8.cpp **** }
 9536              		.loc 1 859 16 is_stmt 0
 9537 31d8 17050000 		lla	a0,.LC84
 9537      13050500 
 9538 31e0 97000000 		call	_Z11printStringPKc@plt
 9538      E7800000 
 9539              	.LVL1171:
 9540              	.LEHE96:
 860:test/Test8.cpp **** 
 9541              		.loc 1 860 1
 9542 31e8 130104FD 		addi	sp,s0,-48
 9543              		.cfi_remember_state
 9544              		.cfi_def_cfa 2, 48
 9545              	.LVL1172:
 9546 31ec 83308102 		ld	ra,40(sp)
 9547              		.cfi_restore 1
 9548 31f0 03340102 		ld	s0,32(sp)
 9549              		.cfi_restore 8
 9550 31f4 83348101 		ld	s1,24(sp)
 9551              		.cfi_restore 9
 9552              	.LVL1173:
 9553 31f8 03390101 		ld	s2,16(sp)
 9554              		.cfi_restore 18
 9555              	.LVL1174:
 9556 31fc 83398100 		ld	s3,8(sp)
 9557              		.cfi_restore 19
 9558              	.LVL1175:
 9559 3200 033A0100 		ld	s4,0(sp)
 9560              		.cfi_restore 20
 9561 3204 13010103 		addi	sp,sp,48
 9562              		.cfi_def_cfa_offset 0
 9563 3208 67800000 		jr	ra
 9564              	.LVL1176:
 9565              	.L575:
 9566              		.cfi_restore_state
 9567 320c 93040500 		mv	s1,a0
 9568              	.LVL1177:
 9569 3210 6FF09FD1 		j	.L557
 9570              	.LVL1178:
 9571              	.L576:
 9572 3214 93040500 		mv	s1,a0
 9573              	.LVL1179:
 9574 3218 6FF0DFDF 		j	.L561
 9575              	.LVL1180:
 9576              	.L577:
 9577 321c 93040500 		mv	s1,a0
 9578              	.LVL1181:
 9579 3220 6FF05FEA 		j	.L564
 9580              	.LVL1182:
 9581              	.L578:
GAS LISTING /tmp/ccCnP6rB.s 			page 235


 9582 3224 93040500 		mv	s1,a0
 9583              	.LVL1183:
 9584 3228 6FF0DFF2 		j	.L567
 9585              		.cfi_endproc
 9586              	.LFE77:
 9587              		.section	.gcc_except_table
 9588              	.LLSDA77:
 9589 0467 FF       		.byte	0xff
 9590 0468 FF       		.byte	0xff
 9591 0469 03       		.byte	0x3
 9592 046a B601     		.byte	0xb6,0x1
 9593 046c 00000000 		.4byte	.LEHB83-.LFB77
 9594 0470 00000000 		.4byte	.LEHE83-.LEHB83
 9595 0474 00000000 		.4byte	0
 9596 0478 00       		.byte	0
 9597 0479 00000000 		.4byte	.LEHB84-.LFB77
 9598 047d 00000000 		.4byte	.LEHE84-.LEHB84
 9599 0481 00000000 		.4byte	.L575-.LFB77
 9600 0485 00       		.byte	0
 9601 0486 00000000 		.4byte	.LEHB85-.LFB77
 9602 048a 00000000 		.4byte	.LEHE85-.LEHB85
 9603 048e 00000000 		.4byte	.L579-.LFB77
 9604 0492 00       		.byte	0
 9605 0493 00000000 		.4byte	.LEHB86-.LFB77
 9606 0497 00000000 		.4byte	.LEHE86-.LEHB86
 9607 049b 00000000 		.4byte	0
 9608 049f 00       		.byte	0
 9609 04a0 00000000 		.4byte	.LEHB87-.LFB77
 9610 04a4 00000000 		.4byte	.LEHE87-.LEHB87
 9611 04a8 00000000 		.4byte	.L578-.LFB77
 9612 04ac 00       		.byte	0
 9613 04ad 00000000 		.4byte	.LEHB88-.LFB77
 9614 04b1 00000000 		.4byte	.LEHE88-.LEHB88
 9615 04b5 00000000 		.4byte	0
 9616 04b9 00       		.byte	0
 9617 04ba 00000000 		.4byte	.LEHB89-.LFB77
 9618 04be 00000000 		.4byte	.LEHE89-.LEHB89
 9619 04c2 00000000 		.4byte	.L576-.LFB77
 9620 04c6 00       		.byte	0
 9621 04c7 00000000 		.4byte	.LEHB90-.LFB77
 9622 04cb 00000000 		.4byte	.LEHE90-.LEHB90
 9623 04cf 00000000 		.4byte	.L580-.LFB77
 9624 04d3 00       		.byte	0
 9625 04d4 00000000 		.4byte	.LEHB91-.LFB77
 9626 04d8 00000000 		.4byte	.LEHE91-.LEHB91
 9627 04dc 00000000 		.4byte	0
 9628 04e0 00       		.byte	0
 9629 04e1 00000000 		.4byte	.LEHB92-.LFB77
 9630 04e5 00000000 		.4byte	.LEHE92-.LEHB92
 9631 04e9 00000000 		.4byte	.L577-.LFB77
 9632 04ed 00       		.byte	0
 9633 04ee 00000000 		.4byte	.LEHB93-.LFB77
 9634 04f2 00000000 		.4byte	.LEHE93-.LEHB93
 9635 04f6 00000000 		.4byte	.L581-.LFB77
 9636 04fa 00       		.byte	0
 9637 04fb 00000000 		.4byte	.LEHB94-.LFB77
 9638 04ff 00000000 		.4byte	.LEHE94-.LEHB94
GAS LISTING /tmp/ccCnP6rB.s 			page 236


 9639 0503 00000000 		.4byte	0
 9640 0507 00       		.byte	0
 9641 0508 00000000 		.4byte	.LEHB95-.LFB77
 9642 050c 00000000 		.4byte	.LEHE95-.LEHB95
 9643 0510 00000000 		.4byte	.L582-.LFB77
 9644 0514 00       		.byte	0
 9645 0515 00000000 		.4byte	.LEHB96-.LFB77
 9646 0519 00000000 		.4byte	.LEHE96-.LEHB96
 9647 051d 00000000 		.4byte	0
 9648 0521 00       		.byte	0
 9649              		.text
 9651              		.align	2
 9652              		.globl	_Z11testBeeBearv
 9654              	_Z11testBeeBearv:
 9655              	.LFB82:
 911:test/Test8.cpp ****     A11* niz[animals];
 9656              		.loc 1 911 20 is_stmt 1
 9657              		.cfi_startproc
 9658              		.cfi_personality 0x9b,DW.ref.__gxx_personality_v0
 9659              		.cfi_lsda 0x1b,.LLSDA82
 9660 322c 130101FD 		addi	sp,sp,-48
 9661              		.cfi_def_cfa_offset 48
 9662 3230 23341102 		sd	ra,40(sp)
 9663 3234 23308102 		sd	s0,32(sp)
 9664 3238 233C9100 		sd	s1,24(sp)
 9665 323c 23382101 		sd	s2,16(sp)
 9666 3240 23343101 		sd	s3,8(sp)
 9667 3244 23304101 		sd	s4,0(sp)
 9668              		.cfi_offset 1, -8
 9669              		.cfi_offset 8, -16
 9670              		.cfi_offset 9, -24
 9671              		.cfi_offset 18, -32
 9672              		.cfi_offset 19, -40
 9673              		.cfi_offset 20, -48
 9674 3248 13040103 		addi	s0,sp,48
 9675              		.cfi_def_cfa 8, 0
 912:test/Test8.cpp ****     for(int i=0;i<animals;i++){
 9676              		.loc 1 912 5
 9677              	.LVL1184:
 912:test/Test8.cpp ****     for(int i=0;i<animals;i++){
 9678              		.loc 1 912 10 is_stmt 0
 9679 324c 130101E7 		addi	sp,sp,-400
 9680 3250 13090100 		mv	s2,sp
 9681              	.LVL1185:
 913:test/Test8.cpp ****         switch (i) {
 9682              		.loc 1 913 5 is_stmt 1
 9683              	.LBB572:
 913:test/Test8.cpp ****         switch (i) {
 9684              		.loc 1 913 13 is_stmt 0
 9685 3254 93090000 		li	s3,0
 9686 3258 6F00C014 		j	.L605
 9687              	.LVL1186:
 9688              	.L622:
 916:test/Test8.cpp ****                 niz[5] =new A11(1);
 9689              		.loc 1 916 13 is_stmt 1
 916:test/Test8.cpp ****                 niz[5] =new A11(1);
 9690              		.loc 1 916 20
GAS LISTING /tmp/ccCnP6rB.s 			page 237


 917:test/Test8.cpp ****                 break;
 9691              		.loc 1 917 17
 917:test/Test8.cpp ****                 break;
 9692              		.loc 1 917 34 is_stmt 0
 9693 325c 13058002 		li	a0,40
 9694              	.LEHB97:
 9695 3260 97000000 		call	_Znwm@plt
 9695      E7800000 
 9696              	.LVL1187:
 9697              	.LEHE97:
 9698 3268 93040500 		mv	s1,a0
 9699              	.LVL1188:
 9700              	.LBB573:
 9701              	.LBB574:
 870:test/Test8.cpp ****         printString("Nit kreirana - id: ");
 9702              		.loc 1 870 44
 9703 326c 130A0500 		mv	s4,a0
 9704              	.LEHB98:
 9705 3270 97000000 		call	_ZN6ThreadC2Ev@plt
 9705      E7800000 
 9706              	.LVL1189:
 9707              	.LEHE98:
 9708 3278 97070000 		lla	a5,_ZTV3A11+16
 9708      93870700 
 9709 3280 23B0F400 		sd	a5,0(s1)
 870:test/Test8.cpp ****         printString("Nit kreirana - id: ");
 9710              		.loc 1 870 34
 9711 3284 17070000 		lla	a4,.LANCHOR1
 9711      13070700 
 9712 328c 83274702 		lw	a5,36(a4)
 9713 3290 9B861700 		addiw	a3,a5,1
 9714 3294 2322D702 		sw	a3,36(a4)
 870:test/Test8.cpp ****         printString("Nit kreirana - id: ");
 9715              		.loc 1 870 44
 9716 3298 23A0F402 		sw	a5,32(s1)
 9717 329c 93071000 		li	a5,1
 9718 32a0 23A2F402 		sw	a5,36(s1)
 871:test/Test8.cpp ****         printInt(id);
 9719              		.loc 1 871 9 is_stmt 1
 871:test/Test8.cpp ****         printInt(id);
 9720              		.loc 1 871 20 is_stmt 0
 9721 32a4 17050000 		lla	a0,.LC68
 9721      13050500 
 9722              	.LEHB99:
 9723 32ac 97000000 		call	_Z11printStringPKc@plt
 9723      E7800000 
 9724              	.LVL1190:
 872:test/Test8.cpp ****         printString("\n");
 9725              		.loc 1 872 9 is_stmt 1
 872:test/Test8.cpp ****         printString("\n");
 9726              		.loc 1 872 17 is_stmt 0
 9727 32b4 13060000 		li	a2,0
 9728 32b8 9305A000 		li	a1,10
 9729 32bc 03A50402 		lw	a0,32(s1)
 9730 32c0 97000000 		call	_Z8printIntiii@plt
 9730      E7800000 
 9731              	.LVL1191:
GAS LISTING /tmp/ccCnP6rB.s 			page 238


 873:test/Test8.cpp ****     }
 9732              		.loc 1 873 9 is_stmt 1
 873:test/Test8.cpp ****     }
 9733              		.loc 1 873 20 is_stmt 0
 9734 32c8 17050000 		lla	a0,.LC1
 9734      13050500 
 9735 32d0 97000000 		call	_Z11printStringPKc@plt
 9735      E7800000 
 9736              	.LVL1192:
 9737              	.LEHE99:
 9738 32d8 6F00C002 		j	.L620
 9739              	.L614:
 9740 32dc 13090500 		mv	s2,a0
 870:test/Test8.cpp ****         printString("Nit kreirana - id: ");
 9741              		.loc 1 870 44
 9742 32e0 13050A00 		mv	a0,s4
 9743 32e4 97000000 		call	_ZN6ThreadD2Ev@plt
 9743      E7800000 
 9744              	.LVL1193:
 9745              	.L600:
 9746              	.LBE574:
 9747              	.LBE573:
 917:test/Test8.cpp ****                 break;
 9748              		.loc 1 917 34 discriminator 2
 9749 32ec 13850400 		mv	a0,s1
 9750 32f0 97000000 		call	_ZdlPv@plt
 9750      E7800000 
 9751              	.LVL1194:
 9752 32f8 13050900 		mv	a0,s2
 9753              	.LEHB100:
 9754 32fc 97000000 		call	_Unwind_Resume@plt
 9754      E7800000 
 9755              	.LVL1195:
 9756              	.LEHE100:
 9757              	.L620:
 917:test/Test8.cpp ****                 break;
 9758              		.loc 1 917 24 discriminator 3
 9759 3304 23349902 		sd	s1,40(s2)
 918:test/Test8.cpp ****             }
 9760              		.loc 1 918 17 is_stmt 1 discriminator 3
 9761 3308 6F008009 		j	.L601
 9762              	.LVL1196:
 9763              	.L623:
 9764              	.LBB575:
 9765              	.LBB576:
 870:test/Test8.cpp ****         printString("Nit kreirana - id: ");
 9766              		.loc 1 870 44 is_stmt 0
 9767 330c 97070000 		lla	a5,_ZTV3A11+16
 9767      93870700 
 9768 3314 23B0F400 		sd	a5,0(s1)
 870:test/Test8.cpp ****         printString("Nit kreirana - id: ");
 9769              		.loc 1 870 34
 9770 3318 17070000 		lla	a4,.LANCHOR1
 9770      13070700 
 9771 3320 83274702 		lw	a5,36(a4)
 9772 3324 9B861700 		addiw	a3,a5,1
 9773 3328 2322D702 		sw	a3,36(a4)
GAS LISTING /tmp/ccCnP6rB.s 			page 239


 870:test/Test8.cpp ****         printString("Nit kreirana - id: ");
 9774              		.loc 1 870 44
 9775 332c 23A0F402 		sw	a5,32(s1)
 9776 3330 23A20402 		sw	zero,36(s1)
 871:test/Test8.cpp ****         printInt(id);
 9777              		.loc 1 871 9 is_stmt 1
 871:test/Test8.cpp ****         printInt(id);
 9778              		.loc 1 871 20 is_stmt 0
 9779 3334 17050000 		lla	a0,.LC68
 9779      13050500 
 9780              	.LEHB101:
 9781 333c 97000000 		call	_Z11printStringPKc@plt
 9781      E7800000 
 9782              	.LVL1197:
 872:test/Test8.cpp ****         printString("\n");
 9783              		.loc 1 872 9 is_stmt 1
 872:test/Test8.cpp ****         printString("\n");
 9784              		.loc 1 872 17 is_stmt 0
 9785 3344 13060000 		li	a2,0
 9786 3348 9305A000 		li	a1,10
 9787 334c 03A50402 		lw	a0,32(s1)
 9788 3350 97000000 		call	_Z8printIntiii@plt
 9788      E7800000 
 9789              	.LVL1198:
 873:test/Test8.cpp ****     }
 9790              		.loc 1 873 9 is_stmt 1
 873:test/Test8.cpp ****     }
 9791              		.loc 1 873 20 is_stmt 0
 9792 3358 17050000 		lla	a0,.LC1
 9792      13050500 
 9793 3360 97000000 		call	_Z11printStringPKc@plt
 9793      E7800000 
 9794              	.LVL1199:
 9795              	.LEHE101:
 9796 3368 6F00C002 		j	.L621
 9797              	.L615:
 9798 336c 13090500 		mv	s2,a0
 870:test/Test8.cpp ****         printString("Nit kreirana - id: ");
 9799              		.loc 1 870 44
 9800 3370 13050A00 		mv	a0,s4
 9801 3374 97000000 		call	_ZN6ThreadD2Ev@plt
 9801      E7800000 
 9802              	.LVL1200:
 9803              	.L604:
 9804              	.LBE576:
 9805              	.LBE575:
 922:test/Test8.cpp ****                 break;
 9806              		.loc 1 922 35 discriminator 2
 9807 337c 13850400 		mv	a0,s1
 9808 3380 97000000 		call	_ZdlPv@plt
 9808      E7800000 
 9809              	.LVL1201:
 9810 3388 13050900 		mv	a0,s2
 9811              	.LEHB102:
 9812 338c 97000000 		call	_Unwind_Resume@plt
 9812      E7800000 
 9813              	.LVL1202:
GAS LISTING /tmp/ccCnP6rB.s 			page 240


 9814              	.L621:
 922:test/Test8.cpp ****                 break;
 9815              		.loc 1 922 24 discriminator 3
 9816 3394 93973900 		slli	a5,s3,3
 9817 3398 B307F900 		add	a5,s2,a5
 9818 339c 23B09700 		sd	s1,0(a5)
 923:test/Test8.cpp ****             }
 9819              		.loc 1 923 17 is_stmt 1 discriminator 3
 9820              	.L601:
 913:test/Test8.cpp ****         switch (i) {
 9821              		.loc 1 913 5 discriminator 2
 9822 33a0 9B891900 		addiw	s3,s3,1
 9823              	.LVL1203:
 9824              	.L605:
 913:test/Test8.cpp ****         switch (i) {
 9825              		.loc 1 913 18 discriminator 1
 9826 33a4 93071003 		li	a5,49
 9827 33a8 63C63703 		bgt	s3,a5,.L596
 914:test/Test8.cpp **** 
 9828              		.loc 1 914 9
 9829 33ac 93075000 		li	a5,5
 9830 33b0 E386F9EA 		beq	s3,a5,.L622
 921:test/Test8.cpp ****                 niz[i] = new A11(0);
 9831              		.loc 1 921 13
 921:test/Test8.cpp ****                 niz[i] = new A11(0);
 9832              		.loc 1 921 21
 922:test/Test8.cpp ****                 break;
 9833              		.loc 1 922 17
 922:test/Test8.cpp ****                 break;
 9834              		.loc 1 922 35 is_stmt 0
 9835 33b4 13058002 		li	a0,40
 9836 33b8 97000000 		call	_Znwm@plt
 9836      E7800000 
 9837              	.LVL1204:
 9838              	.LEHE102:
 9839 33c0 93040500 		mv	s1,a0
 9840              	.LVL1205:
 9841              	.LBB578:
 9842              	.LBB577:
 870:test/Test8.cpp ****         printString("Nit kreirana - id: ");
 9843              		.loc 1 870 44
 9844 33c4 130A0500 		mv	s4,a0
 9845              	.LEHB103:
 9846 33c8 97000000 		call	_ZN6ThreadC2Ev@plt
 9846      E7800000 
 9847              	.LVL1206:
 9848              	.LEHE103:
 9849 33d0 6FF0DFF3 		j	.L623
 9850              	.LVL1207:
 9851              	.L596:
 9852              	.LBE577:
 9853              	.LBE578:
 9854              	.LBE572:
 929:test/Test8.cpp ****         nit->start();
 9855              		.loc 1 929 5 is_stmt 1
 9856              	.LBB579:
 929:test/Test8.cpp ****         nit->start();
GAS LISTING /tmp/ccCnP6rB.s 			page 241


 9857              		.loc 1 929 18 is_stmt 0
 9858 33d4 93090919 		addi	s3,s2,400
 9859              	.LVL1208:
 9860 33d8 93040900 		mv	s1,s2
 9861              	.LVL1209:
 9862              	.L607:
 929:test/Test8.cpp ****         nit->start();
 9863              		.loc 1 929 18 is_stmt 1 discriminator 1
 9864 33dc 638C3401 		beq	s1,s3,.L611
 9865              	.LVL1210:
 930:test/Test8.cpp ****     }
 9866              		.loc 1 930 9 discriminator 2
 930:test/Test8.cpp ****     }
 9867              		.loc 1 930 19 is_stmt 0 discriminator 2
 9868 33e0 03B50400 		ld	a0,0(s1)
 9869              	.LEHB104:
 9870 33e4 97000000 		call	_ZN6Thread5startEv@plt
 9870      E7800000 
 9871              	.LVL1211:
 929:test/Test8.cpp ****         nit->start();
 9872              		.loc 1 929 5 is_stmt 1 discriminator 2
 9873 33ec 93848400 		addi	s1,s1,8
 9874              	.LVL1212:
 9875 33f0 6FF0DFFE 		j	.L607
 9876              	.L611:
 9877              	.LBE579:
 9878              	.LBB580:
 933:test/Test8.cpp ****         nit->join();
 9879              		.loc 1 933 18 is_stmt 0
 9880 33f4 93040900 		mv	s1,s2
 9881              	.LVL1213:
 9882              	.L606:
 933:test/Test8.cpp ****         nit->join();
 9883              		.loc 1 933 18 is_stmt 1 discriminator 1
 9884 33f8 638E3401 		beq	s1,s3,.L608
 9885              	.LVL1214:
 934:test/Test8.cpp ****     }
 9886              		.loc 1 934 9 discriminator 2
 934:test/Test8.cpp ****     }
 9887              		.loc 1 934 18 is_stmt 0 discriminator 2
 9888 33fc 03B50400 		ld	a0,0(s1)
 9889 3400 97000000 		call	_ZN6Thread4joinEv@plt
 9889      E7800000 
 9890              	.LVL1215:
 933:test/Test8.cpp ****         nit->join();
 9891              		.loc 1 933 5 is_stmt 1 discriminator 2
 9892 3408 93848400 		addi	s1,s1,8
 9893              	.LVL1216:
 9894 340c 6FF0DFFE 		j	.L606
 9895              	.LVL1217:
 9896              	.L610:
 9897              	.LBE580:
 9898              	.LBB581:
 936:test/Test8.cpp ****         delete nit;
 9899              		.loc 1 936 5 discriminator 3
 9900 3410 13098900 		addi	s2,s2,8
 9901              	.LVL1218:
GAS LISTING /tmp/ccCnP6rB.s 			page 242


 9902              	.L608:
 936:test/Test8.cpp ****         delete nit;
 9903              		.loc 1 936 18 discriminator 1
 9904 3414 630E3901 		beq	s2,s3,.L609
 936:test/Test8.cpp ****         delete nit;
 9905              		.loc 1 936 14 is_stmt 0 discriminator 2
 9906 3418 03350900 		ld	a0,0(s2)
 9907              	.LVL1219:
 937:test/Test8.cpp ****     }
 9908              		.loc 1 937 9 is_stmt 1 discriminator 2
 937:test/Test8.cpp ****     }
 9909              		.loc 1 937 19 is_stmt 0 discriminator 2
 9910 341c E30A05FE 		beqz	a0,.L610
 937:test/Test8.cpp ****     }
 9911              		.loc 1 937 16 discriminator 1
 9912 3420 83370500 		ld	a5,0(a0)
 9913 3424 83B78700 		ld	a5,8(a5)
 9914 3428 E7800700 		jalr	a5
 9915              	.LVL1220:
 9916 342c 6FF05FFE 		j	.L610
 9917              	.L609:
 9918              	.LBE581:
 939:test/Test8.cpp **** }
 9919              		.loc 1 939 5 is_stmt 1
 939:test/Test8.cpp **** }
 9920              		.loc 1 939 16 is_stmt 0
 9921 3430 17050000 		lla	a0,.LC84
 9921      13050500 
 9922 3438 97000000 		call	_Z11printStringPKc@plt
 9922      E7800000 
 9923              	.LVL1221:
 9924              	.LEHE104:
 940:test/Test8.cpp **** class A12:public Thread{
 9925              		.loc 1 940 1
 9926 3440 130104FD 		addi	sp,s0,-48
 9927              		.cfi_remember_state
 9928              		.cfi_def_cfa 2, 48
 9929              	.LVL1222:
 9930 3444 83308102 		ld	ra,40(sp)
 9931              		.cfi_restore 1
 9932 3448 03340102 		ld	s0,32(sp)
 9933              		.cfi_restore 8
 9934 344c 83348101 		ld	s1,24(sp)
 9935              		.cfi_restore 9
 9936              	.LVL1223:
 9937 3450 03390101 		ld	s2,16(sp)
 9938              		.cfi_restore 18
 9939              	.LVL1224:
 9940 3454 83398100 		ld	s3,8(sp)
 9941              		.cfi_restore 19
 9942              	.LVL1225:
 9943 3458 033A0100 		ld	s4,0(sp)
 9944              		.cfi_restore 20
 9945 345c 13010103 		addi	sp,sp,48
 9946              		.cfi_def_cfa_offset 0
 9947 3460 67800000 		jr	ra
 9948              	.LVL1226:
GAS LISTING /tmp/ccCnP6rB.s 			page 243


 9949              	.L612:
 9950              		.cfi_restore_state
 9951 3464 13090500 		mv	s2,a0
 9952 3468 6FF05FE8 		j	.L600
 9953              	.LVL1227:
 9954              	.L613:
 9955 346c 13090500 		mv	s2,a0
 9956 3470 6FF0DFF0 		j	.L604
 9957              		.cfi_endproc
 9958              	.LFE82:
 9959              		.section	.gcc_except_table
 9960              	.LLSDA82:
 9961 0522 FF       		.byte	0xff
 9962 0523 FF       		.byte	0xff
 9963 0524 03       		.byte	0x3
 9964 0525 68       		.byte	0x68
 9965 0526 00000000 		.4byte	.LEHB97-.LFB82
 9966 052a 00000000 		.4byte	.LEHE97-.LEHB97
 9967 052e 00000000 		.4byte	0
 9968 0532 00       		.byte	0
 9969 0533 00000000 		.4byte	.LEHB98-.LFB82
 9970 0537 00000000 		.4byte	.LEHE98-.LEHB98
 9971 053b 00000000 		.4byte	.L612-.LFB82
 9972 053f 00       		.byte	0
 9973 0540 00000000 		.4byte	.LEHB99-.LFB82
 9974 0544 00000000 		.4byte	.LEHE99-.LEHB99
 9975 0548 00000000 		.4byte	.L614-.LFB82
 9976 054c 00       		.byte	0
 9977 054d 00000000 		.4byte	.LEHB100-.LFB82
 9978 0551 00000000 		.4byte	.LEHE100-.LEHB100
 9979 0555 00000000 		.4byte	0
 9980 0559 00       		.byte	0
 9981 055a 00000000 		.4byte	.LEHB101-.LFB82
 9982 055e 00000000 		.4byte	.LEHE101-.LEHB101
 9983 0562 00000000 		.4byte	.L615-.LFB82
 9984 0566 00       		.byte	0
 9985 0567 00000000 		.4byte	.LEHB102-.LFB82
 9986 056b 00000000 		.4byte	.LEHE102-.LEHB102
 9987 056f 00000000 		.4byte	0
 9988 0573 00       		.byte	0
 9989 0574 00000000 		.4byte	.LEHB103-.LFB82
 9990 0578 00000000 		.4byte	.LEHE103-.LEHB103
 9991 057c 00000000 		.4byte	.L613-.LFB82
 9992 0580 00       		.byte	0
 9993 0581 00000000 		.4byte	.LEHB104-.LFB82
 9994 0585 00000000 		.4byte	.LEHE104-.LEHB104
 9995 0589 00000000 		.4byte	0
 9996 058d 00       		.byte	0
 9997              		.text
 9999              		.align	2
 10000              		.globl	_Z21testSemaforSaZetonimav
 10002              	_Z21testSemaforSaZetonimav:
 10003              	.LFB91:
1001:test/Test8.cpp ****     sem2 = new Semaphore(5);
 10004              		.loc 1 1001 30 is_stmt 1
 10005              		.cfi_startproc
 10006              		.cfi_personality 0x9b,DW.ref.__gxx_personality_v0
GAS LISTING /tmp/ccCnP6rB.s 			page 244


 10007              		.cfi_lsda 0x1b,.LLSDA91
 10008 3474 130101FE 		addi	sp,sp,-32
 10009              		.cfi_def_cfa_offset 32
 10010 3478 233C1100 		sd	ra,24(sp)
 10011 347c 23388100 		sd	s0,16(sp)
 10012 3480 23349100 		sd	s1,8(sp)
 10013 3484 23302101 		sd	s2,0(sp)
 10014              		.cfi_offset 1, -8
 10015              		.cfi_offset 8, -16
 10016              		.cfi_offset 9, -24
 10017              		.cfi_offset 18, -32
 10018 3488 13040102 		addi	s0,sp,32
 10019              		.cfi_def_cfa 8, 0
1002:test/Test8.cpp ****     sem3 = new Semaphore(5);
 10020              		.loc 1 1002 5
1002:test/Test8.cpp ****     sem3 = new Semaphore(5);
 10021              		.loc 1 1002 27 is_stmt 0
 10022 348c 13050001 		li	a0,16
 10023              	.LEHB105:
 10024 3490 97000000 		call	_Znwm@plt
 10024      E7800000 
 10025              	.LVL1228:
 10026              	.LEHE105:
 10027 3498 93040500 		mv	s1,a0
 10028 349c 93055000 		li	a1,5
 10029              	.LEHB106:
 10030 34a0 97000000 		call	_ZN9SemaphoreC1Ej@plt
 10030      E7800000 
 10031              	.LVL1229:
 10032              	.LEHE106:
1002:test/Test8.cpp ****     sem3 = new Semaphore(5);
 10033              		.loc 1 1002 10 discriminator 2
 10034 34a8 97070000 		sd	s1,.LANCHOR0,a5
 10034      23B09700 
1003:test/Test8.cpp ****     A12* a = new A12();
 10035              		.loc 1 1003 5 is_stmt 1 discriminator 2
1003:test/Test8.cpp ****     A12* a = new A12();
 10036              		.loc 1 1003 27 is_stmt 0 discriminator 2
 10037 34b0 13050001 		li	a0,16
 10038              	.LEHB107:
 10039 34b4 97000000 		call	_Znwm@plt
 10039      E7800000 
 10040              	.LVL1230:
 10041              	.LEHE107:
 10042 34bc 93040500 		mv	s1,a0
 10043 34c0 93055000 		li	a1,5
 10044              	.LEHB108:
 10045 34c4 97000000 		call	_ZN9SemaphoreC1Ej@plt
 10045      E7800000 
 10046              	.LVL1231:
 10047              	.LEHE108:
1003:test/Test8.cpp ****     A12* a = new A12();
 10048              		.loc 1 1003 10 discriminator 2
 10049 34cc 97070000 		sd	s1,.LANCHOR0+8,a5
 10049      23B09700 
1004:test/Test8.cpp ****     B12* b = new B12();
 10050              		.loc 1 1004 5 is_stmt 1 discriminator 2
GAS LISTING /tmp/ccCnP6rB.s 			page 245


1004:test/Test8.cpp ****     B12* b = new B12();
 10051              		.loc 1 1004 22 is_stmt 0 discriminator 2
 10052 34d4 13050002 		li	a0,32
 10053              	.LEHB109:
 10054 34d8 97000000 		call	_Znwm@plt
 10054      E7800000 
 10055              	.LVL1232:
 10056              	.LEHE109:
 10057 34e0 13090500 		mv	s2,a0
 10058              	.LVL1233:
 10059              	.LEHB110:
 10060              	.LBB582:
 10061              	.LBB583:
 944:test/Test8.cpp **** 
 10062              		.loc 1 944 18 discriminator 2
 10063 34e4 97000000 		call	_ZN6ThreadC2Ev@plt
 10063      E7800000 
 10064              	.LVL1234:
 10065              	.LEHE110:
 944:test/Test8.cpp **** 
 10066              		.loc 1 944 18
 10067 34ec 97070000 		lla	a5,_ZTV3A12+16
 10067      93870700 
 10068 34f4 2330F900 		sd	a5,0(s2)
 10069              	.LVL1235:
 10070              	.LBE583:
 10071              	.LBE582:
1005:test/Test8.cpp **** 
 10072              		.loc 1 1005 5 is_stmt 1
1005:test/Test8.cpp **** 
 10073              		.loc 1 1005 22 is_stmt 0
 10074 34f8 13050002 		li	a0,32
 10075              	.LEHB111:
 10076 34fc 97000000 		call	_Znwm@plt
 10076      E7800000 
 10077              	.LVL1236:
 10078              	.LEHE111:
 10079 3504 93040500 		mv	s1,a0
 10080              	.LVL1237:
 10081              	.LEHB112:
 10082              	.LBB584:
 10083              	.LBB585:
 954:test/Test8.cpp **** 
 10084              		.loc 1 954 18
 10085 3508 97000000 		call	_ZN6ThreadC2Ev@plt
 10085      E7800000 
 10086              	.LVL1238:
 10087              	.LEHE112:
 10088 3510 97070000 		lla	a5,_ZTV3B12+16
 10088      93870700 
 10089 3518 23B0F400 		sd	a5,0(s1)
 10090              	.LVL1239:
 10091              	.LBE585:
 10092              	.LBE584:
1008:test/Test8.cpp ****     b->start();
 10093              		.loc 1 1008 5 is_stmt 1
1008:test/Test8.cpp ****     b->start();
GAS LISTING /tmp/ccCnP6rB.s 			page 246


 10094              		.loc 1 1008 13 is_stmt 0
 10095 351c 13050900 		mv	a0,s2
 10096              	.LEHB113:
 10097 3520 97000000 		call	_ZN6Thread5startEv@plt
 10097      E7800000 
 10098              	.LVL1240:
1009:test/Test8.cpp **** 
 10099              		.loc 1 1009 5 is_stmt 1
1009:test/Test8.cpp **** 
 10100              		.loc 1 1009 13 is_stmt 0
 10101 3528 13850400 		mv	a0,s1
 10102 352c 97000000 		call	_ZN6Thread5startEv@plt
 10102      E7800000 
 10103              	.LVL1241:
1012:test/Test8.cpp ****     b->join();
 10104              		.loc 1 1012 5 is_stmt 1
1012:test/Test8.cpp ****     b->join();
 10105              		.loc 1 1012 12 is_stmt 0
 10106 3534 13050900 		mv	a0,s2
 10107 3538 97000000 		call	_ZN6Thread4joinEv@plt
 10107      E7800000 
 10108              	.LVL1242:
1013:test/Test8.cpp **** 
 10109              		.loc 1 1013 5 is_stmt 1
1013:test/Test8.cpp **** 
 10110              		.loc 1 1013 12 is_stmt 0
 10111 3540 13850400 		mv	a0,s1
 10112 3544 97000000 		call	_ZN6Thread4joinEv@plt
 10112      E7800000 
 10113              	.LVL1243:
1017:test/Test8.cpp ****     delete b;
 10114              		.loc 1 1017 5 is_stmt 1
1017:test/Test8.cpp ****     delete b;
 10115              		.loc 1 1017 13 is_stmt 0
 10116 354c 630A0900 		beqz	s2,.L625
1017:test/Test8.cpp ****     delete b;
 10117              		.loc 1 1017 12 discriminator 1
 10118 3550 83370900 		ld	a5,0(s2)
 10119 3554 83B78700 		ld	a5,8(a5)
 10120 3558 13050900 		mv	a0,s2
 10121 355c E7800700 		jalr	a5
 10122              	.LVL1244:
 10123              	.L625:
1018:test/Test8.cpp **** };
 10124              		.loc 1 1018 5 is_stmt 1
1018:test/Test8.cpp **** };
 10125              		.loc 1 1018 13 is_stmt 0
 10126 3560 638A0400 		beqz	s1,.L624
1018:test/Test8.cpp **** };
 10127              		.loc 1 1018 12 discriminator 1
 10128 3564 83B70400 		ld	a5,0(s1)
 10129 3568 83B78700 		ld	a5,8(a5)
 10130 356c 13850400 		mv	a0,s1
 10131 3570 E7800700 		jalr	a5
 10132              	.LVL1245:
 10133              	.L624:
1019:test/Test8.cpp **** 
GAS LISTING /tmp/ccCnP6rB.s 			page 247


 10134              		.loc 1 1019 1
 10135 3574 83308101 		ld	ra,24(sp)
 10136              		.cfi_remember_state
 10137              		.cfi_restore 1
 10138 3578 03340101 		ld	s0,16(sp)
 10139              		.cfi_restore 8
 10140              		.cfi_def_cfa 2, 32
 10141 357c 83348100 		ld	s1,8(sp)
 10142              		.cfi_restore 9
 10143              	.LVL1246:
 10144 3580 03390100 		ld	s2,0(sp)
 10145              		.cfi_restore 18
 10146              	.LVL1247:
 10147 3584 13010102 		addi	sp,sp,32
 10148              		.cfi_def_cfa_offset 0
 10149 3588 67800000 		jr	ra
 10150              	.L631:
 10151              		.cfi_restore_state
 10152 358c 13090500 		mv	s2,a0
1002:test/Test8.cpp ****     sem3 = new Semaphore(5);
 10153              		.loc 1 1002 27
 10154 3590 13850400 		mv	a0,s1
 10155 3594 97000000 		call	_ZdlPv@plt
 10155      E7800000 
 10156              	.LVL1248:
 10157 359c 13050900 		mv	a0,s2
 10158 35a0 97000000 		call	_Unwind_Resume@plt
 10158      E7800000 
 10159              	.LVL1249:
 10160              	.L632:
 10161 35a8 13090500 		mv	s2,a0
1003:test/Test8.cpp ****     A12* a = new A12();
 10162              		.loc 1 1003 27
 10163 35ac 13850400 		mv	a0,s1
 10164 35b0 97000000 		call	_ZdlPv@plt
 10164      E7800000 
 10165              	.LVL1250:
 10166 35b8 13050900 		mv	a0,s2
 10167 35bc 97000000 		call	_Unwind_Resume@plt
 10167      E7800000 
 10168              	.LVL1251:
 10169              	.L633:
 10170 35c4 93040500 		mv	s1,a0
1004:test/Test8.cpp ****     B12* b = new B12();
 10171              		.loc 1 1004 22
 10172 35c8 13050900 		mv	a0,s2
 10173 35cc 97000000 		call	_ZdlPv@plt
 10173      E7800000 
 10174              	.LVL1252:
 10175 35d4 13850400 		mv	a0,s1
 10176 35d8 97000000 		call	_Unwind_Resume@plt
 10176      E7800000 
 10177              	.LVL1253:
 10178              	.L634:
 10179 35e0 13090500 		mv	s2,a0
 10180              	.LVL1254:
1005:test/Test8.cpp **** 
GAS LISTING /tmp/ccCnP6rB.s 			page 248


 10181              		.loc 1 1005 22
 10182 35e4 13850400 		mv	a0,s1
 10183 35e8 97000000 		call	_ZdlPv@plt
 10183      E7800000 
 10184              	.LVL1255:
 10185 35f0 13050900 		mv	a0,s2
 10186 35f4 97000000 		call	_Unwind_Resume@plt
 10186      E7800000 
 10187              	.LVL1256:
 10188              	.LEHE113:
 10189              		.cfi_endproc
 10190              	.LFE91:
 10191              		.section	.gcc_except_table
 10192              	.LLSDA91:
 10193 058e FF       		.byte	0xff
 10194 058f FF       		.byte	0xff
 10195 0590 03       		.byte	0x3
 10196 0591 75       		.byte	0x75
 10197 0592 00000000 		.4byte	.LEHB105-.LFB91
 10198 0596 00000000 		.4byte	.LEHE105-.LEHB105
 10199 059a 00000000 		.4byte	0
 10200 059e 00       		.byte	0
 10201 059f 00000000 		.4byte	.LEHB106-.LFB91
 10202 05a3 00000000 		.4byte	.LEHE106-.LEHB106
 10203 05a7 00000000 		.4byte	.L631-.LFB91
 10204 05ab 00       		.byte	0
 10205 05ac 00000000 		.4byte	.LEHB107-.LFB91
 10206 05b0 00000000 		.4byte	.LEHE107-.LEHB107
 10207 05b4 00000000 		.4byte	0
 10208 05b8 00       		.byte	0
 10209 05b9 00000000 		.4byte	.LEHB108-.LFB91
 10210 05bd 00000000 		.4byte	.LEHE108-.LEHB108
 10211 05c1 00000000 		.4byte	.L632-.LFB91
 10212 05c5 00       		.byte	0
 10213 05c6 00000000 		.4byte	.LEHB109-.LFB91
 10214 05ca 00000000 		.4byte	.LEHE109-.LEHB109
 10215 05ce 00000000 		.4byte	0
 10216 05d2 00       		.byte	0
 10217 05d3 00000000 		.4byte	.LEHB110-.LFB91
 10218 05d7 00000000 		.4byte	.LEHE110-.LEHB110
 10219 05db 00000000 		.4byte	.L633-.LFB91
 10220 05df 00       		.byte	0
 10221 05e0 00000000 		.4byte	.LEHB111-.LFB91
 10222 05e4 00000000 		.4byte	.LEHE111-.LEHB111
 10223 05e8 00000000 		.4byte	0
 10224 05ec 00       		.byte	0
 10225 05ed 00000000 		.4byte	.LEHB112-.LFB91
 10226 05f1 00000000 		.4byte	.LEHE112-.LEHB112
 10227 05f5 00000000 		.4byte	.L634-.LFB91
 10228 05f9 00       		.byte	0
 10229 05fa 00000000 		.4byte	.LEHB113-.LFB91
 10230 05fe 00000000 		.4byte	.LEHE113-.LEHB113
 10231 0602 00000000 		.4byte	0
 10232 0606 00       		.byte	0
 10233              		.text
 10235              		.section	.rodata.str1.8
 10236 06ff 00       		.align	3
GAS LISTING /tmp/ccCnP6rB.s 			page 249


 10237              	.LC85:
 10238 0700 41206B72 		.string	"A kreiran\n"
 10238      65697261 
 10238      6E0A00
 10239 070b 00000000 		.align	3
 10239      00
 10240              	.LC86:
 10241 0710 42206B72 		.string	"B kreiran\n"
 10241      65697261 
 10241      6E0A00
 10242 071b 00000000 		.align	3
 10242      00
 10243              	.LC87:
 10244 0720 43206B72 		.string	"C krieran\n"
 10244      69657261 
 10244      6E0A00
 10245 072b 00000000 		.align	3
 10245      00
 10246              	.LC88:
 10247 0730 54455354 		.string	"TEST 8 - PING thread uspesno gotov\n"
 10247      2038202D 
 10247      2050494E 
 10247      47207468 
 10247      72656164 
 10248              		.text
 10249              		.align	2
 10250              		.globl	_Z8testPingv
 10252              	_Z8testPingv:
 10253              	.LFB105:
1109:test/Test8.cpp ****     //Thread *threads[3];
 10254              		.loc 1 1109 16 is_stmt 1
 10255              		.cfi_startproc
 10256              		.cfi_personality 0x9b,DW.ref.__gxx_personality_v0
 10257              		.cfi_lsda 0x1b,.LLSDA105
 10258 35fc 130101FD 		addi	sp,sp,-48
 10259              		.cfi_def_cfa_offset 48
 10260 3600 23341102 		sd	ra,40(sp)
 10261 3604 23308102 		sd	s0,32(sp)
 10262 3608 233C9100 		sd	s1,24(sp)
 10263 360c 23382101 		sd	s2,16(sp)
 10264 3610 23343101 		sd	s3,8(sp)
 10265              		.cfi_offset 1, -8
 10266              		.cfi_offset 8, -16
 10267              		.cfi_offset 9, -24
 10268              		.cfi_offset 18, -32
 10269              		.cfi_offset 19, -40
 10270 3614 13040103 		addi	s0,sp,48
 10271              		.cfi_def_cfa 8, 0
1113:test/Test8.cpp ****     printString("A kreiran\n");
 10272              		.loc 1 1113 5
1113:test/Test8.cpp ****     printString("A kreiran\n");
 10273              		.loc 1 1113 21 is_stmt 0
 10274 3618 13058002 		li	a0,40
 10275              	.LEHB114:
 10276 361c 97000000 		call	_Znwm@plt
 10276      E7800000 
 10277              	.LVL1257:
GAS LISTING /tmp/ccCnP6rB.s 			page 250


 10278              	.LEHE114:
 10279 3624 13090500 		mv	s2,a0
 10280              	.LVL1258:
 10281              	.LEHB115:
 10282              	.LBB586:
 10283              	.LBB587:
1029:test/Test8.cpp **** protected:
 10284              		.loc 1 1029 20
 10285 3628 97000000 		call	_ZN6ThreadC2Ev@plt
 10285      E7800000 
 10286              	.LVL1259:
 10287              	.LEHE115:
 10288 3630 97070000 		lla	a5,_ZTV3A13+16
 10288      93870700 
 10289 3638 2330F900 		sd	a5,0(s2)
 10290              	.LVL1260:
 10291              	.LBE587:
 10292              	.LBE586:
1114:test/Test8.cpp ****     B13* b1=new B13();
 10293              		.loc 1 1114 5 is_stmt 1
1114:test/Test8.cpp ****     B13* b1=new B13();
 10294              		.loc 1 1114 16 is_stmt 0
 10295 363c 17050000 		lla	a0,.LC85
 10295      13050500 
 10296              	.LEHB116:
 10297 3644 97000000 		call	_Z11printStringPKc@plt
 10297      E7800000 
 10298              	.LVL1261:
1115:test/Test8.cpp ****     printString("B kreiran\n");
 10299              		.loc 1 1115 5 is_stmt 1
1115:test/Test8.cpp ****     printString("B kreiran\n");
 10300              		.loc 1 1115 21 is_stmt 0
 10301 364c 13050002 		li	a0,32
 10302 3650 97000000 		call	_Znwm@plt
 10302      E7800000 
 10303              	.LVL1262:
 10304              	.LEHE116:
 10305 3658 93090500 		mv	s3,a0
 10306              	.LVL1263:
 10307              	.LEHB117:
 10308              	.LBB588:
 10309              	.LBB589:
1059:test/Test8.cpp **** protected:
 10310              		.loc 1 1059 20
 10311 365c 97000000 		call	_ZN6ThreadC2Ev@plt
 10311      E7800000 
 10312              	.LVL1264:
 10313              	.LEHE117:
 10314 3664 97070000 		lla	a5,_ZTV3B13+16
 10314      93870700 
 10315 366c 23B0F900 		sd	a5,0(s3)
 10316              	.LVL1265:
 10317              	.LBE589:
 10318              	.LBE588:
1116:test/Test8.cpp ****     C13* c1 =new C13(a1);
 10319              		.loc 1 1116 5 is_stmt 1
1116:test/Test8.cpp ****     C13* c1 =new C13(a1);
GAS LISTING /tmp/ccCnP6rB.s 			page 251


 10320              		.loc 1 1116 16 is_stmt 0
 10321 3670 17050000 		lla	a0,.LC86
 10321      13050500 
 10322              	.LEHB118:
 10323 3678 97000000 		call	_Z11printStringPKc@plt
 10323      E7800000 
 10324              	.LVL1266:
1117:test/Test8.cpp **** 
 10325              		.loc 1 1117 5 is_stmt 1
1117:test/Test8.cpp **** 
 10326              		.loc 1 1117 24 is_stmt 0
 10327 3680 13058002 		li	a0,40
 10328 3684 97000000 		call	_Znwm@plt
 10328      E7800000 
 10329              	.LVL1267:
 10330              	.LEHE118:
 10331 368c 93040500 		mv	s1,a0
 10332              	.LVL1268:
 10333              	.LEHB119:
 10334              	.LBB590:
 10335              	.LBB591:
1083:test/Test8.cpp **** 
 10336              		.loc 1 1083 27
 10337 3690 97000000 		call	_ZN6ThreadC2Ev@plt
 10337      E7800000 
 10338              	.LVL1269:
 10339              	.LEHE119:
 10340 3698 97070000 		lla	a5,_ZTV3C13+16
 10340      93870700 
 10341 36a0 23B0F400 		sd	a5,0(s1)
1083:test/Test8.cpp **** 
 10342              		.loc 1 1083 30 is_stmt 1
1083:test/Test8.cpp **** 
 10343              		.loc 1 1083 37 is_stmt 0
 10344 36a4 23B02403 		sd	s2,32(s1)
 10345              	.LVL1270:
 10346              	.LBE591:
 10347              	.LBE590:
1119:test/Test8.cpp **** 
 10348              		.loc 1 1119 5 is_stmt 1
 10349              	.LBB592:
 10350              	.LBB593:
1027:test/Test8.cpp ****     }
 10351              		.loc 1 1027 9
1027:test/Test8.cpp ****     }
 10352              		.loc 1 1027 15 is_stmt 0
 10353 36a8 23309902 		sd	s1,32(s2)
 10354              	.LVL1271:
 10355              	.LBE593:
 10356              	.LBE592:
1121:test/Test8.cpp **** 
 10357              		.loc 1 1121 5 is_stmt 1
1121:test/Test8.cpp **** 
 10358              		.loc 1 1121 16 is_stmt 0
 10359 36ac 17050000 		lla	a0,.LC87
 10359      13050500 
 10360              	.LEHB120:
GAS LISTING /tmp/ccCnP6rB.s 			page 252


 10361 36b4 97000000 		call	_Z11printStringPKc@plt
 10361      E7800000 
 10362              	.LVL1272:
1123:test/Test8.cpp ****     b1->start();
 10363              		.loc 1 1123 5 is_stmt 1
1123:test/Test8.cpp ****     b1->start();
 10364              		.loc 1 1123 14 is_stmt 0
 10365 36bc 13050900 		mv	a0,s2
 10366 36c0 97000000 		call	_ZN6Thread5startEv@plt
 10366      E7800000 
 10367              	.LVL1273:
1124:test/Test8.cpp ****     c1->start();
 10368              		.loc 1 1124 5 is_stmt 1
1124:test/Test8.cpp ****     c1->start();
 10369              		.loc 1 1124 14 is_stmt 0
 10370 36c8 13850900 		mv	a0,s3
 10371 36cc 97000000 		call	_ZN6Thread5startEv@plt
 10371      E7800000 
 10372              	.LVL1274:
1125:test/Test8.cpp **** 
 10373              		.loc 1 1125 5 is_stmt 1
1125:test/Test8.cpp **** 
 10374              		.loc 1 1125 14 is_stmt 0
 10375 36d4 13850400 		mv	a0,s1
 10376 36d8 97000000 		call	_ZN6Thread5startEv@plt
 10376      E7800000 
 10377              	.LVL1275:
1128:test/Test8.cpp ****     c1->join();
 10378              		.loc 1 1128 5 is_stmt 1
1128:test/Test8.cpp ****     c1->join();
 10379              		.loc 1 1128 13 is_stmt 0
 10380 36e0 13850900 		mv	a0,s3
 10381 36e4 97000000 		call	_ZN6Thread4joinEv@plt
 10381      E7800000 
 10382              	.LVL1276:
1129:test/Test8.cpp **** 
 10383              		.loc 1 1129 5 is_stmt 1
1129:test/Test8.cpp **** 
 10384              		.loc 1 1129 13 is_stmt 0
 10385 36ec 13850400 		mv	a0,s1
 10386 36f0 97000000 		call	_ZN6Thread4joinEv@plt
 10386      E7800000 
 10387              	.LVL1277:
1131:test/Test8.cpp ****     delete c1;
 10388              		.loc 1 1131 5 is_stmt 1
1131:test/Test8.cpp ****     delete c1;
 10389              		.loc 1 1131 14 is_stmt 0
 10390 36f8 630A0900 		beqz	s2,.L637
1131:test/Test8.cpp ****     delete c1;
 10391              		.loc 1 1131 12 discriminator 1
 10392 36fc 83370900 		ld	a5,0(s2)
 10393 3700 83B78700 		ld	a5,8(a5)
 10394 3704 13050900 		mv	a0,s2
 10395 3708 E7800700 		jalr	a5
 10396              	.LVL1278:
 10397              	.L637:
1132:test/Test8.cpp ****     delete b1;
GAS LISTING /tmp/ccCnP6rB.s 			page 253


 10398              		.loc 1 1132 5 is_stmt 1
1132:test/Test8.cpp ****     delete b1;
 10399              		.loc 1 1132 14 is_stmt 0
 10400 370c 638A0400 		beqz	s1,.L638
1132:test/Test8.cpp ****     delete b1;
 10401              		.loc 1 1132 12 discriminator 1
 10402 3710 83B70400 		ld	a5,0(s1)
 10403 3714 83B78700 		ld	a5,8(a5)
 10404 3718 13850400 		mv	a0,s1
 10405 371c E7800700 		jalr	a5
 10406              	.LVL1279:
 10407              	.L638:
1133:test/Test8.cpp **** 
 10408              		.loc 1 1133 5 is_stmt 1
1133:test/Test8.cpp **** 
 10409              		.loc 1 1133 14 is_stmt 0
 10410 3720 638A0900 		beqz	s3,.L639
1133:test/Test8.cpp **** 
 10411              		.loc 1 1133 12 discriminator 1
 10412 3724 83B70900 		ld	a5,0(s3)
 10413 3728 83B78700 		ld	a5,8(a5)
 10414 372c 13850900 		mv	a0,s3
 10415 3730 E7800700 		jalr	a5
 10416              	.LVL1280:
 10417              	.L639:
1135:test/Test8.cpp **** 
 10418              		.loc 1 1135 5 is_stmt 1
1135:test/Test8.cpp **** 
 10419              		.loc 1 1135 16 is_stmt 0
 10420 3734 17050000 		lla	a0,.LC88
 10420      13050500 
 10421 373c 97000000 		call	_Z11printStringPKc@plt
 10421      E7800000 
 10422              	.LVL1281:
1137:test/Test8.cpp **** 
 10423              		.loc 1 1137 1
 10424 3744 83308102 		ld	ra,40(sp)
 10425              		.cfi_remember_state
 10426              		.cfi_restore 1
 10427 3748 03340102 		ld	s0,32(sp)
 10428              		.cfi_restore 8
 10429              		.cfi_def_cfa 2, 48
 10430 374c 83348101 		ld	s1,24(sp)
 10431              		.cfi_restore 9
 10432              	.LVL1282:
 10433 3750 03390101 		ld	s2,16(sp)
 10434              		.cfi_restore 18
 10435              	.LVL1283:
 10436 3754 83398100 		ld	s3,8(sp)
 10437              		.cfi_restore 19
 10438              	.LVL1284:
 10439 3758 13010103 		addi	sp,sp,48
 10440              		.cfi_def_cfa_offset 0
 10441 375c 67800000 		jr	ra
 10442              	.LVL1285:
 10443              	.L643:
 10444              		.cfi_restore_state
GAS LISTING /tmp/ccCnP6rB.s 			page 254


 10445 3760 93040500 		mv	s1,a0
1113:test/Test8.cpp ****     printString("A kreiran\n");
 10446              		.loc 1 1113 21
 10447 3764 13050900 		mv	a0,s2
 10448 3768 97000000 		call	_ZdlPv@plt
 10448      E7800000 
 10449              	.LVL1286:
 10450 3770 13850400 		mv	a0,s1
 10451 3774 97000000 		call	_Unwind_Resume@plt
 10451      E7800000 
 10452              	.LVL1287:
 10453              	.L644:
 10454 377c 93040500 		mv	s1,a0
1115:test/Test8.cpp ****     printString("B kreiran\n");
 10455              		.loc 1 1115 21
 10456 3780 13850900 		mv	a0,s3
 10457 3784 97000000 		call	_ZdlPv@plt
 10457      E7800000 
 10458              	.LVL1288:
 10459 378c 13850400 		mv	a0,s1
 10460 3790 97000000 		call	_Unwind_Resume@plt
 10460      E7800000 
 10461              	.LVL1289:
 10462              	.L645:
 10463 3798 13090500 		mv	s2,a0
 10464              	.LVL1290:
1117:test/Test8.cpp **** 
 10465              		.loc 1 1117 24
 10466 379c 13850400 		mv	a0,s1
 10467 37a0 97000000 		call	_ZdlPv@plt
 10467      E7800000 
 10468              	.LVL1291:
 10469 37a8 13050900 		mv	a0,s2
 10470 37ac 97000000 		call	_Unwind_Resume@plt
 10470      E7800000 
 10471              	.LVL1292:
 10472              	.LEHE120:
 10473              		.cfi_endproc
 10474              	.LFE105:
 10475              		.section	.gcc_except_table
 10476              	.LLSDA105:
 10477 0607 FF       		.byte	0xff
 10478 0608 FF       		.byte	0xff
 10479 0609 03       		.byte	0x3
 10480 060a 5B       		.byte	0x5b
 10481 060b 00000000 		.4byte	.LEHB114-.LFB105
 10482 060f 00000000 		.4byte	.LEHE114-.LEHB114
 10483 0613 00000000 		.4byte	0
 10484 0617 00       		.byte	0
 10485 0618 00000000 		.4byte	.LEHB115-.LFB105
 10486 061c 00000000 		.4byte	.LEHE115-.LEHB115
 10487 0620 00000000 		.4byte	.L643-.LFB105
 10488 0624 00       		.byte	0
 10489 0625 00000000 		.4byte	.LEHB116-.LFB105
 10490 0629 00000000 		.4byte	.LEHE116-.LEHB116
 10491 062d 00000000 		.4byte	0
 10492 0631 00       		.byte	0
GAS LISTING /tmp/ccCnP6rB.s 			page 255


 10493 0632 00000000 		.4byte	.LEHB117-.LFB105
 10494 0636 00000000 		.4byte	.LEHE117-.LEHB117
 10495 063a 00000000 		.4byte	.L644-.LFB105
 10496 063e 00       		.byte	0
 10497 063f 00000000 		.4byte	.LEHB118-.LFB105
 10498 0643 00000000 		.4byte	.LEHE118-.LEHB118
 10499 0647 00000000 		.4byte	0
 10500 064b 00       		.byte	0
 10501 064c 00000000 		.4byte	.LEHB119-.LFB105
 10502 0650 00000000 		.4byte	.LEHE119-.LEHB119
 10503 0654 00000000 		.4byte	.L645-.LFB105
 10504 0658 00       		.byte	0
 10505 0659 00000000 		.4byte	.LEHB120-.LFB105
 10506 065d 00000000 		.4byte	.LEHE120-.LEHB120
 10507 0661 00000000 		.4byte	0
 10508 0665 00       		.byte	0
 10509              		.text
 10511              		.section	.rodata.str1.8
 10512 0754 00000000 		.align	3
 10513              	.LC89:
 10514 0758 4D6F6469 		.string	"Modifikacija TRY-wait, TEST 8, uspesno zavrsena\n"
 10514      66696B61 
 10514      63696A61 
 10514      20545259 
 10514      2D776169 
 10515              		.text
 10516              		.align	2
 10517              		.globl	_Z11testTryWaitv
 10519              	_Z11testTryWaitv:
 10520              	.LFB110:
1191:test/Test8.cpp **** 
1192:test/Test8.cpp **** };
1193:test/Test8.cpp **** 
1194:test/Test8.cpp **** 
1195:test/Test8.cpp **** void testTryWait(){
 10521              		.loc 1 1195 19 is_stmt 1
 10522              		.cfi_startproc
 10523              		.cfi_personality 0x9b,DW.ref.__gxx_personality_v0
 10524              		.cfi_lsda 0x1b,.LLSDA110
 10525 37b4 130101F8 		addi	sp,sp,-128
 10526              		.cfi_def_cfa_offset 128
 10527 37b8 233C1106 		sd	ra,120(sp)
 10528 37bc 23388106 		sd	s0,112(sp)
 10529 37c0 23349106 		sd	s1,104(sp)
 10530 37c4 23302107 		sd	s2,96(sp)
 10531 37c8 233C3105 		sd	s3,88(sp)
 10532              		.cfi_offset 1, -8
 10533              		.cfi_offset 8, -16
 10534              		.cfi_offset 9, -24
 10535              		.cfi_offset 18, -32
 10536              		.cfi_offset 19, -40
 10537 37cc 13040108 		addi	s0,sp,128
 10538              		.cfi_def_cfa 8, 0
1196:test/Test8.cpp ****     Thread* th[10];
 10539              		.loc 1 1196 5
1197:test/Test8.cpp ****     s=new Semaphore(4);
 10540              		.loc 1 1197 5
GAS LISTING /tmp/ccCnP6rB.s 			page 256


 10541              		.loc 1 1197 22 is_stmt 0
 10542 37d0 13050001 		li	a0,16
 10543              	.LEHB121:
 10544 37d4 97000000 		call	_Znwm@plt
 10544      E7800000 
 10545              	.LVL1293:
 10546              	.LEHE121:
 10547 37dc 93040500 		mv	s1,a0
 10548 37e0 93054000 		li	a1,4
 10549              	.LEHB122:
 10550 37e4 97000000 		call	_ZN9SemaphoreC1Ej@plt
 10550      E7800000 
 10551              	.LVL1294:
 10552              	.LEHE122:
 10553              		.loc 1 1197 6 discriminator 3
 10554 37ec 97070000 		sd	s1,.LANCHOR0+32,a5
 10554      23B09700 
1198:test/Test8.cpp ****     waitNiti=new Semaphore(0);
 10555              		.loc 1 1198 5 is_stmt 1 discriminator 3
 10556              		.loc 1 1198 29 is_stmt 0 discriminator 3
 10557 37f4 13050001 		li	a0,16
 10558              	.LEHB123:
 10559 37f8 97000000 		call	_Znwm@plt
 10559      E7800000 
 10560              	.LVL1295:
 10561              	.LEHE123:
 10562 3800 93040500 		mv	s1,a0
 10563 3804 93050000 		li	a1,0
 10564              	.LEHB124:
 10565 3808 97000000 		call	_ZN9SemaphoreC1Ej@plt
 10565      E7800000 
 10566              	.LVL1296:
 10567              	.LEHE124:
 10568              		.loc 1 1198 13 discriminator 3
 10569 3810 97070000 		sd	s1,.LANCHOR0+16,a5
 10569      23B09700 
1199:test/Test8.cpp ****     for(int i=0;i<10;i++){
 10570              		.loc 1 1199 5 is_stmt 1 discriminator 3
 10571              	.LVL1297:
 10572              	.LBB594:
 10573              		.loc 1 1199 13 is_stmt 0 discriminator 3
 10574 3818 13090000 		li	s2,0
 10575 381c 6F008002 		j	.L650
 10576              	.LVL1298:
 10577              	.L668:
 10578              	.LBB595:
 10579              	.LBB596:
1145:test/Test8.cpp **** 
 10580              		.loc 1 1145 47
 10581 3820 97070000 		lla	a5,_ZTV11testTRYWait+16
 10581      93870700 
 10582 3828 23B0F400 		sd	a5,0(s1)
 10583 382c 23B03403 		sd	s3,32(s1)
 10584              	.LVL1299:
 10585              	.LBE596:
 10586              	.LBE595:
1200:test/Test8.cpp ****         th[i] = new testTRYWait(s);
GAS LISTING /tmp/ccCnP6rB.s 			page 257


 10587              		.loc 1 1200 15
 10588 3830 93173900 		slli	a5,s2,3
 10589 3834 130704FD 		addi	a4,s0,-48
 10590 3838 B307F700 		add	a5,a4,a5
 10591 383c 23B897FA 		sd	s1,-80(a5)
1199:test/Test8.cpp ****     for(int i=0;i<10;i++){
 10592              		.loc 1 1199 5 is_stmt 1
 10593 3840 1B091900 		addiw	s2,s2,1
 10594              	.LVL1300:
 10595              	.L650:
1199:test/Test8.cpp ****     for(int i=0;i<10;i++){
 10596              		.loc 1 1199 18 discriminator 2
 10597 3844 93079000 		li	a5,9
 10598 3848 63C42703 		bgt	s2,a5,.L660
 10599              		.loc 1 1200 9
 10600              		.loc 1 1200 34 is_stmt 0
 10601 384c 13058002 		li	a0,40
 10602              	.LEHB125:
 10603 3850 97000000 		call	_Znwm@plt
 10603      E7800000 
 10604              	.LVL1301:
 10605              	.LEHE125:
 10606 3858 93040500 		mv	s1,a0
 10607 385c 97090000 		ld	s3,.LANCHOR0+32
 10607      83B90900 
 10608              	.LVL1302:
 10609              	.LEHB126:
 10610              	.LBB598:
 10611              	.LBB597:
1145:test/Test8.cpp **** 
 10612              		.loc 1 1145 47
 10613 3864 97000000 		call	_ZN6ThreadC2Ev@plt
 10613      E7800000 
 10614              	.LVL1303:
 10615              	.LEHE126:
 10616 386c 6FF05FFB 		j	.L668
 10617              	.LVL1304:
 10618              	.L660:
 10619              	.LBE597:
 10620              	.LBE598:
 10621              	.LBE594:
 10622              	.LBB599:
1201:test/Test8.cpp ****     }
1202:test/Test8.cpp **** 
1203:test/Test8.cpp ****     for(int i=0;i<10;i++){
 10623              		.loc 1 1203 13
 10624 3870 93040000 		li	s1,0
 10625              	.L649:
 10626              	.LVL1305:
 10627              		.loc 1 1203 18 is_stmt 1 discriminator 1
 10628 3874 93079000 		li	a5,9
 10629 3878 63C29702 		bgt	s1,a5,.L661
1204:test/Test8.cpp ****         th[i]->start();
 10630              		.loc 1 1204 9
 10631              		.loc 1 1204 13 is_stmt 0
 10632 387c 93973400 		slli	a5,s1,3
 10633 3880 130704FD 		addi	a4,s0,-48
GAS LISTING /tmp/ccCnP6rB.s 			page 258


 10634 3884 B307F700 		add	a5,a4,a5
 10635              		.loc 1 1204 21
 10636 3888 03B507FB 		ld	a0,-80(a5)
 10637              	.LEHB127:
 10638 388c 97000000 		call	_ZN6Thread5startEv@plt
 10638      E7800000 
 10639              	.LVL1306:
1203:test/Test8.cpp ****         th[i]->start();
 10640              		.loc 1 1203 5 is_stmt 1
 10641 3894 9B841400 		addiw	s1,s1,1
 10642              	.LVL1307:
 10643 3898 6FF0DFFD 		j	.L649
 10644              	.LVL1308:
 10645              	.L661:
 10646              	.LBE599:
 10647              	.LBB600:
1205:test/Test8.cpp ****     }
1206:test/Test8.cpp **** 
1207:test/Test8.cpp ****     for(int i=0;i<10;i++){
 10648              		.loc 1 1207 13 is_stmt 0
 10649 389c 93040000 		li	s1,0
 10650              	.LVL1309:
 10651              	.L651:
 10652              		.loc 1 1207 18 is_stmt 1 discriminator 1
 10653 38a0 93079000 		li	a5,9
 10654 38a4 63CE9700 		bgt	s1,a5,.L662
1208:test/Test8.cpp ****         waitNiti->wait();
 10655              		.loc 1 1208 9
 10656              		.loc 1 1208 23 is_stmt 0
 10657 38a8 17050000 		ld	a0,.LANCHOR0+16
 10657      03350500 
 10658 38b0 97000000 		call	_ZN9Semaphore4waitEv@plt
 10658      E7800000 
 10659              	.LVL1310:
1207:test/Test8.cpp ****         waitNiti->wait();
 10660              		.loc 1 1207 5 is_stmt 1
 10661 38b8 9B841400 		addiw	s1,s1,1
 10662              	.LVL1311:
 10663 38bc 6FF05FFE 		j	.L651
 10664              	.LVL1312:
 10665              	.L662:
 10666              	.LBE600:
 10667              	.LBB601:
1209:test/Test8.cpp ****     }
1210:test/Test8.cpp **** 
1211:test/Test8.cpp ****     for(int i=0;i<10;i++){
 10668              		.loc 1 1211 13 is_stmt 0
 10669 38c0 93040000 		li	s1,0
 10670              	.LVL1313:
 10671 38c4 6F008000 		j	.L652
 10672              	.LVL1314:
 10673              	.L654:
 10674              		.loc 1 1211 5 is_stmt 1 discriminator 2
 10675 38c8 9B841400 		addiw	s1,s1,1
 10676              	.LVL1315:
 10677              	.L652:
 10678              		.loc 1 1211 18 discriminator 1
GAS LISTING /tmp/ccCnP6rB.s 			page 259


 10679 38cc 93079000 		li	a5,9
 10680 38d0 63C49702 		bgt	s1,a5,.L653
1212:test/Test8.cpp ****         delete th[i];
 10681              		.loc 1 1212 9
 10682              		.loc 1 1212 20 is_stmt 0
 10683 38d4 93973400 		slli	a5,s1,3
 10684 38d8 130704FD 		addi	a4,s0,-48
 10685 38dc B307F700 		add	a5,a4,a5
 10686 38e0 03B507FB 		ld	a0,-80(a5)
 10687              		.loc 1 1212 21
 10688 38e4 E30205FE 		beqz	a0,.L654
 10689              		.loc 1 1212 20 discriminator 1
 10690 38e8 83370500 		ld	a5,0(a0)
 10691 38ec 83B78700 		ld	a5,8(a5)
 10692 38f0 E7800700 		jalr	a5
 10693              	.LVL1316:
 10694 38f4 6FF05FFD 		j	.L654
 10695              	.L653:
 10696              	.LBE601:
1213:test/Test8.cpp ****     }
1214:test/Test8.cpp ****     delete s;
 10697              		.loc 1 1214 5 is_stmt 1
 10698              		.loc 1 1214 12 is_stmt 0
 10699 38f8 17050000 		ld	a0,.LANCHOR0+32
 10699      03350500 
 10700              		.loc 1 1214 13
 10701 3900 63080500 		beqz	a0,.L655
 10702              		.loc 1 1214 12 discriminator 1
 10703 3904 83370500 		ld	a5,0(a0)
 10704 3908 83B78700 		ld	a5,8(a5)
 10705 390c E7800700 		jalr	a5
 10706              	.LVL1317:
 10707              	.L655:
1215:test/Test8.cpp ****     delete waitNiti;
 10708              		.loc 1 1215 5 is_stmt 1
 10709              		.loc 1 1215 12 is_stmt 0
 10710 3910 17050000 		ld	a0,.LANCHOR0+16
 10710      03350500 
 10711              		.loc 1 1215 20
 10712 3918 63080500 		beqz	a0,.L656
 10713              		.loc 1 1215 12 discriminator 1
 10714 391c 83370500 		ld	a5,0(a0)
 10715 3920 83B78700 		ld	a5,8(a5)
 10716 3924 E7800700 		jalr	a5
 10717              	.LVL1318:
 10718              	.L656:
1216:test/Test8.cpp **** 
1217:test/Test8.cpp **** 
1218:test/Test8.cpp ****     printString("Modifikacija TRY-wait, TEST 8, uspesno zavrsena\n");
 10719              		.loc 1 1218 5 is_stmt 1
 10720              		.loc 1 1218 16 is_stmt 0
 10721 3928 17050000 		lla	a0,.LC89
 10721      13050500 
 10722 3930 97000000 		call	_Z11printStringPKc@plt
 10722      E7800000 
 10723              	.LVL1319:
1219:test/Test8.cpp **** 
GAS LISTING /tmp/ccCnP6rB.s 			page 260


1220:test/Test8.cpp **** }...
 10724              		.loc 1 1220 1
 10725 3938 83308107 		ld	ra,120(sp)
 10726              		.cfi_remember_state
 10727              		.cfi_restore 1
 10728 393c 03340107 		ld	s0,112(sp)
 10729              		.cfi_restore 8
 10730              		.cfi_def_cfa 2, 128
 10731 3940 83348106 		ld	s1,104(sp)
 10732              		.cfi_restore 9
 10733              	.LVL1320:
 10734 3944 03390106 		ld	s2,96(sp)
 10735              		.cfi_restore 18
 10736              	.LVL1321:
 10737 3948 83398105 		ld	s3,88(sp)
 10738              		.cfi_restore 19
 10739 394c 13010108 		addi	sp,sp,128
 10740              		.cfi_def_cfa_offset 0
 10741 3950 67800000 		jr	ra
 10742              	.L663:
 10743              		.cfi_restore_state
 10744 3954 13090500 		mv	s2,a0
1197:test/Test8.cpp ****     s=new Semaphore(4);
 10745              		.loc 1 1197 22
 10746 3958 13850400 		mv	a0,s1
 10747 395c 97000000 		call	_ZdlPv@plt
 10747      E7800000 
 10748              	.LVL1322:
 10749 3964 13050900 		mv	a0,s2
 10750 3968 97000000 		call	_Unwind_Resume@plt
 10750      E7800000 
 10751              	.LVL1323:
 10752              	.L664:
 10753 3970 13090500 		mv	s2,a0
1198:test/Test8.cpp ****     waitNiti=new Semaphore(0);
 10754              		.loc 1 1198 29
 10755 3974 13850400 		mv	a0,s1
 10756 3978 97000000 		call	_ZdlPv@plt
 10756      E7800000 
 10757              	.LVL1324:
 10758 3980 13050900 		mv	a0,s2
 10759 3984 97000000 		call	_Unwind_Resume@plt
 10759      E7800000 
 10760              	.LVL1325:
 10761              	.L665:
 10762 398c 13090500 		mv	s2,a0
 10763              	.LVL1326:
 10764              	.LBB602:
1200:test/Test8.cpp ****         th[i] = new testTRYWait(s);
 10765              		.loc 1 1200 34
 10766 3990 13850400 		mv	a0,s1
 10767 3994 97000000 		call	_ZdlPv@plt
 10767      E7800000 
 10768              	.LVL1327:
 10769 399c 13050900 		mv	a0,s2
 10770 39a0 97000000 		call	_Unwind_Resume@plt
 10770      E7800000 
GAS LISTING /tmp/ccCnP6rB.s 			page 261


 10771              	.LVL1328:
 10772              	.LEHE127:
 10773              	.LBE602:
 10774              		.cfi_endproc
 10775              	.LFE110:
 10776              		.section	.gcc_except_table
 10777              	.LLSDA110:
 10778 0666 FF       		.byte	0xff
 10779 0667 FF       		.byte	0xff
 10780 0668 03       		.byte	0x3
 10781 0669 5B       		.byte	0x5b
 10782 066a 00000000 		.4byte	.LEHB121-.LFB110
 10783 066e 00000000 		.4byte	.LEHE121-.LEHB121
 10784 0672 00000000 		.4byte	0
 10785 0676 00       		.byte	0
 10786 0677 00000000 		.4byte	.LEHB122-.LFB110
 10787 067b 00000000 		.4byte	.LEHE122-.LEHB122
 10788 067f 00000000 		.4byte	.L663-.LFB110
 10789 0683 00       		.byte	0
 10790 0684 00000000 		.4byte	.LEHB123-.LFB110
 10791 0688 00000000 		.4byte	.LEHE123-.LEHB123
 10792 068c 00000000 		.4byte	0
 10793 0690 00       		.byte	0
 10794 0691 00000000 		.4byte	.LEHB124-.LFB110
 10795 0695 00000000 		.4byte	.LEHE124-.LEHB124
 10796 0699 00000000 		.4byte	.L664-.LFB110
 10797 069d 00       		.byte	0
 10798 069e 00000000 		.4byte	.LEHB125-.LFB110
 10799 06a2 00000000 		.4byte	.LEHE125-.LEHB125
 10800 06a6 00000000 		.4byte	0
 10801 06aa 00       		.byte	0
 10802 06ab 00000000 		.4byte	.LEHB126-.LFB110
 10803 06af 00000000 		.4byte	.LEHE126-.LEHB126
 10804 06b3 00000000 		.4byte	.L665-.LFB110
 10805 06b7 00       		.byte	0
 10806 06b8 00000000 		.4byte	.LEHB127-.LFB110
 10807 06bc 00000000 		.4byte	.LEHE127-.LEHB127
 10808 06c0 00000000 		.4byte	0
 10809 06c4 00       		.byte	0
 10810              		.text
 10812              		.weak	_ZTV2A1
 10813              		.section	.data.rel.ro.local._ZTV2A1,"awG",@progbits,_ZTV2A1,comdat
 10814              		.align	3
 10817              	_ZTV2A1:
 10818 0000 00000000 		.dword	0
 10818      00000000 
 10819 0008 00000000 		.dword	0
 10819      00000000 
 10820 0010 00000000 		.dword	_ZN2A1D1Ev
 10820      00000000 
 10821 0018 00000000 		.dword	_ZN2A1D0Ev
 10821      00000000 
 10822 0020 00000000 		.dword	_ZN2A13runEv
 10822      00000000 
 10823              		.weak	_ZTV2A2
 10824              		.section	.data.rel.ro.local._ZTV2A2,"awG",@progbits,_ZTV2A2,comdat
 10825              		.align	3
GAS LISTING /tmp/ccCnP6rB.s 			page 262


 10828              	_ZTV2A2:
 10829 0000 00000000 		.dword	0
 10829      00000000 
 10830 0008 00000000 		.dword	0
 10830      00000000 
 10831 0010 00000000 		.dword	_ZN2A2D1Ev
 10831      00000000 
 10832 0018 00000000 		.dword	_ZN2A2D0Ev
 10832      00000000 
 10833 0020 00000000 		.dword	_ZN2A23runEv
 10833      00000000 
 10834              		.weak	_ZTV2A6
 10835              		.section	.data.rel.ro.local._ZTV2A6,"awG",@progbits,_ZTV2A6,comdat
 10836              		.align	3
 10839              	_ZTV2A6:
 10840 0000 00000000 		.dword	0
 10840      00000000 
 10841 0008 00000000 		.dword	0
 10841      00000000 
 10842 0010 00000000 		.dword	_ZN2A6D1Ev
 10842      00000000 
 10843 0018 00000000 		.dword	_ZN2A6D0Ev
 10843      00000000 
 10844 0020 00000000 		.dword	_ZN2A63runEv
 10844      00000000 
 10845              		.weak	_ZTV2A3
 10846              		.section	.data.rel.ro.local._ZTV2A3,"awG",@progbits,_ZTV2A3,comdat
 10847              		.align	3
 10850              	_ZTV2A3:
 10851 0000 00000000 		.dword	0
 10851      00000000 
 10852 0008 00000000 		.dword	0
 10852      00000000 
 10853 0010 00000000 		.dword	_ZN2A3D1Ev
 10853      00000000 
 10854 0018 00000000 		.dword	_ZN2A3D0Ev
 10854      00000000 
 10855 0020 00000000 		.dword	_ZN2A33runEv
 10855      00000000 
 10856              		.weak	_ZTV2B3
 10857              		.section	.data.rel.ro.local._ZTV2B3,"awG",@progbits,_ZTV2B3,comdat
 10858              		.align	3
 10861              	_ZTV2B3:
 10862 0000 00000000 		.dword	0
 10862      00000000 
 10863 0008 00000000 		.dword	0
 10863      00000000 
 10864 0010 00000000 		.dword	_ZN2B3D1Ev
 10864      00000000 
 10865 0018 00000000 		.dword	_ZN2B3D0Ev
 10865      00000000 
 10866 0020 00000000 		.dword	_ZN2B33runEv
 10866      00000000 
 10867              		.weak	_ZTV2C3
 10868              		.section	.data.rel.ro.local._ZTV2C3,"awG",@progbits,_ZTV2C3,comdat
 10869              		.align	3
 10872              	_ZTV2C3:
GAS LISTING /tmp/ccCnP6rB.s 			page 263


 10873 0000 00000000 		.dword	0
 10873      00000000 
 10874 0008 00000000 		.dword	0
 10874      00000000 
 10875 0010 00000000 		.dword	_ZN2C3D1Ev
 10875      00000000 
 10876 0018 00000000 		.dword	_ZN2C3D0Ev
 10876      00000000 
 10877 0020 00000000 		.dword	_ZN2C33runEv
 10877      00000000 
 10878              		.weak	_ZTV2A4
 10879              		.section	.data.rel.ro.local._ZTV2A4,"awG",@progbits,_ZTV2A4,comdat
 10880              		.align	3
 10883              	_ZTV2A4:
 10884 0000 00000000 		.dword	0
 10884      00000000 
 10885 0008 00000000 		.dword	0
 10885      00000000 
 10886 0010 00000000 		.dword	_ZN2A4D1Ev
 10886      00000000 
 10887 0018 00000000 		.dword	_ZN2A4D0Ev
 10887      00000000 
 10888 0020 00000000 		.dword	_ZN2A43runEv
 10888      00000000 
 10889              		.weak	_ZTV2B4
 10890              		.section	.data.rel.ro.local._ZTV2B4,"awG",@progbits,_ZTV2B4,comdat
 10891              		.align	3
 10894              	_ZTV2B4:
 10895 0000 00000000 		.dword	0
 10895      00000000 
 10896 0008 00000000 		.dword	0
 10896      00000000 
 10897 0010 00000000 		.dword	_ZN2B4D1Ev
 10897      00000000 
 10898 0018 00000000 		.dword	_ZN2B4D0Ev
 10898      00000000 
 10899 0020 00000000 		.dword	_ZN2B43runEv
 10899      00000000 
 10900              		.weak	_ZTV2C4
 10901              		.section	.data.rel.ro.local._ZTV2C4,"awG",@progbits,_ZTV2C4,comdat
 10902              		.align	3
 10905              	_ZTV2C4:
 10906 0000 00000000 		.dword	0
 10906      00000000 
 10907 0008 00000000 		.dword	0
 10907      00000000 
 10908 0010 00000000 		.dword	_ZN2C4D1Ev
 10908      00000000 
 10909 0018 00000000 		.dword	_ZN2C4D0Ev
 10909      00000000 
 10910 0020 00000000 		.dword	_ZN2C43runEv
 10910      00000000 
 10911              		.weak	_ZTV2A5
 10912              		.section	.data.rel.ro.local._ZTV2A5,"awG",@progbits,_ZTV2A5,comdat
 10913              		.align	3
 10916              	_ZTV2A5:
 10917 0000 00000000 		.dword	0
GAS LISTING /tmp/ccCnP6rB.s 			page 264


 10917      00000000 
 10918 0008 00000000 		.dword	0
 10918      00000000 
 10919 0010 00000000 		.dword	_ZN2A5D1Ev
 10919      00000000 
 10920 0018 00000000 		.dword	_ZN2A5D0Ev
 10920      00000000 
 10921 0020 00000000 		.dword	_ZN2A53runEv
 10921      00000000 
 10922              		.weak	_ZTV2A7
 10923              		.section	.data.rel.ro.local._ZTV2A7,"awG",@progbits,_ZTV2A7,comdat
 10924              		.align	3
 10927              	_ZTV2A7:
 10928 0000 00000000 		.dword	0
 10928      00000000 
 10929 0008 00000000 		.dword	0
 10929      00000000 
 10930 0010 00000000 		.dword	_ZN2A7D1Ev
 10930      00000000 
 10931 0018 00000000 		.dword	_ZN2A7D0Ev
 10931      00000000 
 10932 0020 00000000 		.dword	_ZN2A73runEv
 10932      00000000 
 10933              		.weak	_ZTV2B7
 10934              		.section	.data.rel.ro.local._ZTV2B7,"awG",@progbits,_ZTV2B7,comdat
 10935              		.align	3
 10938              	_ZTV2B7:
 10939 0000 00000000 		.dword	0
 10939      00000000 
 10940 0008 00000000 		.dword	0
 10940      00000000 
 10941 0010 00000000 		.dword	_ZN2B7D1Ev
 10941      00000000 
 10942 0018 00000000 		.dword	_ZN2B7D0Ev
 10942      00000000 
 10943 0020 00000000 		.dword	_ZN2B73runEv
 10943      00000000 
 10944              		.weak	_ZTV2A8
 10945              		.section	.data.rel.ro.local._ZTV2A8,"awG",@progbits,_ZTV2A8,comdat
 10946              		.align	3
 10949              	_ZTV2A8:
 10950 0000 00000000 		.dword	0
 10950      00000000 
 10951 0008 00000000 		.dword	0
 10951      00000000 
 10952 0010 00000000 		.dword	_ZN2A8D1Ev
 10952      00000000 
 10953 0018 00000000 		.dword	_ZN2A8D0Ev
 10953      00000000 
 10954 0020 00000000 		.dword	_ZN2A83runEv
 10954      00000000 
 10955              		.weak	_ZTV2A9
 10956              		.section	.data.rel.ro.local._ZTV2A9,"awG",@progbits,_ZTV2A9,comdat
 10957              		.align	3
 10960              	_ZTV2A9:
 10961 0000 00000000 		.dword	0
 10961      00000000 
GAS LISTING /tmp/ccCnP6rB.s 			page 265


 10962 0008 00000000 		.dword	0
 10962      00000000 
 10963 0010 00000000 		.dword	_ZN2A9D1Ev
 10963      00000000 
 10964 0018 00000000 		.dword	_ZN2A9D0Ev
 10964      00000000 
 10965 0020 00000000 		.dword	_ZN2A93runEv
 10965      00000000 
 10966              		.weak	_ZTV3A10
 10967              		.section	.data.rel.ro.local._ZTV3A10,"awG",@progbits,_ZTV3A10,comdat
 10968              		.align	3
 10971              	_ZTV3A10:
 10972 0000 00000000 		.dword	0
 10972      00000000 
 10973 0008 00000000 		.dword	0
 10973      00000000 
 10974 0010 00000000 		.dword	_ZN3A10D1Ev
 10974      00000000 
 10975 0018 00000000 		.dword	_ZN3A10D0Ev
 10975      00000000 
 10976 0020 00000000 		.dword	_ZN3A103runEv
 10976      00000000 
 10977              		.weak	_ZTV3A11
 10978              		.section	.data.rel.ro.local._ZTV3A11,"awG",@progbits,_ZTV3A11,comdat
 10979              		.align	3
 10982              	_ZTV3A11:
 10983 0000 00000000 		.dword	0
 10983      00000000 
 10984 0008 00000000 		.dword	0
 10984      00000000 
 10985 0010 00000000 		.dword	_ZN3A11D1Ev
 10985      00000000 
 10986 0018 00000000 		.dword	_ZN3A11D0Ev
 10986      00000000 
 10987 0020 00000000 		.dword	_ZN3A113runEv
 10987      00000000 
 10988              		.weak	_ZTV3A12
 10989              		.section	.data.rel.ro.local._ZTV3A12,"awG",@progbits,_ZTV3A12,comdat
 10990              		.align	3
 10993              	_ZTV3A12:
 10994 0000 00000000 		.dword	0
 10994      00000000 
 10995 0008 00000000 		.dword	0
 10995      00000000 
 10996 0010 00000000 		.dword	_ZN3A12D1Ev
 10996      00000000 
 10997 0018 00000000 		.dword	_ZN3A12D0Ev
 10997      00000000 
 10998 0020 00000000 		.dword	_ZN3A123runEv
 10998      00000000 
 10999              		.weak	_ZTV3B12
 11000              		.section	.data.rel.ro.local._ZTV3B12,"awG",@progbits,_ZTV3B12,comdat
 11001              		.align	3
 11004              	_ZTV3B12:
 11005 0000 00000000 		.dword	0
 11005      00000000 
 11006 0008 00000000 		.dword	0
GAS LISTING /tmp/ccCnP6rB.s 			page 266


 11006      00000000 
 11007 0010 00000000 		.dword	_ZN3B12D1Ev
 11007      00000000 
 11008 0018 00000000 		.dword	_ZN3B12D0Ev
 11008      00000000 
 11009 0020 00000000 		.dword	_ZN3B123runEv
 11009      00000000 
 11010              		.weak	_ZTV3A13
 11011              		.section	.data.rel.ro.local._ZTV3A13,"awG",@progbits,_ZTV3A13,comdat
 11012              		.align	3
 11015              	_ZTV3A13:
 11016 0000 00000000 		.dword	0
 11016      00000000 
 11017 0008 00000000 		.dword	0
 11017      00000000 
 11018 0010 00000000 		.dword	_ZN3A13D1Ev
 11018      00000000 
 11019 0018 00000000 		.dword	_ZN3A13D0Ev
 11019      00000000 
 11020 0020 00000000 		.dword	_ZN3A133runEv
 11020      00000000 
 11021              		.weak	_ZTV3B13
 11022              		.section	.data.rel.ro.local._ZTV3B13,"awG",@progbits,_ZTV3B13,comdat
 11023              		.align	3
 11026              	_ZTV3B13:
 11027 0000 00000000 		.dword	0
 11027      00000000 
 11028 0008 00000000 		.dword	0
 11028      00000000 
 11029 0010 00000000 		.dword	_ZN3B13D1Ev
 11029      00000000 
 11030 0018 00000000 		.dword	_ZN3B13D0Ev
 11030      00000000 
 11031 0020 00000000 		.dword	_ZN3B133runEv
 11031      00000000 
 11032              		.weak	_ZTV3C13
 11033              		.section	.data.rel.ro.local._ZTV3C13,"awG",@progbits,_ZTV3C13,comdat
 11034              		.align	3
 11037              	_ZTV3C13:
 11038 0000 00000000 		.dword	0
 11038      00000000 
 11039 0008 00000000 		.dword	0
 11039      00000000 
 11040 0010 00000000 		.dword	_ZN3C13D1Ev
 11040      00000000 
 11041 0018 00000000 		.dword	_ZN3C13D0Ev
 11041      00000000 
 11042 0020 00000000 		.dword	_ZN3C133runEv
 11042      00000000 
 11043              		.weak	_ZTV11testTRYWait
 11044              		.section	.data.rel.ro.local._ZTV11testTRYWait,"awG",@progbits,_ZTV11testTRYWait,comdat
 11045              		.align	3
 11048              	_ZTV11testTRYWait:
 11049 0000 00000000 		.dword	0
 11049      00000000 
 11050 0008 00000000 		.dword	0
 11050      00000000 
GAS LISTING /tmp/ccCnP6rB.s 			page 267


 11051 0010 00000000 		.dword	_ZN11testTRYWaitD1Ev
 11051      00000000 
 11052 0018 00000000 		.dword	_ZN11testTRYWaitD0Ev
 11052      00000000 
 11053 0020 00000000 		.dword	_ZN11testTRYWait3runEv
 11053      00000000 
 11054              		.globl	sem3
 11055              		.globl	sem2
 11056              		.globl	IDdd
 11057              		.globl	IDd
 11058              		.globl	z
 11059              		.data
 11060              		.align	2
 11061              		.set	.LANCHOR1,. + 0
 11064              	IDdd:
 11065 0000 01000000 		.word	1
 11068              	_ZL2ID:
 11069 0004 01000000 		.word	1
 11072              	_ZL3IDD:
 11073 0008 01000000 		.word	1
 11076              	z:
 11077 000c 01000000 		.word	1
 11080              	IDd:
 11081 0010 01000000 		.word	1
 11084              	_ZL13identifikator:
 11085 0014 01000000 		.word	1
 11088              	_ZL2BR:
 11089 0018 01000000 		.word	1
 11092              	_ZL4iden:
 11093 001c 01000000 		.word	1
 11096              	_ZL3num:
 11097 0020 01000000 		.word	1
 11100              	_ZL6number:
 11101 0024 01000000 		.word	1
 11102              		.bss
 11103              		.align	3
 11104              		.set	.LANCHOR0,. + 0
 11107              	sem2:
 11108 0000 00000000 		.zero	8
 11108      00000000 
 11111              	sem3:
 11112 0008 00000000 		.zero	8
 11112      00000000 
 11115              	_ZL8waitNiti:
 11116 0010 00000000 		.zero	8
 11116      00000000 
 11119              	_ZL1x:
 11120 0018 00000000 		.zero	4
 11121 001c 00000000 		.zero	4
 11124              	_ZL1s:
 11125 0020 00000000 		.zero	8
 11125      00000000 
 11126              		.text
 11127              	.Letext0:
 11128              		.file 2 "test/../h/../lib/hw.h"
 11129              		.file 3 "test/../h/syscall_c.h"
 11130              		.file 4 "test/../h/syscall_cpp.hpp"
GAS LISTING /tmp/ccCnP6rB.s 			page 268


 11131              		.file 5 "test/printing.hpp"
 32400              		.align	3
 32403              	DW.ref.__gxx_personality_v0:
 32404 0000 00000000 		.dword	__gxx_personality_v0
 32404      00000000 
 32405              		.ident	"GCC: (Ubuntu 9.4.0-1ubuntu1~20.04) 9.4.0"
 32406              		.section	.note.GNU-stack,"",@progbits
GAS LISTING /tmp/ccCnP6rB.s 			page 269


DEFINED SYMBOLS
                            *ABS*:0000000000000000 Test8.cpp
     /tmp/ccCnP6rB.s:20     .text:0000000000000000 _ZN2C43runEv
     /tmp/ccCnP6rB.s:24     .text:0000000000000000 .L0 
     /tmp/ccCnP6rB.s:26     .text:0000000000000000 .L0 
     /tmp/ccCnP6rB.s:27     .text:0000000000000004 .L0 
     /tmp/ccCnP6rB.s:31     .text:0000000000000010 .L0 
     /tmp/ccCnP6rB.s:32     .text:0000000000000010 .L0 
     /tmp/ccCnP6rB.s:33     .text:0000000000000010 .L0 
     /tmp/ccCnP6rB.s:35     .text:0000000000000014 .L0 
     /tmp/ccCnP6rB.s:37     .text:0000000000000014 .L0 
     /tmp/ccCnP6rB.s:38     .text:0000000000000014 .L0 
     /tmp/ccCnP6rB.s:43     .text:0000000000000024 .L0 
     /tmp/ccCnP6rB.s:44     .text:0000000000000024 .L0 
     /tmp/ccCnP6rB.s:49     .text:0000000000000034 .L0 
     /tmp/ccCnP6rB.s:50     .text:0000000000000034 .L0 
     /tmp/ccCnP6rB.s:56     .text:000000000000003c .L0 
     /tmp/ccCnP6rB.s:57     .text:000000000000003c .L0 
     /tmp/ccCnP6rB.s:61     .text:0000000000000044 .L0 
     /tmp/ccCnP6rB.s:65     .text:0000000000000048 .L0 
     /tmp/ccCnP6rB.s:70     .text:0000000000000050 .L0 
     /tmp/ccCnP6rB.s:74     .text:0000000000000054 .L0 
     /tmp/ccCnP6rB.s:78     .text:0000000000000060 .L0 
     /tmp/ccCnP6rB.s:86     .text:0000000000000068 .L0 
     /tmp/ccCnP6rB.s:87     .text:0000000000000068 .L0 
     /tmp/ccCnP6rB.s:91     .text:0000000000000078 .L0 
     /tmp/ccCnP6rB.s:92     .text:0000000000000078 .L0 
     /tmp/ccCnP6rB.s:95     .text:0000000000000080 .L0 
     /tmp/ccCnP6rB.s:96     .text:0000000000000084 .L0 
     /tmp/ccCnP6rB.s:98     .text:0000000000000088 .L0 
     /tmp/ccCnP6rB.s:99     .text:0000000000000088 .L0 
     /tmp/ccCnP6rB.s:101    .text:000000000000008c .L0 
     /tmp/ccCnP6rB.s:104    .text:0000000000000090 .L0 
     /tmp/ccCnP6rB.s:106    .text:0000000000000094 .L0 
     /tmp/ccCnP6rB.s:129    .text:0000000000000094 _ZN2A53runEv
     /tmp/ccCnP6rB.s:132    .text:0000000000000094 .L0 
     /tmp/ccCnP6rB.s:134    .text:0000000000000094 .L0 
     /tmp/ccCnP6rB.s:135    .text:0000000000000098 .L0 
     /tmp/ccCnP6rB.s:141    .text:00000000000000ac .L0 
     /tmp/ccCnP6rB.s:142    .text:00000000000000ac .L0 
     /tmp/ccCnP6rB.s:143    .text:00000000000000ac .L0 
     /tmp/ccCnP6rB.s:144    .text:00000000000000ac .L0 
     /tmp/ccCnP6rB.s:145    .text:00000000000000ac .L0 
     /tmp/ccCnP6rB.s:147    .text:00000000000000b0 .L0 
     /tmp/ccCnP6rB.s:150    .text:00000000000000b4 .L0 
     /tmp/ccCnP6rB.s:151    .text:00000000000000b4 .L0 
     /tmp/ccCnP6rB.s:156    .text:00000000000000c4 .L0 
     /tmp/ccCnP6rB.s:157    .text:00000000000000c4 .L0 
     /tmp/ccCnP6rB.s:163    .text:00000000000000d8 .L0 
     /tmp/ccCnP6rB.s:164    .text:00000000000000d8 .L0 
     /tmp/ccCnP6rB.s:169    .text:00000000000000e8 .L0 
     /tmp/ccCnP6rB.s:170    .text:00000000000000e8 .L0 
     /tmp/ccCnP6rB.s:178    .text:00000000000000f0 .L0 
     /tmp/ccCnP6rB.s:179    .text:00000000000000f0 .L0 
     /tmp/ccCnP6rB.s:183    .text:00000000000000f8 .L0 
     /tmp/ccCnP6rB.s:187    .text:00000000000000fc .L0 
     /tmp/ccCnP6rB.s:193    .text:0000000000000108 .L0 
GAS LISTING /tmp/ccCnP6rB.s 			page 270


     /tmp/ccCnP6rB.s:197    .text:000000000000010c .L0 
     /tmp/ccCnP6rB.s:201    .text:0000000000000118 .L0 
     /tmp/ccCnP6rB.s:210    .text:0000000000000120 .L0 
     /tmp/ccCnP6rB.s:214    .text:0000000000000124 .L0 
     /tmp/ccCnP6rB.s:218    .text:000000000000012c .L0 
     /tmp/ccCnP6rB.s:219    .text:000000000000012c .L0 
     /tmp/ccCnP6rB.s:223    .text:000000000000013c .L0 
     /tmp/ccCnP6rB.s:224    .text:000000000000013c .L0 
     /tmp/ccCnP6rB.s:230    .text:0000000000000150 .L0 
     /tmp/ccCnP6rB.s:231    .text:0000000000000150 .L0 
     /tmp/ccCnP6rB.s:235    .text:0000000000000160 .L0 
     /tmp/ccCnP6rB.s:236    .text:0000000000000160 .L0 
     /tmp/ccCnP6rB.s:240    .text:0000000000000170 .L0 
     /tmp/ccCnP6rB.s:241    .text:0000000000000170 .L0 
     /tmp/ccCnP6rB.s:247    .text:0000000000000184 .L0 
     /tmp/ccCnP6rB.s:248    .text:0000000000000184 .L0 
     /tmp/ccCnP6rB.s:253    .text:0000000000000194 .L0 
     /tmp/ccCnP6rB.s:254    .text:0000000000000194 .L0 
     /tmp/ccCnP6rB.s:262    .text:000000000000019c .L0 
     /tmp/ccCnP6rB.s:263    .text:000000000000019c .L0 
     /tmp/ccCnP6rB.s:267    .text:00000000000001ac .L0 
     /tmp/ccCnP6rB.s:268    .text:00000000000001ac .L0 
     /tmp/ccCnP6rB.s:274    .text:00000000000001c0 .L0 
     /tmp/ccCnP6rB.s:275    .text:00000000000001c0 .L0 
     /tmp/ccCnP6rB.s:279    .text:00000000000001d0 .L0 
     /tmp/ccCnP6rB.s:280    .text:00000000000001d4 .L0 
     /tmp/ccCnP6rB.s:282    .text:00000000000001d8 .L0 
     /tmp/ccCnP6rB.s:283    .text:00000000000001d8 .L0 
     /tmp/ccCnP6rB.s:285    .text:00000000000001dc .L0 
     /tmp/ccCnP6rB.s:287    .text:00000000000001e0 .L0 
     /tmp/ccCnP6rB.s:290    .text:00000000000001e4 .L0 
     /tmp/ccCnP6rB.s:293    .text:00000000000001e8 .L0 
     /tmp/ccCnP6rB.s:295    .text:00000000000001ec .L0 
     /tmp/ccCnP6rB.s:306    .text:00000000000001ec _ZN3B133runEv
     /tmp/ccCnP6rB.s:309    .text:00000000000001ec .L0 
     /tmp/ccCnP6rB.s:311    .text:00000000000001ec .L0 
     /tmp/ccCnP6rB.s:312    .text:00000000000001f0 .L0 
     /tmp/ccCnP6rB.s:317    .text:0000000000000200 .L0 
     /tmp/ccCnP6rB.s:318    .text:0000000000000200 .L0 
     /tmp/ccCnP6rB.s:319    .text:0000000000000200 .L0 
     /tmp/ccCnP6rB.s:320    .text:0000000000000200 .L0 
     /tmp/ccCnP6rB.s:322    .text:0000000000000204 .L0 
     /tmp/ccCnP6rB.s:326    .text:0000000000000204 .L0 
     /tmp/ccCnP6rB.s:327    .text:0000000000000204 .L0 
     /tmp/ccCnP6rB.s:335    .text:000000000000020c .L0 
     /tmp/ccCnP6rB.s:336    .text:000000000000020c .L0 
     /tmp/ccCnP6rB.s:340    .text:0000000000000214 .L0 
     /tmp/ccCnP6rB.s:344    .text:0000000000000218 .L0 
     /tmp/ccCnP6rB.s:350    .text:0000000000000224 .L0 
     /tmp/ccCnP6rB.s:354    .text:0000000000000228 .L0 
     /tmp/ccCnP6rB.s:357    .text:0000000000000230 .L0 
     /tmp/ccCnP6rB.s:365    .text:0000000000000238 .L0 
     /tmp/ccCnP6rB.s:366    .text:0000000000000238 .L0 
     /tmp/ccCnP6rB.s:370    .text:0000000000000248 .L0 
     /tmp/ccCnP6rB.s:371    .text:0000000000000248 .L0 
     /tmp/ccCnP6rB.s:377    .text:000000000000025c .L0 
     /tmp/ccCnP6rB.s:378    .text:000000000000025c .L0 
GAS LISTING /tmp/ccCnP6rB.s 			page 271


     /tmp/ccCnP6rB.s:382    .text:000000000000026c .L0 
     /tmp/ccCnP6rB.s:383    .text:000000000000026c .L0 
     /tmp/ccCnP6rB.s:387    .text:0000000000000274 .L0 
     /tmp/ccCnP6rB.s:391    .text:0000000000000278 .L0 
     /tmp/ccCnP6rB.s:396    .text:0000000000000280 .L0 
     /tmp/ccCnP6rB.s:403    .text:0000000000000288 .L0 
     /tmp/ccCnP6rB.s:404    .text:000000000000028c .L0 
     /tmp/ccCnP6rB.s:406    .text:0000000000000290 .L0 
     /tmp/ccCnP6rB.s:407    .text:0000000000000290 .L0 
     /tmp/ccCnP6rB.s:409    .text:0000000000000294 .L0 
     /tmp/ccCnP6rB.s:411    .text:0000000000000298 .L0 
     /tmp/ccCnP6rB.s:414    .text:000000000000029c .L0 
     /tmp/ccCnP6rB.s:416    .text:00000000000002a0 .L0 
     /tmp/ccCnP6rB.s:436    .text:00000000000002a0 _ZN2A13runEv
     /tmp/ccCnP6rB.s:439    .text:00000000000002a0 .L0 
     /tmp/ccCnP6rB.s:441    .text:00000000000002a0 .L0 
     /tmp/ccCnP6rB.s:442    .text:00000000000002a4 .L0 
     /tmp/ccCnP6rB.s:448    .text:00000000000002b8 .L0 
     /tmp/ccCnP6rB.s:449    .text:00000000000002b8 .L0 
     /tmp/ccCnP6rB.s:450    .text:00000000000002b8 .L0 
     /tmp/ccCnP6rB.s:451    .text:00000000000002b8 .L0 
     /tmp/ccCnP6rB.s:452    .text:00000000000002b8 .L0 
     /tmp/ccCnP6rB.s:454    .text:00000000000002bc .L0 
     /tmp/ccCnP6rB.s:459    .text:00000000000002c0 .L0 
     /tmp/ccCnP6rB.s:460    .text:00000000000002c0 .L0 
     /tmp/ccCnP6rB.s:468    .text:00000000000002c8 .L0 
     /tmp/ccCnP6rB.s:469    .text:00000000000002c8 .L0 
     /tmp/ccCnP6rB.s:473    .text:00000000000002d0 .L0 
     /tmp/ccCnP6rB.s:477    .text:00000000000002d4 .L0 
     /tmp/ccCnP6rB.s:482    .text:00000000000002dc .L0 
     /tmp/ccCnP6rB.s:486    .text:00000000000002e0 .L0 
     /tmp/ccCnP6rB.s:489    .text:00000000000002e8 .L0 
     /tmp/ccCnP6rB.s:497    .text:00000000000002f0 .L0 
     /tmp/ccCnP6rB.s:498    .text:00000000000002f0 .L0 
     /tmp/ccCnP6rB.s:502    .text:0000000000000300 .L0 
     /tmp/ccCnP6rB.s:503    .text:0000000000000300 .L0 
     /tmp/ccCnP6rB.s:509    .text:0000000000000314 .L0 
     /tmp/ccCnP6rB.s:510    .text:0000000000000314 .L0 
     /tmp/ccCnP6rB.s:514    .text:0000000000000324 .L0 
     /tmp/ccCnP6rB.s:515    .text:0000000000000324 .L0 
     /tmp/ccCnP6rB.s:519    .text:0000000000000334 .L0 
     /tmp/ccCnP6rB.s:520    .text:0000000000000334 .L0 
     /tmp/ccCnP6rB.s:526    .text:0000000000000348 .L0 
     /tmp/ccCnP6rB.s:527    .text:0000000000000348 .L0 
     /tmp/ccCnP6rB.s:531    .text:0000000000000358 .L0 
     /tmp/ccCnP6rB.s:532    .text:0000000000000358 .L0 
     /tmp/ccCnP6rB.s:534    .text:000000000000035c .L0 
     /tmp/ccCnP6rB.s:536    .text:0000000000000360 .L0 
     /tmp/ccCnP6rB.s:537    .text:0000000000000360 .L0 
     /tmp/ccCnP6rB.s:543    .text:0000000000000370 .L0 
     /tmp/ccCnP6rB.s:544    .text:0000000000000370 .L0 
     /tmp/ccCnP6rB.s:547    .text:0000000000000378 .L0 
     /tmp/ccCnP6rB.s:548    .text:0000000000000378 .L0 
     /tmp/ccCnP6rB.s:553    .text:0000000000000388 .L0 
     /tmp/ccCnP6rB.s:557    .text:000000000000038c .L0 
     /tmp/ccCnP6rB.s:561    .text:0000000000000394 .L0 
     /tmp/ccCnP6rB.s:562    .text:0000000000000394 .L0 
GAS LISTING /tmp/ccCnP6rB.s 			page 272


     /tmp/ccCnP6rB.s:566    .text:00000000000003a4 .L0 
     /tmp/ccCnP6rB.s:567    .text:00000000000003a4 .L0 
     /tmp/ccCnP6rB.s:573    .text:00000000000003b8 .L0 
     /tmp/ccCnP6rB.s:574    .text:00000000000003b8 .L0 
     /tmp/ccCnP6rB.s:578    .text:00000000000003c8 .L0 
     /tmp/ccCnP6rB.s:579    .text:00000000000003c8 .L0 
     /tmp/ccCnP6rB.s:583    .text:00000000000003d8 .L0 
     /tmp/ccCnP6rB.s:584    .text:00000000000003d8 .L0 
     /tmp/ccCnP6rB.s:590    .text:00000000000003ec .L0 
     /tmp/ccCnP6rB.s:591    .text:00000000000003ec .L0 
     /tmp/ccCnP6rB.s:596    .text:00000000000003fc .L0 
     /tmp/ccCnP6rB.s:597    .text:00000000000003fc .L0 
     /tmp/ccCnP6rB.s:603    .text:0000000000000404 .L0 
     /tmp/ccCnP6rB.s:604    .text:0000000000000404 .L0 
     /tmp/ccCnP6rB.s:605    .text:0000000000000404 .L0 
     /tmp/ccCnP6rB.s:615    .text:0000000000000418 .L0 
     /tmp/ccCnP6rB.s:616    .text:000000000000041c .L0 
     /tmp/ccCnP6rB.s:618    .text:0000000000000420 .L0 
     /tmp/ccCnP6rB.s:619    .text:0000000000000420 .L0 
     /tmp/ccCnP6rB.s:621    .text:0000000000000424 .L0 
     /tmp/ccCnP6rB.s:623    .text:0000000000000428 .L0 
     /tmp/ccCnP6rB.s:626    .text:000000000000042c .L0 
     /tmp/ccCnP6rB.s:629    .text:0000000000000430 .L0 
     /tmp/ccCnP6rB.s:631    .text:0000000000000434 .L0 
     /tmp/ccCnP6rB.s:638    .text._ZN2A7D2Ev:0000000000000000 _ZN2A7D2Ev
     /tmp/ccCnP6rB.s:641    .text._ZN2A7D2Ev:0000000000000000 .L0 
     /tmp/ccCnP6rB.s:643    .text._ZN2A7D2Ev:0000000000000000 .L0 
     /tmp/ccCnP6rB.s:644    .text._ZN2A7D2Ev:0000000000000004 .L0 
     /tmp/ccCnP6rB.s:647    .text._ZN2A7D2Ev:000000000000000c .L0 
     /tmp/ccCnP6rB.s:648    .text._ZN2A7D2Ev:000000000000000c .L0 
     /tmp/ccCnP6rB.s:650    .text._ZN2A7D2Ev:0000000000000010 .L0 
     /tmp/ccCnP6rB.s:10927  .data.rel.ro.local._ZTV2A7:0000000000000000 _ZTV2A7
     /tmp/ccCnP6rB.s:653    .text._ZN2A7D2Ev:0000000000000010 .L0 
     /tmp/ccCnP6rB.s:659    .text._ZN2A7D2Ev:0000000000000028 .L0 
     /tmp/ccCnP6rB.s:661    .text._ZN2A7D2Ev:000000000000002c .L0 
     /tmp/ccCnP6rB.s:662    .text._ZN2A7D2Ev:000000000000002c .L0 
     /tmp/ccCnP6rB.s:664    .text._ZN2A7D2Ev:0000000000000030 .L0 
     /tmp/ccCnP6rB.s:666    .text._ZN2A7D2Ev:0000000000000034 .L0 
     /tmp/ccCnP6rB.s:638    .text._ZN2A7D2Ev:0000000000000000 _ZN2A7D1Ev
     /tmp/ccCnP6rB.s:675    .text._ZN2A7D0Ev:0000000000000000 _ZN2A7D0Ev
     /tmp/ccCnP6rB.s:678    .text._ZN2A7D0Ev:0000000000000000 .L0 
     /tmp/ccCnP6rB.s:680    .text._ZN2A7D0Ev:0000000000000000 .L0 
     /tmp/ccCnP6rB.s:681    .text._ZN2A7D0Ev:0000000000000004 .L0 
     /tmp/ccCnP6rB.s:685    .text._ZN2A7D0Ev:0000000000000010 .L0 
     /tmp/ccCnP6rB.s:686    .text._ZN2A7D0Ev:0000000000000010 .L0 
     /tmp/ccCnP6rB.s:687    .text._ZN2A7D0Ev:0000000000000010 .L0 
     /tmp/ccCnP6rB.s:689    .text._ZN2A7D0Ev:0000000000000014 .L0 
     /tmp/ccCnP6rB.s:695    .text._ZN2A7D0Ev:0000000000000018 .L0 
     /tmp/ccCnP6rB.s:705    .text._ZN2A7D0Ev:000000000000003c .L0 
     /tmp/ccCnP6rB.s:707    .text._ZN2A7D0Ev:0000000000000040 .L0 
     /tmp/ccCnP6rB.s:708    .text._ZN2A7D0Ev:0000000000000040 .L0 
     /tmp/ccCnP6rB.s:710    .text._ZN2A7D0Ev:0000000000000044 .L0 
     /tmp/ccCnP6rB.s:713    .text._ZN2A7D0Ev:0000000000000048 .L0 
     /tmp/ccCnP6rB.s:715    .text._ZN2A7D0Ev:000000000000004c .L0 
     /tmp/ccCnP6rB.s:722    .text._ZN2B7D2Ev:0000000000000000 _ZN2B7D2Ev
     /tmp/ccCnP6rB.s:725    .text._ZN2B7D2Ev:0000000000000000 .L0 
     /tmp/ccCnP6rB.s:727    .text._ZN2B7D2Ev:0000000000000000 .L0 
GAS LISTING /tmp/ccCnP6rB.s 			page 273


     /tmp/ccCnP6rB.s:728    .text._ZN2B7D2Ev:0000000000000004 .L0 
     /tmp/ccCnP6rB.s:731    .text._ZN2B7D2Ev:000000000000000c .L0 
     /tmp/ccCnP6rB.s:732    .text._ZN2B7D2Ev:000000000000000c .L0 
     /tmp/ccCnP6rB.s:734    .text._ZN2B7D2Ev:0000000000000010 .L0 
     /tmp/ccCnP6rB.s:10938  .data.rel.ro.local._ZTV2B7:0000000000000000 _ZTV2B7
     /tmp/ccCnP6rB.s:737    .text._ZN2B7D2Ev:0000000000000010 .L0 
     /tmp/ccCnP6rB.s:743    .text._ZN2B7D2Ev:0000000000000028 .L0 
     /tmp/ccCnP6rB.s:745    .text._ZN2B7D2Ev:000000000000002c .L0 
     /tmp/ccCnP6rB.s:746    .text._ZN2B7D2Ev:000000000000002c .L0 
     /tmp/ccCnP6rB.s:748    .text._ZN2B7D2Ev:0000000000000030 .L0 
     /tmp/ccCnP6rB.s:750    .text._ZN2B7D2Ev:0000000000000034 .L0 
     /tmp/ccCnP6rB.s:722    .text._ZN2B7D2Ev:0000000000000000 _ZN2B7D1Ev
     /tmp/ccCnP6rB.s:759    .text._ZN2B7D0Ev:0000000000000000 _ZN2B7D0Ev
     /tmp/ccCnP6rB.s:762    .text._ZN2B7D0Ev:0000000000000000 .L0 
     /tmp/ccCnP6rB.s:764    .text._ZN2B7D0Ev:0000000000000000 .L0 
     /tmp/ccCnP6rB.s:765    .text._ZN2B7D0Ev:0000000000000004 .L0 
     /tmp/ccCnP6rB.s:769    .text._ZN2B7D0Ev:0000000000000010 .L0 
     /tmp/ccCnP6rB.s:770    .text._ZN2B7D0Ev:0000000000000010 .L0 
     /tmp/ccCnP6rB.s:771    .text._ZN2B7D0Ev:0000000000000010 .L0 
     /tmp/ccCnP6rB.s:773    .text._ZN2B7D0Ev:0000000000000014 .L0 
     /tmp/ccCnP6rB.s:779    .text._ZN2B7D0Ev:0000000000000018 .L0 
     /tmp/ccCnP6rB.s:789    .text._ZN2B7D0Ev:000000000000003c .L0 
     /tmp/ccCnP6rB.s:791    .text._ZN2B7D0Ev:0000000000000040 .L0 
     /tmp/ccCnP6rB.s:792    .text._ZN2B7D0Ev:0000000000000040 .L0 
     /tmp/ccCnP6rB.s:794    .text._ZN2B7D0Ev:0000000000000044 .L0 
     /tmp/ccCnP6rB.s:797    .text._ZN2B7D0Ev:0000000000000048 .L0 
     /tmp/ccCnP6rB.s:799    .text._ZN2B7D0Ev:000000000000004c .L0 
     /tmp/ccCnP6rB.s:806    .text._ZN11testTRYWaitD2Ev:0000000000000000 _ZN11testTRYWaitD2Ev
     /tmp/ccCnP6rB.s:809    .text._ZN11testTRYWaitD2Ev:0000000000000000 .L0 
     /tmp/ccCnP6rB.s:811    .text._ZN11testTRYWaitD2Ev:0000000000000000 .L0 
     /tmp/ccCnP6rB.s:812    .text._ZN11testTRYWaitD2Ev:0000000000000004 .L0 
     /tmp/ccCnP6rB.s:815    .text._ZN11testTRYWaitD2Ev:000000000000000c .L0 
     /tmp/ccCnP6rB.s:816    .text._ZN11testTRYWaitD2Ev:000000000000000c .L0 
     /tmp/ccCnP6rB.s:818    .text._ZN11testTRYWaitD2Ev:0000000000000010 .L0 
     /tmp/ccCnP6rB.s:11048  .data.rel.ro.local._ZTV11testTRYWait:0000000000000000 _ZTV11testTRYWait
     /tmp/ccCnP6rB.s:821    .text._ZN11testTRYWaitD2Ev:0000000000000010 .L0 
     /tmp/ccCnP6rB.s:827    .text._ZN11testTRYWaitD2Ev:0000000000000028 .L0 
     /tmp/ccCnP6rB.s:829    .text._ZN11testTRYWaitD2Ev:000000000000002c .L0 
     /tmp/ccCnP6rB.s:830    .text._ZN11testTRYWaitD2Ev:000000000000002c .L0 
     /tmp/ccCnP6rB.s:832    .text._ZN11testTRYWaitD2Ev:0000000000000030 .L0 
     /tmp/ccCnP6rB.s:834    .text._ZN11testTRYWaitD2Ev:0000000000000034 .L0 
     /tmp/ccCnP6rB.s:806    .text._ZN11testTRYWaitD2Ev:0000000000000000 _ZN11testTRYWaitD1Ev
     /tmp/ccCnP6rB.s:843    .text._ZN11testTRYWaitD0Ev:0000000000000000 _ZN11testTRYWaitD0Ev
     /tmp/ccCnP6rB.s:846    .text._ZN11testTRYWaitD0Ev:0000000000000000 .L0 
     /tmp/ccCnP6rB.s:848    .text._ZN11testTRYWaitD0Ev:0000000000000000 .L0 
     /tmp/ccCnP6rB.s:849    .text._ZN11testTRYWaitD0Ev:0000000000000004 .L0 
     /tmp/ccCnP6rB.s:853    .text._ZN11testTRYWaitD0Ev:0000000000000010 .L0 
     /tmp/ccCnP6rB.s:854    .text._ZN11testTRYWaitD0Ev:0000000000000010 .L0 
     /tmp/ccCnP6rB.s:855    .text._ZN11testTRYWaitD0Ev:0000000000000010 .L0 
     /tmp/ccCnP6rB.s:857    .text._ZN11testTRYWaitD0Ev:0000000000000014 .L0 
     /tmp/ccCnP6rB.s:863    .text._ZN11testTRYWaitD0Ev:0000000000000018 .L0 
     /tmp/ccCnP6rB.s:873    .text._ZN11testTRYWaitD0Ev:000000000000003c .L0 
     /tmp/ccCnP6rB.s:875    .text._ZN11testTRYWaitD0Ev:0000000000000040 .L0 
     /tmp/ccCnP6rB.s:876    .text._ZN11testTRYWaitD0Ev:0000000000000040 .L0 
     /tmp/ccCnP6rB.s:878    .text._ZN11testTRYWaitD0Ev:0000000000000044 .L0 
     /tmp/ccCnP6rB.s:881    .text._ZN11testTRYWaitD0Ev:0000000000000048 .L0 
     /tmp/ccCnP6rB.s:883    .text._ZN11testTRYWaitD0Ev:000000000000004c .L0 
GAS LISTING /tmp/ccCnP6rB.s 			page 274


     /tmp/ccCnP6rB.s:890    .text._ZN3C13D2Ev:0000000000000000 _ZN3C13D2Ev
     /tmp/ccCnP6rB.s:893    .text._ZN3C13D2Ev:0000000000000000 .L0 
     /tmp/ccCnP6rB.s:895    .text._ZN3C13D2Ev:0000000000000000 .L0 
     /tmp/ccCnP6rB.s:896    .text._ZN3C13D2Ev:0000000000000004 .L0 
     /tmp/ccCnP6rB.s:899    .text._ZN3C13D2Ev:000000000000000c .L0 
     /tmp/ccCnP6rB.s:900    .text._ZN3C13D2Ev:000000000000000c .L0 
     /tmp/ccCnP6rB.s:902    .text._ZN3C13D2Ev:0000000000000010 .L0 
     /tmp/ccCnP6rB.s:11037  .data.rel.ro.local._ZTV3C13:0000000000000000 _ZTV3C13
     /tmp/ccCnP6rB.s:905    .text._ZN3C13D2Ev:0000000000000010 .L0 
     /tmp/ccCnP6rB.s:911    .text._ZN3C13D2Ev:0000000000000028 .L0 
     /tmp/ccCnP6rB.s:913    .text._ZN3C13D2Ev:000000000000002c .L0 
     /tmp/ccCnP6rB.s:914    .text._ZN3C13D2Ev:000000000000002c .L0 
     /tmp/ccCnP6rB.s:916    .text._ZN3C13D2Ev:0000000000000030 .L0 
     /tmp/ccCnP6rB.s:918    .text._ZN3C13D2Ev:0000000000000034 .L0 
     /tmp/ccCnP6rB.s:890    .text._ZN3C13D2Ev:0000000000000000 _ZN3C13D1Ev
     /tmp/ccCnP6rB.s:927    .text._ZN3C13D0Ev:0000000000000000 _ZN3C13D0Ev
     /tmp/ccCnP6rB.s:930    .text._ZN3C13D0Ev:0000000000000000 .L0 
     /tmp/ccCnP6rB.s:932    .text._ZN3C13D0Ev:0000000000000000 .L0 
     /tmp/ccCnP6rB.s:933    .text._ZN3C13D0Ev:0000000000000004 .L0 
     /tmp/ccCnP6rB.s:937    .text._ZN3C13D0Ev:0000000000000010 .L0 
     /tmp/ccCnP6rB.s:938    .text._ZN3C13D0Ev:0000000000000010 .L0 
     /tmp/ccCnP6rB.s:939    .text._ZN3C13D0Ev:0000000000000010 .L0 
     /tmp/ccCnP6rB.s:941    .text._ZN3C13D0Ev:0000000000000014 .L0 
     /tmp/ccCnP6rB.s:947    .text._ZN3C13D0Ev:0000000000000018 .L0 
     /tmp/ccCnP6rB.s:957    .text._ZN3C13D0Ev:000000000000003c .L0 
     /tmp/ccCnP6rB.s:959    .text._ZN3C13D0Ev:0000000000000040 .L0 
     /tmp/ccCnP6rB.s:960    .text._ZN3C13D0Ev:0000000000000040 .L0 
     /tmp/ccCnP6rB.s:962    .text._ZN3C13D0Ev:0000000000000044 .L0 
     /tmp/ccCnP6rB.s:965    .text._ZN3C13D0Ev:0000000000000048 .L0 
     /tmp/ccCnP6rB.s:967    .text._ZN3C13D0Ev:000000000000004c .L0 
     /tmp/ccCnP6rB.s:974    .text._ZN3B13D2Ev:0000000000000000 _ZN3B13D2Ev
     /tmp/ccCnP6rB.s:977    .text._ZN3B13D2Ev:0000000000000000 .L0 
     /tmp/ccCnP6rB.s:979    .text._ZN3B13D2Ev:0000000000000000 .L0 
     /tmp/ccCnP6rB.s:980    .text._ZN3B13D2Ev:0000000000000004 .L0 
     /tmp/ccCnP6rB.s:983    .text._ZN3B13D2Ev:000000000000000c .L0 
     /tmp/ccCnP6rB.s:984    .text._ZN3B13D2Ev:000000000000000c .L0 
     /tmp/ccCnP6rB.s:986    .text._ZN3B13D2Ev:0000000000000010 .L0 
     /tmp/ccCnP6rB.s:11026  .data.rel.ro.local._ZTV3B13:0000000000000000 _ZTV3B13
     /tmp/ccCnP6rB.s:989    .text._ZN3B13D2Ev:0000000000000010 .L0 
     /tmp/ccCnP6rB.s:995    .text._ZN3B13D2Ev:0000000000000028 .L0 
     /tmp/ccCnP6rB.s:997    .text._ZN3B13D2Ev:000000000000002c .L0 
     /tmp/ccCnP6rB.s:998    .text._ZN3B13D2Ev:000000000000002c .L0 
     /tmp/ccCnP6rB.s:1000   .text._ZN3B13D2Ev:0000000000000030 .L0 
     /tmp/ccCnP6rB.s:1002   .text._ZN3B13D2Ev:0000000000000034 .L0 
     /tmp/ccCnP6rB.s:974    .text._ZN3B13D2Ev:0000000000000000 _ZN3B13D1Ev
     /tmp/ccCnP6rB.s:1011   .text._ZN3B13D0Ev:0000000000000000 _ZN3B13D0Ev
     /tmp/ccCnP6rB.s:1014   .text._ZN3B13D0Ev:0000000000000000 .L0 
     /tmp/ccCnP6rB.s:1016   .text._ZN3B13D0Ev:0000000000000000 .L0 
     /tmp/ccCnP6rB.s:1017   .text._ZN3B13D0Ev:0000000000000004 .L0 
     /tmp/ccCnP6rB.s:1021   .text._ZN3B13D0Ev:0000000000000010 .L0 
     /tmp/ccCnP6rB.s:1022   .text._ZN3B13D0Ev:0000000000000010 .L0 
     /tmp/ccCnP6rB.s:1023   .text._ZN3B13D0Ev:0000000000000010 .L0 
     /tmp/ccCnP6rB.s:1025   .text._ZN3B13D0Ev:0000000000000014 .L0 
     /tmp/ccCnP6rB.s:1031   .text._ZN3B13D0Ev:0000000000000018 .L0 
     /tmp/ccCnP6rB.s:1041   .text._ZN3B13D0Ev:000000000000003c .L0 
     /tmp/ccCnP6rB.s:1043   .text._ZN3B13D0Ev:0000000000000040 .L0 
     /tmp/ccCnP6rB.s:1044   .text._ZN3B13D0Ev:0000000000000040 .L0 
GAS LISTING /tmp/ccCnP6rB.s 			page 275


     /tmp/ccCnP6rB.s:1046   .text._ZN3B13D0Ev:0000000000000044 .L0 
     /tmp/ccCnP6rB.s:1049   .text._ZN3B13D0Ev:0000000000000048 .L0 
     /tmp/ccCnP6rB.s:1051   .text._ZN3B13D0Ev:000000000000004c .L0 
     /tmp/ccCnP6rB.s:1058   .text._ZN3A13D2Ev:0000000000000000 _ZN3A13D2Ev
     /tmp/ccCnP6rB.s:1061   .text._ZN3A13D2Ev:0000000000000000 .L0 
     /tmp/ccCnP6rB.s:1063   .text._ZN3A13D2Ev:0000000000000000 .L0 
     /tmp/ccCnP6rB.s:1064   .text._ZN3A13D2Ev:0000000000000004 .L0 
     /tmp/ccCnP6rB.s:1067   .text._ZN3A13D2Ev:000000000000000c .L0 
     /tmp/ccCnP6rB.s:1068   .text._ZN3A13D2Ev:000000000000000c .L0 
     /tmp/ccCnP6rB.s:1070   .text._ZN3A13D2Ev:0000000000000010 .L0 
     /tmp/ccCnP6rB.s:11015  .data.rel.ro.local._ZTV3A13:0000000000000000 _ZTV3A13
     /tmp/ccCnP6rB.s:1073   .text._ZN3A13D2Ev:0000000000000010 .L0 
     /tmp/ccCnP6rB.s:1079   .text._ZN3A13D2Ev:0000000000000028 .L0 
     /tmp/ccCnP6rB.s:1081   .text._ZN3A13D2Ev:000000000000002c .L0 
     /tmp/ccCnP6rB.s:1082   .text._ZN3A13D2Ev:000000000000002c .L0 
     /tmp/ccCnP6rB.s:1084   .text._ZN3A13D2Ev:0000000000000030 .L0 
     /tmp/ccCnP6rB.s:1086   .text._ZN3A13D2Ev:0000000000000034 .L0 
     /tmp/ccCnP6rB.s:1058   .text._ZN3A13D2Ev:0000000000000000 _ZN3A13D1Ev
     /tmp/ccCnP6rB.s:1095   .text._ZN3A13D0Ev:0000000000000000 _ZN3A13D0Ev
     /tmp/ccCnP6rB.s:1098   .text._ZN3A13D0Ev:0000000000000000 .L0 
     /tmp/ccCnP6rB.s:1100   .text._ZN3A13D0Ev:0000000000000000 .L0 
     /tmp/ccCnP6rB.s:1101   .text._ZN3A13D0Ev:0000000000000004 .L0 
     /tmp/ccCnP6rB.s:1105   .text._ZN3A13D0Ev:0000000000000010 .L0 
     /tmp/ccCnP6rB.s:1106   .text._ZN3A13D0Ev:0000000000000010 .L0 
     /tmp/ccCnP6rB.s:1107   .text._ZN3A13D0Ev:0000000000000010 .L0 
     /tmp/ccCnP6rB.s:1109   .text._ZN3A13D0Ev:0000000000000014 .L0 
     /tmp/ccCnP6rB.s:1115   .text._ZN3A13D0Ev:0000000000000018 .L0 
     /tmp/ccCnP6rB.s:1125   .text._ZN3A13D0Ev:000000000000003c .L0 
     /tmp/ccCnP6rB.s:1127   .text._ZN3A13D0Ev:0000000000000040 .L0 
     /tmp/ccCnP6rB.s:1128   .text._ZN3A13D0Ev:0000000000000040 .L0 
     /tmp/ccCnP6rB.s:1130   .text._ZN3A13D0Ev:0000000000000044 .L0 
     /tmp/ccCnP6rB.s:1133   .text._ZN3A13D0Ev:0000000000000048 .L0 
     /tmp/ccCnP6rB.s:1135   .text._ZN3A13D0Ev:000000000000004c .L0 
     /tmp/ccCnP6rB.s:1142   .text._ZN3B12D2Ev:0000000000000000 _ZN3B12D2Ev
     /tmp/ccCnP6rB.s:1145   .text._ZN3B12D2Ev:0000000000000000 .L0 
     /tmp/ccCnP6rB.s:1147   .text._ZN3B12D2Ev:0000000000000000 .L0 
     /tmp/ccCnP6rB.s:1148   .text._ZN3B12D2Ev:0000000000000004 .L0 
     /tmp/ccCnP6rB.s:1151   .text._ZN3B12D2Ev:000000000000000c .L0 
     /tmp/ccCnP6rB.s:1152   .text._ZN3B12D2Ev:000000000000000c .L0 
     /tmp/ccCnP6rB.s:1154   .text._ZN3B12D2Ev:0000000000000010 .L0 
     /tmp/ccCnP6rB.s:11004  .data.rel.ro.local._ZTV3B12:0000000000000000 _ZTV3B12
     /tmp/ccCnP6rB.s:1157   .text._ZN3B12D2Ev:0000000000000010 .L0 
     /tmp/ccCnP6rB.s:1163   .text._ZN3B12D2Ev:0000000000000028 .L0 
     /tmp/ccCnP6rB.s:1165   .text._ZN3B12D2Ev:000000000000002c .L0 
     /tmp/ccCnP6rB.s:1166   .text._ZN3B12D2Ev:000000000000002c .L0 
     /tmp/ccCnP6rB.s:1168   .text._ZN3B12D2Ev:0000000000000030 .L0 
     /tmp/ccCnP6rB.s:1170   .text._ZN3B12D2Ev:0000000000000034 .L0 
     /tmp/ccCnP6rB.s:1142   .text._ZN3B12D2Ev:0000000000000000 _ZN3B12D1Ev
     /tmp/ccCnP6rB.s:1179   .text._ZN3B12D0Ev:0000000000000000 _ZN3B12D0Ev
     /tmp/ccCnP6rB.s:1182   .text._ZN3B12D0Ev:0000000000000000 .L0 
     /tmp/ccCnP6rB.s:1184   .text._ZN3B12D0Ev:0000000000000000 .L0 
     /tmp/ccCnP6rB.s:1185   .text._ZN3B12D0Ev:0000000000000004 .L0 
     /tmp/ccCnP6rB.s:1189   .text._ZN3B12D0Ev:0000000000000010 .L0 
     /tmp/ccCnP6rB.s:1190   .text._ZN3B12D0Ev:0000000000000010 .L0 
     /tmp/ccCnP6rB.s:1191   .text._ZN3B12D0Ev:0000000000000010 .L0 
     /tmp/ccCnP6rB.s:1193   .text._ZN3B12D0Ev:0000000000000014 .L0 
     /tmp/ccCnP6rB.s:1199   .text._ZN3B12D0Ev:0000000000000018 .L0 
GAS LISTING /tmp/ccCnP6rB.s 			page 276


     /tmp/ccCnP6rB.s:1209   .text._ZN3B12D0Ev:000000000000003c .L0 
     /tmp/ccCnP6rB.s:1211   .text._ZN3B12D0Ev:0000000000000040 .L0 
     /tmp/ccCnP6rB.s:1212   .text._ZN3B12D0Ev:0000000000000040 .L0 
     /tmp/ccCnP6rB.s:1214   .text._ZN3B12D0Ev:0000000000000044 .L0 
     /tmp/ccCnP6rB.s:1217   .text._ZN3B12D0Ev:0000000000000048 .L0 
     /tmp/ccCnP6rB.s:1219   .text._ZN3B12D0Ev:000000000000004c .L0 
     /tmp/ccCnP6rB.s:1226   .text._ZN3A12D2Ev:0000000000000000 _ZN3A12D2Ev
     /tmp/ccCnP6rB.s:1229   .text._ZN3A12D2Ev:0000000000000000 .L0 
     /tmp/ccCnP6rB.s:1231   .text._ZN3A12D2Ev:0000000000000000 .L0 
     /tmp/ccCnP6rB.s:1232   .text._ZN3A12D2Ev:0000000000000004 .L0 
     /tmp/ccCnP6rB.s:1235   .text._ZN3A12D2Ev:000000000000000c .L0 
     /tmp/ccCnP6rB.s:1236   .text._ZN3A12D2Ev:000000000000000c .L0 
     /tmp/ccCnP6rB.s:1238   .text._ZN3A12D2Ev:0000000000000010 .L0 
     /tmp/ccCnP6rB.s:10993  .data.rel.ro.local._ZTV3A12:0000000000000000 _ZTV3A12
     /tmp/ccCnP6rB.s:1241   .text._ZN3A12D2Ev:0000000000000010 .L0 
     /tmp/ccCnP6rB.s:1247   .text._ZN3A12D2Ev:0000000000000028 .L0 
     /tmp/ccCnP6rB.s:1249   .text._ZN3A12D2Ev:000000000000002c .L0 
     /tmp/ccCnP6rB.s:1250   .text._ZN3A12D2Ev:000000000000002c .L0 
     /tmp/ccCnP6rB.s:1252   .text._ZN3A12D2Ev:0000000000000030 .L0 
     /tmp/ccCnP6rB.s:1254   .text._ZN3A12D2Ev:0000000000000034 .L0 
     /tmp/ccCnP6rB.s:1226   .text._ZN3A12D2Ev:0000000000000000 _ZN3A12D1Ev
     /tmp/ccCnP6rB.s:1263   .text._ZN3A12D0Ev:0000000000000000 _ZN3A12D0Ev
     /tmp/ccCnP6rB.s:1266   .text._ZN3A12D0Ev:0000000000000000 .L0 
     /tmp/ccCnP6rB.s:1268   .text._ZN3A12D0Ev:0000000000000000 .L0 
     /tmp/ccCnP6rB.s:1269   .text._ZN3A12D0Ev:0000000000000004 .L0 
     /tmp/ccCnP6rB.s:1273   .text._ZN3A12D0Ev:0000000000000010 .L0 
     /tmp/ccCnP6rB.s:1274   .text._ZN3A12D0Ev:0000000000000010 .L0 
     /tmp/ccCnP6rB.s:1275   .text._ZN3A12D0Ev:0000000000000010 .L0 
     /tmp/ccCnP6rB.s:1277   .text._ZN3A12D0Ev:0000000000000014 .L0 
     /tmp/ccCnP6rB.s:1283   .text._ZN3A12D0Ev:0000000000000018 .L0 
     /tmp/ccCnP6rB.s:1293   .text._ZN3A12D0Ev:000000000000003c .L0 
     /tmp/ccCnP6rB.s:1295   .text._ZN3A12D0Ev:0000000000000040 .L0 
     /tmp/ccCnP6rB.s:1296   .text._ZN3A12D0Ev:0000000000000040 .L0 
     /tmp/ccCnP6rB.s:1298   .text._ZN3A12D0Ev:0000000000000044 .L0 
     /tmp/ccCnP6rB.s:1301   .text._ZN3A12D0Ev:0000000000000048 .L0 
     /tmp/ccCnP6rB.s:1303   .text._ZN3A12D0Ev:000000000000004c .L0 
     /tmp/ccCnP6rB.s:1310   .text._ZN3A11D2Ev:0000000000000000 _ZN3A11D2Ev
     /tmp/ccCnP6rB.s:1313   .text._ZN3A11D2Ev:0000000000000000 .L0 
     /tmp/ccCnP6rB.s:1315   .text._ZN3A11D2Ev:0000000000000000 .L0 
     /tmp/ccCnP6rB.s:1316   .text._ZN3A11D2Ev:0000000000000004 .L0 
     /tmp/ccCnP6rB.s:1319   .text._ZN3A11D2Ev:000000000000000c .L0 
     /tmp/ccCnP6rB.s:1320   .text._ZN3A11D2Ev:000000000000000c .L0 
     /tmp/ccCnP6rB.s:1322   .text._ZN3A11D2Ev:0000000000000010 .L0 
     /tmp/ccCnP6rB.s:10982  .data.rel.ro.local._ZTV3A11:0000000000000000 _ZTV3A11
     /tmp/ccCnP6rB.s:1325   .text._ZN3A11D2Ev:0000000000000010 .L0 
     /tmp/ccCnP6rB.s:1331   .text._ZN3A11D2Ev:0000000000000028 .L0 
     /tmp/ccCnP6rB.s:1333   .text._ZN3A11D2Ev:000000000000002c .L0 
     /tmp/ccCnP6rB.s:1334   .text._ZN3A11D2Ev:000000000000002c .L0 
     /tmp/ccCnP6rB.s:1336   .text._ZN3A11D2Ev:0000000000000030 .L0 
     /tmp/ccCnP6rB.s:1338   .text._ZN3A11D2Ev:0000000000000034 .L0 
     /tmp/ccCnP6rB.s:1310   .text._ZN3A11D2Ev:0000000000000000 _ZN3A11D1Ev
     /tmp/ccCnP6rB.s:1347   .text._ZN3A11D0Ev:0000000000000000 _ZN3A11D0Ev
     /tmp/ccCnP6rB.s:1350   .text._ZN3A11D0Ev:0000000000000000 .L0 
     /tmp/ccCnP6rB.s:1352   .text._ZN3A11D0Ev:0000000000000000 .L0 
     /tmp/ccCnP6rB.s:1353   .text._ZN3A11D0Ev:0000000000000004 .L0 
     /tmp/ccCnP6rB.s:1357   .text._ZN3A11D0Ev:0000000000000010 .L0 
     /tmp/ccCnP6rB.s:1358   .text._ZN3A11D0Ev:0000000000000010 .L0 
GAS LISTING /tmp/ccCnP6rB.s 			page 277


     /tmp/ccCnP6rB.s:1359   .text._ZN3A11D0Ev:0000000000000010 .L0 
     /tmp/ccCnP6rB.s:1361   .text._ZN3A11D0Ev:0000000000000014 .L0 
     /tmp/ccCnP6rB.s:1367   .text._ZN3A11D0Ev:0000000000000018 .L0 
     /tmp/ccCnP6rB.s:1377   .text._ZN3A11D0Ev:000000000000003c .L0 
     /tmp/ccCnP6rB.s:1379   .text._ZN3A11D0Ev:0000000000000040 .L0 
     /tmp/ccCnP6rB.s:1380   .text._ZN3A11D0Ev:0000000000000040 .L0 
     /tmp/ccCnP6rB.s:1382   .text._ZN3A11D0Ev:0000000000000044 .L0 
     /tmp/ccCnP6rB.s:1385   .text._ZN3A11D0Ev:0000000000000048 .L0 
     /tmp/ccCnP6rB.s:1387   .text._ZN3A11D0Ev:000000000000004c .L0 
     /tmp/ccCnP6rB.s:1394   .text._ZN3A10D2Ev:0000000000000000 _ZN3A10D2Ev
     /tmp/ccCnP6rB.s:1397   .text._ZN3A10D2Ev:0000000000000000 .L0 
     /tmp/ccCnP6rB.s:1399   .text._ZN3A10D2Ev:0000000000000000 .L0 
     /tmp/ccCnP6rB.s:1400   .text._ZN3A10D2Ev:0000000000000004 .L0 
     /tmp/ccCnP6rB.s:1403   .text._ZN3A10D2Ev:000000000000000c .L0 
     /tmp/ccCnP6rB.s:1404   .text._ZN3A10D2Ev:000000000000000c .L0 
     /tmp/ccCnP6rB.s:1406   .text._ZN3A10D2Ev:0000000000000010 .L0 
     /tmp/ccCnP6rB.s:10971  .data.rel.ro.local._ZTV3A10:0000000000000000 _ZTV3A10
     /tmp/ccCnP6rB.s:1409   .text._ZN3A10D2Ev:0000000000000010 .L0 
     /tmp/ccCnP6rB.s:1415   .text._ZN3A10D2Ev:0000000000000028 .L0 
     /tmp/ccCnP6rB.s:1417   .text._ZN3A10D2Ev:000000000000002c .L0 
     /tmp/ccCnP6rB.s:1418   .text._ZN3A10D2Ev:000000000000002c .L0 
     /tmp/ccCnP6rB.s:1420   .text._ZN3A10D2Ev:0000000000000030 .L0 
     /tmp/ccCnP6rB.s:1422   .text._ZN3A10D2Ev:0000000000000034 .L0 
     /tmp/ccCnP6rB.s:1394   .text._ZN3A10D2Ev:0000000000000000 _ZN3A10D1Ev
     /tmp/ccCnP6rB.s:1431   .text._ZN3A10D0Ev:0000000000000000 _ZN3A10D0Ev
     /tmp/ccCnP6rB.s:1434   .text._ZN3A10D0Ev:0000000000000000 .L0 
     /tmp/ccCnP6rB.s:1436   .text._ZN3A10D0Ev:0000000000000000 .L0 
     /tmp/ccCnP6rB.s:1437   .text._ZN3A10D0Ev:0000000000000004 .L0 
     /tmp/ccCnP6rB.s:1441   .text._ZN3A10D0Ev:0000000000000010 .L0 
     /tmp/ccCnP6rB.s:1442   .text._ZN3A10D0Ev:0000000000000010 .L0 
     /tmp/ccCnP6rB.s:1443   .text._ZN3A10D0Ev:0000000000000010 .L0 
     /tmp/ccCnP6rB.s:1445   .text._ZN3A10D0Ev:0000000000000014 .L0 
     /tmp/ccCnP6rB.s:1451   .text._ZN3A10D0Ev:0000000000000018 .L0 
     /tmp/ccCnP6rB.s:1461   .text._ZN3A10D0Ev:000000000000003c .L0 
     /tmp/ccCnP6rB.s:1463   .text._ZN3A10D0Ev:0000000000000040 .L0 
     /tmp/ccCnP6rB.s:1464   .text._ZN3A10D0Ev:0000000000000040 .L0 
     /tmp/ccCnP6rB.s:1466   .text._ZN3A10D0Ev:0000000000000044 .L0 
     /tmp/ccCnP6rB.s:1469   .text._ZN3A10D0Ev:0000000000000048 .L0 
     /tmp/ccCnP6rB.s:1471   .text._ZN3A10D0Ev:000000000000004c .L0 
     /tmp/ccCnP6rB.s:1478   .text._ZN2A9D2Ev:0000000000000000 _ZN2A9D2Ev
     /tmp/ccCnP6rB.s:1481   .text._ZN2A9D2Ev:0000000000000000 .L0 
     /tmp/ccCnP6rB.s:1483   .text._ZN2A9D2Ev:0000000000000000 .L0 
     /tmp/ccCnP6rB.s:1484   .text._ZN2A9D2Ev:0000000000000004 .L0 
     /tmp/ccCnP6rB.s:1487   .text._ZN2A9D2Ev:000000000000000c .L0 
     /tmp/ccCnP6rB.s:1488   .text._ZN2A9D2Ev:000000000000000c .L0 
     /tmp/ccCnP6rB.s:1490   .text._ZN2A9D2Ev:0000000000000010 .L0 
     /tmp/ccCnP6rB.s:10960  .data.rel.ro.local._ZTV2A9:0000000000000000 _ZTV2A9
     /tmp/ccCnP6rB.s:1493   .text._ZN2A9D2Ev:0000000000000010 .L0 
     /tmp/ccCnP6rB.s:1499   .text._ZN2A9D2Ev:0000000000000028 .L0 
     /tmp/ccCnP6rB.s:1501   .text._ZN2A9D2Ev:000000000000002c .L0 
     /tmp/ccCnP6rB.s:1502   .text._ZN2A9D2Ev:000000000000002c .L0 
     /tmp/ccCnP6rB.s:1504   .text._ZN2A9D2Ev:0000000000000030 .L0 
     /tmp/ccCnP6rB.s:1506   .text._ZN2A9D2Ev:0000000000000034 .L0 
     /tmp/ccCnP6rB.s:1478   .text._ZN2A9D2Ev:0000000000000000 _ZN2A9D1Ev
     /tmp/ccCnP6rB.s:1515   .text._ZN2A9D0Ev:0000000000000000 _ZN2A9D0Ev
     /tmp/ccCnP6rB.s:1518   .text._ZN2A9D0Ev:0000000000000000 .L0 
     /tmp/ccCnP6rB.s:1520   .text._ZN2A9D0Ev:0000000000000000 .L0 
GAS LISTING /tmp/ccCnP6rB.s 			page 278


     /tmp/ccCnP6rB.s:1521   .text._ZN2A9D0Ev:0000000000000004 .L0 
     /tmp/ccCnP6rB.s:1525   .text._ZN2A9D0Ev:0000000000000010 .L0 
     /tmp/ccCnP6rB.s:1526   .text._ZN2A9D0Ev:0000000000000010 .L0 
     /tmp/ccCnP6rB.s:1527   .text._ZN2A9D0Ev:0000000000000010 .L0 
     /tmp/ccCnP6rB.s:1529   .text._ZN2A9D0Ev:0000000000000014 .L0 
     /tmp/ccCnP6rB.s:1535   .text._ZN2A9D0Ev:0000000000000018 .L0 
     /tmp/ccCnP6rB.s:1545   .text._ZN2A9D0Ev:000000000000003c .L0 
     /tmp/ccCnP6rB.s:1547   .text._ZN2A9D0Ev:0000000000000040 .L0 
     /tmp/ccCnP6rB.s:1548   .text._ZN2A9D0Ev:0000000000000040 .L0 
     /tmp/ccCnP6rB.s:1550   .text._ZN2A9D0Ev:0000000000000044 .L0 
     /tmp/ccCnP6rB.s:1553   .text._ZN2A9D0Ev:0000000000000048 .L0 
     /tmp/ccCnP6rB.s:1555   .text._ZN2A9D0Ev:000000000000004c .L0 
     /tmp/ccCnP6rB.s:1562   .text._ZN2A8D2Ev:0000000000000000 _ZN2A8D2Ev
     /tmp/ccCnP6rB.s:1565   .text._ZN2A8D2Ev:0000000000000000 .L0 
     /tmp/ccCnP6rB.s:1567   .text._ZN2A8D2Ev:0000000000000000 .L0 
     /tmp/ccCnP6rB.s:1568   .text._ZN2A8D2Ev:0000000000000004 .L0 
     /tmp/ccCnP6rB.s:1571   .text._ZN2A8D2Ev:000000000000000c .L0 
     /tmp/ccCnP6rB.s:1572   .text._ZN2A8D2Ev:000000000000000c .L0 
     /tmp/ccCnP6rB.s:1574   .text._ZN2A8D2Ev:0000000000000010 .L0 
     /tmp/ccCnP6rB.s:10949  .data.rel.ro.local._ZTV2A8:0000000000000000 _ZTV2A8
     /tmp/ccCnP6rB.s:1577   .text._ZN2A8D2Ev:0000000000000010 .L0 
     /tmp/ccCnP6rB.s:1583   .text._ZN2A8D2Ev:0000000000000028 .L0 
     /tmp/ccCnP6rB.s:1585   .text._ZN2A8D2Ev:000000000000002c .L0 
     /tmp/ccCnP6rB.s:1586   .text._ZN2A8D2Ev:000000000000002c .L0 
     /tmp/ccCnP6rB.s:1588   .text._ZN2A8D2Ev:0000000000000030 .L0 
     /tmp/ccCnP6rB.s:1590   .text._ZN2A8D2Ev:0000000000000034 .L0 
     /tmp/ccCnP6rB.s:1562   .text._ZN2A8D2Ev:0000000000000000 _ZN2A8D1Ev
     /tmp/ccCnP6rB.s:1599   .text._ZN2A8D0Ev:0000000000000000 _ZN2A8D0Ev
     /tmp/ccCnP6rB.s:1602   .text._ZN2A8D0Ev:0000000000000000 .L0 
     /tmp/ccCnP6rB.s:1604   .text._ZN2A8D0Ev:0000000000000000 .L0 
     /tmp/ccCnP6rB.s:1605   .text._ZN2A8D0Ev:0000000000000004 .L0 
     /tmp/ccCnP6rB.s:1609   .text._ZN2A8D0Ev:0000000000000010 .L0 
     /tmp/ccCnP6rB.s:1610   .text._ZN2A8D0Ev:0000000000000010 .L0 
     /tmp/ccCnP6rB.s:1611   .text._ZN2A8D0Ev:0000000000000010 .L0 
     /tmp/ccCnP6rB.s:1613   .text._ZN2A8D0Ev:0000000000000014 .L0 
     /tmp/ccCnP6rB.s:1619   .text._ZN2A8D0Ev:0000000000000018 .L0 
     /tmp/ccCnP6rB.s:1629   .text._ZN2A8D0Ev:000000000000003c .L0 
     /tmp/ccCnP6rB.s:1631   .text._ZN2A8D0Ev:0000000000000040 .L0 
     /tmp/ccCnP6rB.s:1632   .text._ZN2A8D0Ev:0000000000000040 .L0 
     /tmp/ccCnP6rB.s:1634   .text._ZN2A8D0Ev:0000000000000044 .L0 
     /tmp/ccCnP6rB.s:1637   .text._ZN2A8D0Ev:0000000000000048 .L0 
     /tmp/ccCnP6rB.s:1639   .text._ZN2A8D0Ev:000000000000004c .L0 
     /tmp/ccCnP6rB.s:1646   .text._ZN2A5D2Ev:0000000000000000 _ZN2A5D2Ev
     /tmp/ccCnP6rB.s:1649   .text._ZN2A5D2Ev:0000000000000000 .L0 
     /tmp/ccCnP6rB.s:1651   .text._ZN2A5D2Ev:0000000000000000 .L0 
     /tmp/ccCnP6rB.s:1652   .text._ZN2A5D2Ev:0000000000000004 .L0 
     /tmp/ccCnP6rB.s:1655   .text._ZN2A5D2Ev:000000000000000c .L0 
     /tmp/ccCnP6rB.s:1656   .text._ZN2A5D2Ev:000000000000000c .L0 
     /tmp/ccCnP6rB.s:1658   .text._ZN2A5D2Ev:0000000000000010 .L0 
     /tmp/ccCnP6rB.s:10916  .data.rel.ro.local._ZTV2A5:0000000000000000 _ZTV2A5
     /tmp/ccCnP6rB.s:1661   .text._ZN2A5D2Ev:0000000000000010 .L0 
     /tmp/ccCnP6rB.s:1667   .text._ZN2A5D2Ev:0000000000000028 .L0 
     /tmp/ccCnP6rB.s:1669   .text._ZN2A5D2Ev:000000000000002c .L0 
     /tmp/ccCnP6rB.s:1670   .text._ZN2A5D2Ev:000000000000002c .L0 
     /tmp/ccCnP6rB.s:1672   .text._ZN2A5D2Ev:0000000000000030 .L0 
     /tmp/ccCnP6rB.s:1674   .text._ZN2A5D2Ev:0000000000000034 .L0 
     /tmp/ccCnP6rB.s:1646   .text._ZN2A5D2Ev:0000000000000000 _ZN2A5D1Ev
GAS LISTING /tmp/ccCnP6rB.s 			page 279


     /tmp/ccCnP6rB.s:1683   .text._ZN2A5D0Ev:0000000000000000 _ZN2A5D0Ev
     /tmp/ccCnP6rB.s:1686   .text._ZN2A5D0Ev:0000000000000000 .L0 
     /tmp/ccCnP6rB.s:1688   .text._ZN2A5D0Ev:0000000000000000 .L0 
     /tmp/ccCnP6rB.s:1689   .text._ZN2A5D0Ev:0000000000000004 .L0 
     /tmp/ccCnP6rB.s:1693   .text._ZN2A5D0Ev:0000000000000010 .L0 
     /tmp/ccCnP6rB.s:1694   .text._ZN2A5D0Ev:0000000000000010 .L0 
     /tmp/ccCnP6rB.s:1695   .text._ZN2A5D0Ev:0000000000000010 .L0 
     /tmp/ccCnP6rB.s:1697   .text._ZN2A5D0Ev:0000000000000014 .L0 
     /tmp/ccCnP6rB.s:1703   .text._ZN2A5D0Ev:0000000000000018 .L0 
     /tmp/ccCnP6rB.s:1713   .text._ZN2A5D0Ev:000000000000003c .L0 
     /tmp/ccCnP6rB.s:1715   .text._ZN2A5D0Ev:0000000000000040 .L0 
     /tmp/ccCnP6rB.s:1716   .text._ZN2A5D0Ev:0000000000000040 .L0 
     /tmp/ccCnP6rB.s:1718   .text._ZN2A5D0Ev:0000000000000044 .L0 
     /tmp/ccCnP6rB.s:1721   .text._ZN2A5D0Ev:0000000000000048 .L0 
     /tmp/ccCnP6rB.s:1723   .text._ZN2A5D0Ev:000000000000004c .L0 
     /tmp/ccCnP6rB.s:1730   .text._ZN2C4D2Ev:0000000000000000 _ZN2C4D2Ev
     /tmp/ccCnP6rB.s:1733   .text._ZN2C4D2Ev:0000000000000000 .L0 
     /tmp/ccCnP6rB.s:1735   .text._ZN2C4D2Ev:0000000000000000 .L0 
     /tmp/ccCnP6rB.s:1736   .text._ZN2C4D2Ev:0000000000000004 .L0 
     /tmp/ccCnP6rB.s:1739   .text._ZN2C4D2Ev:000000000000000c .L0 
     /tmp/ccCnP6rB.s:1740   .text._ZN2C4D2Ev:000000000000000c .L0 
     /tmp/ccCnP6rB.s:1742   .text._ZN2C4D2Ev:0000000000000010 .L0 
     /tmp/ccCnP6rB.s:10905  .data.rel.ro.local._ZTV2C4:0000000000000000 _ZTV2C4
     /tmp/ccCnP6rB.s:1745   .text._ZN2C4D2Ev:0000000000000010 .L0 
     /tmp/ccCnP6rB.s:1751   .text._ZN2C4D2Ev:0000000000000028 .L0 
     /tmp/ccCnP6rB.s:1753   .text._ZN2C4D2Ev:000000000000002c .L0 
     /tmp/ccCnP6rB.s:1754   .text._ZN2C4D2Ev:000000000000002c .L0 
     /tmp/ccCnP6rB.s:1756   .text._ZN2C4D2Ev:0000000000000030 .L0 
     /tmp/ccCnP6rB.s:1758   .text._ZN2C4D2Ev:0000000000000034 .L0 
     /tmp/ccCnP6rB.s:1730   .text._ZN2C4D2Ev:0000000000000000 _ZN2C4D1Ev
     /tmp/ccCnP6rB.s:1767   .text._ZN2C4D0Ev:0000000000000000 _ZN2C4D0Ev
     /tmp/ccCnP6rB.s:1770   .text._ZN2C4D0Ev:0000000000000000 .L0 
     /tmp/ccCnP6rB.s:1772   .text._ZN2C4D0Ev:0000000000000000 .L0 
     /tmp/ccCnP6rB.s:1773   .text._ZN2C4D0Ev:0000000000000004 .L0 
     /tmp/ccCnP6rB.s:1777   .text._ZN2C4D0Ev:0000000000000010 .L0 
     /tmp/ccCnP6rB.s:1778   .text._ZN2C4D0Ev:0000000000000010 .L0 
     /tmp/ccCnP6rB.s:1779   .text._ZN2C4D0Ev:0000000000000010 .L0 
     /tmp/ccCnP6rB.s:1781   .text._ZN2C4D0Ev:0000000000000014 .L0 
     /tmp/ccCnP6rB.s:1787   .text._ZN2C4D0Ev:0000000000000018 .L0 
     /tmp/ccCnP6rB.s:1797   .text._ZN2C4D0Ev:000000000000003c .L0 
     /tmp/ccCnP6rB.s:1799   .text._ZN2C4D0Ev:0000000000000040 .L0 
     /tmp/ccCnP6rB.s:1800   .text._ZN2C4D0Ev:0000000000000040 .L0 
     /tmp/ccCnP6rB.s:1802   .text._ZN2C4D0Ev:0000000000000044 .L0 
     /tmp/ccCnP6rB.s:1805   .text._ZN2C4D0Ev:0000000000000048 .L0 
     /tmp/ccCnP6rB.s:1807   .text._ZN2C4D0Ev:000000000000004c .L0 
     /tmp/ccCnP6rB.s:1814   .text._ZN2B4D2Ev:0000000000000000 _ZN2B4D2Ev
     /tmp/ccCnP6rB.s:1817   .text._ZN2B4D2Ev:0000000000000000 .L0 
     /tmp/ccCnP6rB.s:1819   .text._ZN2B4D2Ev:0000000000000000 .L0 
     /tmp/ccCnP6rB.s:1820   .text._ZN2B4D2Ev:0000000000000004 .L0 
     /tmp/ccCnP6rB.s:1823   .text._ZN2B4D2Ev:000000000000000c .L0 
     /tmp/ccCnP6rB.s:1824   .text._ZN2B4D2Ev:000000000000000c .L0 
     /tmp/ccCnP6rB.s:1826   .text._ZN2B4D2Ev:0000000000000010 .L0 
     /tmp/ccCnP6rB.s:10894  .data.rel.ro.local._ZTV2B4:0000000000000000 _ZTV2B4
     /tmp/ccCnP6rB.s:1829   .text._ZN2B4D2Ev:0000000000000010 .L0 
     /tmp/ccCnP6rB.s:1835   .text._ZN2B4D2Ev:0000000000000028 .L0 
     /tmp/ccCnP6rB.s:1837   .text._ZN2B4D2Ev:000000000000002c .L0 
     /tmp/ccCnP6rB.s:1838   .text._ZN2B4D2Ev:000000000000002c .L0 
GAS LISTING /tmp/ccCnP6rB.s 			page 280


     /tmp/ccCnP6rB.s:1840   .text._ZN2B4D2Ev:0000000000000030 .L0 
     /tmp/ccCnP6rB.s:1842   .text._ZN2B4D2Ev:0000000000000034 .L0 
     /tmp/ccCnP6rB.s:1814   .text._ZN2B4D2Ev:0000000000000000 _ZN2B4D1Ev
     /tmp/ccCnP6rB.s:1851   .text._ZN2B4D0Ev:0000000000000000 _ZN2B4D0Ev
     /tmp/ccCnP6rB.s:1854   .text._ZN2B4D0Ev:0000000000000000 .L0 
     /tmp/ccCnP6rB.s:1856   .text._ZN2B4D0Ev:0000000000000000 .L0 
     /tmp/ccCnP6rB.s:1857   .text._ZN2B4D0Ev:0000000000000004 .L0 
     /tmp/ccCnP6rB.s:1861   .text._ZN2B4D0Ev:0000000000000010 .L0 
     /tmp/ccCnP6rB.s:1862   .text._ZN2B4D0Ev:0000000000000010 .L0 
     /tmp/ccCnP6rB.s:1863   .text._ZN2B4D0Ev:0000000000000010 .L0 
     /tmp/ccCnP6rB.s:1865   .text._ZN2B4D0Ev:0000000000000014 .L0 
     /tmp/ccCnP6rB.s:1871   .text._ZN2B4D0Ev:0000000000000018 .L0 
     /tmp/ccCnP6rB.s:1881   .text._ZN2B4D0Ev:000000000000003c .L0 
     /tmp/ccCnP6rB.s:1883   .text._ZN2B4D0Ev:0000000000000040 .L0 
     /tmp/ccCnP6rB.s:1884   .text._ZN2B4D0Ev:0000000000000040 .L0 
     /tmp/ccCnP6rB.s:1886   .text._ZN2B4D0Ev:0000000000000044 .L0 
     /tmp/ccCnP6rB.s:1889   .text._ZN2B4D0Ev:0000000000000048 .L0 
     /tmp/ccCnP6rB.s:1891   .text._ZN2B4D0Ev:000000000000004c .L0 
     /tmp/ccCnP6rB.s:1898   .text._ZN2A4D2Ev:0000000000000000 _ZN2A4D2Ev
     /tmp/ccCnP6rB.s:1901   .text._ZN2A4D2Ev:0000000000000000 .L0 
     /tmp/ccCnP6rB.s:1903   .text._ZN2A4D2Ev:0000000000000000 .L0 
     /tmp/ccCnP6rB.s:1904   .text._ZN2A4D2Ev:0000000000000004 .L0 
     /tmp/ccCnP6rB.s:1907   .text._ZN2A4D2Ev:000000000000000c .L0 
     /tmp/ccCnP6rB.s:1908   .text._ZN2A4D2Ev:000000000000000c .L0 
     /tmp/ccCnP6rB.s:1910   .text._ZN2A4D2Ev:0000000000000010 .L0 
     /tmp/ccCnP6rB.s:10883  .data.rel.ro.local._ZTV2A4:0000000000000000 _ZTV2A4
     /tmp/ccCnP6rB.s:1913   .text._ZN2A4D2Ev:0000000000000010 .L0 
     /tmp/ccCnP6rB.s:1919   .text._ZN2A4D2Ev:0000000000000028 .L0 
     /tmp/ccCnP6rB.s:1921   .text._ZN2A4D2Ev:000000000000002c .L0 
     /tmp/ccCnP6rB.s:1922   .text._ZN2A4D2Ev:000000000000002c .L0 
     /tmp/ccCnP6rB.s:1924   .text._ZN2A4D2Ev:0000000000000030 .L0 
     /tmp/ccCnP6rB.s:1926   .text._ZN2A4D2Ev:0000000000000034 .L0 
     /tmp/ccCnP6rB.s:1898   .text._ZN2A4D2Ev:0000000000000000 _ZN2A4D1Ev
     /tmp/ccCnP6rB.s:1935   .text._ZN2A4D0Ev:0000000000000000 _ZN2A4D0Ev
     /tmp/ccCnP6rB.s:1938   .text._ZN2A4D0Ev:0000000000000000 .L0 
     /tmp/ccCnP6rB.s:1940   .text._ZN2A4D0Ev:0000000000000000 .L0 
     /tmp/ccCnP6rB.s:1941   .text._ZN2A4D0Ev:0000000000000004 .L0 
     /tmp/ccCnP6rB.s:1945   .text._ZN2A4D0Ev:0000000000000010 .L0 
     /tmp/ccCnP6rB.s:1946   .text._ZN2A4D0Ev:0000000000000010 .L0 
     /tmp/ccCnP6rB.s:1947   .text._ZN2A4D0Ev:0000000000000010 .L0 
     /tmp/ccCnP6rB.s:1949   .text._ZN2A4D0Ev:0000000000000014 .L0 
     /tmp/ccCnP6rB.s:1955   .text._ZN2A4D0Ev:0000000000000018 .L0 
     /tmp/ccCnP6rB.s:1965   .text._ZN2A4D0Ev:000000000000003c .L0 
     /tmp/ccCnP6rB.s:1967   .text._ZN2A4D0Ev:0000000000000040 .L0 
     /tmp/ccCnP6rB.s:1968   .text._ZN2A4D0Ev:0000000000000040 .L0 
     /tmp/ccCnP6rB.s:1970   .text._ZN2A4D0Ev:0000000000000044 .L0 
     /tmp/ccCnP6rB.s:1973   .text._ZN2A4D0Ev:0000000000000048 .L0 
     /tmp/ccCnP6rB.s:1975   .text._ZN2A4D0Ev:000000000000004c .L0 
     /tmp/ccCnP6rB.s:1982   .text._ZN2C3D2Ev:0000000000000000 _ZN2C3D2Ev
     /tmp/ccCnP6rB.s:1985   .text._ZN2C3D2Ev:0000000000000000 .L0 
     /tmp/ccCnP6rB.s:1987   .text._ZN2C3D2Ev:0000000000000000 .L0 
     /tmp/ccCnP6rB.s:1988   .text._ZN2C3D2Ev:0000000000000004 .L0 
     /tmp/ccCnP6rB.s:1991   .text._ZN2C3D2Ev:000000000000000c .L0 
     /tmp/ccCnP6rB.s:1992   .text._ZN2C3D2Ev:000000000000000c .L0 
     /tmp/ccCnP6rB.s:1994   .text._ZN2C3D2Ev:0000000000000010 .L0 
     /tmp/ccCnP6rB.s:10872  .data.rel.ro.local._ZTV2C3:0000000000000000 _ZTV2C3
     /tmp/ccCnP6rB.s:1997   .text._ZN2C3D2Ev:0000000000000010 .L0 
GAS LISTING /tmp/ccCnP6rB.s 			page 281


     /tmp/ccCnP6rB.s:2003   .text._ZN2C3D2Ev:0000000000000028 .L0 
     /tmp/ccCnP6rB.s:2005   .text._ZN2C3D2Ev:000000000000002c .L0 
     /tmp/ccCnP6rB.s:2006   .text._ZN2C3D2Ev:000000000000002c .L0 
     /tmp/ccCnP6rB.s:2008   .text._ZN2C3D2Ev:0000000000000030 .L0 
     /tmp/ccCnP6rB.s:2010   .text._ZN2C3D2Ev:0000000000000034 .L0 
     /tmp/ccCnP6rB.s:1982   .text._ZN2C3D2Ev:0000000000000000 _ZN2C3D1Ev
     /tmp/ccCnP6rB.s:2019   .text._ZN2C3D0Ev:0000000000000000 _ZN2C3D0Ev
     /tmp/ccCnP6rB.s:2022   .text._ZN2C3D0Ev:0000000000000000 .L0 
     /tmp/ccCnP6rB.s:2024   .text._ZN2C3D0Ev:0000000000000000 .L0 
     /tmp/ccCnP6rB.s:2025   .text._ZN2C3D0Ev:0000000000000004 .L0 
     /tmp/ccCnP6rB.s:2029   .text._ZN2C3D0Ev:0000000000000010 .L0 
     /tmp/ccCnP6rB.s:2030   .text._ZN2C3D0Ev:0000000000000010 .L0 
     /tmp/ccCnP6rB.s:2031   .text._ZN2C3D0Ev:0000000000000010 .L0 
     /tmp/ccCnP6rB.s:2033   .text._ZN2C3D0Ev:0000000000000014 .L0 
     /tmp/ccCnP6rB.s:2039   .text._ZN2C3D0Ev:0000000000000018 .L0 
     /tmp/ccCnP6rB.s:2049   .text._ZN2C3D0Ev:000000000000003c .L0 
     /tmp/ccCnP6rB.s:2051   .text._ZN2C3D0Ev:0000000000000040 .L0 
     /tmp/ccCnP6rB.s:2052   .text._ZN2C3D0Ev:0000000000000040 .L0 
     /tmp/ccCnP6rB.s:2054   .text._ZN2C3D0Ev:0000000000000044 .L0 
     /tmp/ccCnP6rB.s:2057   .text._ZN2C3D0Ev:0000000000000048 .L0 
     /tmp/ccCnP6rB.s:2059   .text._ZN2C3D0Ev:000000000000004c .L0 
     /tmp/ccCnP6rB.s:2066   .text._ZN2B3D2Ev:0000000000000000 _ZN2B3D2Ev
     /tmp/ccCnP6rB.s:2069   .text._ZN2B3D2Ev:0000000000000000 .L0 
     /tmp/ccCnP6rB.s:2071   .text._ZN2B3D2Ev:0000000000000000 .L0 
     /tmp/ccCnP6rB.s:2072   .text._ZN2B3D2Ev:0000000000000004 .L0 
     /tmp/ccCnP6rB.s:2075   .text._ZN2B3D2Ev:000000000000000c .L0 
     /tmp/ccCnP6rB.s:2076   .text._ZN2B3D2Ev:000000000000000c .L0 
     /tmp/ccCnP6rB.s:2078   .text._ZN2B3D2Ev:0000000000000010 .L0 
     /tmp/ccCnP6rB.s:10861  .data.rel.ro.local._ZTV2B3:0000000000000000 _ZTV2B3
     /tmp/ccCnP6rB.s:2081   .text._ZN2B3D2Ev:0000000000000010 .L0 
     /tmp/ccCnP6rB.s:2087   .text._ZN2B3D2Ev:0000000000000028 .L0 
     /tmp/ccCnP6rB.s:2089   .text._ZN2B3D2Ev:000000000000002c .L0 
     /tmp/ccCnP6rB.s:2090   .text._ZN2B3D2Ev:000000000000002c .L0 
     /tmp/ccCnP6rB.s:2092   .text._ZN2B3D2Ev:0000000000000030 .L0 
     /tmp/ccCnP6rB.s:2094   .text._ZN2B3D2Ev:0000000000000034 .L0 
     /tmp/ccCnP6rB.s:2066   .text._ZN2B3D2Ev:0000000000000000 _ZN2B3D1Ev
     /tmp/ccCnP6rB.s:2103   .text._ZN2B3D0Ev:0000000000000000 _ZN2B3D0Ev
     /tmp/ccCnP6rB.s:2106   .text._ZN2B3D0Ev:0000000000000000 .L0 
     /tmp/ccCnP6rB.s:2108   .text._ZN2B3D0Ev:0000000000000000 .L0 
     /tmp/ccCnP6rB.s:2109   .text._ZN2B3D0Ev:0000000000000004 .L0 
     /tmp/ccCnP6rB.s:2113   .text._ZN2B3D0Ev:0000000000000010 .L0 
     /tmp/ccCnP6rB.s:2114   .text._ZN2B3D0Ev:0000000000000010 .L0 
     /tmp/ccCnP6rB.s:2115   .text._ZN2B3D0Ev:0000000000000010 .L0 
     /tmp/ccCnP6rB.s:2117   .text._ZN2B3D0Ev:0000000000000014 .L0 
     /tmp/ccCnP6rB.s:2123   .text._ZN2B3D0Ev:0000000000000018 .L0 
     /tmp/ccCnP6rB.s:2133   .text._ZN2B3D0Ev:000000000000003c .L0 
     /tmp/ccCnP6rB.s:2135   .text._ZN2B3D0Ev:0000000000000040 .L0 
     /tmp/ccCnP6rB.s:2136   .text._ZN2B3D0Ev:0000000000000040 .L0 
     /tmp/ccCnP6rB.s:2138   .text._ZN2B3D0Ev:0000000000000044 .L0 
     /tmp/ccCnP6rB.s:2141   .text._ZN2B3D0Ev:0000000000000048 .L0 
     /tmp/ccCnP6rB.s:2143   .text._ZN2B3D0Ev:000000000000004c .L0 
     /tmp/ccCnP6rB.s:2150   .text._ZN2A3D2Ev:0000000000000000 _ZN2A3D2Ev
     /tmp/ccCnP6rB.s:2153   .text._ZN2A3D2Ev:0000000000000000 .L0 
     /tmp/ccCnP6rB.s:2155   .text._ZN2A3D2Ev:0000000000000000 .L0 
     /tmp/ccCnP6rB.s:2156   .text._ZN2A3D2Ev:0000000000000004 .L0 
     /tmp/ccCnP6rB.s:2159   .text._ZN2A3D2Ev:000000000000000c .L0 
     /tmp/ccCnP6rB.s:2160   .text._ZN2A3D2Ev:000000000000000c .L0 
GAS LISTING /tmp/ccCnP6rB.s 			page 282


     /tmp/ccCnP6rB.s:2162   .text._ZN2A3D2Ev:0000000000000010 .L0 
     /tmp/ccCnP6rB.s:10850  .data.rel.ro.local._ZTV2A3:0000000000000000 _ZTV2A3
     /tmp/ccCnP6rB.s:2165   .text._ZN2A3D2Ev:0000000000000010 .L0 
     /tmp/ccCnP6rB.s:2171   .text._ZN2A3D2Ev:0000000000000028 .L0 
     /tmp/ccCnP6rB.s:2173   .text._ZN2A3D2Ev:000000000000002c .L0 
     /tmp/ccCnP6rB.s:2174   .text._ZN2A3D2Ev:000000000000002c .L0 
     /tmp/ccCnP6rB.s:2176   .text._ZN2A3D2Ev:0000000000000030 .L0 
     /tmp/ccCnP6rB.s:2178   .text._ZN2A3D2Ev:0000000000000034 .L0 
     /tmp/ccCnP6rB.s:2150   .text._ZN2A3D2Ev:0000000000000000 _ZN2A3D1Ev
     /tmp/ccCnP6rB.s:2187   .text._ZN2A3D0Ev:0000000000000000 _ZN2A3D0Ev
     /tmp/ccCnP6rB.s:2190   .text._ZN2A3D0Ev:0000000000000000 .L0 
     /tmp/ccCnP6rB.s:2192   .text._ZN2A3D0Ev:0000000000000000 .L0 
     /tmp/ccCnP6rB.s:2193   .text._ZN2A3D0Ev:0000000000000004 .L0 
     /tmp/ccCnP6rB.s:2197   .text._ZN2A3D0Ev:0000000000000010 .L0 
     /tmp/ccCnP6rB.s:2198   .text._ZN2A3D0Ev:0000000000000010 .L0 
     /tmp/ccCnP6rB.s:2199   .text._ZN2A3D0Ev:0000000000000010 .L0 
     /tmp/ccCnP6rB.s:2201   .text._ZN2A3D0Ev:0000000000000014 .L0 
     /tmp/ccCnP6rB.s:2207   .text._ZN2A3D0Ev:0000000000000018 .L0 
     /tmp/ccCnP6rB.s:2217   .text._ZN2A3D0Ev:000000000000003c .L0 
     /tmp/ccCnP6rB.s:2219   .text._ZN2A3D0Ev:0000000000000040 .L0 
     /tmp/ccCnP6rB.s:2220   .text._ZN2A3D0Ev:0000000000000040 .L0 
     /tmp/ccCnP6rB.s:2222   .text._ZN2A3D0Ev:0000000000000044 .L0 
     /tmp/ccCnP6rB.s:2225   .text._ZN2A3D0Ev:0000000000000048 .L0 
     /tmp/ccCnP6rB.s:2227   .text._ZN2A3D0Ev:000000000000004c .L0 
     /tmp/ccCnP6rB.s:2234   .text._ZN2A6D2Ev:0000000000000000 _ZN2A6D2Ev
     /tmp/ccCnP6rB.s:2237   .text._ZN2A6D2Ev:0000000000000000 .L0 
     /tmp/ccCnP6rB.s:2239   .text._ZN2A6D2Ev:0000000000000000 .L0 
     /tmp/ccCnP6rB.s:2240   .text._ZN2A6D2Ev:0000000000000004 .L0 
     /tmp/ccCnP6rB.s:2243   .text._ZN2A6D2Ev:000000000000000c .L0 
     /tmp/ccCnP6rB.s:2244   .text._ZN2A6D2Ev:000000000000000c .L0 
     /tmp/ccCnP6rB.s:2246   .text._ZN2A6D2Ev:0000000000000010 .L0 
     /tmp/ccCnP6rB.s:10839  .data.rel.ro.local._ZTV2A6:0000000000000000 _ZTV2A6
     /tmp/ccCnP6rB.s:2249   .text._ZN2A6D2Ev:0000000000000010 .L0 
     /tmp/ccCnP6rB.s:2255   .text._ZN2A6D2Ev:0000000000000028 .L0 
     /tmp/ccCnP6rB.s:2257   .text._ZN2A6D2Ev:000000000000002c .L0 
     /tmp/ccCnP6rB.s:2258   .text._ZN2A6D2Ev:000000000000002c .L0 
     /tmp/ccCnP6rB.s:2260   .text._ZN2A6D2Ev:0000000000000030 .L0 
     /tmp/ccCnP6rB.s:2262   .text._ZN2A6D2Ev:0000000000000034 .L0 
     /tmp/ccCnP6rB.s:2234   .text._ZN2A6D2Ev:0000000000000000 _ZN2A6D1Ev
     /tmp/ccCnP6rB.s:2271   .text._ZN2A6D0Ev:0000000000000000 _ZN2A6D0Ev
     /tmp/ccCnP6rB.s:2274   .text._ZN2A6D0Ev:0000000000000000 .L0 
     /tmp/ccCnP6rB.s:2276   .text._ZN2A6D0Ev:0000000000000000 .L0 
     /tmp/ccCnP6rB.s:2277   .text._ZN2A6D0Ev:0000000000000004 .L0 
     /tmp/ccCnP6rB.s:2281   .text._ZN2A6D0Ev:0000000000000010 .L0 
     /tmp/ccCnP6rB.s:2282   .text._ZN2A6D0Ev:0000000000000010 .L0 
     /tmp/ccCnP6rB.s:2283   .text._ZN2A6D0Ev:0000000000000010 .L0 
     /tmp/ccCnP6rB.s:2285   .text._ZN2A6D0Ev:0000000000000014 .L0 
     /tmp/ccCnP6rB.s:2291   .text._ZN2A6D0Ev:0000000000000018 .L0 
     /tmp/ccCnP6rB.s:2301   .text._ZN2A6D0Ev:000000000000003c .L0 
     /tmp/ccCnP6rB.s:2303   .text._ZN2A6D0Ev:0000000000000040 .L0 
     /tmp/ccCnP6rB.s:2304   .text._ZN2A6D0Ev:0000000000000040 .L0 
     /tmp/ccCnP6rB.s:2306   .text._ZN2A6D0Ev:0000000000000044 .L0 
     /tmp/ccCnP6rB.s:2309   .text._ZN2A6D0Ev:0000000000000048 .L0 
     /tmp/ccCnP6rB.s:2311   .text._ZN2A6D0Ev:000000000000004c .L0 
     /tmp/ccCnP6rB.s:2318   .text._ZN2A2D2Ev:0000000000000000 _ZN2A2D2Ev
     /tmp/ccCnP6rB.s:2321   .text._ZN2A2D2Ev:0000000000000000 .L0 
     /tmp/ccCnP6rB.s:2323   .text._ZN2A2D2Ev:0000000000000000 .L0 
GAS LISTING /tmp/ccCnP6rB.s 			page 283


     /tmp/ccCnP6rB.s:2324   .text._ZN2A2D2Ev:0000000000000004 .L0 
     /tmp/ccCnP6rB.s:2327   .text._ZN2A2D2Ev:000000000000000c .L0 
     /tmp/ccCnP6rB.s:2328   .text._ZN2A2D2Ev:000000000000000c .L0 
     /tmp/ccCnP6rB.s:2330   .text._ZN2A2D2Ev:0000000000000010 .L0 
     /tmp/ccCnP6rB.s:10828  .data.rel.ro.local._ZTV2A2:0000000000000000 _ZTV2A2
     /tmp/ccCnP6rB.s:2333   .text._ZN2A2D2Ev:0000000000000010 .L0 
     /tmp/ccCnP6rB.s:2339   .text._ZN2A2D2Ev:0000000000000028 .L0 
     /tmp/ccCnP6rB.s:2341   .text._ZN2A2D2Ev:000000000000002c .L0 
     /tmp/ccCnP6rB.s:2342   .text._ZN2A2D2Ev:000000000000002c .L0 
     /tmp/ccCnP6rB.s:2344   .text._ZN2A2D2Ev:0000000000000030 .L0 
     /tmp/ccCnP6rB.s:2346   .text._ZN2A2D2Ev:0000000000000034 .L0 
     /tmp/ccCnP6rB.s:2318   .text._ZN2A2D2Ev:0000000000000000 _ZN2A2D1Ev
     /tmp/ccCnP6rB.s:2355   .text._ZN2A2D0Ev:0000000000000000 _ZN2A2D0Ev
     /tmp/ccCnP6rB.s:2358   .text._ZN2A2D0Ev:0000000000000000 .L0 
     /tmp/ccCnP6rB.s:2360   .text._ZN2A2D0Ev:0000000000000000 .L0 
     /tmp/ccCnP6rB.s:2361   .text._ZN2A2D0Ev:0000000000000004 .L0 
     /tmp/ccCnP6rB.s:2365   .text._ZN2A2D0Ev:0000000000000010 .L0 
     /tmp/ccCnP6rB.s:2366   .text._ZN2A2D0Ev:0000000000000010 .L0 
     /tmp/ccCnP6rB.s:2367   .text._ZN2A2D0Ev:0000000000000010 .L0 
     /tmp/ccCnP6rB.s:2369   .text._ZN2A2D0Ev:0000000000000014 .L0 
     /tmp/ccCnP6rB.s:2375   .text._ZN2A2D0Ev:0000000000000018 .L0 
     /tmp/ccCnP6rB.s:2385   .text._ZN2A2D0Ev:000000000000003c .L0 
     /tmp/ccCnP6rB.s:2387   .text._ZN2A2D0Ev:0000000000000040 .L0 
     /tmp/ccCnP6rB.s:2388   .text._ZN2A2D0Ev:0000000000000040 .L0 
     /tmp/ccCnP6rB.s:2390   .text._ZN2A2D0Ev:0000000000000044 .L0 
     /tmp/ccCnP6rB.s:2393   .text._ZN2A2D0Ev:0000000000000048 .L0 
     /tmp/ccCnP6rB.s:2395   .text._ZN2A2D0Ev:000000000000004c .L0 
     /tmp/ccCnP6rB.s:2402   .text._ZN2A1D2Ev:0000000000000000 _ZN2A1D2Ev
     /tmp/ccCnP6rB.s:2405   .text._ZN2A1D2Ev:0000000000000000 .L0 
     /tmp/ccCnP6rB.s:2407   .text._ZN2A1D2Ev:0000000000000000 .L0 
     /tmp/ccCnP6rB.s:2408   .text._ZN2A1D2Ev:0000000000000004 .L0 
     /tmp/ccCnP6rB.s:2411   .text._ZN2A1D2Ev:000000000000000c .L0 
     /tmp/ccCnP6rB.s:2412   .text._ZN2A1D2Ev:000000000000000c .L0 
     /tmp/ccCnP6rB.s:2414   .text._ZN2A1D2Ev:0000000000000010 .L0 
     /tmp/ccCnP6rB.s:10817  .data.rel.ro.local._ZTV2A1:0000000000000000 _ZTV2A1
     /tmp/ccCnP6rB.s:2417   .text._ZN2A1D2Ev:0000000000000010 .L0 
     /tmp/ccCnP6rB.s:2423   .text._ZN2A1D2Ev:0000000000000028 .L0 
     /tmp/ccCnP6rB.s:2425   .text._ZN2A1D2Ev:000000000000002c .L0 
     /tmp/ccCnP6rB.s:2426   .text._ZN2A1D2Ev:000000000000002c .L0 
     /tmp/ccCnP6rB.s:2428   .text._ZN2A1D2Ev:0000000000000030 .L0 
     /tmp/ccCnP6rB.s:2430   .text._ZN2A1D2Ev:0000000000000034 .L0 
     /tmp/ccCnP6rB.s:2402   .text._ZN2A1D2Ev:0000000000000000 _ZN2A1D1Ev
     /tmp/ccCnP6rB.s:2439   .text._ZN2A1D0Ev:0000000000000000 _ZN2A1D0Ev
     /tmp/ccCnP6rB.s:2442   .text._ZN2A1D0Ev:0000000000000000 .L0 
     /tmp/ccCnP6rB.s:2444   .text._ZN2A1D0Ev:0000000000000000 .L0 
     /tmp/ccCnP6rB.s:2445   .text._ZN2A1D0Ev:0000000000000004 .L0 
     /tmp/ccCnP6rB.s:2449   .text._ZN2A1D0Ev:0000000000000010 .L0 
     /tmp/ccCnP6rB.s:2450   .text._ZN2A1D0Ev:0000000000000010 .L0 
     /tmp/ccCnP6rB.s:2451   .text._ZN2A1D0Ev:0000000000000010 .L0 
     /tmp/ccCnP6rB.s:2453   .text._ZN2A1D0Ev:0000000000000014 .L0 
     /tmp/ccCnP6rB.s:2459   .text._ZN2A1D0Ev:0000000000000018 .L0 
     /tmp/ccCnP6rB.s:2469   .text._ZN2A1D0Ev:000000000000003c .L0 
     /tmp/ccCnP6rB.s:2471   .text._ZN2A1D0Ev:0000000000000040 .L0 
     /tmp/ccCnP6rB.s:2472   .text._ZN2A1D0Ev:0000000000000040 .L0 
     /tmp/ccCnP6rB.s:2474   .text._ZN2A1D0Ev:0000000000000044 .L0 
     /tmp/ccCnP6rB.s:2477   .text._ZN2A1D0Ev:0000000000000048 .L0 
     /tmp/ccCnP6rB.s:2479   .text._ZN2A1D0Ev:000000000000004c .L0 
GAS LISTING /tmp/ccCnP6rB.s 			page 284


     /tmp/ccCnP6rB.s:2508   .text:0000000000000434 _ZN2A23runEv
     /tmp/ccCnP6rB.s:2511   .text:0000000000000434 .L0 
     /tmp/ccCnP6rB.s:2513   .text:0000000000000434 .L0 
     /tmp/ccCnP6rB.s:2514   .text:0000000000000438 .L0 
     /tmp/ccCnP6rB.s:2520   .text:000000000000044c .L0 
     /tmp/ccCnP6rB.s:2521   .text:000000000000044c .L0 
     /tmp/ccCnP6rB.s:2522   .text:000000000000044c .L0 
     /tmp/ccCnP6rB.s:2523   .text:000000000000044c .L0 
     /tmp/ccCnP6rB.s:2524   .text:000000000000044c .L0 
     /tmp/ccCnP6rB.s:2526   .text:0000000000000450 .L0 
     /tmp/ccCnP6rB.s:2531   .text:0000000000000454 .L0 
     /tmp/ccCnP6rB.s:2532   .text:0000000000000454 .L0 
     /tmp/ccCnP6rB.s:2540   .text:000000000000045c .L0 
     /tmp/ccCnP6rB.s:2541   .text:000000000000045c .L0 
     /tmp/ccCnP6rB.s:2545   .text:0000000000000464 .L0 
     /tmp/ccCnP6rB.s:2549   .text:0000000000000468 .L0 
     /tmp/ccCnP6rB.s:2554   .text:0000000000000470 .L0 
     /tmp/ccCnP6rB.s:2558   .text:0000000000000474 .L0 
     /tmp/ccCnP6rB.s:2562   .text:0000000000000480 .L0 
     /tmp/ccCnP6rB.s:2570   .text:0000000000000488 .L0 
     /tmp/ccCnP6rB.s:2571   .text:0000000000000488 .L0 
     /tmp/ccCnP6rB.s:2575   .text:0000000000000498 .L0 
     /tmp/ccCnP6rB.s:2576   .text:0000000000000498 .L0 
     /tmp/ccCnP6rB.s:2582   .text:00000000000004ac .L0 
     /tmp/ccCnP6rB.s:2583   .text:00000000000004ac .L0 
     /tmp/ccCnP6rB.s:2587   .text:00000000000004bc .L0 
     /tmp/ccCnP6rB.s:2588   .text:00000000000004bc .L0 
     /tmp/ccCnP6rB.s:2594   .text:00000000000004d0 .L0 
     /tmp/ccCnP6rB.s:2595   .text:00000000000004d0 .L0 
     /tmp/ccCnP6rB.s:2599   .text:00000000000004e0 .L0 
     /tmp/ccCnP6rB.s:2600   .text:00000000000004e0 .L0 
     /tmp/ccCnP6rB.s:2604   .text:00000000000004ec .L0 
     /tmp/ccCnP6rB.s:2605   .text:00000000000004ec .L0 
     /tmp/ccCnP6rB.s:2609   .text:00000000000004fc .L0 
     /tmp/ccCnP6rB.s:2610   .text:00000000000004fc .L0 
     /tmp/ccCnP6rB.s:2616   .text:0000000000000510 .L0 
     /tmp/ccCnP6rB.s:2617   .text:0000000000000510 .L0 
     /tmp/ccCnP6rB.s:2621   .text:0000000000000520 .L0 
     /tmp/ccCnP6rB.s:2622   .text:0000000000000520 .L0 
     /tmp/ccCnP6rB.s:2628   .text:0000000000000534 .L0 
     /tmp/ccCnP6rB.s:2629   .text:0000000000000534 .L0 
     /tmp/ccCnP6rB.s:2634   .text:0000000000000544 .L0 
     /tmp/ccCnP6rB.s:2638   .text:0000000000000548 .L0 
     /tmp/ccCnP6rB.s:2642   .text:0000000000000550 .L0 
     /tmp/ccCnP6rB.s:2643   .text:0000000000000550 .L0 
     /tmp/ccCnP6rB.s:2647   .text:0000000000000560 .L0 
     /tmp/ccCnP6rB.s:2648   .text:0000000000000560 .L0 
     /tmp/ccCnP6rB.s:2654   .text:0000000000000574 .L0 
     /tmp/ccCnP6rB.s:2655   .text:0000000000000574 .L0 
     /tmp/ccCnP6rB.s:2659   .text:0000000000000584 .L0 
     /tmp/ccCnP6rB.s:2660   .text:0000000000000584 .L0 
     /tmp/ccCnP6rB.s:2666   .text:0000000000000598 .L0 
     /tmp/ccCnP6rB.s:2667   .text:0000000000000598 .L0 
     /tmp/ccCnP6rB.s:2672   .text:00000000000005a8 .L0 
     /tmp/ccCnP6rB.s:2673   .text:00000000000005a8 .L0 
     /tmp/ccCnP6rB.s:2681   .text:00000000000005b0 .L0 
     /tmp/ccCnP6rB.s:2682   .text:00000000000005b0 .L0 
GAS LISTING /tmp/ccCnP6rB.s 			page 285


     /tmp/ccCnP6rB.s:2686   .text:00000000000005c0 .L0 
     /tmp/ccCnP6rB.s:2687   .text:00000000000005c0 .L0 
     /tmp/ccCnP6rB.s:2691   .text:00000000000005d0 .L0 
     /tmp/ccCnP6rB.s:2692   .text:00000000000005d0 .L0 
     /tmp/ccCnP6rB.s:2698   .text:00000000000005e4 .L0 
     /tmp/ccCnP6rB.s:2699   .text:00000000000005e4 .L0 
     /tmp/ccCnP6rB.s:2703   .text:00000000000005f4 .L0 
     /tmp/ccCnP6rB.s:2704   .text:00000000000005f8 .L0 
     /tmp/ccCnP6rB.s:2706   .text:00000000000005fc .L0 
     /tmp/ccCnP6rB.s:2707   .text:00000000000005fc .L0 
     /tmp/ccCnP6rB.s:2709   .text:0000000000000600 .L0 
     /tmp/ccCnP6rB.s:2711   .text:0000000000000604 .L0 
     /tmp/ccCnP6rB.s:2714   .text:0000000000000608 .L0 
     /tmp/ccCnP6rB.s:2717   .text:000000000000060c .L0 
     /tmp/ccCnP6rB.s:2719   .text:0000000000000610 .L0 
     /tmp/ccCnP6rB.s:2736   .text:0000000000000610 _ZN2A63runEv
     /tmp/ccCnP6rB.s:2739   .text:0000000000000610 .L0 
     /tmp/ccCnP6rB.s:2741   .text:0000000000000610 .L0 
     /tmp/ccCnP6rB.s:2742   .text:0000000000000614 .L0 
     /tmp/ccCnP6rB.s:2748   .text:0000000000000628 .L0 
     /tmp/ccCnP6rB.s:2749   .text:0000000000000628 .L0 
     /tmp/ccCnP6rB.s:2750   .text:0000000000000628 .L0 
     /tmp/ccCnP6rB.s:2751   .text:0000000000000628 .L0 
     /tmp/ccCnP6rB.s:2752   .text:0000000000000628 .L0 
     /tmp/ccCnP6rB.s:2754   .text:000000000000062c .L0 
     /tmp/ccCnP6rB.s:2759   .text:0000000000000630 .L0 
     /tmp/ccCnP6rB.s:2760   .text:0000000000000630 .L0 
     /tmp/ccCnP6rB.s:2768   .text:0000000000000638 .L0 
     /tmp/ccCnP6rB.s:2769   .text:0000000000000638 .L0 
     /tmp/ccCnP6rB.s:2773   .text:0000000000000640 .L0 
     /tmp/ccCnP6rB.s:2777   .text:0000000000000644 .L0 
     /tmp/ccCnP6rB.s:2783   .text:0000000000000650 .L0 
     /tmp/ccCnP6rB.s:2787   .text:0000000000000654 .L0 
     /tmp/ccCnP6rB.s:2790   .text:000000000000065c .L0 
     /tmp/ccCnP6rB.s:2798   .text:0000000000000664 .L0 
     /tmp/ccCnP6rB.s:2799   .text:0000000000000664 .L0 
     /tmp/ccCnP6rB.s:2803   .text:0000000000000674 .L0 
     /tmp/ccCnP6rB.s:2804   .text:0000000000000674 .L0 
     /tmp/ccCnP6rB.s:2810   .text:0000000000000688 .L0 
     /tmp/ccCnP6rB.s:2811   .text:0000000000000688 .L0 
     /tmp/ccCnP6rB.s:2815   .text:0000000000000698 .L0 
     /tmp/ccCnP6rB.s:2816   .text:0000000000000698 .L0 
     /tmp/ccCnP6rB.s:2822   .text:00000000000006ac .L0 
     /tmp/ccCnP6rB.s:2823   .text:00000000000006ac .L0 
     /tmp/ccCnP6rB.s:2827   .text:00000000000006bc .L0 
     /tmp/ccCnP6rB.s:2828   .text:00000000000006bc .L0 
     /tmp/ccCnP6rB.s:2831   .text:00000000000006c4 .L0 
     /tmp/ccCnP6rB.s:2832   .text:00000000000006c4 .L0 
     /tmp/ccCnP6rB.s:2836   .text:00000000000006d4 .L0 
     /tmp/ccCnP6rB.s:2837   .text:00000000000006d4 .L0 
     /tmp/ccCnP6rB.s:2843   .text:00000000000006e8 .L0 
     /tmp/ccCnP6rB.s:2844   .text:00000000000006e8 .L0 
     /tmp/ccCnP6rB.s:2848   .text:00000000000006f8 .L0 
     /tmp/ccCnP6rB.s:2849   .text:00000000000006f8 .L0 
     /tmp/ccCnP6rB.s:2855   .text:000000000000070c .L0 
     /tmp/ccCnP6rB.s:2856   .text:000000000000070c .L0 
     /tmp/ccCnP6rB.s:2861   .text:000000000000071c .L0 
GAS LISTING /tmp/ccCnP6rB.s 			page 286


     /tmp/ccCnP6rB.s:2865   .text:0000000000000720 .L0 
     /tmp/ccCnP6rB.s:2869   .text:0000000000000728 .L0 
     /tmp/ccCnP6rB.s:2870   .text:0000000000000728 .L0 
     /tmp/ccCnP6rB.s:2874   .text:0000000000000738 .L0 
     /tmp/ccCnP6rB.s:2875   .text:0000000000000738 .L0 
     /tmp/ccCnP6rB.s:2881   .text:000000000000074c .L0 
     /tmp/ccCnP6rB.s:2882   .text:000000000000074c .L0 
     /tmp/ccCnP6rB.s:2886   .text:000000000000075c .L0 
     /tmp/ccCnP6rB.s:2887   .text:000000000000075c .L0 
     /tmp/ccCnP6rB.s:2893   .text:0000000000000770 .L0 
     /tmp/ccCnP6rB.s:2894   .text:0000000000000770 .L0 
     /tmp/ccCnP6rB.s:2899   .text:0000000000000780 .L0 
     /tmp/ccCnP6rB.s:2900   .text:0000000000000780 .L0 
     /tmp/ccCnP6rB.s:2908   .text:0000000000000788 .L0 
     /tmp/ccCnP6rB.s:2909   .text:0000000000000788 .L0 
     /tmp/ccCnP6rB.s:2913   .text:0000000000000798 .L0 
     /tmp/ccCnP6rB.s:2914   .text:0000000000000798 .L0 
     /tmp/ccCnP6rB.s:2920   .text:00000000000007ac .L0 
     /tmp/ccCnP6rB.s:2921   .text:00000000000007ac .L0 
     /tmp/ccCnP6rB.s:2925   .text:00000000000007bc .L0 
     /tmp/ccCnP6rB.s:2926   .text:00000000000007c0 .L0 
     /tmp/ccCnP6rB.s:2928   .text:00000000000007c4 .L0 
     /tmp/ccCnP6rB.s:2929   .text:00000000000007c4 .L0 
     /tmp/ccCnP6rB.s:2931   .text:00000000000007c8 .L0 
     /tmp/ccCnP6rB.s:2933   .text:00000000000007cc .L0 
     /tmp/ccCnP6rB.s:2936   .text:00000000000007d0 .L0 
     /tmp/ccCnP6rB.s:2939   .text:00000000000007d4 .L0 
     /tmp/ccCnP6rB.s:2941   .text:00000000000007d8 .L0 
     /tmp/ccCnP6rB.s:2970   .text:00000000000007d8 _ZN2A33runEv
     /tmp/ccCnP6rB.s:2973   .text:00000000000007d8 .L0 
     /tmp/ccCnP6rB.s:2975   .text:00000000000007d8 .L0 
     /tmp/ccCnP6rB.s:2976   .text:00000000000007dc .L0 
     /tmp/ccCnP6rB.s:2982   .text:00000000000007f0 .L0 
     /tmp/ccCnP6rB.s:2983   .text:00000000000007f0 .L0 
     /tmp/ccCnP6rB.s:2984   .text:00000000000007f0 .L0 
     /tmp/ccCnP6rB.s:2985   .text:00000000000007f0 .L0 
     /tmp/ccCnP6rB.s:2986   .text:00000000000007f0 .L0 
     /tmp/ccCnP6rB.s:2988   .text:00000000000007f4 .L0 
     /tmp/ccCnP6rB.s:2993   .text:00000000000007f8 .L0 
     /tmp/ccCnP6rB.s:2994   .text:00000000000007f8 .L0 
     /tmp/ccCnP6rB.s:3002   .text:0000000000000800 .L0 
     /tmp/ccCnP6rB.s:3003   .text:0000000000000800 .L0 
     /tmp/ccCnP6rB.s:3007   .text:0000000000000808 .L0 
     /tmp/ccCnP6rB.s:3011   .text:000000000000080c .L0 
     /tmp/ccCnP6rB.s:3016   .text:0000000000000814 .L0 
     /tmp/ccCnP6rB.s:3020   .text:0000000000000818 .L0 
     /tmp/ccCnP6rB.s:3024   .text:0000000000000824 .L0 
     /tmp/ccCnP6rB.s:3032   .text:000000000000082c .L0 
     /tmp/ccCnP6rB.s:3033   .text:000000000000082c .L0 
     /tmp/ccCnP6rB.s:3037   .text:000000000000083c .L0 
     /tmp/ccCnP6rB.s:3038   .text:000000000000083c .L0 
     /tmp/ccCnP6rB.s:3044   .text:0000000000000850 .L0 
     /tmp/ccCnP6rB.s:3045   .text:0000000000000850 .L0 
     /tmp/ccCnP6rB.s:3049   .text:0000000000000860 .L0 
     /tmp/ccCnP6rB.s:3050   .text:0000000000000860 .L0 
     /tmp/ccCnP6rB.s:3054   .text:0000000000000870 .L0 
     /tmp/ccCnP6rB.s:3055   .text:0000000000000870 .L0 
GAS LISTING /tmp/ccCnP6rB.s 			page 287


     /tmp/ccCnP6rB.s:3060   .text:0000000000000884 .L0 
     /tmp/ccCnP6rB.s:3061   .text:0000000000000884 .L0 
     /tmp/ccCnP6rB.s:3065   .text:0000000000000894 .L0 
     /tmp/ccCnP6rB.s:3066   .text:0000000000000894 .L0 
     /tmp/ccCnP6rB.s:3071   .text:00000000000008a8 .L0 
     /tmp/ccCnP6rB.s:3072   .text:00000000000008a8 .L0 
     /tmp/ccCnP6rB.s:3076   .text:00000000000008b8 .L0 
     /tmp/ccCnP6rB.s:3077   .text:00000000000008b8 .L0 
     /tmp/ccCnP6rB.s:3083   .text:00000000000008cc .L0 
     /tmp/ccCnP6rB.s:3084   .text:00000000000008cc .L0 
     /tmp/ccCnP6rB.s:3088   .text:00000000000008dc .L0 
     /tmp/ccCnP6rB.s:3089   .text:00000000000008dc .L0 
     /tmp/ccCnP6rB.s:3095   .text:00000000000008f0 .L0 
     /tmp/ccCnP6rB.s:3096   .text:00000000000008f0 .L0 
     /tmp/ccCnP6rB.s:3102   .text:0000000000000904 .L0 
     /tmp/ccCnP6rB.s:3103   .text:0000000000000904 .L0 
     /tmp/ccCnP6rB.s:3107   .text:0000000000000914 .L0 
     /tmp/ccCnP6rB.s:3108   .text:0000000000000914 .L0 
     /tmp/ccCnP6rB.s:3114   .text:0000000000000928 .L0 
     /tmp/ccCnP6rB.s:3115   .text:0000000000000928 .L0 
     /tmp/ccCnP6rB.s:3120   .text:0000000000000938 .L0 
     /tmp/ccCnP6rB.s:3124   .text:000000000000093c .L0 
     /tmp/ccCnP6rB.s:3128   .text:0000000000000944 .L0 
     /tmp/ccCnP6rB.s:3129   .text:0000000000000944 .L0 
     /tmp/ccCnP6rB.s:3133   .text:0000000000000954 .L0 
     /tmp/ccCnP6rB.s:3134   .text:0000000000000954 .L0 
     /tmp/ccCnP6rB.s:3140   .text:0000000000000968 .L0 
     /tmp/ccCnP6rB.s:3141   .text:0000000000000968 .L0 
     /tmp/ccCnP6rB.s:3146   .text:0000000000000978 .L0 
     /tmp/ccCnP6rB.s:3147   .text:0000000000000978 .L0 
     /tmp/ccCnP6rB.s:3155   .text:0000000000000980 .L0 
     /tmp/ccCnP6rB.s:3156   .text:0000000000000984 .L0 
     /tmp/ccCnP6rB.s:3158   .text:0000000000000988 .L0 
     /tmp/ccCnP6rB.s:3159   .text:0000000000000988 .L0 
     /tmp/ccCnP6rB.s:3161   .text:000000000000098c .L0 
     /tmp/ccCnP6rB.s:3163   .text:0000000000000990 .L0 
     /tmp/ccCnP6rB.s:3166   .text:0000000000000994 .L0 
     /tmp/ccCnP6rB.s:3169   .text:0000000000000998 .L0 
     /tmp/ccCnP6rB.s:3171   .text:000000000000099c .L0 
     /tmp/ccCnP6rB.s:3191   .text:000000000000099c _ZN2B33runEv
     /tmp/ccCnP6rB.s:3194   .text:000000000000099c .L0 
     /tmp/ccCnP6rB.s:3196   .text:000000000000099c .L0 
     /tmp/ccCnP6rB.s:3197   .text:00000000000009a0 .L0 
     /tmp/ccCnP6rB.s:3203   .text:00000000000009b4 .L0 
     /tmp/ccCnP6rB.s:3204   .text:00000000000009b4 .L0 
     /tmp/ccCnP6rB.s:3205   .text:00000000000009b4 .L0 
     /tmp/ccCnP6rB.s:3206   .text:00000000000009b4 .L0 
     /tmp/ccCnP6rB.s:3207   .text:00000000000009b4 .L0 
     /tmp/ccCnP6rB.s:3209   .text:00000000000009b8 .L0 
     /tmp/ccCnP6rB.s:3214   .text:00000000000009bc .L0 
     /tmp/ccCnP6rB.s:3215   .text:00000000000009bc .L0 
     /tmp/ccCnP6rB.s:3223   .text:00000000000009c4 .L0 
     /tmp/ccCnP6rB.s:3224   .text:00000000000009c4 .L0 
     /tmp/ccCnP6rB.s:3228   .text:00000000000009cc .L0 
     /tmp/ccCnP6rB.s:3232   .text:00000000000009d0 .L0 
     /tmp/ccCnP6rB.s:3237   .text:00000000000009d8 .L0 
     /tmp/ccCnP6rB.s:3241   .text:00000000000009dc .L0 
GAS LISTING /tmp/ccCnP6rB.s 			page 288


     /tmp/ccCnP6rB.s:3245   .text:00000000000009e8 .L0 
     /tmp/ccCnP6rB.s:3253   .text:00000000000009f0 .L0 
     /tmp/ccCnP6rB.s:3254   .text:00000000000009f0 .L0 
     /tmp/ccCnP6rB.s:3258   .text:0000000000000a00 .L0 
     /tmp/ccCnP6rB.s:3259   .text:0000000000000a00 .L0 
     /tmp/ccCnP6rB.s:3265   .text:0000000000000a14 .L0 
     /tmp/ccCnP6rB.s:3266   .text:0000000000000a14 .L0 
     /tmp/ccCnP6rB.s:3270   .text:0000000000000a24 .L0 
     /tmp/ccCnP6rB.s:3271   .text:0000000000000a24 .L0 
     /tmp/ccCnP6rB.s:3275   .text:0000000000000a34 .L0 
     /tmp/ccCnP6rB.s:3276   .text:0000000000000a34 .L0 
     /tmp/ccCnP6rB.s:3281   .text:0000000000000a48 .L0 
     /tmp/ccCnP6rB.s:3282   .text:0000000000000a48 .L0 
     /tmp/ccCnP6rB.s:3286   .text:0000000000000a58 .L0 
     /tmp/ccCnP6rB.s:3287   .text:0000000000000a58 .L0 
     /tmp/ccCnP6rB.s:3293   .text:0000000000000a6c .L0 
     /tmp/ccCnP6rB.s:3294   .text:0000000000000a6c .L0 
     /tmp/ccCnP6rB.s:3298   .text:0000000000000a7c .L0 
     /tmp/ccCnP6rB.s:3299   .text:0000000000000a7c .L0 
     /tmp/ccCnP6rB.s:3305   .text:0000000000000a90 .L0 
     /tmp/ccCnP6rB.s:3306   .text:0000000000000a90 .L0 
     /tmp/ccCnP6rB.s:3312   .text:0000000000000aa4 .L0 
     /tmp/ccCnP6rB.s:3313   .text:0000000000000aa4 .L0 
     /tmp/ccCnP6rB.s:3317   .text:0000000000000ab4 .L0 
     /tmp/ccCnP6rB.s:3318   .text:0000000000000ab4 .L0 
     /tmp/ccCnP6rB.s:3324   .text:0000000000000ac8 .L0 
     /tmp/ccCnP6rB.s:3325   .text:0000000000000ac8 .L0 
     /tmp/ccCnP6rB.s:3330   .text:0000000000000ad8 .L0 
     /tmp/ccCnP6rB.s:3334   .text:0000000000000adc .L0 
     /tmp/ccCnP6rB.s:3338   .text:0000000000000ae4 .L0 
     /tmp/ccCnP6rB.s:3339   .text:0000000000000ae4 .L0 
     /tmp/ccCnP6rB.s:3343   .text:0000000000000af4 .L0 
     /tmp/ccCnP6rB.s:3344   .text:0000000000000af4 .L0 
     /tmp/ccCnP6rB.s:3350   .text:0000000000000b08 .L0 
     /tmp/ccCnP6rB.s:3351   .text:0000000000000b08 .L0 
     /tmp/ccCnP6rB.s:3356   .text:0000000000000b18 .L0 
     /tmp/ccCnP6rB.s:3357   .text:0000000000000b18 .L0 
     /tmp/ccCnP6rB.s:3365   .text:0000000000000b20 .L0 
     /tmp/ccCnP6rB.s:3366   .text:0000000000000b24 .L0 
     /tmp/ccCnP6rB.s:3368   .text:0000000000000b28 .L0 
     /tmp/ccCnP6rB.s:3369   .text:0000000000000b28 .L0 
     /tmp/ccCnP6rB.s:3371   .text:0000000000000b2c .L0 
     /tmp/ccCnP6rB.s:3373   .text:0000000000000b30 .L0 
     /tmp/ccCnP6rB.s:3376   .text:0000000000000b34 .L0 
     /tmp/ccCnP6rB.s:3379   .text:0000000000000b38 .L0 
     /tmp/ccCnP6rB.s:3381   .text:0000000000000b3c .L0 
     /tmp/ccCnP6rB.s:3410   .text:0000000000000b3c _ZN2C33runEv
     /tmp/ccCnP6rB.s:3413   .text:0000000000000b3c .L0 
     /tmp/ccCnP6rB.s:3415   .text:0000000000000b3c .L0 
     /tmp/ccCnP6rB.s:3416   .text:0000000000000b40 .L0 
     /tmp/ccCnP6rB.s:3422   .text:0000000000000b54 .L0 
     /tmp/ccCnP6rB.s:3423   .text:0000000000000b54 .L0 
     /tmp/ccCnP6rB.s:3424   .text:0000000000000b54 .L0 
     /tmp/ccCnP6rB.s:3425   .text:0000000000000b54 .L0 
     /tmp/ccCnP6rB.s:3426   .text:0000000000000b54 .L0 
     /tmp/ccCnP6rB.s:3428   .text:0000000000000b58 .L0 
     /tmp/ccCnP6rB.s:3433   .text:0000000000000b5c .L0 
GAS LISTING /tmp/ccCnP6rB.s 			page 289


     /tmp/ccCnP6rB.s:3434   .text:0000000000000b5c .L0 
     /tmp/ccCnP6rB.s:3442   .text:0000000000000b64 .L0 
     /tmp/ccCnP6rB.s:3443   .text:0000000000000b64 .L0 
     /tmp/ccCnP6rB.s:3447   .text:0000000000000b6c .L0 
     /tmp/ccCnP6rB.s:3451   .text:0000000000000b70 .L0 
     /tmp/ccCnP6rB.s:3456   .text:0000000000000b78 .L0 
     /tmp/ccCnP6rB.s:3460   .text:0000000000000b7c .L0 
     /tmp/ccCnP6rB.s:3464   .text:0000000000000b88 .L0 
     /tmp/ccCnP6rB.s:3472   .text:0000000000000b90 .L0 
     /tmp/ccCnP6rB.s:3473   .text:0000000000000b90 .L0 
     /tmp/ccCnP6rB.s:3477   .text:0000000000000ba0 .L0 
     /tmp/ccCnP6rB.s:3478   .text:0000000000000ba0 .L0 
     /tmp/ccCnP6rB.s:3484   .text:0000000000000bb4 .L0 
     /tmp/ccCnP6rB.s:3485   .text:0000000000000bb4 .L0 
     /tmp/ccCnP6rB.s:3489   .text:0000000000000bc4 .L0 
     /tmp/ccCnP6rB.s:3490   .text:0000000000000bc4 .L0 
     /tmp/ccCnP6rB.s:3494   .text:0000000000000bd4 .L0 
     /tmp/ccCnP6rB.s:3495   .text:0000000000000bd4 .L0 
     /tmp/ccCnP6rB.s:3500   .text:0000000000000be8 .L0 
     /tmp/ccCnP6rB.s:3501   .text:0000000000000be8 .L0 
     /tmp/ccCnP6rB.s:3505   .text:0000000000000bf8 .L0 
     /tmp/ccCnP6rB.s:3506   .text:0000000000000bf8 .L0 
     /tmp/ccCnP6rB.s:3511   .text:0000000000000c0c .L0 
     /tmp/ccCnP6rB.s:3512   .text:0000000000000c0c .L0 
     /tmp/ccCnP6rB.s:3516   .text:0000000000000c1c .L0 
     /tmp/ccCnP6rB.s:3517   .text:0000000000000c1c .L0 
     /tmp/ccCnP6rB.s:3523   .text:0000000000000c30 .L0 
     /tmp/ccCnP6rB.s:3524   .text:0000000000000c30 .L0 
     /tmp/ccCnP6rB.s:3528   .text:0000000000000c40 .L0 
     /tmp/ccCnP6rB.s:3529   .text:0000000000000c40 .L0 
     /tmp/ccCnP6rB.s:3535   .text:0000000000000c54 .L0 
     /tmp/ccCnP6rB.s:3536   .text:0000000000000c54 .L0 
     /tmp/ccCnP6rB.s:3540   .text:0000000000000c64 .L0 
     /tmp/ccCnP6rB.s:3541   .text:0000000000000c64 .L0 
     /tmp/ccCnP6rB.s:3547   .text:0000000000000c78 .L0 
     /tmp/ccCnP6rB.s:3548   .text:0000000000000c78 .L0 
     /tmp/ccCnP6rB.s:3553   .text:0000000000000c88 .L0 
     /tmp/ccCnP6rB.s:3557   .text:0000000000000c8c .L0 
     /tmp/ccCnP6rB.s:3561   .text:0000000000000c94 .L0 
     /tmp/ccCnP6rB.s:3562   .text:0000000000000c94 .L0 
     /tmp/ccCnP6rB.s:3566   .text:0000000000000ca4 .L0 
     /tmp/ccCnP6rB.s:3567   .text:0000000000000ca4 .L0 
     /tmp/ccCnP6rB.s:3573   .text:0000000000000cb8 .L0 
     /tmp/ccCnP6rB.s:3574   .text:0000000000000cb8 .L0 
     /tmp/ccCnP6rB.s:3579   .text:0000000000000cc8 .L0 
     /tmp/ccCnP6rB.s:3580   .text:0000000000000cc8 .L0 
     /tmp/ccCnP6rB.s:3588   .text:0000000000000cd0 .L0 
     /tmp/ccCnP6rB.s:3589   .text:0000000000000cd4 .L0 
     /tmp/ccCnP6rB.s:3591   .text:0000000000000cd8 .L0 
     /tmp/ccCnP6rB.s:3592   .text:0000000000000cd8 .L0 
     /tmp/ccCnP6rB.s:3594   .text:0000000000000cdc .L0 
     /tmp/ccCnP6rB.s:3596   .text:0000000000000ce0 .L0 
     /tmp/ccCnP6rB.s:3599   .text:0000000000000ce4 .L0 
     /tmp/ccCnP6rB.s:3602   .text:0000000000000ce8 .L0 
     /tmp/ccCnP6rB.s:3604   .text:0000000000000cec .L0 
     /tmp/ccCnP6rB.s:3621   .text._ZN2A73runEv:0000000000000000 _ZN2A73runEv
     /tmp/ccCnP6rB.s:3624   .text._ZN2A73runEv:0000000000000000 .L0 
GAS LISTING /tmp/ccCnP6rB.s 			page 290


     /tmp/ccCnP6rB.s:3626   .text._ZN2A73runEv:0000000000000000 .L0 
     /tmp/ccCnP6rB.s:3627   .text._ZN2A73runEv:0000000000000004 .L0 
     /tmp/ccCnP6rB.s:3632   .text._ZN2A73runEv:0000000000000014 .L0 
     /tmp/ccCnP6rB.s:3633   .text._ZN2A73runEv:0000000000000014 .L0 
     /tmp/ccCnP6rB.s:3634   .text._ZN2A73runEv:0000000000000014 .L0 
     /tmp/ccCnP6rB.s:3635   .text._ZN2A73runEv:0000000000000014 .L0 
     /tmp/ccCnP6rB.s:3637   .text._ZN2A73runEv:0000000000000018 .L0 
     /tmp/ccCnP6rB.s:3640   .text._ZN2A73runEv:000000000000001c .L0 
     /tmp/ccCnP6rB.s:3641   .text._ZN2A73runEv:000000000000001c .L0 
     /tmp/ccCnP6rB.s:3647   .text._ZN2A73runEv:000000000000002c .L0 
     /tmp/ccCnP6rB.s:3648   .text._ZN2A73runEv:000000000000002c .L0 
     /tmp/ccCnP6rB.s:3654   .text._ZN2A73runEv:0000000000000034 .L0 
     /tmp/ccCnP6rB.s:3655   .text._ZN2A73runEv:0000000000000034 .L0 
     /tmp/ccCnP6rB.s:3659   .text._ZN2A73runEv:000000000000003c .L0 
     /tmp/ccCnP6rB.s:3663   .text._ZN2A73runEv:0000000000000040 .L0 
     /tmp/ccCnP6rB.s:3668   .text._ZN2A73runEv:0000000000000048 .L0 
     /tmp/ccCnP6rB.s:3672   .text._ZN2A73runEv:000000000000004c .L0 
     /tmp/ccCnP6rB.s:3675   .text._ZN2A73runEv:0000000000000054 .L0 
     /tmp/ccCnP6rB.s:3683   .text._ZN2A73runEv:000000000000005c .L0 
     /tmp/ccCnP6rB.s:3684   .text._ZN2A73runEv:000000000000005c .L0 
     /tmp/ccCnP6rB.s:3688   .text._ZN2A73runEv:000000000000006c .L0 
     /tmp/ccCnP6rB.s:3689   .text._ZN2A73runEv:000000000000006c .L0 
     /tmp/ccCnP6rB.s:3694   .text._ZN2A73runEv:000000000000007c .L0 
     /tmp/ccCnP6rB.s:3695   .text._ZN2A73runEv:000000000000007c .L0 
     /tmp/ccCnP6rB.s:3699   .text._ZN2A73runEv:000000000000008c .L0 
     /tmp/ccCnP6rB.s:3700   .text._ZN2A73runEv:000000000000008c .L0 
     /tmp/ccCnP6rB.s:3703   .text._ZN2A73runEv:0000000000000094 .L0 
     /tmp/ccCnP6rB.s:3704   .text._ZN2A73runEv:0000000000000098 .L0 
     /tmp/ccCnP6rB.s:3706   .text._ZN2A73runEv:000000000000009c .L0 
     /tmp/ccCnP6rB.s:3707   .text._ZN2A73runEv:000000000000009c .L0 
     /tmp/ccCnP6rB.s:3709   .text._ZN2A73runEv:00000000000000a0 .L0 
     /tmp/ccCnP6rB.s:3712   .text._ZN2A73runEv:00000000000000a4 .L0 
     /tmp/ccCnP6rB.s:3715   .text._ZN2A73runEv:00000000000000a8 .L0 
     /tmp/ccCnP6rB.s:3717   .text._ZN2A73runEv:00000000000000ac .L0 
     /tmp/ccCnP6rB.s:3734   .text._ZN2B73runEv:0000000000000000 _ZN2B73runEv
     /tmp/ccCnP6rB.s:3737   .text._ZN2B73runEv:0000000000000000 .L0 
     /tmp/ccCnP6rB.s:3739   .text._ZN2B73runEv:0000000000000000 .L0 
     /tmp/ccCnP6rB.s:3740   .text._ZN2B73runEv:0000000000000004 .L0 
     /tmp/ccCnP6rB.s:3745   .text._ZN2B73runEv:0000000000000014 .L0 
     /tmp/ccCnP6rB.s:3746   .text._ZN2B73runEv:0000000000000014 .L0 
     /tmp/ccCnP6rB.s:3747   .text._ZN2B73runEv:0000000000000014 .L0 
     /tmp/ccCnP6rB.s:3748   .text._ZN2B73runEv:0000000000000014 .L0 
     /tmp/ccCnP6rB.s:3750   .text._ZN2B73runEv:0000000000000018 .L0 
     /tmp/ccCnP6rB.s:3753   .text._ZN2B73runEv:000000000000001c .L0 
     /tmp/ccCnP6rB.s:3754   .text._ZN2B73runEv:000000000000001c .L0 
     /tmp/ccCnP6rB.s:3760   .text._ZN2B73runEv:000000000000002c .L0 
     /tmp/ccCnP6rB.s:3761   .text._ZN2B73runEv:000000000000002c .L0 
     /tmp/ccCnP6rB.s:3767   .text._ZN2B73runEv:0000000000000034 .L0 
     /tmp/ccCnP6rB.s:3768   .text._ZN2B73runEv:0000000000000034 .L0 
     /tmp/ccCnP6rB.s:3772   .text._ZN2B73runEv:000000000000003c .L0 
     /tmp/ccCnP6rB.s:3776   .text._ZN2B73runEv:0000000000000040 .L0 
     /tmp/ccCnP6rB.s:3781   .text._ZN2B73runEv:0000000000000048 .L0 
     /tmp/ccCnP6rB.s:3785   .text._ZN2B73runEv:000000000000004c .L0 
     /tmp/ccCnP6rB.s:3788   .text._ZN2B73runEv:0000000000000054 .L0 
     /tmp/ccCnP6rB.s:3796   .text._ZN2B73runEv:000000000000005c .L0 
     /tmp/ccCnP6rB.s:3797   .text._ZN2B73runEv:000000000000005c .L0 
     /tmp/ccCnP6rB.s:3801   .text._ZN2B73runEv:000000000000006c .L0 
GAS LISTING /tmp/ccCnP6rB.s 			page 291


     /tmp/ccCnP6rB.s:3802   .text._ZN2B73runEv:000000000000006c .L0 
     /tmp/ccCnP6rB.s:3807   .text._ZN2B73runEv:000000000000007c .L0 
     /tmp/ccCnP6rB.s:3808   .text._ZN2B73runEv:000000000000007c .L0 
     /tmp/ccCnP6rB.s:3812   .text._ZN2B73runEv:000000000000008c .L0 
     /tmp/ccCnP6rB.s:3813   .text._ZN2B73runEv:000000000000008c .L0 
     /tmp/ccCnP6rB.s:3816   .text._ZN2B73runEv:0000000000000094 .L0 
     /tmp/ccCnP6rB.s:3817   .text._ZN2B73runEv:0000000000000098 .L0 
     /tmp/ccCnP6rB.s:3819   .text._ZN2B73runEv:000000000000009c .L0 
     /tmp/ccCnP6rB.s:3820   .text._ZN2B73runEv:000000000000009c .L0 
     /tmp/ccCnP6rB.s:3822   .text._ZN2B73runEv:00000000000000a0 .L0 
     /tmp/ccCnP6rB.s:3825   .text._ZN2B73runEv:00000000000000a4 .L0 
     /tmp/ccCnP6rB.s:3828   .text._ZN2B73runEv:00000000000000a8 .L0 
     /tmp/ccCnP6rB.s:3830   .text._ZN2B73runEv:00000000000000ac .L0 
     /tmp/ccCnP6rB.s:3837   .text:0000000000000cec _ZN2A83runEv
     /tmp/ccCnP6rB.s:3840   .text:0000000000000cec .L0 
     /tmp/ccCnP6rB.s:3842   .text:0000000000000cec .L0 
     /tmp/ccCnP6rB.s:3843   .text:0000000000000cf0 .L0 
     /tmp/ccCnP6rB.s:3849   .text:0000000000000d04 .L0 
     /tmp/ccCnP6rB.s:3850   .text:0000000000000d04 .L0 
     /tmp/ccCnP6rB.s:3851   .text:0000000000000d04 .L0 
     /tmp/ccCnP6rB.s:3852   .text:0000000000000d04 .L0 
     /tmp/ccCnP6rB.s:3853   .text:0000000000000d04 .L0 
     /tmp/ccCnP6rB.s:3855   .text:0000000000000d08 .L0 
     /tmp/ccCnP6rB.s:3860   .text:0000000000000d0c .L0 
     /tmp/ccCnP6rB.s:3861   .text:0000000000000d0c .L0 
     /tmp/ccCnP6rB.s:3869   .text:0000000000000d14 .L0 
     /tmp/ccCnP6rB.s:3870   .text:0000000000000d14 .L0 
     /tmp/ccCnP6rB.s:3874   .text:0000000000000d1c .L0 
     /tmp/ccCnP6rB.s:3878   .text:0000000000000d20 .L0 
     /tmp/ccCnP6rB.s:3883   .text:0000000000000d28 .L0 
     /tmp/ccCnP6rB.s:3887   .text:0000000000000d2c .L0 
     /tmp/ccCnP6rB.s:3890   .text:0000000000000d34 .L0 
     /tmp/ccCnP6rB.s:3898   .text:0000000000000d3c .L0 
     /tmp/ccCnP6rB.s:3899   .text:0000000000000d3c .L0 
     /tmp/ccCnP6rB.s:3903   .text:0000000000000d4c .L0 
     /tmp/ccCnP6rB.s:3904   .text:0000000000000d4c .L0 
     /tmp/ccCnP6rB.s:3910   .text:0000000000000d60 .L0 
     /tmp/ccCnP6rB.s:3911   .text:0000000000000d60 .L0 
     /tmp/ccCnP6rB.s:3915   .text:0000000000000d70 .L0 
     /tmp/ccCnP6rB.s:3916   .text:0000000000000d70 .L0 
     /tmp/ccCnP6rB.s:3920   .text:0000000000000d80 .L0 
     /tmp/ccCnP6rB.s:3921   .text:0000000000000d80 .L0 
     /tmp/ccCnP6rB.s:3927   .text:0000000000000d94 .L0 
     /tmp/ccCnP6rB.s:3928   .text:0000000000000d94 .L0 
     /tmp/ccCnP6rB.s:3932   .text:0000000000000da4 .L0 
     /tmp/ccCnP6rB.s:3933   .text:0000000000000da4 .L0 
     /tmp/ccCnP6rB.s:3935   .text:0000000000000da8 .L0 
     /tmp/ccCnP6rB.s:3937   .text:0000000000000dac .L0 
     /tmp/ccCnP6rB.s:3938   .text:0000000000000dac .L0 
     /tmp/ccCnP6rB.s:3944   .text:0000000000000dbc .L0 
     /tmp/ccCnP6rB.s:3945   .text:0000000000000dbc .L0 
     /tmp/ccCnP6rB.s:3948   .text:0000000000000dc4 .L0 
     /tmp/ccCnP6rB.s:3949   .text:0000000000000dc4 .L0 
     /tmp/ccCnP6rB.s:3954   .text:0000000000000dd4 .L0 
     /tmp/ccCnP6rB.s:3958   .text:0000000000000dd8 .L0 
     /tmp/ccCnP6rB.s:3962   .text:0000000000000de0 .L0 
     /tmp/ccCnP6rB.s:3963   .text:0000000000000de0 .L0 
GAS LISTING /tmp/ccCnP6rB.s 			page 292


     /tmp/ccCnP6rB.s:3967   .text:0000000000000df0 .L0 
     /tmp/ccCnP6rB.s:3968   .text:0000000000000df0 .L0 
     /tmp/ccCnP6rB.s:3974   .text:0000000000000e04 .L0 
     /tmp/ccCnP6rB.s:3975   .text:0000000000000e04 .L0 
     /tmp/ccCnP6rB.s:3979   .text:0000000000000e14 .L0 
     /tmp/ccCnP6rB.s:3980   .text:0000000000000e14 .L0 
     /tmp/ccCnP6rB.s:3984   .text:0000000000000e24 .L0 
     /tmp/ccCnP6rB.s:3985   .text:0000000000000e24 .L0 
     /tmp/ccCnP6rB.s:3991   .text:0000000000000e38 .L0 
     /tmp/ccCnP6rB.s:3992   .text:0000000000000e38 .L0 
     /tmp/ccCnP6rB.s:3997   .text:0000000000000e48 .L0 
     /tmp/ccCnP6rB.s:3998   .text:0000000000000e48 .L0 
     /tmp/ccCnP6rB.s:4004   .text:0000000000000e50 .L0 
     /tmp/ccCnP6rB.s:4005   .text:0000000000000e50 .L0 
     /tmp/ccCnP6rB.s:4006   .text:0000000000000e50 .L0 
     /tmp/ccCnP6rB.s:4016   .text:0000000000000e64 .L0 
     /tmp/ccCnP6rB.s:4017   .text:0000000000000e68 .L0 
     /tmp/ccCnP6rB.s:4019   .text:0000000000000e6c .L0 
     /tmp/ccCnP6rB.s:4020   .text:0000000000000e6c .L0 
     /tmp/ccCnP6rB.s:4022   .text:0000000000000e70 .L0 
     /tmp/ccCnP6rB.s:4024   .text:0000000000000e74 .L0 
     /tmp/ccCnP6rB.s:4027   .text:0000000000000e78 .L0 
     /tmp/ccCnP6rB.s:4030   .text:0000000000000e7c .L0 
     /tmp/ccCnP6rB.s:4032   .text:0000000000000e80 .L0 
     /tmp/ccCnP6rB.s:4038   .text:0000000000000e80 _ZN2A93runEv
     /tmp/ccCnP6rB.s:4041   .text:0000000000000e80 .L0 
     /tmp/ccCnP6rB.s:4043   .text:0000000000000e80 .L0 
     /tmp/ccCnP6rB.s:4044   .text:0000000000000e84 .L0 
     /tmp/ccCnP6rB.s:4050   .text:0000000000000e98 .L0 
     /tmp/ccCnP6rB.s:4051   .text:0000000000000e98 .L0 
     /tmp/ccCnP6rB.s:4052   .text:0000000000000e98 .L0 
     /tmp/ccCnP6rB.s:4053   .text:0000000000000e98 .L0 
     /tmp/ccCnP6rB.s:4054   .text:0000000000000e98 .L0 
     /tmp/ccCnP6rB.s:4056   .text:0000000000000e9c .L0 
     /tmp/ccCnP6rB.s:4061   .text:0000000000000ea0 .L0 
     /tmp/ccCnP6rB.s:4062   .text:0000000000000ea0 .L0 
     /tmp/ccCnP6rB.s:4070   .text:0000000000000ea8 .L0 
     /tmp/ccCnP6rB.s:4071   .text:0000000000000ea8 .L0 
     /tmp/ccCnP6rB.s:4075   .text:0000000000000eb0 .L0 
     /tmp/ccCnP6rB.s:4079   .text:0000000000000eb4 .L0 
     /tmp/ccCnP6rB.s:4084   .text:0000000000000ebc .L0 
     /tmp/ccCnP6rB.s:4088   .text:0000000000000ec0 .L0 
     /tmp/ccCnP6rB.s:4091   .text:0000000000000ec8 .L0 
     /tmp/ccCnP6rB.s:4099   .text:0000000000000ed0 .L0 
     /tmp/ccCnP6rB.s:4100   .text:0000000000000ed0 .L0 
     /tmp/ccCnP6rB.s:4104   .text:0000000000000ee0 .L0 
     /tmp/ccCnP6rB.s:4105   .text:0000000000000ee0 .L0 
     /tmp/ccCnP6rB.s:4111   .text:0000000000000ef4 .L0 
     /tmp/ccCnP6rB.s:4112   .text:0000000000000ef4 .L0 
     /tmp/ccCnP6rB.s:4116   .text:0000000000000f04 .L0 
     /tmp/ccCnP6rB.s:4117   .text:0000000000000f04 .L0 
     /tmp/ccCnP6rB.s:4121   .text:0000000000000f14 .L0 
     /tmp/ccCnP6rB.s:4122   .text:0000000000000f14 .L0 
     /tmp/ccCnP6rB.s:4128   .text:0000000000000f28 .L0 
     /tmp/ccCnP6rB.s:4129   .text:0000000000000f28 .L0 
     /tmp/ccCnP6rB.s:4133   .text:0000000000000f38 .L0 
     /tmp/ccCnP6rB.s:4134   .text:0000000000000f38 .L0 
GAS LISTING /tmp/ccCnP6rB.s 			page 293


     /tmp/ccCnP6rB.s:4136   .text:0000000000000f3c .L0 
     /tmp/ccCnP6rB.s:4138   .text:0000000000000f40 .L0 
     /tmp/ccCnP6rB.s:4139   .text:0000000000000f40 .L0 
     /tmp/ccCnP6rB.s:4144   .text:0000000000000f4c .L0 
     /tmp/ccCnP6rB.s:4145   .text:0000000000000f4c .L0 
     /tmp/ccCnP6rB.s:4148   .text:0000000000000f54 .L0 
     /tmp/ccCnP6rB.s:4149   .text:0000000000000f54 .L0 
     /tmp/ccCnP6rB.s:4154   .text:0000000000000f64 .L0 
     /tmp/ccCnP6rB.s:4158   .text:0000000000000f68 .L0 
     /tmp/ccCnP6rB.s:4162   .text:0000000000000f70 .L0 
     /tmp/ccCnP6rB.s:4163   .text:0000000000000f70 .L0 
     /tmp/ccCnP6rB.s:4167   .text:0000000000000f80 .L0 
     /tmp/ccCnP6rB.s:4168   .text:0000000000000f80 .L0 
     /tmp/ccCnP6rB.s:4174   .text:0000000000000f94 .L0 
     /tmp/ccCnP6rB.s:4175   .text:0000000000000f94 .L0 
     /tmp/ccCnP6rB.s:4179   .text:0000000000000fa4 .L0 
     /tmp/ccCnP6rB.s:4180   .text:0000000000000fa4 .L0 
     /tmp/ccCnP6rB.s:4184   .text:0000000000000fb4 .L0 
     /tmp/ccCnP6rB.s:4185   .text:0000000000000fb4 .L0 
     /tmp/ccCnP6rB.s:4191   .text:0000000000000fc8 .L0 
     /tmp/ccCnP6rB.s:4192   .text:0000000000000fc8 .L0 
     /tmp/ccCnP6rB.s:4197   .text:0000000000000fd8 .L0 
     /tmp/ccCnP6rB.s:4198   .text:0000000000000fd8 .L0 
     /tmp/ccCnP6rB.s:4204   .text:0000000000000fe0 .L0 
     /tmp/ccCnP6rB.s:4205   .text:0000000000000fe0 .L0 
     /tmp/ccCnP6rB.s:4206   .text:0000000000000fe0 .L0 
     /tmp/ccCnP6rB.s:4216   .text:0000000000000ff4 .L0 
     /tmp/ccCnP6rB.s:4217   .text:0000000000000ff8 .L0 
     /tmp/ccCnP6rB.s:4219   .text:0000000000000ffc .L0 
     /tmp/ccCnP6rB.s:4220   .text:0000000000000ffc .L0 
     /tmp/ccCnP6rB.s:4222   .text:0000000000001000 .L0 
     /tmp/ccCnP6rB.s:4224   .text:0000000000001004 .L0 
     /tmp/ccCnP6rB.s:4227   .text:0000000000001008 .L0 
     /tmp/ccCnP6rB.s:4230   .text:000000000000100c .L0 
     /tmp/ccCnP6rB.s:4232   .text:0000000000001010 .L0 
     /tmp/ccCnP6rB.s:4238   .text:0000000000001010 _ZN3A103runEv
     /tmp/ccCnP6rB.s:4241   .text:0000000000001010 .L0 
     /tmp/ccCnP6rB.s:4243   .text:0000000000001010 .L0 
     /tmp/ccCnP6rB.s:4244   .text:0000000000001014 .L0 
     /tmp/ccCnP6rB.s:4250   .text:0000000000001028 .L0 
     /tmp/ccCnP6rB.s:4251   .text:0000000000001028 .L0 
     /tmp/ccCnP6rB.s:4252   .text:0000000000001028 .L0 
     /tmp/ccCnP6rB.s:4253   .text:0000000000001028 .L0 
     /tmp/ccCnP6rB.s:4254   .text:0000000000001028 .L0 
     /tmp/ccCnP6rB.s:4256   .text:000000000000102c .L0 
     /tmp/ccCnP6rB.s:4261   .text:0000000000001030 .L0 
     /tmp/ccCnP6rB.s:4262   .text:0000000000001030 .L0 
     /tmp/ccCnP6rB.s:4270   .text:0000000000001038 .L0 
     /tmp/ccCnP6rB.s:4271   .text:0000000000001038 .L0 
     /tmp/ccCnP6rB.s:4275   .text:0000000000001040 .L0 
     /tmp/ccCnP6rB.s:4279   .text:0000000000001044 .L0 
     /tmp/ccCnP6rB.s:4284   .text:000000000000104c .L0 
     /tmp/ccCnP6rB.s:4288   .text:0000000000001050 .L0 
     /tmp/ccCnP6rB.s:4291   .text:0000000000001058 .L0 
     /tmp/ccCnP6rB.s:4299   .text:0000000000001060 .L0 
     /tmp/ccCnP6rB.s:4300   .text:0000000000001060 .L0 
     /tmp/ccCnP6rB.s:4304   .text:0000000000001070 .L0 
GAS LISTING /tmp/ccCnP6rB.s 			page 294


     /tmp/ccCnP6rB.s:4305   .text:0000000000001070 .L0 
     /tmp/ccCnP6rB.s:4311   .text:0000000000001084 .L0 
     /tmp/ccCnP6rB.s:4312   .text:0000000000001084 .L0 
     /tmp/ccCnP6rB.s:4316   .text:0000000000001094 .L0 
     /tmp/ccCnP6rB.s:4317   .text:0000000000001094 .L0 
     /tmp/ccCnP6rB.s:4321   .text:00000000000010a4 .L0 
     /tmp/ccCnP6rB.s:4322   .text:00000000000010a4 .L0 
     /tmp/ccCnP6rB.s:4328   .text:00000000000010b8 .L0 
     /tmp/ccCnP6rB.s:4329   .text:00000000000010b8 .L0 
     /tmp/ccCnP6rB.s:4333   .text:00000000000010c8 .L0 
     /tmp/ccCnP6rB.s:4334   .text:00000000000010c8 .L0 
     /tmp/ccCnP6rB.s:4336   .text:00000000000010cc .L0 
     /tmp/ccCnP6rB.s:4338   .text:00000000000010d0 .L0 
     /tmp/ccCnP6rB.s:4339   .text:00000000000010d0 .L0 
     /tmp/ccCnP6rB.s:4345   .text:00000000000010e0 .L0 
     /tmp/ccCnP6rB.s:4346   .text:00000000000010e0 .L0 
     /tmp/ccCnP6rB.s:4351   .text:00000000000010f0 .L0 
     /tmp/ccCnP6rB.s:4355   .text:00000000000010f4 .L0 
     /tmp/ccCnP6rB.s:4359   .text:00000000000010fc .L0 
     /tmp/ccCnP6rB.s:4360   .text:00000000000010fc .L0 
     /tmp/ccCnP6rB.s:4364   .text:000000000000110c .L0 
     /tmp/ccCnP6rB.s:4365   .text:000000000000110c .L0 
     /tmp/ccCnP6rB.s:4371   .text:0000000000001120 .L0 
     /tmp/ccCnP6rB.s:4372   .text:0000000000001120 .L0 
     /tmp/ccCnP6rB.s:4376   .text:0000000000001130 .L0 
     /tmp/ccCnP6rB.s:4377   .text:0000000000001130 .L0 
     /tmp/ccCnP6rB.s:4381   .text:0000000000001140 .L0 
     /tmp/ccCnP6rB.s:4382   .text:0000000000001140 .L0 
     /tmp/ccCnP6rB.s:4388   .text:0000000000001154 .L0 
     /tmp/ccCnP6rB.s:4389   .text:0000000000001154 .L0 
     /tmp/ccCnP6rB.s:4394   .text:0000000000001164 .L0 
     /tmp/ccCnP6rB.s:4395   .text:0000000000001164 .L0 
     /tmp/ccCnP6rB.s:4401   .text:000000000000116c .L0 
     /tmp/ccCnP6rB.s:4402   .text:000000000000116c .L0 
     /tmp/ccCnP6rB.s:4403   .text:000000000000116c .L0 
     /tmp/ccCnP6rB.s:4413   .text:0000000000001180 .L0 
     /tmp/ccCnP6rB.s:4414   .text:0000000000001184 .L0 
     /tmp/ccCnP6rB.s:4416   .text:0000000000001188 .L0 
     /tmp/ccCnP6rB.s:4417   .text:0000000000001188 .L0 
     /tmp/ccCnP6rB.s:4419   .text:000000000000118c .L0 
     /tmp/ccCnP6rB.s:4421   .text:0000000000001190 .L0 
     /tmp/ccCnP6rB.s:4424   .text:0000000000001194 .L0 
     /tmp/ccCnP6rB.s:4427   .text:0000000000001198 .L0 
     /tmp/ccCnP6rB.s:4429   .text:000000000000119c .L0 
     /tmp/ccCnP6rB.s:4435   .text:000000000000119c _ZN3A113runEv
     /tmp/ccCnP6rB.s:4438   .text:000000000000119c .L0 
     /tmp/ccCnP6rB.s:4440   .text:000000000000119c .L0 
     /tmp/ccCnP6rB.s:4441   .text:00000000000011a0 .L0 
     /tmp/ccCnP6rB.s:4447   .text:00000000000011b4 .L0 
     /tmp/ccCnP6rB.s:4448   .text:00000000000011b4 .L0 
     /tmp/ccCnP6rB.s:4449   .text:00000000000011b4 .L0 
     /tmp/ccCnP6rB.s:4450   .text:00000000000011b4 .L0 
     /tmp/ccCnP6rB.s:4451   .text:00000000000011b4 .L0 
     /tmp/ccCnP6rB.s:4453   .text:00000000000011b8 .L0 
     /tmp/ccCnP6rB.s:4458   .text:00000000000011bc .L0 
     /tmp/ccCnP6rB.s:4459   .text:00000000000011bc .L0 
     /tmp/ccCnP6rB.s:4467   .text:00000000000011c4 .L0 
GAS LISTING /tmp/ccCnP6rB.s 			page 295


     /tmp/ccCnP6rB.s:4468   .text:00000000000011c4 .L0 
     /tmp/ccCnP6rB.s:4472   .text:00000000000011cc .L0 
     /tmp/ccCnP6rB.s:4476   .text:00000000000011d0 .L0 
     /tmp/ccCnP6rB.s:4481   .text:00000000000011d8 .L0 
     /tmp/ccCnP6rB.s:4485   .text:00000000000011dc .L0 
     /tmp/ccCnP6rB.s:4488   .text:00000000000011e4 .L0 
     /tmp/ccCnP6rB.s:4496   .text:00000000000011ec .L0 
     /tmp/ccCnP6rB.s:4497   .text:00000000000011ec .L0 
     /tmp/ccCnP6rB.s:4501   .text:00000000000011fc .L0 
     /tmp/ccCnP6rB.s:4502   .text:00000000000011fc .L0 
     /tmp/ccCnP6rB.s:4508   .text:0000000000001210 .L0 
     /tmp/ccCnP6rB.s:4509   .text:0000000000001210 .L0 
     /tmp/ccCnP6rB.s:4513   .text:0000000000001220 .L0 
     /tmp/ccCnP6rB.s:4514   .text:0000000000001220 .L0 
     /tmp/ccCnP6rB.s:4518   .text:0000000000001230 .L0 
     /tmp/ccCnP6rB.s:4519   .text:0000000000001230 .L0 
     /tmp/ccCnP6rB.s:4525   .text:0000000000001244 .L0 
     /tmp/ccCnP6rB.s:4526   .text:0000000000001244 .L0 
     /tmp/ccCnP6rB.s:4530   .text:0000000000001254 .L0 
     /tmp/ccCnP6rB.s:4531   .text:0000000000001254 .L0 
     /tmp/ccCnP6rB.s:4533   .text:0000000000001258 .L0 
     /tmp/ccCnP6rB.s:4535   .text:000000000000125c .L0 
     /tmp/ccCnP6rB.s:4536   .text:000000000000125c .L0 
     /tmp/ccCnP6rB.s:4541   .text:0000000000001268 .L0 
     /tmp/ccCnP6rB.s:4542   .text:0000000000001268 .L0 
     /tmp/ccCnP6rB.s:4547   .text:0000000000001278 .L0 
     /tmp/ccCnP6rB.s:4551   .text:000000000000127c .L0 
     /tmp/ccCnP6rB.s:4555   .text:0000000000001284 .L0 
     /tmp/ccCnP6rB.s:4556   .text:0000000000001284 .L0 
     /tmp/ccCnP6rB.s:4560   .text:0000000000001294 .L0 
     /tmp/ccCnP6rB.s:4561   .text:0000000000001294 .L0 
     /tmp/ccCnP6rB.s:4567   .text:00000000000012a8 .L0 
     /tmp/ccCnP6rB.s:4568   .text:00000000000012a8 .L0 
     /tmp/ccCnP6rB.s:4572   .text:00000000000012b8 .L0 
     /tmp/ccCnP6rB.s:4573   .text:00000000000012b8 .L0 
     /tmp/ccCnP6rB.s:4577   .text:00000000000012c8 .L0 
     /tmp/ccCnP6rB.s:4578   .text:00000000000012c8 .L0 
     /tmp/ccCnP6rB.s:4584   .text:00000000000012dc .L0 
     /tmp/ccCnP6rB.s:4585   .text:00000000000012dc .L0 
     /tmp/ccCnP6rB.s:4590   .text:00000000000012ec .L0 
     /tmp/ccCnP6rB.s:4591   .text:00000000000012ec .L0 
     /tmp/ccCnP6rB.s:4597   .text:00000000000012f4 .L0 
     /tmp/ccCnP6rB.s:4598   .text:00000000000012f4 .L0 
     /tmp/ccCnP6rB.s:4599   .text:00000000000012f4 .L0 
     /tmp/ccCnP6rB.s:4609   .text:0000000000001308 .L0 
     /tmp/ccCnP6rB.s:4610   .text:000000000000130c .L0 
     /tmp/ccCnP6rB.s:4612   .text:0000000000001310 .L0 
     /tmp/ccCnP6rB.s:4613   .text:0000000000001310 .L0 
     /tmp/ccCnP6rB.s:4615   .text:0000000000001314 .L0 
     /tmp/ccCnP6rB.s:4617   .text:0000000000001318 .L0 
     /tmp/ccCnP6rB.s:4620   .text:000000000000131c .L0 
     /tmp/ccCnP6rB.s:4623   .text:0000000000001320 .L0 
     /tmp/ccCnP6rB.s:4625   .text:0000000000001324 .L0 
     /tmp/ccCnP6rB.s:4645   .text:0000000000001324 _ZN3A123runEv
     /tmp/ccCnP6rB.s:4648   .text:0000000000001324 .L0 
     /tmp/ccCnP6rB.s:4650   .text:0000000000001324 .L0 
     /tmp/ccCnP6rB.s:4651   .text:0000000000001328 .L0 
GAS LISTING /tmp/ccCnP6rB.s 			page 296


     /tmp/ccCnP6rB.s:4655   .text:0000000000001334 .L0 
     /tmp/ccCnP6rB.s:4656   .text:0000000000001334 .L0 
     /tmp/ccCnP6rB.s:4657   .text:0000000000001334 .L0 
     /tmp/ccCnP6rB.s:4659   .text:0000000000001338 .L0 
     /tmp/ccCnP6rB.s:4661   .text:0000000000001338 .L0 
     /tmp/ccCnP6rB.s:4662   .text:0000000000001338 .L0 
     /tmp/ccCnP6rB.s:4668   .text:0000000000001348 .L0 
     /tmp/ccCnP6rB.s:4669   .text:0000000000001348 .L0 
     /tmp/ccCnP6rB.s:4675   .text:0000000000001350 .L0 
     /tmp/ccCnP6rB.s:4676   .text:0000000000001350 .L0 
     /tmp/ccCnP6rB.s:4680   .text:0000000000001358 .L0 
     /tmp/ccCnP6rB.s:4684   .text:000000000000135c .L0 
     /tmp/ccCnP6rB.s:4689   .text:0000000000001364 .L0 
     /tmp/ccCnP6rB.s:4693   .text:0000000000001368 .L0 
     /tmp/ccCnP6rB.s:4696   .text:0000000000001370 .L0 
     /tmp/ccCnP6rB.s:4704   .text:0000000000001378 .L0 
     /tmp/ccCnP6rB.s:4705   .text:0000000000001378 .L0 
     /tmp/ccCnP6rB.s:4706   .text:0000000000001378 .L0 
     /tmp/ccCnP6rB.s:4710   .text:0000000000001388 .L0 
     /tmp/ccCnP6rB.s:4711   .text:0000000000001388 .L0 
     /tmp/ccCnP6rB.s:4716   .text:000000000000139c .L0 
     /tmp/ccCnP6rB.s:4717   .text:000000000000139c .L0 
     /tmp/ccCnP6rB.s:4721   .text:00000000000013ac .L0 
     /tmp/ccCnP6rB.s:4722   .text:00000000000013ac .L0 
     /tmp/ccCnP6rB.s:4726   .text:00000000000013bc .L0 
     /tmp/ccCnP6rB.s:4727   .text:00000000000013c0 .L0 
     /tmp/ccCnP6rB.s:4729   .text:00000000000013c4 .L0 
     /tmp/ccCnP6rB.s:4730   .text:00000000000013c4 .L0 
     /tmp/ccCnP6rB.s:4732   .text:00000000000013c8 .L0 
     /tmp/ccCnP6rB.s:4735   .text:00000000000013cc .L0 
     /tmp/ccCnP6rB.s:4737   .text:00000000000013d0 .L0 
     /tmp/ccCnP6rB.s:4757   .text:00000000000013d0 _ZN3B123runEv
     /tmp/ccCnP6rB.s:4760   .text:00000000000013d0 .L0 
     /tmp/ccCnP6rB.s:4762   .text:00000000000013d0 .L0 
     /tmp/ccCnP6rB.s:4763   .text:00000000000013d4 .L0 
     /tmp/ccCnP6rB.s:4767   .text:00000000000013e0 .L0 
     /tmp/ccCnP6rB.s:4768   .text:00000000000013e0 .L0 
     /tmp/ccCnP6rB.s:4769   .text:00000000000013e0 .L0 
     /tmp/ccCnP6rB.s:4771   .text:00000000000013e4 .L0 
     /tmp/ccCnP6rB.s:4775   .text:00000000000013e4 .L0 
     /tmp/ccCnP6rB.s:4776   .text:00000000000013e4 .L0 
     /tmp/ccCnP6rB.s:4781   .text:00000000000013ec .L0 
     /tmp/ccCnP6rB.s:4782   .text:00000000000013ec .L0 
     /tmp/ccCnP6rB.s:4786   .text:00000000000013fc .L0 
     /tmp/ccCnP6rB.s:4787   .text:00000000000013fc .L0 
     /tmp/ccCnP6rB.s:4791   .text:000000000000140c .L0 
     /tmp/ccCnP6rB.s:4795   .text:0000000000001410 .L0 
     /tmp/ccCnP6rB.s:4800   .text:0000000000001418 .L0 
     /tmp/ccCnP6rB.s:4807   .text:0000000000001420 .L0 
     /tmp/ccCnP6rB.s:4808   .text:0000000000001420 .L0 
     /tmp/ccCnP6rB.s:4812   .text:0000000000001428 .L0 
     /tmp/ccCnP6rB.s:4816   .text:000000000000142c .L0 
     /tmp/ccCnP6rB.s:4821   .text:0000000000001434 .L0 
     /tmp/ccCnP6rB.s:4825   .text:0000000000001438 .L0 
     /tmp/ccCnP6rB.s:4828   .text:0000000000001440 .L0 
     /tmp/ccCnP6rB.s:4836   .text:0000000000001448 .L0 
     /tmp/ccCnP6rB.s:4837   .text:0000000000001448 .L0 
GAS LISTING /tmp/ccCnP6rB.s 			page 297


     /tmp/ccCnP6rB.s:4838   .text:0000000000001448 .L0 
     /tmp/ccCnP6rB.s:4842   .text:0000000000001458 .L0 
     /tmp/ccCnP6rB.s:4843   .text:0000000000001458 .L0 
     /tmp/ccCnP6rB.s:4848   .text:000000000000146c .L0 
     /tmp/ccCnP6rB.s:4849   .text:000000000000146c .L0 
     /tmp/ccCnP6rB.s:4853   .text:000000000000147c .L0 
     /tmp/ccCnP6rB.s:4854   .text:000000000000147c .L0 
     /tmp/ccCnP6rB.s:4858   .text:000000000000148c .L0 
     /tmp/ccCnP6rB.s:4859   .text:0000000000001490 .L0 
     /tmp/ccCnP6rB.s:4861   .text:0000000000001494 .L0 
     /tmp/ccCnP6rB.s:4862   .text:0000000000001494 .L0 
     /tmp/ccCnP6rB.s:4864   .text:0000000000001498 .L0 
     /tmp/ccCnP6rB.s:4867   .text:000000000000149c .L0 
     /tmp/ccCnP6rB.s:4869   .text:00000000000014a0 .L0 
     /tmp/ccCnP6rB.s:4880   .text:00000000000014a0 _ZN3A133runEv
     /tmp/ccCnP6rB.s:4883   .text:00000000000014a0 .L0 
     /tmp/ccCnP6rB.s:4885   .text:00000000000014a0 .L0 
     /tmp/ccCnP6rB.s:4886   .text:00000000000014a4 .L0 
     /tmp/ccCnP6rB.s:4892   .text:00000000000014b8 .L0 
     /tmp/ccCnP6rB.s:4893   .text:00000000000014b8 .L0 
     /tmp/ccCnP6rB.s:4894   .text:00000000000014b8 .L0 
     /tmp/ccCnP6rB.s:4895   .text:00000000000014b8 .L0 
     /tmp/ccCnP6rB.s:4896   .text:00000000000014b8 .L0 
     /tmp/ccCnP6rB.s:4898   .text:00000000000014bc .L0 
     /tmp/ccCnP6rB.s:4903   .text:00000000000014c0 .L0 
     /tmp/ccCnP6rB.s:4904   .text:00000000000014c0 .L0 
     /tmp/ccCnP6rB.s:4912   .text:00000000000014c8 .L0 
     /tmp/ccCnP6rB.s:4913   .text:00000000000014c8 .L0 
     /tmp/ccCnP6rB.s:4917   .text:00000000000014d0 .L0 
     /tmp/ccCnP6rB.s:4921   .text:00000000000014d4 .L0 
     /tmp/ccCnP6rB.s:4927   .text:00000000000014e0 .L0 
     /tmp/ccCnP6rB.s:4931   .text:00000000000014e4 .L0 
     /tmp/ccCnP6rB.s:4934   .text:00000000000014ec .L0 
     /tmp/ccCnP6rB.s:4942   .text:00000000000014f4 .L0 
     /tmp/ccCnP6rB.s:4943   .text:00000000000014f4 .L0 
     /tmp/ccCnP6rB.s:4947   .text:0000000000001504 .L0 
     /tmp/ccCnP6rB.s:4948   .text:0000000000001504 .L0 
     /tmp/ccCnP6rB.s:4954   .text:0000000000001518 .L0 
     /tmp/ccCnP6rB.s:4955   .text:0000000000001518 .L0 
     /tmp/ccCnP6rB.s:4959   .text:0000000000001528 .L0 
     /tmp/ccCnP6rB.s:4963   .text:0000000000001530 .L0 
     /tmp/ccCnP6rB.s:4964   .text:0000000000001530 .L0 
     /tmp/ccCnP6rB.s:4968   .text:0000000000001540 .L0 
     /tmp/ccCnP6rB.s:4969   .text:0000000000001540 .L0 
     /tmp/ccCnP6rB.s:4973   .text:0000000000001548 .L0 
     /tmp/ccCnP6rB.s:4977   .text:000000000000154c .L0 
     /tmp/ccCnP6rB.s:4982   .text:0000000000001554 .L0 
     /tmp/ccCnP6rB.s:4988   .text:000000000000155c .L0 
     /tmp/ccCnP6rB.s:4989   .text:000000000000155c .L0 
     /tmp/ccCnP6rB.s:4993   .text:000000000000156c .L0 
     /tmp/ccCnP6rB.s:4994   .text:000000000000156c .L0 
     /tmp/ccCnP6rB.s:5003   .text:000000000000157c .L0 
     /tmp/ccCnP6rB.s:5004   .text:0000000000001580 .L0 
     /tmp/ccCnP6rB.s:5006   .text:0000000000001584 .L0 
     /tmp/ccCnP6rB.s:5007   .text:0000000000001584 .L0 
     /tmp/ccCnP6rB.s:5009   .text:0000000000001588 .L0 
     /tmp/ccCnP6rB.s:5011   .text:000000000000158c .L0 
GAS LISTING /tmp/ccCnP6rB.s 			page 298


     /tmp/ccCnP6rB.s:5014   .text:0000000000001590 .L0 
     /tmp/ccCnP6rB.s:5017   .text:0000000000001594 .L0 
     /tmp/ccCnP6rB.s:5019   .text:0000000000001598 .L0 
     /tmp/ccCnP6rB.s:5030   .text:0000000000001598 _ZN3C133runEv
     /tmp/ccCnP6rB.s:5033   .text:0000000000001598 .L0 
     /tmp/ccCnP6rB.s:5035   .text:0000000000001598 .L0 
     /tmp/ccCnP6rB.s:5036   .text:000000000000159c .L0 
     /tmp/ccCnP6rB.s:5042   .text:00000000000015b0 .L0 
     /tmp/ccCnP6rB.s:5043   .text:00000000000015b0 .L0 
     /tmp/ccCnP6rB.s:5044   .text:00000000000015b0 .L0 
     /tmp/ccCnP6rB.s:5045   .text:00000000000015b0 .L0 
     /tmp/ccCnP6rB.s:5046   .text:00000000000015b0 .L0 
     /tmp/ccCnP6rB.s:5048   .text:00000000000015b4 .L0 
     /tmp/ccCnP6rB.s:5053   .text:00000000000015b8 .L0 
     /tmp/ccCnP6rB.s:5054   .text:00000000000015b8 .L0 
     /tmp/ccCnP6rB.s:5062   .text:00000000000015c0 .L0 
     /tmp/ccCnP6rB.s:5063   .text:00000000000015c0 .L0 
     /tmp/ccCnP6rB.s:5067   .text:00000000000015c8 .L0 
     /tmp/ccCnP6rB.s:5071   .text:00000000000015cc .L0 
     /tmp/ccCnP6rB.s:5077   .text:00000000000015d8 .L0 
     /tmp/ccCnP6rB.s:5081   .text:00000000000015dc .L0 
     /tmp/ccCnP6rB.s:5084   .text:00000000000015e4 .L0 
     /tmp/ccCnP6rB.s:5092   .text:00000000000015ec .L0 
     /tmp/ccCnP6rB.s:5093   .text:00000000000015ec .L0 
     /tmp/ccCnP6rB.s:5097   .text:00000000000015fc .L0 
     /tmp/ccCnP6rB.s:5098   .text:00000000000015fc .L0 
     /tmp/ccCnP6rB.s:5104   .text:0000000000001610 .L0 
     /tmp/ccCnP6rB.s:5105   .text:0000000000001610 .L0 
     /tmp/ccCnP6rB.s:5109   .text:0000000000001620 .L0 
     /tmp/ccCnP6rB.s:5113   .text:0000000000001628 .L0 
     /tmp/ccCnP6rB.s:5114   .text:0000000000001628 .L0 
     /tmp/ccCnP6rB.s:5118   .text:0000000000001630 .L0 
     /tmp/ccCnP6rB.s:5122   .text:0000000000001634 .L0 
     /tmp/ccCnP6rB.s:5127   .text:000000000000163c .L0 
     /tmp/ccCnP6rB.s:5133   .text:0000000000001644 .L0 
     /tmp/ccCnP6rB.s:5134   .text:0000000000001644 .L0 
     /tmp/ccCnP6rB.s:5138   .text:0000000000001654 .L0 
     /tmp/ccCnP6rB.s:5139   .text:0000000000001654 .L0 
     /tmp/ccCnP6rB.s:5148   .text:0000000000001664 .L0 
     /tmp/ccCnP6rB.s:5149   .text:0000000000001668 .L0 
     /tmp/ccCnP6rB.s:5151   .text:000000000000166c .L0 
     /tmp/ccCnP6rB.s:5152   .text:000000000000166c .L0 
     /tmp/ccCnP6rB.s:5154   .text:0000000000001670 .L0 
     /tmp/ccCnP6rB.s:5156   .text:0000000000001674 .L0 
     /tmp/ccCnP6rB.s:5159   .text:0000000000001678 .L0 
     /tmp/ccCnP6rB.s:5162   .text:000000000000167c .L0 
     /tmp/ccCnP6rB.s:5164   .text:0000000000001680 .L0 
     /tmp/ccCnP6rB.s:5187   .text._ZN11testTRYWait3runEv:0000000000000000 _ZN11testTRYWait3runEv
     /tmp/ccCnP6rB.s:5190   .text._ZN11testTRYWait3runEv:0000000000000000 .L0 
     /tmp/ccCnP6rB.s:5192   .text._ZN11testTRYWait3runEv:0000000000000000 .L0 
     /tmp/ccCnP6rB.s:5193   .text._ZN11testTRYWait3runEv:0000000000000004 .L0 
     /tmp/ccCnP6rB.s:5200   .text._ZN11testTRYWait3runEv:000000000000001c .L0 
     /tmp/ccCnP6rB.s:5201   .text._ZN11testTRYWait3runEv:000000000000001c .L0 
     /tmp/ccCnP6rB.s:5202   .text._ZN11testTRYWait3runEv:000000000000001c .L0 
     /tmp/ccCnP6rB.s:5203   .text._ZN11testTRYWait3runEv:000000000000001c .L0 
     /tmp/ccCnP6rB.s:5204   .text._ZN11testTRYWait3runEv:000000000000001c .L0 
     /tmp/ccCnP6rB.s:5205   .text._ZN11testTRYWait3runEv:000000000000001c .L0 
GAS LISTING /tmp/ccCnP6rB.s 			page 299


     /tmp/ccCnP6rB.s:5207   .text._ZN11testTRYWait3runEv:0000000000000020 .L0 
     /tmp/ccCnP6rB.s:5211   .text._ZN11testTRYWait3runEv:0000000000000024 .L0 
     /tmp/ccCnP6rB.s:5212   .text._ZN11testTRYWait3runEv:0000000000000024 .L0 
     /tmp/ccCnP6rB.s:5220   .text._ZN11testTRYWait3runEv:000000000000002c .L0 
     /tmp/ccCnP6rB.s:5221   .text._ZN11testTRYWait3runEv:000000000000002c .L0 
     /tmp/ccCnP6rB.s:5226   .text._ZN11testTRYWait3runEv:000000000000003c .L0 
     /tmp/ccCnP6rB.s:5227   .text._ZN11testTRYWait3runEv:000000000000003c .L0 
     /tmp/ccCnP6rB.s:5233   .text._ZN11testTRYWait3runEv:0000000000000050 .L0 
     /tmp/ccCnP6rB.s:5234   .text._ZN11testTRYWait3runEv:0000000000000050 .L0 
     /tmp/ccCnP6rB.s:5239   .text._ZN11testTRYWait3runEv:0000000000000060 .L0 
     /tmp/ccCnP6rB.s:5240   .text._ZN11testTRYWait3runEv:0000000000000060 .L0 
     /tmp/ccCnP6rB.s:5246   .text._ZN11testTRYWait3runEv:0000000000000068 .L0 
     /tmp/ccCnP6rB.s:5247   .text._ZN11testTRYWait3runEv:0000000000000068 .L0 
     /tmp/ccCnP6rB.s:5251   .text._ZN11testTRYWait3runEv:0000000000000070 .L0 
     /tmp/ccCnP6rB.s:5255   .text._ZN11testTRYWait3runEv:0000000000000074 .L0 
     /tmp/ccCnP6rB.s:5261   .text._ZN11testTRYWait3runEv:0000000000000080 .L0 
     /tmp/ccCnP6rB.s:5265   .text._ZN11testTRYWait3runEv:0000000000000084 .L0 
     /tmp/ccCnP6rB.s:5269   .text._ZN11testTRYWait3runEv:0000000000000090 .L0 
     /tmp/ccCnP6rB.s:5277   .text._ZN11testTRYWait3runEv:0000000000000098 .L0 
     /tmp/ccCnP6rB.s:5278   .text._ZN11testTRYWait3runEv:0000000000000098 .L0 
     /tmp/ccCnP6rB.s:5282   .text._ZN11testTRYWait3runEv:00000000000000a4 .L0 
     /tmp/ccCnP6rB.s:5283   .text._ZN11testTRYWait3runEv:00000000000000a4 .L0 
     /tmp/ccCnP6rB.s:5287   .text._ZN11testTRYWait3runEv:00000000000000b4 .L0 
     /tmp/ccCnP6rB.s:5288   .text._ZN11testTRYWait3runEv:00000000000000b4 .L0 
     /tmp/ccCnP6rB.s:5294   .text._ZN11testTRYWait3runEv:00000000000000c8 .L0 
     /tmp/ccCnP6rB.s:5295   .text._ZN11testTRYWait3runEv:00000000000000c8 .L0 
     /tmp/ccCnP6rB.s:5303   .text._ZN11testTRYWait3runEv:00000000000000d8 .L0 
     /tmp/ccCnP6rB.s:5304   .text._ZN11testTRYWait3runEv:00000000000000d8 .L0 
     /tmp/ccCnP6rB.s:5305   .text._ZN11testTRYWait3runEv:00000000000000d8 .L0 
     /tmp/ccCnP6rB.s:5309   .text._ZN11testTRYWait3runEv:00000000000000e8 .L0 
     /tmp/ccCnP6rB.s:5310   .text._ZN11testTRYWait3runEv:00000000000000e8 .L0 
     /tmp/ccCnP6rB.s:5314   .text._ZN11testTRYWait3runEv:00000000000000f8 .L0 
     /tmp/ccCnP6rB.s:5315   .text._ZN11testTRYWait3runEv:00000000000000fc .L0 
     /tmp/ccCnP6rB.s:5316   .text._ZN11testTRYWait3runEv:00000000000000fc .L0 
     /tmp/ccCnP6rB.s:5318   .text._ZN11testTRYWait3runEv:0000000000000100 .L0 
     /tmp/ccCnP6rB.s:5319   .text._ZN11testTRYWait3runEv:0000000000000100 .L0 
     /tmp/ccCnP6rB.s:5321   .text._ZN11testTRYWait3runEv:0000000000000104 .L0 
     /tmp/ccCnP6rB.s:5323   .text._ZN11testTRYWait3runEv:0000000000000108 .L0 
     /tmp/ccCnP6rB.s:5326   .text._ZN11testTRYWait3runEv:000000000000010c .L0 
     /tmp/ccCnP6rB.s:5328   .text._ZN11testTRYWait3runEv:0000000000000110 .L0 
     /tmp/ccCnP6rB.s:5331   .text._ZN11testTRYWait3runEv:0000000000000114 .L0 
     /tmp/ccCnP6rB.s:5335   .text._ZN11testTRYWait3runEv:0000000000000118 .L0 
     /tmp/ccCnP6rB.s:5341   .text._ZN11testTRYWait3runEv:0000000000000118 .L0 
     /tmp/ccCnP6rB.s:5342   .text._ZN11testTRYWait3runEv:0000000000000118 .L0 
     /tmp/ccCnP6rB.s:5347   .text._ZN11testTRYWait3runEv:0000000000000128 .L0 
     /tmp/ccCnP6rB.s:5348   .text._ZN11testTRYWait3runEv:0000000000000128 .L0 
     /tmp/ccCnP6rB.s:5354   .text._ZN11testTRYWait3runEv:000000000000013c .L0 
     /tmp/ccCnP6rB.s:5355   .text._ZN11testTRYWait3runEv:000000000000013c .L0 
     /tmp/ccCnP6rB.s:5360   .text._ZN11testTRYWait3runEv:000000000000014c .L0 
     /tmp/ccCnP6rB.s:5361   .text._ZN11testTRYWait3runEv:000000000000014c .L0 
     /tmp/ccCnP6rB.s:5367   .text._ZN11testTRYWait3runEv:0000000000000154 .L0 
     /tmp/ccCnP6rB.s:5368   .text._ZN11testTRYWait3runEv:0000000000000154 .L0 
     /tmp/ccCnP6rB.s:5372   .text._ZN11testTRYWait3runEv:000000000000015c .L0 
     /tmp/ccCnP6rB.s:5376   .text._ZN11testTRYWait3runEv:0000000000000160 .L0 
     /tmp/ccCnP6rB.s:5382   .text._ZN11testTRYWait3runEv:000000000000016c .L0 
     /tmp/ccCnP6rB.s:5386   .text._ZN11testTRYWait3runEv:0000000000000170 .L0 
     /tmp/ccCnP6rB.s:5390   .text._ZN11testTRYWait3runEv:000000000000017c .L0 
GAS LISTING /tmp/ccCnP6rB.s 			page 300


     /tmp/ccCnP6rB.s:5402   .text._ZN11testTRYWait3runEv:0000000000000184 .L0 
     /tmp/ccCnP6rB.s:5403   .text._ZN11testTRYWait3runEv:0000000000000184 .L0 
     /tmp/ccCnP6rB.s:5406   .text._ZN11testTRYWait3runEv:0000000000000188 .L0 
     /tmp/ccCnP6rB.s:5407   .text._ZN11testTRYWait3runEv:0000000000000188 .L0 
     /tmp/ccCnP6rB.s:5412   .text._ZN11testTRYWait3runEv:0000000000000190 .L0 
     /tmp/ccCnP6rB.s:5413   .text._ZN11testTRYWait3runEv:0000000000000190 .L0 
     /tmp/ccCnP6rB.s:5416   .text._ZN11testTRYWait3runEv:0000000000000194 .L0 
     /tmp/ccCnP6rB.s:5417   .text._ZN11testTRYWait3runEv:0000000000000194 .L0 
     /tmp/ccCnP6rB.s:5423   .text._ZN11testTRYWait3runEv:00000000000001a4 .L0 
     /tmp/ccCnP6rB.s:5424   .text._ZN11testTRYWait3runEv:00000000000001a4 .L0 
     /tmp/ccCnP6rB.s:5429   .text._ZN11testTRYWait3runEv:00000000000001b0 .L0 
     /tmp/ccCnP6rB.s:5437   .text._ZN11testTRYWait3runEv:00000000000001b8 .L0 
     /tmp/ccCnP6rB.s:5440   .text._ZN11testTRYWait3runEv:00000000000001c0 .L0 
     /tmp/ccCnP6rB.s:5441   .text._ZN11testTRYWait3runEv:00000000000001c0 .L0 
     /tmp/ccCnP6rB.s:5449   .text._ZN11testTRYWait3runEv:00000000000001d4 .L0 
     /tmp/ccCnP6rB.s:5469   .text:0000000000001680 _ZN2A43runEv
     /tmp/ccCnP6rB.s:5472   .text:0000000000001680 .L0 
     /tmp/ccCnP6rB.s:32403  .data.rel.local.DW.ref.__gxx_personality_v0:0000000000000000 DW.ref.__gxx_personality_v0
     /tmp/ccCnP6rB.s:5476   .text:0000000000001680 .L0 
     /tmp/ccCnP6rB.s:5477   .text:0000000000001684 .L0 
     /tmp/ccCnP6rB.s:5485   .text:00000000000016a0 .L0 
     /tmp/ccCnP6rB.s:5486   .text:00000000000016a0 .L0 
     /tmp/ccCnP6rB.s:5487   .text:00000000000016a0 .L0 
     /tmp/ccCnP6rB.s:5488   .text:00000000000016a0 .L0 
     /tmp/ccCnP6rB.s:5489   .text:00000000000016a0 .L0 
     /tmp/ccCnP6rB.s:5490   .text:00000000000016a0 .L0 
     /tmp/ccCnP6rB.s:5491   .text:00000000000016a0 .L0 
     /tmp/ccCnP6rB.s:5493   .text:00000000000016a4 .L0 
     /tmp/ccCnP6rB.s:5495   .text:00000000000016a4 .L0 
     /tmp/ccCnP6rB.s:5496   .text:00000000000016a4 .L0 
     /tmp/ccCnP6rB.s:5508   .text:00000000000016b4 .L0 
     /tmp/ccCnP6rB.s:5514   .text:00000000000016c8 .L0 
     /tmp/ccCnP6rB.s:5519   .text:00000000000016dc .L0 
     /tmp/ccCnP6rB.s:5521   .text:00000000000016e0 .L0 
     /tmp/ccCnP6rB.s:5522   .text:00000000000016e0 .L0 
     /tmp/ccCnP6rB.s:5527   .text:00000000000016f0 .L0 
     /tmp/ccCnP6rB.s:5528   .text:00000000000016f0 .L0 
     /tmp/ccCnP6rB.s:5534   .text:0000000000001704 .L0 
     /tmp/ccCnP6rB.s:5535   .text:0000000000001704 .L0 
     /tmp/ccCnP6rB.s:5543   .text:000000000000171c .L0 
     /tmp/ccCnP6rB.s:5550   .text:0000000000001728 .L0 
     /tmp/ccCnP6rB.s:5559   .text:0000000000001740 .L0 
     /tmp/ccCnP6rB.s:5560   .text:0000000000001740 .L0 
     /tmp/ccCnP6rB.s:5570   .text:0000000000001750 .L0 
     /tmp/ccCnP6rB.s:5574   .text:0000000000001758 .L0 
     /tmp/ccCnP6rB.s:5577   .text:0000000000001764 .L0 
     /tmp/ccCnP6rB.s:5582   .text:0000000000001778 .L0 
     /tmp/ccCnP6rB.s:5584   .text:000000000000177c .L0 
     /tmp/ccCnP6rB.s:5585   .text:000000000000177c .L0 
     /tmp/ccCnP6rB.s:5590   .text:000000000000178c .L0 
     /tmp/ccCnP6rB.s:5591   .text:000000000000178c .L0 
     /tmp/ccCnP6rB.s:5597   .text:00000000000017a0 .L0 
     /tmp/ccCnP6rB.s:5598   .text:00000000000017a0 .L0 
     /tmp/ccCnP6rB.s:5606   .text:00000000000017b8 .L0 
     /tmp/ccCnP6rB.s:5613   .text:00000000000017c4 .L0 
     /tmp/ccCnP6rB.s:5622   .text:00000000000017dc .L0 
     /tmp/ccCnP6rB.s:5623   .text:00000000000017dc .L0 
GAS LISTING /tmp/ccCnP6rB.s 			page 301


     /tmp/ccCnP6rB.s:5633   .text:00000000000017ec .L0 
     /tmp/ccCnP6rB.s:5637   .text:00000000000017f4 .L0 
     /tmp/ccCnP6rB.s:5640   .text:0000000000001800 .L0 
     /tmp/ccCnP6rB.s:5645   .text:0000000000001814 .L0 
     /tmp/ccCnP6rB.s:5647   .text:0000000000001818 .L0 
     /tmp/ccCnP6rB.s:5648   .text:0000000000001818 .L0 
     /tmp/ccCnP6rB.s:5653   .text:0000000000001828 .L0 
     /tmp/ccCnP6rB.s:5654   .text:0000000000001828 .L0 
     /tmp/ccCnP6rB.s:5660   .text:000000000000183c .L0 
     /tmp/ccCnP6rB.s:5661   .text:000000000000183c .L0 
     /tmp/ccCnP6rB.s:5669   .text:0000000000001854 .L0 
     /tmp/ccCnP6rB.s:5676   .text:0000000000001860 .L0 
     /tmp/ccCnP6rB.s:5685   .text:0000000000001878 .L0 
     /tmp/ccCnP6rB.s:5686   .text:0000000000001878 .L0 
     /tmp/ccCnP6rB.s:5696   .text:0000000000001888 .L0 
     /tmp/ccCnP6rB.s:5700   .text:0000000000001890 .L0 
     /tmp/ccCnP6rB.s:5703   .text:000000000000189c .L0 
     /tmp/ccCnP6rB.s:5708   .text:00000000000018b0 .L0 
     /tmp/ccCnP6rB.s:5710   .text:00000000000018b4 .L0 
     /tmp/ccCnP6rB.s:5711   .text:00000000000018b4 .L0 
     /tmp/ccCnP6rB.s:5716   .text:00000000000018c4 .L0 
     /tmp/ccCnP6rB.s:5717   .text:00000000000018c4 .L0 
     /tmp/ccCnP6rB.s:5723   .text:00000000000018d8 .L0 
     /tmp/ccCnP6rB.s:5724   .text:00000000000018d8 .L0 
     /tmp/ccCnP6rB.s:5732   .text:00000000000018f0 .L0 
     /tmp/ccCnP6rB.s:5739   .text:00000000000018fc .L0 
     /tmp/ccCnP6rB.s:5748   .text:0000000000001914 .L0 
     /tmp/ccCnP6rB.s:5749   .text:0000000000001914 .L0 
     /tmp/ccCnP6rB.s:5753   .text:0000000000001920 .L0 
     /tmp/ccCnP6rB.s:5754   .text:0000000000001920 .L0 
     /tmp/ccCnP6rB.s:5758   .text:000000000000192c .L0 
     /tmp/ccCnP6rB.s:5759   .text:000000000000192c .L0 
     /tmp/ccCnP6rB.s:5763   .text:0000000000001938 .L0 
     /tmp/ccCnP6rB.s:5764   .text:0000000000001938 .L0 
     /tmp/ccCnP6rB.s:5768   .text:0000000000001944 .L0 
     /tmp/ccCnP6rB.s:5769   .text:0000000000001944 .L0 
     /tmp/ccCnP6rB.s:5774   .text:0000000000001954 .L0 
     /tmp/ccCnP6rB.s:5775   .text:0000000000001954 .L0 
     /tmp/ccCnP6rB.s:5781   .text:000000000000195c .L0 
     /tmp/ccCnP6rB.s:5782   .text:000000000000195c .L0 
     /tmp/ccCnP6rB.s:5786   .text:0000000000001964 .L0 
     /tmp/ccCnP6rB.s:5790   .text:0000000000001968 .L0 
     /tmp/ccCnP6rB.s:5795   .text:0000000000001970 .L0 
     /tmp/ccCnP6rB.s:5799   .text:0000000000001974 .L0 
     /tmp/ccCnP6rB.s:5803   .text:0000000000001980 .L0 
     /tmp/ccCnP6rB.s:5811   .text:0000000000001988 .L0 
     /tmp/ccCnP6rB.s:5812   .text:0000000000001988 .L0 
     /tmp/ccCnP6rB.s:5815   .text:0000000000001990 .L0 
     /tmp/ccCnP6rB.s:5816   .text:0000000000001990 .L0 
     /tmp/ccCnP6rB.s:5821   .text:00000000000019a0 .L0 
     /tmp/ccCnP6rB.s:5822   .text:00000000000019a4 .L0 
     /tmp/ccCnP6rB.s:5823   .text:00000000000019a4 .L0 
     /tmp/ccCnP6rB.s:5825   .text:00000000000019a8 .L0 
     /tmp/ccCnP6rB.s:5826   .text:00000000000019a8 .L0 
     /tmp/ccCnP6rB.s:5828   .text:00000000000019ac .L0 
     /tmp/ccCnP6rB.s:5831   .text:00000000000019b0 .L0 
     /tmp/ccCnP6rB.s:5834   .text:00000000000019b4 .L0 
GAS LISTING /tmp/ccCnP6rB.s 			page 302


     /tmp/ccCnP6rB.s:5837   .text:00000000000019b8 .L0 
     /tmp/ccCnP6rB.s:5840   .text:00000000000019bc .L0 
     /tmp/ccCnP6rB.s:5843   .text:00000000000019c0 .L0 
     /tmp/ccCnP6rB.s:5847   .text:00000000000019c4 .L0 
     /tmp/ccCnP6rB.s:5862   .text:00000000000019e4 .L0 
     /tmp/ccCnP6rB.s:5936   .text:00000000000019e4 _ZN2B43runEv
     /tmp/ccCnP6rB.s:5939   .text:00000000000019e4 .L0 
     /tmp/ccCnP6rB.s:5943   .text:00000000000019e4 .L0 
     /tmp/ccCnP6rB.s:5944   .text:00000000000019e8 .L0 
     /tmp/ccCnP6rB.s:5951   .text:0000000000001a00 .L0 
     /tmp/ccCnP6rB.s:5952   .text:0000000000001a00 .L0 
     /tmp/ccCnP6rB.s:5953   .text:0000000000001a00 .L0 
     /tmp/ccCnP6rB.s:5954   .text:0000000000001a00 .L0 
     /tmp/ccCnP6rB.s:5955   .text:0000000000001a00 .L0 
     /tmp/ccCnP6rB.s:5956   .text:0000000000001a00 .L0 
     /tmp/ccCnP6rB.s:5958   .text:0000000000001a04 .L0 
     /tmp/ccCnP6rB.s:5960   .text:0000000000001a04 .L0 
     /tmp/ccCnP6rB.s:5961   .text:0000000000001a04 .L0 
     /tmp/ccCnP6rB.s:5973   .text:0000000000001a14 .L0 
     /tmp/ccCnP6rB.s:5979   .text:0000000000001a28 .L0 
     /tmp/ccCnP6rB.s:5984   .text:0000000000001a3c .L0 
     /tmp/ccCnP6rB.s:5986   .text:0000000000001a40 .L0 
     /tmp/ccCnP6rB.s:5987   .text:0000000000001a40 .L0 
     /tmp/ccCnP6rB.s:5992   .text:0000000000001a50 .L0 
     /tmp/ccCnP6rB.s:5993   .text:0000000000001a50 .L0 
     /tmp/ccCnP6rB.s:5999   .text:0000000000001a64 .L0 
     /tmp/ccCnP6rB.s:6000   .text:0000000000001a64 .L0 
     /tmp/ccCnP6rB.s:6008   .text:0000000000001a7c .L0 
     /tmp/ccCnP6rB.s:6015   .text:0000000000001a88 .L0 
     /tmp/ccCnP6rB.s:6024   .text:0000000000001aa0 .L0 
     /tmp/ccCnP6rB.s:6025   .text:0000000000001aa0 .L0 
     /tmp/ccCnP6rB.s:6035   .text:0000000000001ab0 .L0 
     /tmp/ccCnP6rB.s:6039   .text:0000000000001ab8 .L0 
     /tmp/ccCnP6rB.s:6042   .text:0000000000001ac4 .L0 
     /tmp/ccCnP6rB.s:6047   .text:0000000000001ad8 .L0 
     /tmp/ccCnP6rB.s:6049   .text:0000000000001adc .L0 
     /tmp/ccCnP6rB.s:6050   .text:0000000000001adc .L0 
     /tmp/ccCnP6rB.s:6055   .text:0000000000001aec .L0 
     /tmp/ccCnP6rB.s:6056   .text:0000000000001aec .L0 
     /tmp/ccCnP6rB.s:6062   .text:0000000000001b00 .L0 
     /tmp/ccCnP6rB.s:6063   .text:0000000000001b00 .L0 
     /tmp/ccCnP6rB.s:6071   .text:0000000000001b18 .L0 
     /tmp/ccCnP6rB.s:6078   .text:0000000000001b24 .L0 
     /tmp/ccCnP6rB.s:6087   .text:0000000000001b3c .L0 
     /tmp/ccCnP6rB.s:6088   .text:0000000000001b3c .L0 
     /tmp/ccCnP6rB.s:6098   .text:0000000000001b4c .L0 
     /tmp/ccCnP6rB.s:6102   .text:0000000000001b54 .L0 
     /tmp/ccCnP6rB.s:6105   .text:0000000000001b60 .L0 
     /tmp/ccCnP6rB.s:6110   .text:0000000000001b74 .L0 
     /tmp/ccCnP6rB.s:6112   .text:0000000000001b78 .L0 
     /tmp/ccCnP6rB.s:6113   .text:0000000000001b78 .L0 
     /tmp/ccCnP6rB.s:6118   .text:0000000000001b88 .L0 
     /tmp/ccCnP6rB.s:6119   .text:0000000000001b88 .L0 
     /tmp/ccCnP6rB.s:6125   .text:0000000000001b9c .L0 
     /tmp/ccCnP6rB.s:6126   .text:0000000000001b9c .L0 
     /tmp/ccCnP6rB.s:6134   .text:0000000000001bb4 .L0 
     /tmp/ccCnP6rB.s:6141   .text:0000000000001bc0 .L0 
GAS LISTING /tmp/ccCnP6rB.s 			page 303


     /tmp/ccCnP6rB.s:6150   .text:0000000000001bd8 .L0 
     /tmp/ccCnP6rB.s:6151   .text:0000000000001bd8 .L0 
     /tmp/ccCnP6rB.s:6155   .text:0000000000001be4 .L0 
     /tmp/ccCnP6rB.s:6156   .text:0000000000001be4 .L0 
     /tmp/ccCnP6rB.s:6160   .text:0000000000001bf0 .L0 
     /tmp/ccCnP6rB.s:6161   .text:0000000000001bf0 .L0 
     /tmp/ccCnP6rB.s:6165   .text:0000000000001bfc .L0 
     /tmp/ccCnP6rB.s:6166   .text:0000000000001bfc .L0 
     /tmp/ccCnP6rB.s:6171   .text:0000000000001c0c .L0 
     /tmp/ccCnP6rB.s:6172   .text:0000000000001c0c .L0 
     /tmp/ccCnP6rB.s:6178   .text:0000000000001c14 .L0 
     /tmp/ccCnP6rB.s:6179   .text:0000000000001c14 .L0 
     /tmp/ccCnP6rB.s:6183   .text:0000000000001c1c .L0 
     /tmp/ccCnP6rB.s:6187   .text:0000000000001c20 .L0 
     /tmp/ccCnP6rB.s:6192   .text:0000000000001c28 .L0 
     /tmp/ccCnP6rB.s:6196   .text:0000000000001c2c .L0 
     /tmp/ccCnP6rB.s:6200   .text:0000000000001c38 .L0 
     /tmp/ccCnP6rB.s:6208   .text:0000000000001c40 .L0 
     /tmp/ccCnP6rB.s:6209   .text:0000000000001c40 .L0 
     /tmp/ccCnP6rB.s:6212   .text:0000000000001c48 .L0 
     /tmp/ccCnP6rB.s:6213   .text:0000000000001c48 .L0 
     /tmp/ccCnP6rB.s:6218   .text:0000000000001c58 .L0 
     /tmp/ccCnP6rB.s:6219   .text:0000000000001c5c .L0 
     /tmp/ccCnP6rB.s:6220   .text:0000000000001c5c .L0 
     /tmp/ccCnP6rB.s:6222   .text:0000000000001c60 .L0 
     /tmp/ccCnP6rB.s:6223   .text:0000000000001c60 .L0 
     /tmp/ccCnP6rB.s:6225   .text:0000000000001c64 .L0 
     /tmp/ccCnP6rB.s:6228   .text:0000000000001c68 .L0 
     /tmp/ccCnP6rB.s:6231   .text:0000000000001c6c .L0 
     /tmp/ccCnP6rB.s:6234   .text:0000000000001c70 .L0 
     /tmp/ccCnP6rB.s:6237   .text:0000000000001c74 .L0 
     /tmp/ccCnP6rB.s:6241   .text:0000000000001c78 .L0 
     /tmp/ccCnP6rB.s:6252   .text:0000000000001c90 .L0 
     /tmp/ccCnP6rB.s:6313   .text:0000000000001c90 _Z5test8v
     /tmp/ccCnP6rB.s:6316   .text:0000000000001c90 .L0 
     /tmp/ccCnP6rB.s:6319   .text:0000000000001c90 .L0 
     /tmp/ccCnP6rB.s:6320   .text:0000000000001c94 .L0 
     /tmp/ccCnP6rB.s:6326   .text:0000000000001ca8 .L0 
     /tmp/ccCnP6rB.s:6327   .text:0000000000001ca8 .L0 
     /tmp/ccCnP6rB.s:6328   .text:0000000000001ca8 .L0 
     /tmp/ccCnP6rB.s:6329   .text:0000000000001ca8 .L0 
     /tmp/ccCnP6rB.s:6330   .text:0000000000001ca8 .L0 
     /tmp/ccCnP6rB.s:6332   .text:0000000000001cac .L0 
     /tmp/ccCnP6rB.s:6335   .text:0000000000001cac .L0 
     /tmp/ccCnP6rB.s:6337   .text:0000000000001cac .L0 
     /tmp/ccCnP6rB.s:6338   .text:0000000000001cac .L0 
     /tmp/ccCnP6rB.s:6345   .text:0000000000001cb4 .L0 
     /tmp/ccCnP6rB.s:6348   .text:0000000000001cc0 .L0 
     /tmp/ccCnP6rB.s:6353   .text:0000000000001cd4 .L0 
     /tmp/ccCnP6rB.s:6356   .text:0000000000001cdc .L0 
     /tmp/ccCnP6rB.s:6357   .text:0000000000001cdc .L0 
     /tmp/ccCnP6rB.s:6362   .text:0000000000001cec .L0 
     /tmp/ccCnP6rB.s:6363   .text:0000000000001cec .L0 
     /tmp/ccCnP6rB.s:6369   .text:0000000000001d00 .L0 
     /tmp/ccCnP6rB.s:6370   .text:0000000000001d00 .L0 
     /tmp/ccCnP6rB.s:6379   .text:0000000000001d18 .L0 
     /tmp/ccCnP6rB.s:6386   .text:0000000000001d24 .L0 
GAS LISTING /tmp/ccCnP6rB.s 			page 304


     /tmp/ccCnP6rB.s:6395   .text:0000000000001d3c .L0 
     /tmp/ccCnP6rB.s:6401   .text:0000000000001d4c .L0 
     /tmp/ccCnP6rB.s:6405   .text:0000000000001d50 .L0 
     /tmp/ccCnP6rB.s:6408   .text:0000000000001d58 .L0 
     /tmp/ccCnP6rB.s:6409   .text:0000000000001d58 .L0 
     /tmp/ccCnP6rB.s:6412   .text:0000000000001d60 .L0 
     /tmp/ccCnP6rB.s:6414   .text:0000000000001d64 .L0 
     /tmp/ccCnP6rB.s:6415   .text:0000000000001d64 .L0 
     /tmp/ccCnP6rB.s:6424   .text:0000000000001d74 .L0 
     /tmp/ccCnP6rB.s:6435   .text:0000000000001d84 .L0 
     /tmp/ccCnP6rB.s:6436   .text:0000000000001d84 .L0 
     /tmp/ccCnP6rB.s:6446   .text:0000000000001d94 .L0 
     /tmp/ccCnP6rB.s:6454   .text:0000000000001dac .L0 
     /tmp/ccCnP6rB.s:6459   .text:0000000000001dc0 .L0 
     /tmp/ccCnP6rB.s:6463   .text:0000000000001dcc .L0 
     /tmp/ccCnP6rB.s:6464   .text:0000000000001dcc .L0 
     /tmp/ccCnP6rB.s:6469   .text:0000000000001ddc .L0 
     /tmp/ccCnP6rB.s:6470   .text:0000000000001ddc .L0 
     /tmp/ccCnP6rB.s:6476   .text:0000000000001df0 .L0 
     /tmp/ccCnP6rB.s:6477   .text:0000000000001df0 .L0 
     /tmp/ccCnP6rB.s:6486   .text:0000000000001e08 .L0 
     /tmp/ccCnP6rB.s:6493   .text:0000000000001e14 .L0 
     /tmp/ccCnP6rB.s:6502   .text:0000000000001e2c .L0 
     /tmp/ccCnP6rB.s:6512   .text:0000000000001e40 .L0 
     /tmp/ccCnP6rB.s:6513   .text:0000000000001e40 .L0 
     /tmp/ccCnP6rB.s:6519   .text:0000000000001e48 .L0 
     /tmp/ccCnP6rB.s:6522   .text:0000000000001e4c .L0 
     /tmp/ccCnP6rB.s:6523   .text:0000000000001e4c .L0 
     /tmp/ccCnP6rB.s:6527   .text:0000000000001e58 .L0 
     /tmp/ccCnP6rB.s:6534   .text:0000000000001e60 .L0 
     /tmp/ccCnP6rB.s:6538   .text:0000000000001e64 .L0 
     /tmp/ccCnP6rB.s:6541   .text:0000000000001e68 .L0 
     /tmp/ccCnP6rB.s:6542   .text:0000000000001e68 .L0 
     /tmp/ccCnP6rB.s:6546   .text:0000000000001e74 .L0 
     /tmp/ccCnP6rB.s:6553   .text:0000000000001e7c .L0 
     /tmp/ccCnP6rB.s:6559   .text:0000000000001e84 .L0 
     /tmp/ccCnP6rB.s:6563   .text:0000000000001e88 .L0 
     /tmp/ccCnP6rB.s:6565   .text:0000000000001e8c .L0 
     /tmp/ccCnP6rB.s:6568   .text:0000000000001e90 .L0 
     /tmp/ccCnP6rB.s:6569   .text:0000000000001e90 .L0 
     /tmp/ccCnP6rB.s:6571   .text:0000000000001e94 .L0 
     /tmp/ccCnP6rB.s:6579   .text:0000000000001ea4 .L0 
     /tmp/ccCnP6rB.s:6580   .text:0000000000001ea4 .L0 
     /tmp/ccCnP6rB.s:6585   .text:0000000000001eb4 .L0 
     /tmp/ccCnP6rB.s:6586   .text:0000000000001eb8 .L0 
     /tmp/ccCnP6rB.s:6587   .text:0000000000001eb8 .L0 
     /tmp/ccCnP6rB.s:6589   .text:0000000000001ebc .L0 
     /tmp/ccCnP6rB.s:6590   .text:0000000000001ebc .L0 
     /tmp/ccCnP6rB.s:6593   .text:0000000000001ec0 .L0 
     /tmp/ccCnP6rB.s:6596   .text:0000000000001ec4 .L0 
     /tmp/ccCnP6rB.s:6599   .text:0000000000001ec8 .L0 
     /tmp/ccCnP6rB.s:6601   .text:0000000000001ecc .L0 
     /tmp/ccCnP6rB.s:6606   .text:0000000000001ed0 .L0 
     /tmp/ccCnP6rB.s:6615   .text:0000000000001ee0 .L0 
     /tmp/ccCnP6rB.s:6664   .text:0000000000001ee0 _Z12testBarijerav
     /tmp/ccCnP6rB.s:6667   .text:0000000000001ee0 .L0 
     /tmp/ccCnP6rB.s:6670   .text:0000000000001ee0 .L0 
GAS LISTING /tmp/ccCnP6rB.s 			page 305


     /tmp/ccCnP6rB.s:6671   .text:0000000000001ee4 .L0 
     /tmp/ccCnP6rB.s:6677   .text:0000000000001ef8 .L0 
     /tmp/ccCnP6rB.s:6678   .text:0000000000001ef8 .L0 
     /tmp/ccCnP6rB.s:6679   .text:0000000000001ef8 .L0 
     /tmp/ccCnP6rB.s:6680   .text:0000000000001ef8 .L0 
     /tmp/ccCnP6rB.s:6681   .text:0000000000001ef8 .L0 
     /tmp/ccCnP6rB.s:6683   .text:0000000000001efc .L0 
     /tmp/ccCnP6rB.s:6685   .text:0000000000001efc .L0 
     /tmp/ccCnP6rB.s:6688   .text:0000000000001efc .L0 
     /tmp/ccCnP6rB.s:6689   .text:0000000000001efc .L0 
     /tmp/ccCnP6rB.s:6697   .text:0000000000001f04 .L0 
     /tmp/ccCnP6rB.s:6700   .text:0000000000001f10 .L0 
     /tmp/ccCnP6rB.s:6705   .text:0000000000001f24 .L0 
     /tmp/ccCnP6rB.s:6707   .text:0000000000001f28 .L0 
     /tmp/ccCnP6rB.s:6708   .text:0000000000001f28 .L0 
     /tmp/ccCnP6rB.s:6718   .text:0000000000001f40 .L0 
     /tmp/ccCnP6rB.s:6725   .text:0000000000001f4c .L0 
     /tmp/ccCnP6rB.s:6734   .text:0000000000001f64 .L0 
     /tmp/ccCnP6rB.s:6736   .text:0000000000001f68 .L0 
     /tmp/ccCnP6rB.s:6740   .text:0000000000001f6c .L0 
     /tmp/ccCnP6rB.s:6745   .text:0000000000001f74 .L0 
     /tmp/ccCnP6rB.s:6746   .text:0000000000001f74 .L0 
     /tmp/ccCnP6rB.s:6755   .text:0000000000001f84 .L0 
     /tmp/ccCnP6rB.s:6768   .text:0000000000001f94 .L0 
     /tmp/ccCnP6rB.s:6772   .text:0000000000001f98 .L0 
     /tmp/ccCnP6rB.s:6777   .text:0000000000001fa0 .L0 
     /tmp/ccCnP6rB.s:6778   .text:0000000000001fa0 .L0 
     /tmp/ccCnP6rB.s:6783   .text:0000000000001fac .L0 
     /tmp/ccCnP6rB.s:6791   .text:0000000000001fb4 .L0 
     /tmp/ccCnP6rB.s:6795   .text:0000000000001fb8 .L0 
     /tmp/ccCnP6rB.s:6800   .text:0000000000001fc0 .L0 
     /tmp/ccCnP6rB.s:6801   .text:0000000000001fc0 .L0 
     /tmp/ccCnP6rB.s:6805   .text:0000000000001fcc .L0 
     /tmp/ccCnP6rB.s:6813   .text:0000000000001fd4 .L0 
     /tmp/ccCnP6rB.s:6819   .text:0000000000001fdc .L0 
     /tmp/ccCnP6rB.s:6823   .text:0000000000001fe0 .L0 
     /tmp/ccCnP6rB.s:6828   .text:0000000000001fe8 .L0 
     /tmp/ccCnP6rB.s:6829   .text:0000000000001fe8 .L0 
     /tmp/ccCnP6rB.s:6831   .text:0000000000001fec .L0 
     /tmp/ccCnP6rB.s:6833   .text:0000000000001ff0 .L0 
     /tmp/ccCnP6rB.s:6843   .text:0000000000002000 .L0 
     /tmp/ccCnP6rB.s:6844   .text:0000000000002000 .L0 
     /tmp/ccCnP6rB.s:6849   .text:0000000000002010 .L0 
     /tmp/ccCnP6rB.s:6850   .text:0000000000002014 .L0 
     /tmp/ccCnP6rB.s:6851   .text:0000000000002014 .L0 
     /tmp/ccCnP6rB.s:6853   .text:0000000000002018 .L0 
     /tmp/ccCnP6rB.s:6854   .text:0000000000002018 .L0 
     /tmp/ccCnP6rB.s:6857   .text:000000000000201c .L0 
     /tmp/ccCnP6rB.s:6860   .text:0000000000002020 .L0 
     /tmp/ccCnP6rB.s:6863   .text:0000000000002024 .L0 
     /tmp/ccCnP6rB.s:6865   .text:0000000000002028 .L0 
     /tmp/ccCnP6rB.s:6870   .text:000000000000202c .L0 
     /tmp/ccCnP6rB.s:6874   .text:0000000000002034 .L0 
     /tmp/ccCnP6rB.s:6911   .text:0000000000002034 _Z13testBarijera2v
     /tmp/ccCnP6rB.s:6914   .text:0000000000002034 .L0 
     /tmp/ccCnP6rB.s:6917   .text:0000000000002034 .L0 
     /tmp/ccCnP6rB.s:6918   .text:0000000000002038 .L0 
GAS LISTING /tmp/ccCnP6rB.s 			page 306


     /tmp/ccCnP6rB.s:6924   .text:000000000000204c .L0 
     /tmp/ccCnP6rB.s:6925   .text:000000000000204c .L0 
     /tmp/ccCnP6rB.s:6926   .text:000000000000204c .L0 
     /tmp/ccCnP6rB.s:6927   .text:000000000000204c .L0 
     /tmp/ccCnP6rB.s:6928   .text:000000000000204c .L0 
     /tmp/ccCnP6rB.s:6930   .text:0000000000002050 .L0 
     /tmp/ccCnP6rB.s:6932   .text:0000000000002050 .L0 
     /tmp/ccCnP6rB.s:6935   .text:0000000000002050 .L0 
     /tmp/ccCnP6rB.s:6936   .text:0000000000002050 .L0 
     /tmp/ccCnP6rB.s:6944   .text:0000000000002058 .L0 
     /tmp/ccCnP6rB.s:6947   .text:0000000000002064 .L0 
     /tmp/ccCnP6rB.s:6952   .text:0000000000002078 .L0 
     /tmp/ccCnP6rB.s:6954   .text:000000000000207c .L0 
     /tmp/ccCnP6rB.s:6955   .text:000000000000207c .L0 
     /tmp/ccCnP6rB.s:6960   .text:000000000000208c .L0 
     /tmp/ccCnP6rB.s:6961   .text:000000000000208c .L0 
     /tmp/ccCnP6rB.s:6967   .text:00000000000020a0 .L0 
     /tmp/ccCnP6rB.s:6968   .text:00000000000020a0 .L0 
     /tmp/ccCnP6rB.s:6977   .text:00000000000020b8 .L0 
     /tmp/ccCnP6rB.s:6984   .text:00000000000020c4 .L0 
     /tmp/ccCnP6rB.s:6993   .text:00000000000020dc .L0 
     /tmp/ccCnP6rB.s:6995   .text:00000000000020e0 .L0 
     /tmp/ccCnP6rB.s:6999   .text:00000000000020e4 .L0 
     /tmp/ccCnP6rB.s:7004   .text:00000000000020ec .L0 
     /tmp/ccCnP6rB.s:7005   .text:00000000000020ec .L0 
     /tmp/ccCnP6rB.s:7014   .text:00000000000020fc .L0 
     /tmp/ccCnP6rB.s:7027   .text:000000000000210c .L0 
     /tmp/ccCnP6rB.s:7031   .text:0000000000002110 .L0 
     /tmp/ccCnP6rB.s:7036   .text:0000000000002118 .L0 
     /tmp/ccCnP6rB.s:7037   .text:0000000000002118 .L0 
     /tmp/ccCnP6rB.s:7042   .text:0000000000002124 .L0 
     /tmp/ccCnP6rB.s:7050   .text:000000000000212c .L0 
     /tmp/ccCnP6rB.s:7054   .text:0000000000002130 .L0 
     /tmp/ccCnP6rB.s:7059   .text:0000000000002138 .L0 
     /tmp/ccCnP6rB.s:7060   .text:0000000000002138 .L0 
     /tmp/ccCnP6rB.s:7064   .text:0000000000002144 .L0 
     /tmp/ccCnP6rB.s:7072   .text:000000000000214c .L0 
     /tmp/ccCnP6rB.s:7078   .text:0000000000002154 .L0 
     /tmp/ccCnP6rB.s:7082   .text:0000000000002158 .L0 
     /tmp/ccCnP6rB.s:7087   .text:0000000000002160 .L0 
     /tmp/ccCnP6rB.s:7088   .text:0000000000002160 .L0 
     /tmp/ccCnP6rB.s:7090   .text:0000000000002164 .L0 
     /tmp/ccCnP6rB.s:7092   .text:0000000000002168 .L0 
     /tmp/ccCnP6rB.s:7102   .text:0000000000002178 .L0 
     /tmp/ccCnP6rB.s:7103   .text:0000000000002178 .L0 
     /tmp/ccCnP6rB.s:7108   .text:0000000000002188 .L0 
     /tmp/ccCnP6rB.s:7109   .text:000000000000218c .L0 
     /tmp/ccCnP6rB.s:7110   .text:000000000000218c .L0 
     /tmp/ccCnP6rB.s:7112   .text:0000000000002190 .L0 
     /tmp/ccCnP6rB.s:7113   .text:0000000000002190 .L0 
     /tmp/ccCnP6rB.s:7116   .text:0000000000002194 .L0 
     /tmp/ccCnP6rB.s:7119   .text:0000000000002198 .L0 
     /tmp/ccCnP6rB.s:7122   .text:000000000000219c .L0 
     /tmp/ccCnP6rB.s:7124   .text:00000000000021a0 .L0 
     /tmp/ccCnP6rB.s:7129   .text:00000000000021a4 .L0 
     /tmp/ccCnP6rB.s:7133   .text:00000000000021ac .L0 
     /tmp/ccCnP6rB.s:7170   .text:00000000000021ac _Z16testSEND_RECEIVEv
GAS LISTING /tmp/ccCnP6rB.s 			page 307


     /tmp/ccCnP6rB.s:7173   .text:00000000000021ac .L0 
     /tmp/ccCnP6rB.s:7176   .text:00000000000021ac .L0 
     /tmp/ccCnP6rB.s:7177   .text:00000000000021b0 .L0 
     /tmp/ccCnP6rB.s:7183   .text:00000000000021c4 .L0 
     /tmp/ccCnP6rB.s:7184   .text:00000000000021c4 .L0 
     /tmp/ccCnP6rB.s:7185   .text:00000000000021c4 .L0 
     /tmp/ccCnP6rB.s:7186   .text:00000000000021c4 .L0 
     /tmp/ccCnP6rB.s:7187   .text:00000000000021c4 .L0 
     /tmp/ccCnP6rB.s:7189   .text:00000000000021c8 .L0 
     /tmp/ccCnP6rB.s:7191   .text:00000000000021c8 .L0 
     /tmp/ccCnP6rB.s:7192   .text:00000000000021c8 .L0 
     /tmp/ccCnP6rB.s:7203   .text:00000000000021d8 .L0 
     /tmp/ccCnP6rB.s:7209   .text:00000000000021ec .L0 
     /tmp/ccCnP6rB.s:7214   .text:0000000000002200 .L0 
     /tmp/ccCnP6rB.s:7218   .text:000000000000220c .L0 
     /tmp/ccCnP6rB.s:7219   .text:000000000000220c .L0 
     /tmp/ccCnP6rB.s:7224   .text:000000000000221c .L0 
     /tmp/ccCnP6rB.s:7225   .text:000000000000221c .L0 
     /tmp/ccCnP6rB.s:7231   .text:0000000000002230 .L0 
     /tmp/ccCnP6rB.s:7232   .text:0000000000002230 .L0 
     /tmp/ccCnP6rB.s:7240   .text:0000000000002248 .L0 
     /tmp/ccCnP6rB.s:7247   .text:0000000000002254 .L0 
     /tmp/ccCnP6rB.s:7256   .text:000000000000226c .L0 
     /tmp/ccCnP6rB.s:7257   .text:000000000000226c .L0 
     /tmp/ccCnP6rB.s:7267   .text:000000000000227c .L0 
     /tmp/ccCnP6rB.s:7271   .text:0000000000002284 .L0 
     /tmp/ccCnP6rB.s:7274   .text:0000000000002290 .L0 
     /tmp/ccCnP6rB.s:7279   .text:00000000000022a4 .L0 
     /tmp/ccCnP6rB.s:7283   .text:00000000000022b0 .L0 
     /tmp/ccCnP6rB.s:7284   .text:00000000000022b0 .L0 
     /tmp/ccCnP6rB.s:7289   .text:00000000000022c0 .L0 
     /tmp/ccCnP6rB.s:7290   .text:00000000000022c0 .L0 
     /tmp/ccCnP6rB.s:7296   .text:00000000000022d4 .L0 
     /tmp/ccCnP6rB.s:7297   .text:00000000000022d4 .L0 
     /tmp/ccCnP6rB.s:7306   .text:00000000000022ec .L0 
     /tmp/ccCnP6rB.s:7313   .text:00000000000022f8 .L0 
     /tmp/ccCnP6rB.s:7322   .text:0000000000002310 .L0 
     /tmp/ccCnP6rB.s:7323   .text:0000000000002310 .L0 
     /tmp/ccCnP6rB.s:7333   .text:0000000000002320 .L0 
     /tmp/ccCnP6rB.s:7337   .text:0000000000002328 .L0 
     /tmp/ccCnP6rB.s:7340   .text:0000000000002334 .L0 
     /tmp/ccCnP6rB.s:7345   .text:0000000000002348 .L0 
     /tmp/ccCnP6rB.s:7349   .text:0000000000002354 .L0 
     /tmp/ccCnP6rB.s:7350   .text:0000000000002354 .L0 
     /tmp/ccCnP6rB.s:7355   .text:0000000000002364 .L0 
     /tmp/ccCnP6rB.s:7356   .text:0000000000002364 .L0 
     /tmp/ccCnP6rB.s:7362   .text:0000000000002378 .L0 
     /tmp/ccCnP6rB.s:7363   .text:0000000000002378 .L0 
     /tmp/ccCnP6rB.s:7372   .text:0000000000002390 .L0 
     /tmp/ccCnP6rB.s:7379   .text:000000000000239c .L0 
     /tmp/ccCnP6rB.s:7390   .text:00000000000023b4 .L0 
     /tmp/ccCnP6rB.s:7391   .text:00000000000023b4 .L0 
     /tmp/ccCnP6rB.s:7392   .text:00000000000023b4 .L0 
     /tmp/ccCnP6rB.s:7394   .text:00000000000023b8 .L0 
     /tmp/ccCnP6rB.s:7395   .text:00000000000023b8 .L0 
     /tmp/ccCnP6rB.s:7402   .text:00000000000023bc .L0 
     /tmp/ccCnP6rB.s:7403   .text:00000000000023bc .L0 
GAS LISTING /tmp/ccCnP6rB.s 			page 308


     /tmp/ccCnP6rB.s:7404   .text:00000000000023bc .L0 
     /tmp/ccCnP6rB.s:7406   .text:00000000000023c0 .L0 
     /tmp/ccCnP6rB.s:7407   .text:00000000000023c0 .L0 
     /tmp/ccCnP6rB.s:7414   .text:00000000000023c4 .L0 
     /tmp/ccCnP6rB.s:7415   .text:00000000000023c4 .L0 
     /tmp/ccCnP6rB.s:7416   .text:00000000000023c4 .L0 
     /tmp/ccCnP6rB.s:7418   .text:00000000000023c8 .L0 
     /tmp/ccCnP6rB.s:7419   .text:00000000000023c8 .L0 
     /tmp/ccCnP6rB.s:7424   .text:00000000000023cc .L0 
     /tmp/ccCnP6rB.s:7425   .text:00000000000023cc .L0 
     /tmp/ccCnP6rB.s:7429   .text:00000000000023d8 .L0 
     /tmp/ccCnP6rB.s:7430   .text:00000000000023d8 .L0 
     /tmp/ccCnP6rB.s:7434   .text:00000000000023e4 .L0 
     /tmp/ccCnP6rB.s:7435   .text:00000000000023e4 .L0 
     /tmp/ccCnP6rB.s:7439   .text:00000000000023f0 .L0 
     /tmp/ccCnP6rB.s:7440   .text:00000000000023f0 .L0 
     /tmp/ccCnP6rB.s:7444   .text:00000000000023fc .L0 
     /tmp/ccCnP6rB.s:7445   .text:00000000000023fc .L0 
     /tmp/ccCnP6rB.s:7449   .text:0000000000002408 .L0 
     /tmp/ccCnP6rB.s:7450   .text:0000000000002408 .L0 
     /tmp/ccCnP6rB.s:7454   .text:0000000000002414 .L0 
     /tmp/ccCnP6rB.s:7455   .text:0000000000002414 .L0 
     /tmp/ccCnP6rB.s:7457   .text:0000000000002418 .L0 
     /tmp/ccCnP6rB.s:7464   .text:0000000000002428 .L0 
     /tmp/ccCnP6rB.s:7465   .text:0000000000002428 .L0 
     /tmp/ccCnP6rB.s:7467   .text:000000000000242c .L0 
     /tmp/ccCnP6rB.s:7474   .text:000000000000243c .L0 
     /tmp/ccCnP6rB.s:7475   .text:000000000000243c .L0 
     /tmp/ccCnP6rB.s:7477   .text:0000000000002440 .L0 
     /tmp/ccCnP6rB.s:7484   .text:0000000000002450 .L0 
     /tmp/ccCnP6rB.s:7485   .text:0000000000002450 .L0 
     /tmp/ccCnP6rB.s:7490   .text:0000000000002460 .L0 
     /tmp/ccCnP6rB.s:7491   .text:0000000000002464 .L0 
     /tmp/ccCnP6rB.s:7492   .text:0000000000002464 .L0 
     /tmp/ccCnP6rB.s:7494   .text:0000000000002468 .L0 
     /tmp/ccCnP6rB.s:7495   .text:0000000000002468 .L0 
     /tmp/ccCnP6rB.s:7497   .text:000000000000246c .L0 
     /tmp/ccCnP6rB.s:7500   .text:0000000000002470 .L0 
     /tmp/ccCnP6rB.s:7503   .text:0000000000002474 .L0 
     /tmp/ccCnP6rB.s:7506   .text:0000000000002478 .L0 
     /tmp/ccCnP6rB.s:7510   .text:000000000000247c .L0 
     /tmp/ccCnP6rB.s:7523   .text:0000000000002494 .L0 
     /tmp/ccCnP6rB.s:7581   .text:0000000000002494 _Z13test_JOIN_allv
     /tmp/ccCnP6rB.s:7584   .text:0000000000002494 .L0 
     /tmp/ccCnP6rB.s:7587   .text:0000000000002494 .L0 
     /tmp/ccCnP6rB.s:7588   .text:0000000000002498 .L0 
     /tmp/ccCnP6rB.s:7593   .text:00000000000024a8 .L0 
     /tmp/ccCnP6rB.s:7594   .text:00000000000024a8 .L0 
     /tmp/ccCnP6rB.s:7595   .text:00000000000024a8 .L0 
     /tmp/ccCnP6rB.s:7596   .text:00000000000024a8 .L0 
     /tmp/ccCnP6rB.s:7598   .text:00000000000024ac .L0 
     /tmp/ccCnP6rB.s:7600   .text:00000000000024ac .L0 
     /tmp/ccCnP6rB.s:7601   .text:00000000000024ac .L0 
     /tmp/ccCnP6rB.s:7612   .text:00000000000024bc .L0 
     /tmp/ccCnP6rB.s:7618   .text:00000000000024d0 .L0 
     /tmp/ccCnP6rB.s:7623   .text:00000000000024e4 .L0 
     /tmp/ccCnP6rB.s:7625   .text:00000000000024e8 .L0 
GAS LISTING /tmp/ccCnP6rB.s 			page 309


     /tmp/ccCnP6rB.s:7626   .text:00000000000024e8 .L0 
     /tmp/ccCnP6rB.s:7631   .text:00000000000024f8 .L0 
     /tmp/ccCnP6rB.s:7632   .text:00000000000024f8 .L0 
     /tmp/ccCnP6rB.s:7638   .text:000000000000250c .L0 
     /tmp/ccCnP6rB.s:7639   .text:000000000000250c .L0 
     /tmp/ccCnP6rB.s:7647   .text:0000000000002524 .L0 
     /tmp/ccCnP6rB.s:7654   .text:0000000000002530 .L0 
     /tmp/ccCnP6rB.s:7663   .text:0000000000002548 .L0 
     /tmp/ccCnP6rB.s:7664   .text:0000000000002548 .L0 
     /tmp/ccCnP6rB.s:7668   .text:0000000000002554 .L0 
     /tmp/ccCnP6rB.s:7669   .text:0000000000002554 .L0 
     /tmp/ccCnP6rB.s:7673   .text:0000000000002560 .L0 
     /tmp/ccCnP6rB.s:7674   .text:0000000000002560 .L0 
     /tmp/ccCnP6rB.s:7676   .text:0000000000002564 .L0 
     /tmp/ccCnP6rB.s:7683   .text:0000000000002574 .L0 
     /tmp/ccCnP6rB.s:7684   .text:0000000000002574 .L0 
     /tmp/ccCnP6rB.s:7689   .text:0000000000002584 .L0 
     /tmp/ccCnP6rB.s:7690   .text:0000000000002588 .L0 
     /tmp/ccCnP6rB.s:7691   .text:0000000000002588 .L0 
     /tmp/ccCnP6rB.s:7693   .text:000000000000258c .L0 
     /tmp/ccCnP6rB.s:7694   .text:000000000000258c .L0 
     /tmp/ccCnP6rB.s:7696   .text:0000000000002590 .L0 
     /tmp/ccCnP6rB.s:7699   .text:0000000000002594 .L0 
     /tmp/ccCnP6rB.s:7701   .text:0000000000002598 .L0 
     /tmp/ccCnP6rB.s:7705   .text:000000000000259c .L0 
     /tmp/ccCnP6rB.s:7708   .text:00000000000025a4 .L0 
     /tmp/ccCnP6rB.s:7745   .text:00000000000025a4 _Z17testSetMaxThreadsv
     /tmp/ccCnP6rB.s:7748   .text:00000000000025a4 .L0 
     /tmp/ccCnP6rB.s:7751   .text:00000000000025a4 .L0 
     /tmp/ccCnP6rB.s:7752   .text:00000000000025a8 .L0 
     /tmp/ccCnP6rB.s:7758   .text:00000000000025bc .L0 
     /tmp/ccCnP6rB.s:7759   .text:00000000000025bc .L0 
     /tmp/ccCnP6rB.s:7760   .text:00000000000025bc .L0 
     /tmp/ccCnP6rB.s:7761   .text:00000000000025bc .L0 
     /tmp/ccCnP6rB.s:7762   .text:00000000000025bc .L0 
     /tmp/ccCnP6rB.s:7764   .text:00000000000025c0 .L0 
     /tmp/ccCnP6rB.s:7766   .text:00000000000025c0 .L0 
     /tmp/ccCnP6rB.s:7767   .text:00000000000025c0 .L0 
     /tmp/ccCnP6rB.s:7768   .text:00000000000025c0 .L0 
     /tmp/ccCnP6rB.s:7775   .text:00000000000025cc .L0 
     /tmp/ccCnP6rB.s:7782   .text:00000000000025d4 .L0 
     /tmp/ccCnP6rB.s:7785   .text:00000000000025e0 .L0 
     /tmp/ccCnP6rB.s:7790   .text:00000000000025f4 .L0 
     /tmp/ccCnP6rB.s:7792   .text:00000000000025f8 .L0 
     /tmp/ccCnP6rB.s:7793   .text:00000000000025f8 .L0 
     /tmp/ccCnP6rB.s:7798   .text:0000000000002608 .L0 
     /tmp/ccCnP6rB.s:7799   .text:0000000000002608 .L0 
     /tmp/ccCnP6rB.s:7805   .text:000000000000261c .L0 
     /tmp/ccCnP6rB.s:7806   .text:000000000000261c .L0 
     /tmp/ccCnP6rB.s:7815   .text:0000000000002634 .L0 
     /tmp/ccCnP6rB.s:7822   .text:0000000000002640 .L0 
     /tmp/ccCnP6rB.s:7831   .text:0000000000002658 .L0 
     /tmp/ccCnP6rB.s:7833   .text:000000000000265c .L0 
     /tmp/ccCnP6rB.s:7837   .text:0000000000002660 .L0 
     /tmp/ccCnP6rB.s:7841   .text:0000000000002668 .L0 
     /tmp/ccCnP6rB.s:7842   .text:0000000000002668 .L0 
     /tmp/ccCnP6rB.s:7851   .text:0000000000002678 .L0 
GAS LISTING /tmp/ccCnP6rB.s 			page 310


     /tmp/ccCnP6rB.s:7864   .text:0000000000002688 .L0 
     /tmp/ccCnP6rB.s:7869   .text:0000000000002690 .L0 
     /tmp/ccCnP6rB.s:7870   .text:0000000000002690 .L0 
     /tmp/ccCnP6rB.s:7875   .text:000000000000269c .L0 
     /tmp/ccCnP6rB.s:7879   .text:00000000000026a0 .L0 
     /tmp/ccCnP6rB.s:7884   .text:00000000000026a8 .L0 
     /tmp/ccCnP6rB.s:7890   .text:00000000000026b0 .L0 
     /tmp/ccCnP6rB.s:7891   .text:00000000000026b0 .L0 
     /tmp/ccCnP6rB.s:7895   .text:00000000000026bc .L0 
     /tmp/ccCnP6rB.s:7899   .text:00000000000026c0 .L0 
     /tmp/ccCnP6rB.s:7904   .text:00000000000026c8 .L0 
     /tmp/ccCnP6rB.s:7910   .text:00000000000026d0 .L0 
     /tmp/ccCnP6rB.s:7914   .text:00000000000026d4 .L0 
     /tmp/ccCnP6rB.s:7918   .text:00000000000026dc .L0 
     /tmp/ccCnP6rB.s:7919   .text:00000000000026dc .L0 
     /tmp/ccCnP6rB.s:7921   .text:00000000000026e0 .L0 
     /tmp/ccCnP6rB.s:7923   .text:00000000000026e4 .L0 
     /tmp/ccCnP6rB.s:7932   .text:00000000000026f4 .L0 
     /tmp/ccCnP6rB.s:7933   .text:00000000000026f4 .L0 
     /tmp/ccCnP6rB.s:7938   .text:0000000000002704 .L0 
     /tmp/ccCnP6rB.s:7939   .text:0000000000002708 .L0 
     /tmp/ccCnP6rB.s:7940   .text:0000000000002708 .L0 
     /tmp/ccCnP6rB.s:7942   .text:000000000000270c .L0 
     /tmp/ccCnP6rB.s:7943   .text:000000000000270c .L0 
     /tmp/ccCnP6rB.s:7945   .text:0000000000002710 .L0 
     /tmp/ccCnP6rB.s:7948   .text:0000000000002714 .L0 
     /tmp/ccCnP6rB.s:7951   .text:0000000000002718 .L0 
     /tmp/ccCnP6rB.s:7953   .text:000000000000271c .L0 
     /tmp/ccCnP6rB.s:7957   .text:0000000000002720 .L0 
     /tmp/ccCnP6rB.s:7961   .text:0000000000002728 .L0 
     /tmp/ccCnP6rB.s:8005   .text:0000000000002728 _Z19testAtomicBroadcastv
     /tmp/ccCnP6rB.s:8008   .text:0000000000002728 .L0 
     /tmp/ccCnP6rB.s:8011   .text:0000000000002728 .L0 
     /tmp/ccCnP6rB.s:8012   .text:000000000000272c .L0 
     /tmp/ccCnP6rB.s:8018   .text:0000000000002740 .L0 
     /tmp/ccCnP6rB.s:8019   .text:0000000000002740 .L0 
     /tmp/ccCnP6rB.s:8020   .text:0000000000002740 .L0 
     /tmp/ccCnP6rB.s:8021   .text:0000000000002740 .L0 
     /tmp/ccCnP6rB.s:8022   .text:0000000000002740 .L0 
     /tmp/ccCnP6rB.s:8024   .text:0000000000002744 .L0 
     /tmp/ccCnP6rB.s:8026   .text:0000000000002744 .L0 
     /tmp/ccCnP6rB.s:8027   .text:0000000000002744 .L0 
     /tmp/ccCnP6rB.s:8028   .text:0000000000002744 .L0 
     /tmp/ccCnP6rB.s:8039   .text:0000000000002754 .L0 
     /tmp/ccCnP6rB.s:8045   .text:0000000000002768 .L0 
     /tmp/ccCnP6rB.s:8050   .text:000000000000277c .L0 
     /tmp/ccCnP6rB.s:8052   .text:0000000000002780 .L0 
     /tmp/ccCnP6rB.s:8053   .text:0000000000002780 .L0 
     /tmp/ccCnP6rB.s:8062   .text:0000000000002798 .L0 
     /tmp/ccCnP6rB.s:8069   .text:00000000000027a4 .L0 
     /tmp/ccCnP6rB.s:8079   .text:00000000000027bc .L0 
     /tmp/ccCnP6rB.s:8081   .text:00000000000027c0 .L0 
     /tmp/ccCnP6rB.s:8082   .text:00000000000027c0 .L0 
     /tmp/ccCnP6rB.s:8086   .text:00000000000027c8 .L0 
     /tmp/ccCnP6rB.s:8087   .text:00000000000027c8 .L0 
     /tmp/ccCnP6rB.s:8094   .text:00000000000027d0 .L0 
     /tmp/ccCnP6rB.s:8097   .text:00000000000027dc .L0 
GAS LISTING /tmp/ccCnP6rB.s 			page 311


     /tmp/ccCnP6rB.s:8102   .text:00000000000027f0 .L0 
     /tmp/ccCnP6rB.s:8104   .text:00000000000027f4 .L0 
     /tmp/ccCnP6rB.s:8105   .text:00000000000027f4 .L0 
     /tmp/ccCnP6rB.s:8115   .text:000000000000280c .L0 
     /tmp/ccCnP6rB.s:8122   .text:0000000000002818 .L0 
     /tmp/ccCnP6rB.s:8131   .text:0000000000002830 .L0 
     /tmp/ccCnP6rB.s:8136   .text:0000000000002840 .L0 
     /tmp/ccCnP6rB.s:8140   .text:0000000000002844 .L0 
     /tmp/ccCnP6rB.s:8143   .text:000000000000284c .L0 
     /tmp/ccCnP6rB.s:8144   .text:000000000000284c .L0 
     /tmp/ccCnP6rB.s:8153   .text:000000000000285c .L0 
     /tmp/ccCnP6rB.s:8166   .text:000000000000286c .L0 
     /tmp/ccCnP6rB.s:8171   .text:0000000000002874 .L0 
     /tmp/ccCnP6rB.s:8172   .text:0000000000002874 .L0 
     /tmp/ccCnP6rB.s:8177   .text:0000000000002880 .L0 
     /tmp/ccCnP6rB.s:8181   .text:0000000000002884 .L0 
     /tmp/ccCnP6rB.s:8186   .text:000000000000288c .L0 
     /tmp/ccCnP6rB.s:8192   .text:0000000000002894 .L0 
     /tmp/ccCnP6rB.s:8193   .text:0000000000002894 .L0 
     /tmp/ccCnP6rB.s:8197   .text:00000000000028a0 .L0 
     /tmp/ccCnP6rB.s:8201   .text:00000000000028a4 .L0 
     /tmp/ccCnP6rB.s:8206   .text:00000000000028ac .L0 
     /tmp/ccCnP6rB.s:8212   .text:00000000000028b4 .L0 
     /tmp/ccCnP6rB.s:8216   .text:00000000000028b8 .L0 
     /tmp/ccCnP6rB.s:8220   .text:00000000000028c0 .L0 
     /tmp/ccCnP6rB.s:8221   .text:00000000000028c0 .L0 
     /tmp/ccCnP6rB.s:8223   .text:00000000000028c4 .L0 
     /tmp/ccCnP6rB.s:8225   .text:00000000000028c8 .L0 
     /tmp/ccCnP6rB.s:8234   .text:00000000000028d8 .L0 
     /tmp/ccCnP6rB.s:8235   .text:00000000000028d8 .L0 
     /tmp/ccCnP6rB.s:8240   .text:00000000000028e8 .L0 
     /tmp/ccCnP6rB.s:8241   .text:00000000000028ec .L0 
     /tmp/ccCnP6rB.s:8242   .text:00000000000028ec .L0 
     /tmp/ccCnP6rB.s:8244   .text:00000000000028f0 .L0 
     /tmp/ccCnP6rB.s:8245   .text:00000000000028f0 .L0 
     /tmp/ccCnP6rB.s:8247   .text:00000000000028f4 .L0 
     /tmp/ccCnP6rB.s:8250   .text:00000000000028f8 .L0 
     /tmp/ccCnP6rB.s:8253   .text:00000000000028fc .L0 
     /tmp/ccCnP6rB.s:8255   .text:0000000000002900 .L0 
     /tmp/ccCnP6rB.s:8259   .text:0000000000002904 .L0 
     /tmp/ccCnP6rB.s:8267   .text:0000000000002914 .L0 
     /tmp/ccCnP6rB.s:8317   .text:0000000000002914 _Z7testH2Ov
     /tmp/ccCnP6rB.s:8320   .text:0000000000002914 .L0 
     /tmp/ccCnP6rB.s:8323   .text:0000000000002914 .L0 
     /tmp/ccCnP6rB.s:8324   .text:0000000000002918 .L0 
     /tmp/ccCnP6rB.s:8330   .text:000000000000292c .L0 
     /tmp/ccCnP6rB.s:8331   .text:000000000000292c .L0 
     /tmp/ccCnP6rB.s:8332   .text:000000000000292c .L0 
     /tmp/ccCnP6rB.s:8333   .text:000000000000292c .L0 
     /tmp/ccCnP6rB.s:8334   .text:000000000000292c .L0 
     /tmp/ccCnP6rB.s:8336   .text:0000000000002930 .L0 
     /tmp/ccCnP6rB.s:8339   .text:0000000000002930 .L0 
     /tmp/ccCnP6rB.s:8341   .text:0000000000002930 .L0 
     /tmp/ccCnP6rB.s:8342   .text:0000000000002930 .L0 
     /tmp/ccCnP6rB.s:8349   .text:0000000000002938 .L0 
     /tmp/ccCnP6rB.s:8352   .text:0000000000002944 .L0 
     /tmp/ccCnP6rB.s:8357   .text:0000000000002958 .L0 
GAS LISTING /tmp/ccCnP6rB.s 			page 312


     /tmp/ccCnP6rB.s:8360   .text:0000000000002960 .L0 
     /tmp/ccCnP6rB.s:8361   .text:0000000000002960 .L0 
     /tmp/ccCnP6rB.s:8366   .text:0000000000002970 .L0 
     /tmp/ccCnP6rB.s:8367   .text:0000000000002970 .L0 
     /tmp/ccCnP6rB.s:8373   .text:0000000000002984 .L0 
     /tmp/ccCnP6rB.s:8374   .text:0000000000002984 .L0 
     /tmp/ccCnP6rB.s:8383   .text:000000000000299c .L0 
     /tmp/ccCnP6rB.s:8390   .text:00000000000029a8 .L0 
     /tmp/ccCnP6rB.s:8399   .text:00000000000029c0 .L0 
     /tmp/ccCnP6rB.s:8405   .text:00000000000029d0 .L0 
     /tmp/ccCnP6rB.s:8409   .text:00000000000029d4 .L0 
     /tmp/ccCnP6rB.s:8412   .text:00000000000029dc .L0 
     /tmp/ccCnP6rB.s:8413   .text:00000000000029dc .L0 
     /tmp/ccCnP6rB.s:8416   .text:00000000000029e4 .L0 
     /tmp/ccCnP6rB.s:8418   .text:00000000000029e8 .L0 
     /tmp/ccCnP6rB.s:8419   .text:00000000000029e8 .L0 
     /tmp/ccCnP6rB.s:8428   .text:00000000000029f8 .L0 
     /tmp/ccCnP6rB.s:8439   .text:0000000000002a08 .L0 
     /tmp/ccCnP6rB.s:8440   .text:0000000000002a08 .L0 
     /tmp/ccCnP6rB.s:8450   .text:0000000000002a18 .L0 
     /tmp/ccCnP6rB.s:8458   .text:0000000000002a30 .L0 
     /tmp/ccCnP6rB.s:8463   .text:0000000000002a44 .L0 
     /tmp/ccCnP6rB.s:8467   .text:0000000000002a50 .L0 
     /tmp/ccCnP6rB.s:8468   .text:0000000000002a50 .L0 
     /tmp/ccCnP6rB.s:8473   .text:0000000000002a60 .L0 
     /tmp/ccCnP6rB.s:8474   .text:0000000000002a60 .L0 
     /tmp/ccCnP6rB.s:8480   .text:0000000000002a74 .L0 
     /tmp/ccCnP6rB.s:8481   .text:0000000000002a74 .L0 
     /tmp/ccCnP6rB.s:8490   .text:0000000000002a8c .L0 
     /tmp/ccCnP6rB.s:8497   .text:0000000000002a98 .L0 
     /tmp/ccCnP6rB.s:8506   .text:0000000000002ab0 .L0 
     /tmp/ccCnP6rB.s:8516   .text:0000000000002ac4 .L0 
     /tmp/ccCnP6rB.s:8517   .text:0000000000002ac4 .L0 
     /tmp/ccCnP6rB.s:8523   .text:0000000000002acc .L0 
     /tmp/ccCnP6rB.s:8526   .text:0000000000002ad0 .L0 
     /tmp/ccCnP6rB.s:8527   .text:0000000000002ad0 .L0 
     /tmp/ccCnP6rB.s:8531   .text:0000000000002adc .L0 
     /tmp/ccCnP6rB.s:8538   .text:0000000000002ae4 .L0 
     /tmp/ccCnP6rB.s:8542   .text:0000000000002ae8 .L0 
     /tmp/ccCnP6rB.s:8545   .text:0000000000002aec .L0 
     /tmp/ccCnP6rB.s:8546   .text:0000000000002aec .L0 
     /tmp/ccCnP6rB.s:8550   .text:0000000000002af8 .L0 
     /tmp/ccCnP6rB.s:8557   .text:0000000000002b00 .L0 
     /tmp/ccCnP6rB.s:8563   .text:0000000000002b08 .L0 
     /tmp/ccCnP6rB.s:8567   .text:0000000000002b0c .L0 
     /tmp/ccCnP6rB.s:8569   .text:0000000000002b10 .L0 
     /tmp/ccCnP6rB.s:8572   .text:0000000000002b14 .L0 
     /tmp/ccCnP6rB.s:8573   .text:0000000000002b14 .L0 
     /tmp/ccCnP6rB.s:8575   .text:0000000000002b18 .L0 
     /tmp/ccCnP6rB.s:8583   .text:0000000000002b28 .L0 
     /tmp/ccCnP6rB.s:8584   .text:0000000000002b28 .L0 
     /tmp/ccCnP6rB.s:8589   .text:0000000000002b38 .L0 
     /tmp/ccCnP6rB.s:8590   .text:0000000000002b3c .L0 
     /tmp/ccCnP6rB.s:8591   .text:0000000000002b3c .L0 
     /tmp/ccCnP6rB.s:8593   .text:0000000000002b40 .L0 
     /tmp/ccCnP6rB.s:8594   .text:0000000000002b40 .L0 
     /tmp/ccCnP6rB.s:8597   .text:0000000000002b44 .L0 
GAS LISTING /tmp/ccCnP6rB.s 			page 313


     /tmp/ccCnP6rB.s:8600   .text:0000000000002b48 .L0 
     /tmp/ccCnP6rB.s:8603   .text:0000000000002b4c .L0 
     /tmp/ccCnP6rB.s:8605   .text:0000000000002b50 .L0 
     /tmp/ccCnP6rB.s:8610   .text:0000000000002b54 .L0 
     /tmp/ccCnP6rB.s:8619   .text:0000000000002b64 .L0 
     /tmp/ccCnP6rB.s:8665   .text:0000000000002b64 _Z17testDiningSavagesv
     /tmp/ccCnP6rB.s:8668   .text:0000000000002b64 .L0 
     /tmp/ccCnP6rB.s:8671   .text:0000000000002b64 .L0 
     /tmp/ccCnP6rB.s:8672   .text:0000000000002b68 .L0 
     /tmp/ccCnP6rB.s:8679   .text:0000000000002b80 .L0 
     /tmp/ccCnP6rB.s:8680   .text:0000000000002b80 .L0 
     /tmp/ccCnP6rB.s:8681   .text:0000000000002b80 .L0 
     /tmp/ccCnP6rB.s:8682   .text:0000000000002b80 .L0 
     /tmp/ccCnP6rB.s:8683   .text:0000000000002b80 .L0 
     /tmp/ccCnP6rB.s:8684   .text:0000000000002b80 .L0 
     /tmp/ccCnP6rB.s:8686   .text:0000000000002b84 .L0 
     /tmp/ccCnP6rB.s:8689   .text:0000000000002b84 .L0 
     /tmp/ccCnP6rB.s:8690   .text:0000000000002b84 .L0 
     /tmp/ccCnP6rB.s:8695   .text:0000000000002b8c .L0 
     /tmp/ccCnP6rB.s:8696   .text:0000000000002b8c .L0 
     /tmp/ccCnP6rB.s:8703   .text:0000000000002b94 .L0 
     /tmp/ccCnP6rB.s:8706   .text:0000000000002ba0 .L0 
     /tmp/ccCnP6rB.s:8711   .text:0000000000002bb4 .L0 
     /tmp/ccCnP6rB.s:8714   .text:0000000000002bbc .L0 
     /tmp/ccCnP6rB.s:8715   .text:0000000000002bbc .L0 
     /tmp/ccCnP6rB.s:8720   .text:0000000000002bcc .L0 
     /tmp/ccCnP6rB.s:8721   .text:0000000000002bcc .L0 
     /tmp/ccCnP6rB.s:8727   .text:0000000000002be0 .L0 
     /tmp/ccCnP6rB.s:8728   .text:0000000000002be0 .L0 
     /tmp/ccCnP6rB.s:8737   .text:0000000000002bf8 .L0 
     /tmp/ccCnP6rB.s:8744   .text:0000000000002c04 .L0 
     /tmp/ccCnP6rB.s:8753   .text:0000000000002c1c .L0 
     /tmp/ccCnP6rB.s:8757   .text:0000000000002c28 .L0 
     /tmp/ccCnP6rB.s:8761   .text:0000000000002c2c .L0 
     /tmp/ccCnP6rB.s:8764   .text:0000000000002c34 .L0 
     /tmp/ccCnP6rB.s:8765   .text:0000000000002c34 .L0 
     /tmp/ccCnP6rB.s:8774   .text:0000000000002c44 .L0 
     /tmp/ccCnP6rB.s:8786   .text:0000000000002c54 .L0 
     /tmp/ccCnP6rB.s:8787   .text:0000000000002c54 .L0 
     /tmp/ccCnP6rB.s:8798   .text:0000000000002c64 .L0 
     /tmp/ccCnP6rB.s:8804   .text:0000000000002c78 .L0 
     /tmp/ccCnP6rB.s:8809   .text:0000000000002c8c .L0 
     /tmp/ccCnP6rB.s:8813   .text:0000000000002c98 .L0 
     /tmp/ccCnP6rB.s:8814   .text:0000000000002c98 .L0 
     /tmp/ccCnP6rB.s:8819   .text:0000000000002ca8 .L0 
     /tmp/ccCnP6rB.s:8820   .text:0000000000002ca8 .L0 
     /tmp/ccCnP6rB.s:8826   .text:0000000000002cbc .L0 
     /tmp/ccCnP6rB.s:8827   .text:0000000000002cbc .L0 
     /tmp/ccCnP6rB.s:8836   .text:0000000000002cd4 .L0 
     /tmp/ccCnP6rB.s:8843   .text:0000000000002ce0 .L0 
     /tmp/ccCnP6rB.s:8853   .text:0000000000002cf8 .L0 
     /tmp/ccCnP6rB.s:8857   .text:0000000000002cfc .L0 
     /tmp/ccCnP6rB.s:8858   .text:0000000000002cfc .L0 
     /tmp/ccCnP6rB.s:8866   .text:0000000000002d04 .L0 
     /tmp/ccCnP6rB.s:8869   .text:0000000000002d10 .L0 
     /tmp/ccCnP6rB.s:8874   .text:0000000000002d24 .L0 
     /tmp/ccCnP6rB.s:8877   .text:0000000000002d2c .L0 
GAS LISTING /tmp/ccCnP6rB.s 			page 314


     /tmp/ccCnP6rB.s:8878   .text:0000000000002d2c .L0 
     /tmp/ccCnP6rB.s:8883   .text:0000000000002d3c .L0 
     /tmp/ccCnP6rB.s:8884   .text:0000000000002d3c .L0 
     /tmp/ccCnP6rB.s:8890   .text:0000000000002d50 .L0 
     /tmp/ccCnP6rB.s:8891   .text:0000000000002d50 .L0 
     /tmp/ccCnP6rB.s:8900   .text:0000000000002d68 .L0 
     /tmp/ccCnP6rB.s:8907   .text:0000000000002d74 .L0 
     /tmp/ccCnP6rB.s:8916   .text:0000000000002d8c .L0 
     /tmp/ccCnP6rB.s:8920   .text:0000000000002d98 .L0 
     /tmp/ccCnP6rB.s:8924   .text:0000000000002d9c .L0 
     /tmp/ccCnP6rB.s:8927   .text:0000000000002da4 .L0 
     /tmp/ccCnP6rB.s:8928   .text:0000000000002da4 .L0 
     /tmp/ccCnP6rB.s:8937   .text:0000000000002db4 .L0 
     /tmp/ccCnP6rB.s:8950   .text:0000000000002dc4 .L0 
     /tmp/ccCnP6rB.s:8951   .text:0000000000002dc4 .L0 
     /tmp/ccCnP6rB.s:8957   .text:0000000000002dcc .L0 
     /tmp/ccCnP6rB.s:8960   .text:0000000000002dd0 .L0 
     /tmp/ccCnP6rB.s:8961   .text:0000000000002dd0 .L0 
     /tmp/ccCnP6rB.s:8966   .text:0000000000002ddc .L0 
     /tmp/ccCnP6rB.s:8973   .text:0000000000002de4 .L0 
     /tmp/ccCnP6rB.s:8977   .text:0000000000002de8 .L0 
     /tmp/ccCnP6rB.s:8980   .text:0000000000002dec .L0 
     /tmp/ccCnP6rB.s:8981   .text:0000000000002dec .L0 
     /tmp/ccCnP6rB.s:8985   .text:0000000000002df8 .L0 
     /tmp/ccCnP6rB.s:8993   .text:0000000000002e00 .L0 
     /tmp/ccCnP6rB.s:8997   .text:0000000000002e04 .L0 
     /tmp/ccCnP6rB.s:8999   .text:0000000000002e08 .L0 
     /tmp/ccCnP6rB.s:9002   .text:0000000000002e0c .L0 
     /tmp/ccCnP6rB.s:9003   .text:0000000000002e0c .L0 
     /tmp/ccCnP6rB.s:9005   .text:0000000000002e10 .L0 
     /tmp/ccCnP6rB.s:9013   .text:0000000000002e20 .L0 
     /tmp/ccCnP6rB.s:9014   .text:0000000000002e20 .L0 
     /tmp/ccCnP6rB.s:9019   .text:0000000000002e30 .L0 
     /tmp/ccCnP6rB.s:9020   .text:0000000000002e34 .L0 
     /tmp/ccCnP6rB.s:9021   .text:0000000000002e34 .L0 
     /tmp/ccCnP6rB.s:9024   .text:0000000000002e38 .L0 
     /tmp/ccCnP6rB.s:9026   .text:0000000000002e3c .L0 
     /tmp/ccCnP6rB.s:9028   .text:0000000000002e40 .L0 
     /tmp/ccCnP6rB.s:9031   .text:0000000000002e44 .L0 
     /tmp/ccCnP6rB.s:9034   .text:0000000000002e48 .L0 
     /tmp/ccCnP6rB.s:9037   .text:0000000000002e4c .L0 
     /tmp/ccCnP6rB.s:9039   .text:0000000000002e50 .L0 
     /tmp/ccCnP6rB.s:9043   .text:0000000000002e54 .L0 
     /tmp/ccCnP6rB.s:9057   .text:0000000000002e6c .L0 
     /tmp/ccCnP6rB.s:9119   .text:0000000000002e6c _Z15testHungryBirdsv
     /tmp/ccCnP6rB.s:9122   .text:0000000000002e6c .L0 
     /tmp/ccCnP6rB.s:9125   .text:0000000000002e6c .L0 
     /tmp/ccCnP6rB.s:9126   .text:0000000000002e70 .L0 
     /tmp/ccCnP6rB.s:9133   .text:0000000000002e88 .L0 
     /tmp/ccCnP6rB.s:9134   .text:0000000000002e88 .L0 
     /tmp/ccCnP6rB.s:9135   .text:0000000000002e88 .L0 
     /tmp/ccCnP6rB.s:9136   .text:0000000000002e88 .L0 
     /tmp/ccCnP6rB.s:9137   .text:0000000000002e88 .L0 
     /tmp/ccCnP6rB.s:9138   .text:0000000000002e88 .L0 
     /tmp/ccCnP6rB.s:9140   .text:0000000000002e8c .L0 
     /tmp/ccCnP6rB.s:9143   .text:0000000000002e8c .L0 
     /tmp/ccCnP6rB.s:9144   .text:0000000000002e8c .L0 
GAS LISTING /tmp/ccCnP6rB.s 			page 315


     /tmp/ccCnP6rB.s:9149   .text:0000000000002e94 .L0 
     /tmp/ccCnP6rB.s:9150   .text:0000000000002e94 .L0 
     /tmp/ccCnP6rB.s:9155   .text:0000000000002e9c .L0 
     /tmp/ccCnP6rB.s:9156   .text:0000000000002e9c .L0 
     /tmp/ccCnP6rB.s:9157   .text:0000000000002e9c .L0 
     /tmp/ccCnP6rB.s:9158   .text:0000000000002e9c .L0 
     /tmp/ccCnP6rB.s:9168   .text:0000000000002eac .L0 
     /tmp/ccCnP6rB.s:9176   .text:0000000000002ec4 .L0 
     /tmp/ccCnP6rB.s:9181   .text:0000000000002ed8 .L0 
     /tmp/ccCnP6rB.s:9184   .text:0000000000002ee0 .L0 
     /tmp/ccCnP6rB.s:9185   .text:0000000000002ee0 .L0 
     /tmp/ccCnP6rB.s:9190   .text:0000000000002ef0 .L0 
     /tmp/ccCnP6rB.s:9191   .text:0000000000002ef0 .L0 
     /tmp/ccCnP6rB.s:9197   .text:0000000000002f04 .L0 
     /tmp/ccCnP6rB.s:9198   .text:0000000000002f04 .L0 
     /tmp/ccCnP6rB.s:9207   .text:0000000000002f1c .L0 
     /tmp/ccCnP6rB.s:9214   .text:0000000000002f28 .L0 
     /tmp/ccCnP6rB.s:9223   .text:0000000000002f40 .L0 
     /tmp/ccCnP6rB.s:9226   .text:0000000000002f44 .L0 
     /tmp/ccCnP6rB.s:9227   .text:0000000000002f44 .L0 
     /tmp/ccCnP6rB.s:9231   .text:0000000000002f48 .L0 
     /tmp/ccCnP6rB.s:9234   .text:0000000000002f50 .L0 
     /tmp/ccCnP6rB.s:9240   .text:0000000000002f64 .L0 
     /tmp/ccCnP6rB.s:9241   .text:0000000000002f64 .L0 
     /tmp/ccCnP6rB.s:9242   .text:0000000000002f64 .L0 
     /tmp/ccCnP6rB.s:9243   .text:0000000000002f64 .L0 
     /tmp/ccCnP6rB.s:9252   .text:0000000000002f74 .L0 
     /tmp/ccCnP6rB.s:9263   .text:0000000000002f84 .L0 
     /tmp/ccCnP6rB.s:9264   .text:0000000000002f84 .L0 
     /tmp/ccCnP6rB.s:9265   .text:0000000000002f84 .L0 
     /tmp/ccCnP6rB.s:9266   .text:0000000000002f84 .L0 
     /tmp/ccCnP6rB.s:9276   .text:0000000000002f94 .L0 
     /tmp/ccCnP6rB.s:9284   .text:0000000000002fac .L0 
     /tmp/ccCnP6rB.s:9289   .text:0000000000002fc0 .L0 
     /tmp/ccCnP6rB.s:9293   .text:0000000000002fcc .L0 
     /tmp/ccCnP6rB.s:9294   .text:0000000000002fcc .L0 
     /tmp/ccCnP6rB.s:9299   .text:0000000000002fdc .L0 
     /tmp/ccCnP6rB.s:9300   .text:0000000000002fdc .L0 
     /tmp/ccCnP6rB.s:9306   .text:0000000000002ff0 .L0 
     /tmp/ccCnP6rB.s:9307   .text:0000000000002ff0 .L0 
     /tmp/ccCnP6rB.s:9316   .text:0000000000003008 .L0 
     /tmp/ccCnP6rB.s:9323   .text:0000000000003014 .L0 
     /tmp/ccCnP6rB.s:9332   .text:000000000000302c .L0 
     /tmp/ccCnP6rB.s:9334   .text:0000000000003030 .L0 
     /tmp/ccCnP6rB.s:9337   .text:0000000000003034 .L0 
     /tmp/ccCnP6rB.s:9338   .text:0000000000003034 .L0 
     /tmp/ccCnP6rB.s:9339   .text:0000000000003034 .L0 
     /tmp/ccCnP6rB.s:9340   .text:0000000000003034 .L0 
     /tmp/ccCnP6rB.s:9349   .text:0000000000003044 .L0 
     /tmp/ccCnP6rB.s:9357   .text:000000000000305c .L0 
     /tmp/ccCnP6rB.s:9362   .text:0000000000003070 .L0 
     /tmp/ccCnP6rB.s:9366   .text:000000000000307c .L0 
     /tmp/ccCnP6rB.s:9367   .text:000000000000307c .L0 
     /tmp/ccCnP6rB.s:9372   .text:000000000000308c .L0 
     /tmp/ccCnP6rB.s:9373   .text:000000000000308c .L0 
     /tmp/ccCnP6rB.s:9379   .text:00000000000030a0 .L0 
     /tmp/ccCnP6rB.s:9380   .text:00000000000030a0 .L0 
GAS LISTING /tmp/ccCnP6rB.s 			page 316


     /tmp/ccCnP6rB.s:9389   .text:00000000000030b8 .L0 
     /tmp/ccCnP6rB.s:9396   .text:00000000000030c4 .L0 
     /tmp/ccCnP6rB.s:9406   .text:00000000000030dc .L0 
     /tmp/ccCnP6rB.s:9408   .text:00000000000030e0 .L0 
     /tmp/ccCnP6rB.s:9414   .text:00000000000030e4 .L0 
     /tmp/ccCnP6rB.s:9417   .text:00000000000030f0 .L0 
     /tmp/ccCnP6rB.s:9422   .text:0000000000003104 .L0 
     /tmp/ccCnP6rB.s:9425   .text:000000000000310c .L0 
     /tmp/ccCnP6rB.s:9426   .text:000000000000310c .L0 
     /tmp/ccCnP6rB.s:9431   .text:000000000000311c .L0 
     /tmp/ccCnP6rB.s:9432   .text:000000000000311c .L0 
     /tmp/ccCnP6rB.s:9438   .text:0000000000003130 .L0 
     /tmp/ccCnP6rB.s:9439   .text:0000000000003130 .L0 
     /tmp/ccCnP6rB.s:9448   .text:0000000000003148 .L0 
     /tmp/ccCnP6rB.s:9455   .text:0000000000003154 .L0 
     /tmp/ccCnP6rB.s:9464   .text:000000000000316c .L0 
     /tmp/ccCnP6rB.s:9468   .text:0000000000003178 .L0 
     /tmp/ccCnP6rB.s:9474   .text:000000000000317c .L0 
     /tmp/ccCnP6rB.s:9475   .text:000000000000317c .L0 
     /tmp/ccCnP6rB.s:9481   .text:0000000000003184 .L0 
     /tmp/ccCnP6rB.s:9484   .text:0000000000003188 .L0 
     /tmp/ccCnP6rB.s:9485   .text:0000000000003188 .L0 
     /tmp/ccCnP6rB.s:9489   .text:0000000000003194 .L0 
     /tmp/ccCnP6rB.s:9496   .text:000000000000319c .L0 
     /tmp/ccCnP6rB.s:9500   .text:00000000000031a0 .L0 
     /tmp/ccCnP6rB.s:9503   .text:00000000000031a4 .L0 
     /tmp/ccCnP6rB.s:9504   .text:00000000000031a4 .L0 
     /tmp/ccCnP6rB.s:9508   .text:00000000000031b0 .L0 
     /tmp/ccCnP6rB.s:9516   .text:00000000000031b8 .L0 
     /tmp/ccCnP6rB.s:9520   .text:00000000000031bc .L0 
     /tmp/ccCnP6rB.s:9522   .text:00000000000031c0 .L0 
     /tmp/ccCnP6rB.s:9525   .text:00000000000031c4 .L0 
     /tmp/ccCnP6rB.s:9526   .text:00000000000031c4 .L0 
     /tmp/ccCnP6rB.s:9528   .text:00000000000031c8 .L0 
     /tmp/ccCnP6rB.s:9536   .text:00000000000031d8 .L0 
     /tmp/ccCnP6rB.s:9537   .text:00000000000031d8 .L0 
     /tmp/ccCnP6rB.s:9542   .text:00000000000031e8 .L0 
     /tmp/ccCnP6rB.s:9543   .text:00000000000031ec .L0 
     /tmp/ccCnP6rB.s:9544   .text:00000000000031ec .L0 
     /tmp/ccCnP6rB.s:9547   .text:00000000000031f0 .L0 
     /tmp/ccCnP6rB.s:9549   .text:00000000000031f4 .L0 
     /tmp/ccCnP6rB.s:9551   .text:00000000000031f8 .L0 
     /tmp/ccCnP6rB.s:9554   .text:00000000000031fc .L0 
     /tmp/ccCnP6rB.s:9557   .text:0000000000003200 .L0 
     /tmp/ccCnP6rB.s:9560   .text:0000000000003204 .L0 
     /tmp/ccCnP6rB.s:9562   .text:0000000000003208 .L0 
     /tmp/ccCnP6rB.s:9566   .text:000000000000320c .L0 
     /tmp/ccCnP6rB.s:9585   .text:000000000000322c .L0 
     /tmp/ccCnP6rB.s:9654   .text:000000000000322c _Z11testBeeBearv
     /tmp/ccCnP6rB.s:9657   .text:000000000000322c .L0 
     /tmp/ccCnP6rB.s:9660   .text:000000000000322c .L0 
     /tmp/ccCnP6rB.s:9661   .text:0000000000003230 .L0 
     /tmp/ccCnP6rB.s:9668   .text:0000000000003248 .L0 
     /tmp/ccCnP6rB.s:9669   .text:0000000000003248 .L0 
     /tmp/ccCnP6rB.s:9670   .text:0000000000003248 .L0 
     /tmp/ccCnP6rB.s:9671   .text:0000000000003248 .L0 
     /tmp/ccCnP6rB.s:9672   .text:0000000000003248 .L0 
GAS LISTING /tmp/ccCnP6rB.s 			page 317


     /tmp/ccCnP6rB.s:9673   .text:0000000000003248 .L0 
     /tmp/ccCnP6rB.s:9675   .text:000000000000324c .L0 
     /tmp/ccCnP6rB.s:9678   .text:000000000000324c .L0 
     /tmp/ccCnP6rB.s:9679   .text:000000000000324c .L0 
     /tmp/ccCnP6rB.s:9684   .text:0000000000003254 .L0 
     /tmp/ccCnP6rB.s:9685   .text:0000000000003254 .L0 
     /tmp/ccCnP6rB.s:9690   .text:000000000000325c .L0 
     /tmp/ccCnP6rB.s:9691   .text:000000000000325c .L0 
     /tmp/ccCnP6rB.s:9692   .text:000000000000325c .L0 
     /tmp/ccCnP6rB.s:9693   .text:000000000000325c .L0 
     /tmp/ccCnP6rB.s:9703   .text:000000000000326c .L0 
     /tmp/ccCnP6rB.s:9711   .text:0000000000003284 .L0 
     /tmp/ccCnP6rB.s:9716   .text:0000000000003298 .L0 
     /tmp/ccCnP6rB.s:9720   .text:00000000000032a4 .L0 
     /tmp/ccCnP6rB.s:9721   .text:00000000000032a4 .L0 
     /tmp/ccCnP6rB.s:9726   .text:00000000000032b4 .L0 
     /tmp/ccCnP6rB.s:9727   .text:00000000000032b4 .L0 
     /tmp/ccCnP6rB.s:9733   .text:00000000000032c8 .L0 
     /tmp/ccCnP6rB.s:9734   .text:00000000000032c8 .L0 
     /tmp/ccCnP6rB.s:9742   .text:00000000000032e0 .L0 
     /tmp/ccCnP6rB.s:9749   .text:00000000000032ec .L0 
     /tmp/ccCnP6rB.s:9759   .text:0000000000003304 .L0 
     /tmp/ccCnP6rB.s:9761   .text:0000000000003308 .L0 
     /tmp/ccCnP6rB.s:9767   .text:000000000000330c .L0 
     /tmp/ccCnP6rB.s:9770   .text:0000000000003318 .L0 
     /tmp/ccCnP6rB.s:9775   .text:000000000000332c .L0 
     /tmp/ccCnP6rB.s:9778   .text:0000000000003334 .L0 
     /tmp/ccCnP6rB.s:9779   .text:0000000000003334 .L0 
     /tmp/ccCnP6rB.s:9784   .text:0000000000003344 .L0 
     /tmp/ccCnP6rB.s:9785   .text:0000000000003344 .L0 
     /tmp/ccCnP6rB.s:9791   .text:0000000000003358 .L0 
     /tmp/ccCnP6rB.s:9792   .text:0000000000003358 .L0 
     /tmp/ccCnP6rB.s:9800   .text:0000000000003370 .L0 
     /tmp/ccCnP6rB.s:9807   .text:000000000000337c .L0 
     /tmp/ccCnP6rB.s:9816   .text:0000000000003394 .L0 
     /tmp/ccCnP6rB.s:9821   .text:00000000000033a0 .L0 
     /tmp/ccCnP6rB.s:9822   .text:00000000000033a0 .L0 
     /tmp/ccCnP6rB.s:9826   .text:00000000000033a4 .L0 
     /tmp/ccCnP6rB.s:9829   .text:00000000000033ac .L0 
     /tmp/ccCnP6rB.s:9832   .text:00000000000033b4 .L0 
     /tmp/ccCnP6rB.s:9833   .text:00000000000033b4 .L0 
     /tmp/ccCnP6rB.s:9834   .text:00000000000033b4 .L0 
     /tmp/ccCnP6rB.s:9835   .text:00000000000033b4 .L0 
     /tmp/ccCnP6rB.s:9844   .text:00000000000033c4 .L0 
     /tmp/ccCnP6rB.s:9857   .text:00000000000033d4 .L0 
     /tmp/ccCnP6rB.s:9858   .text:00000000000033d4 .L0 
     /tmp/ccCnP6rB.s:9864   .text:00000000000033dc .L0 
     /tmp/ccCnP6rB.s:9867   .text:00000000000033e0 .L0 
     /tmp/ccCnP6rB.s:9868   .text:00000000000033e0 .L0 
     /tmp/ccCnP6rB.s:9873   .text:00000000000033ec .L0 
     /tmp/ccCnP6rB.s:9880   .text:00000000000033f4 .L0 
     /tmp/ccCnP6rB.s:9884   .text:00000000000033f8 .L0 
     /tmp/ccCnP6rB.s:9887   .text:00000000000033fc .L0 
     /tmp/ccCnP6rB.s:9888   .text:00000000000033fc .L0 
     /tmp/ccCnP6rB.s:9892   .text:0000000000003408 .L0 
     /tmp/ccCnP6rB.s:9900   .text:0000000000003410 .L0 
     /tmp/ccCnP6rB.s:9904   .text:0000000000003414 .L0 
GAS LISTING /tmp/ccCnP6rB.s 			page 318


     /tmp/ccCnP6rB.s:9906   .text:0000000000003418 .L0 
     /tmp/ccCnP6rB.s:9909   .text:000000000000341c .L0 
     /tmp/ccCnP6rB.s:9910   .text:000000000000341c .L0 
     /tmp/ccCnP6rB.s:9912   .text:0000000000003420 .L0 
     /tmp/ccCnP6rB.s:9920   .text:0000000000003430 .L0 
     /tmp/ccCnP6rB.s:9921   .text:0000000000003430 .L0 
     /tmp/ccCnP6rB.s:9926   .text:0000000000003440 .L0 
     /tmp/ccCnP6rB.s:9927   .text:0000000000003444 .L0 
     /tmp/ccCnP6rB.s:9928   .text:0000000000003444 .L0 
     /tmp/ccCnP6rB.s:9931   .text:0000000000003448 .L0 
     /tmp/ccCnP6rB.s:9933   .text:000000000000344c .L0 
     /tmp/ccCnP6rB.s:9935   .text:0000000000003450 .L0 
     /tmp/ccCnP6rB.s:9938   .text:0000000000003454 .L0 
     /tmp/ccCnP6rB.s:9941   .text:0000000000003458 .L0 
     /tmp/ccCnP6rB.s:9944   .text:000000000000345c .L0 
     /tmp/ccCnP6rB.s:9946   .text:0000000000003460 .L0 
     /tmp/ccCnP6rB.s:9950   .text:0000000000003464 .L0 
     /tmp/ccCnP6rB.s:9957   .text:0000000000003474 .L0 
     /tmp/ccCnP6rB.s:10002  .text:0000000000003474 _Z21testSemaforSaZetonimav
     /tmp/ccCnP6rB.s:10005  .text:0000000000003474 .L0 
     /tmp/ccCnP6rB.s:10008  .text:0000000000003474 .L0 
     /tmp/ccCnP6rB.s:10009  .text:0000000000003478 .L0 
     /tmp/ccCnP6rB.s:10014  .text:0000000000003488 .L0 
     /tmp/ccCnP6rB.s:10015  .text:0000000000003488 .L0 
     /tmp/ccCnP6rB.s:10016  .text:0000000000003488 .L0 
     /tmp/ccCnP6rB.s:10017  .text:0000000000003488 .L0 
     /tmp/ccCnP6rB.s:10019  .text:000000000000348c .L0 
     /tmp/ccCnP6rB.s:10021  .text:000000000000348c .L0 
     /tmp/ccCnP6rB.s:10022  .text:000000000000348c .L0 
     /tmp/ccCnP6rB.s:10034  .text:00000000000034a8 .L0 
     /tmp/ccCnP6rB.s:10036  .text:00000000000034b0 .L0 
     /tmp/ccCnP6rB.s:10037  .text:00000000000034b0 .L0 
     /tmp/ccCnP6rB.s:10049  .text:00000000000034cc .L0 
     /tmp/ccCnP6rB.s:10051  .text:00000000000034d4 .L0 
     /tmp/ccCnP6rB.s:10052  .text:00000000000034d4 .L0 
     /tmp/ccCnP6rB.s:10063  .text:00000000000034e4 .L0 
     /tmp/ccCnP6rB.s:10067  .text:00000000000034ec .L0 
     /tmp/ccCnP6rB.s:10073  .text:00000000000034f8 .L0 
     /tmp/ccCnP6rB.s:10074  .text:00000000000034f8 .L0 
     /tmp/ccCnP6rB.s:10085  .text:0000000000003508 .L0 
     /tmp/ccCnP6rB.s:10094  .text:000000000000351c .L0 
     /tmp/ccCnP6rB.s:10095  .text:000000000000351c .L0 
     /tmp/ccCnP6rB.s:10100  .text:0000000000003528 .L0 
     /tmp/ccCnP6rB.s:10101  .text:0000000000003528 .L0 
     /tmp/ccCnP6rB.s:10105  .text:0000000000003534 .L0 
     /tmp/ccCnP6rB.s:10106  .text:0000000000003534 .L0 
     /tmp/ccCnP6rB.s:10110  .text:0000000000003540 .L0 
     /tmp/ccCnP6rB.s:10111  .text:0000000000003540 .L0 
     /tmp/ccCnP6rB.s:10115  .text:000000000000354c .L0 
     /tmp/ccCnP6rB.s:10116  .text:000000000000354c .L0 
     /tmp/ccCnP6rB.s:10118  .text:0000000000003550 .L0 
     /tmp/ccCnP6rB.s:10125  .text:0000000000003560 .L0 
     /tmp/ccCnP6rB.s:10126  .text:0000000000003560 .L0 
     /tmp/ccCnP6rB.s:10128  .text:0000000000003564 .L0 
     /tmp/ccCnP6rB.s:10135  .text:0000000000003574 .L0 
     /tmp/ccCnP6rB.s:10136  .text:0000000000003578 .L0 
     /tmp/ccCnP6rB.s:10137  .text:0000000000003578 .L0 
GAS LISTING /tmp/ccCnP6rB.s 			page 319


     /tmp/ccCnP6rB.s:10139  .text:000000000000357c .L0 
     /tmp/ccCnP6rB.s:10140  .text:000000000000357c .L0 
     /tmp/ccCnP6rB.s:10142  .text:0000000000003580 .L0 
     /tmp/ccCnP6rB.s:10145  .text:0000000000003584 .L0 
     /tmp/ccCnP6rB.s:10148  .text:0000000000003588 .L0 
     /tmp/ccCnP6rB.s:10151  .text:000000000000358c .L0 
     /tmp/ccCnP6rB.s:10154  .text:0000000000003590 .L0 
     /tmp/ccCnP6rB.s:10163  .text:00000000000035ac .L0 
     /tmp/ccCnP6rB.s:10172  .text:00000000000035c8 .L0 
     /tmp/ccCnP6rB.s:10182  .text:00000000000035e4 .L0 
     /tmp/ccCnP6rB.s:10189  .text:00000000000035fc .L0 
     /tmp/ccCnP6rB.s:10252  .text:00000000000035fc _Z8testPingv
     /tmp/ccCnP6rB.s:10255  .text:00000000000035fc .L0 
     /tmp/ccCnP6rB.s:10258  .text:00000000000035fc .L0 
     /tmp/ccCnP6rB.s:10259  .text:0000000000003600 .L0 
     /tmp/ccCnP6rB.s:10265  .text:0000000000003614 .L0 
     /tmp/ccCnP6rB.s:10266  .text:0000000000003614 .L0 
     /tmp/ccCnP6rB.s:10267  .text:0000000000003614 .L0 
     /tmp/ccCnP6rB.s:10268  .text:0000000000003614 .L0 
     /tmp/ccCnP6rB.s:10269  .text:0000000000003614 .L0 
     /tmp/ccCnP6rB.s:10271  .text:0000000000003618 .L0 
     /tmp/ccCnP6rB.s:10273  .text:0000000000003618 .L0 
     /tmp/ccCnP6rB.s:10274  .text:0000000000003618 .L0 
     /tmp/ccCnP6rB.s:10285  .text:0000000000003628 .L0 
     /tmp/ccCnP6rB.s:10294  .text:000000000000363c .L0 
     /tmp/ccCnP6rB.s:10295  .text:000000000000363c .L0 
     /tmp/ccCnP6rB.s:10300  .text:000000000000364c .L0 
     /tmp/ccCnP6rB.s:10301  .text:000000000000364c .L0 
     /tmp/ccCnP6rB.s:10311  .text:000000000000365c .L0 
     /tmp/ccCnP6rB.s:10320  .text:0000000000003670 .L0 
     /tmp/ccCnP6rB.s:10321  .text:0000000000003670 .L0 
     /tmp/ccCnP6rB.s:10326  .text:0000000000003680 .L0 
     /tmp/ccCnP6rB.s:10327  .text:0000000000003680 .L0 
     /tmp/ccCnP6rB.s:10337  .text:0000000000003690 .L0 
     /tmp/ccCnP6rB.s:10343  .text:00000000000036a4 .L0 
     /tmp/ccCnP6rB.s:10344  .text:00000000000036a4 .L0 
     /tmp/ccCnP6rB.s:10351  .text:00000000000036a8 .L0 
     /tmp/ccCnP6rB.s:10352  .text:00000000000036a8 .L0 
     /tmp/ccCnP6rB.s:10353  .text:00000000000036a8 .L0 
     /tmp/ccCnP6rB.s:10358  .text:00000000000036ac .L0 
     /tmp/ccCnP6rB.s:10359  .text:00000000000036ac .L0 
     /tmp/ccCnP6rB.s:10364  .text:00000000000036bc .L0 
     /tmp/ccCnP6rB.s:10365  .text:00000000000036bc .L0 
     /tmp/ccCnP6rB.s:10369  .text:00000000000036c8 .L0 
     /tmp/ccCnP6rB.s:10370  .text:00000000000036c8 .L0 
     /tmp/ccCnP6rB.s:10374  .text:00000000000036d4 .L0 
     /tmp/ccCnP6rB.s:10375  .text:00000000000036d4 .L0 
     /tmp/ccCnP6rB.s:10379  .text:00000000000036e0 .L0 
     /tmp/ccCnP6rB.s:10380  .text:00000000000036e0 .L0 
     /tmp/ccCnP6rB.s:10384  .text:00000000000036ec .L0 
     /tmp/ccCnP6rB.s:10385  .text:00000000000036ec .L0 
     /tmp/ccCnP6rB.s:10389  .text:00000000000036f8 .L0 
     /tmp/ccCnP6rB.s:10390  .text:00000000000036f8 .L0 
     /tmp/ccCnP6rB.s:10392  .text:00000000000036fc .L0 
     /tmp/ccCnP6rB.s:10399  .text:000000000000370c .L0 
     /tmp/ccCnP6rB.s:10400  .text:000000000000370c .L0 
     /tmp/ccCnP6rB.s:10402  .text:0000000000003710 .L0 
GAS LISTING /tmp/ccCnP6rB.s 			page 320


     /tmp/ccCnP6rB.s:10409  .text:0000000000003720 .L0 
     /tmp/ccCnP6rB.s:10410  .text:0000000000003720 .L0 
     /tmp/ccCnP6rB.s:10412  .text:0000000000003724 .L0 
     /tmp/ccCnP6rB.s:10419  .text:0000000000003734 .L0 
     /tmp/ccCnP6rB.s:10420  .text:0000000000003734 .L0 
     /tmp/ccCnP6rB.s:10424  .text:0000000000003744 .L0 
     /tmp/ccCnP6rB.s:10425  .text:0000000000003748 .L0 
     /tmp/ccCnP6rB.s:10426  .text:0000000000003748 .L0 
     /tmp/ccCnP6rB.s:10428  .text:000000000000374c .L0 
     /tmp/ccCnP6rB.s:10429  .text:000000000000374c .L0 
     /tmp/ccCnP6rB.s:10431  .text:0000000000003750 .L0 
     /tmp/ccCnP6rB.s:10434  .text:0000000000003754 .L0 
     /tmp/ccCnP6rB.s:10437  .text:0000000000003758 .L0 
     /tmp/ccCnP6rB.s:10440  .text:000000000000375c .L0 
     /tmp/ccCnP6rB.s:10444  .text:0000000000003760 .L0 
     /tmp/ccCnP6rB.s:10447  .text:0000000000003764 .L0 
     /tmp/ccCnP6rB.s:10456  .text:0000000000003780 .L0 
     /tmp/ccCnP6rB.s:10466  .text:000000000000379c .L0 
     /tmp/ccCnP6rB.s:10473  .text:00000000000037b4 .L0 
     /tmp/ccCnP6rB.s:10519  .text:00000000000037b4 _Z11testTryWaitv
     /tmp/ccCnP6rB.s:10522  .text:00000000000037b4 .L0 
     /tmp/ccCnP6rB.s:10525  .text:00000000000037b4 .L0 
     /tmp/ccCnP6rB.s:10526  .text:00000000000037b8 .L0 
     /tmp/ccCnP6rB.s:10532  .text:00000000000037cc .L0 
     /tmp/ccCnP6rB.s:10533  .text:00000000000037cc .L0 
     /tmp/ccCnP6rB.s:10534  .text:00000000000037cc .L0 
     /tmp/ccCnP6rB.s:10535  .text:00000000000037cc .L0 
     /tmp/ccCnP6rB.s:10536  .text:00000000000037cc .L0 
     /tmp/ccCnP6rB.s:10538  .text:00000000000037d0 .L0 
     /tmp/ccCnP6rB.s:10540  .text:00000000000037d0 .L0 
     /tmp/ccCnP6rB.s:10541  .text:00000000000037d0 .L0 
     /tmp/ccCnP6rB.s:10542  .text:00000000000037d0 .L0 
     /tmp/ccCnP6rB.s:10554  .text:00000000000037ec .L0 
     /tmp/ccCnP6rB.s:10556  .text:00000000000037f4 .L0 
     /tmp/ccCnP6rB.s:10557  .text:00000000000037f4 .L0 
     /tmp/ccCnP6rB.s:10569  .text:0000000000003810 .L0 
     /tmp/ccCnP6rB.s:10573  .text:0000000000003818 .L0 
     /tmp/ccCnP6rB.s:10574  .text:0000000000003818 .L0 
     /tmp/ccCnP6rB.s:10581  .text:0000000000003820 .L0 
     /tmp/ccCnP6rB.s:10588  .text:0000000000003830 .L0 
     /tmp/ccCnP6rB.s:10593  .text:0000000000003840 .L0 
     /tmp/ccCnP6rB.s:10597  .text:0000000000003844 .L0 
     /tmp/ccCnP6rB.s:10600  .text:000000000000384c .L0 
     /tmp/ccCnP6rB.s:10601  .text:000000000000384c .L0 
     /tmp/ccCnP6rB.s:10613  .text:0000000000003864 .L0 
     /tmp/ccCnP6rB.s:10624  .text:0000000000003870 .L0 
     /tmp/ccCnP6rB.s:10628  .text:0000000000003874 .L0 
     /tmp/ccCnP6rB.s:10631  .text:000000000000387c .L0 
     /tmp/ccCnP6rB.s:10632  .text:000000000000387c .L0 
     /tmp/ccCnP6rB.s:10636  .text:0000000000003888 .L0 
     /tmp/ccCnP6rB.s:10641  .text:0000000000003894 .L0 
     /tmp/ccCnP6rB.s:10649  .text:000000000000389c .L0 
     /tmp/ccCnP6rB.s:10653  .text:00000000000038a0 .L0 
     /tmp/ccCnP6rB.s:10656  .text:00000000000038a8 .L0 
     /tmp/ccCnP6rB.s:10657  .text:00000000000038a8 .L0 
     /tmp/ccCnP6rB.s:10661  .text:00000000000038b8 .L0 
     /tmp/ccCnP6rB.s:10669  .text:00000000000038c0 .L0 
GAS LISTING /tmp/ccCnP6rB.s 			page 321


     /tmp/ccCnP6rB.s:10675  .text:00000000000038c8 .L0 
     /tmp/ccCnP6rB.s:10679  .text:00000000000038cc .L0 
     /tmp/ccCnP6rB.s:10682  .text:00000000000038d4 .L0 
     /tmp/ccCnP6rB.s:10683  .text:00000000000038d4 .L0 
     /tmp/ccCnP6rB.s:10688  .text:00000000000038e4 .L0 
     /tmp/ccCnP6rB.s:10690  .text:00000000000038e8 .L0 
     /tmp/ccCnP6rB.s:10698  .text:00000000000038f8 .L0 
     /tmp/ccCnP6rB.s:10699  .text:00000000000038f8 .L0 
     /tmp/ccCnP6rB.s:10701  .text:0000000000003900 .L0 
     /tmp/ccCnP6rB.s:10703  .text:0000000000003904 .L0 
     /tmp/ccCnP6rB.s:10709  .text:0000000000003910 .L0 
     /tmp/ccCnP6rB.s:10710  .text:0000000000003910 .L0 
     /tmp/ccCnP6rB.s:10712  .text:0000000000003918 .L0 
     /tmp/ccCnP6rB.s:10714  .text:000000000000391c .L0 
     /tmp/ccCnP6rB.s:10720  .text:0000000000003928 .L0 
     /tmp/ccCnP6rB.s:10721  .text:0000000000003928 .L0 
     /tmp/ccCnP6rB.s:10725  .text:0000000000003938 .L0 
     /tmp/ccCnP6rB.s:10726  .text:000000000000393c .L0 
     /tmp/ccCnP6rB.s:10727  .text:000000000000393c .L0 
     /tmp/ccCnP6rB.s:10729  .text:0000000000003940 .L0 
     /tmp/ccCnP6rB.s:10730  .text:0000000000003940 .L0 
     /tmp/ccCnP6rB.s:10732  .text:0000000000003944 .L0 
     /tmp/ccCnP6rB.s:10735  .text:0000000000003948 .L0 
     /tmp/ccCnP6rB.s:10738  .text:000000000000394c .L0 
     /tmp/ccCnP6rB.s:10740  .text:0000000000003950 .L0 
     /tmp/ccCnP6rB.s:10743  .text:0000000000003954 .L0 
     /tmp/ccCnP6rB.s:10746  .text:0000000000003958 .L0 
     /tmp/ccCnP6rB.s:10755  .text:0000000000003974 .L0 
     /tmp/ccCnP6rB.s:10766  .text:0000000000003990 .L0 
     /tmp/ccCnP6rB.s:10774  .text:00000000000039a8 .L0 
     /tmp/ccCnP6rB.s:11111  .bss:0000000000000008 sem3
     /tmp/ccCnP6rB.s:11107  .bss:0000000000000000 sem2
     /tmp/ccCnP6rB.s:11064  .data:0000000000000000 IDdd
     /tmp/ccCnP6rB.s:11080  .data:0000000000000010 IDd
     /tmp/ccCnP6rB.s:11076  .data:000000000000000c z
     /tmp/ccCnP6rB.s:11061  .data:0000000000000000 .LANCHOR1
     /tmp/ccCnP6rB.s:11068  .data:0000000000000004 _ZL2ID
     /tmp/ccCnP6rB.s:11072  .data:0000000000000008 _ZL3IDD
     /tmp/ccCnP6rB.s:11084  .data:0000000000000014 _ZL13identifikator
     /tmp/ccCnP6rB.s:11088  .data:0000000000000018 _ZL2BR
     /tmp/ccCnP6rB.s:11092  .data:000000000000001c _ZL4iden
     /tmp/ccCnP6rB.s:11096  .data:0000000000000020 _ZL3num
     /tmp/ccCnP6rB.s:11100  .data:0000000000000024 _ZL6number
     /tmp/ccCnP6rB.s:11104  .bss:0000000000000000 .LANCHOR0
     /tmp/ccCnP6rB.s:11115  .bss:0000000000000010 _ZL8waitNiti
     /tmp/ccCnP6rB.s:11119  .bss:0000000000000018 _ZL1x
     /tmp/ccCnP6rB.s:11124  .bss:0000000000000020 _ZL1s
     /tmp/ccCnP6rB.s:11132  .text:00000000000039a8 .L0 
     /tmp/ccCnP6rB.s:671    .text._ZN2A7D2Ev:0000000000000034 .L0 
     /tmp/ccCnP6rB.s:718    .text._ZN2A7D0Ev:000000000000004c .L0 
     /tmp/ccCnP6rB.s:755    .text._ZN2B7D2Ev:0000000000000034 .L0 
     /tmp/ccCnP6rB.s:802    .text._ZN2B7D0Ev:000000000000004c .L0 
     /tmp/ccCnP6rB.s:839    .text._ZN11testTRYWaitD2Ev:0000000000000034 .L0 
     /tmp/ccCnP6rB.s:886    .text._ZN11testTRYWaitD0Ev:000000000000004c .L0 
     /tmp/ccCnP6rB.s:923    .text._ZN3C13D2Ev:0000000000000034 .L0 
     /tmp/ccCnP6rB.s:970    .text._ZN3C13D0Ev:000000000000004c .L0 
     /tmp/ccCnP6rB.s:1007   .text._ZN3B13D2Ev:0000000000000034 .L0 
GAS LISTING /tmp/ccCnP6rB.s 			page 322


     /tmp/ccCnP6rB.s:1054   .text._ZN3B13D0Ev:000000000000004c .L0 
     /tmp/ccCnP6rB.s:1091   .text._ZN3A13D2Ev:0000000000000034 .L0 
     /tmp/ccCnP6rB.s:1138   .text._ZN3A13D0Ev:000000000000004c .L0 
     /tmp/ccCnP6rB.s:1175   .text._ZN3B12D2Ev:0000000000000034 .L0 
     /tmp/ccCnP6rB.s:1222   .text._ZN3B12D0Ev:000000000000004c .L0 
     /tmp/ccCnP6rB.s:1259   .text._ZN3A12D2Ev:0000000000000034 .L0 
     /tmp/ccCnP6rB.s:1306   .text._ZN3A12D0Ev:000000000000004c .L0 
     /tmp/ccCnP6rB.s:1343   .text._ZN3A11D2Ev:0000000000000034 .L0 
     /tmp/ccCnP6rB.s:1390   .text._ZN3A11D0Ev:000000000000004c .L0 
     /tmp/ccCnP6rB.s:1427   .text._ZN3A10D2Ev:0000000000000034 .L0 
     /tmp/ccCnP6rB.s:1474   .text._ZN3A10D0Ev:000000000000004c .L0 
     /tmp/ccCnP6rB.s:1511   .text._ZN2A9D2Ev:0000000000000034 .L0 
     /tmp/ccCnP6rB.s:1558   .text._ZN2A9D0Ev:000000000000004c .L0 
     /tmp/ccCnP6rB.s:1595   .text._ZN2A8D2Ev:0000000000000034 .L0 
     /tmp/ccCnP6rB.s:1642   .text._ZN2A8D0Ev:000000000000004c .L0 
     /tmp/ccCnP6rB.s:1679   .text._ZN2A5D2Ev:0000000000000034 .L0 
     /tmp/ccCnP6rB.s:1726   .text._ZN2A5D0Ev:000000000000004c .L0 
     /tmp/ccCnP6rB.s:1763   .text._ZN2C4D2Ev:0000000000000034 .L0 
     /tmp/ccCnP6rB.s:1810   .text._ZN2C4D0Ev:000000000000004c .L0 
     /tmp/ccCnP6rB.s:1847   .text._ZN2B4D2Ev:0000000000000034 .L0 
     /tmp/ccCnP6rB.s:1894   .text._ZN2B4D0Ev:000000000000004c .L0 
     /tmp/ccCnP6rB.s:1931   .text._ZN2A4D2Ev:0000000000000034 .L0 
     /tmp/ccCnP6rB.s:1978   .text._ZN2A4D0Ev:000000000000004c .L0 
     /tmp/ccCnP6rB.s:2015   .text._ZN2C3D2Ev:0000000000000034 .L0 
     /tmp/ccCnP6rB.s:2062   .text._ZN2C3D0Ev:000000000000004c .L0 
     /tmp/ccCnP6rB.s:2099   .text._ZN2B3D2Ev:0000000000000034 .L0 
     /tmp/ccCnP6rB.s:2146   .text._ZN2B3D0Ev:000000000000004c .L0 
     /tmp/ccCnP6rB.s:2183   .text._ZN2A3D2Ev:0000000000000034 .L0 
     /tmp/ccCnP6rB.s:2230   .text._ZN2A3D0Ev:000000000000004c .L0 
     /tmp/ccCnP6rB.s:2267   .text._ZN2A6D2Ev:0000000000000034 .L0 
     /tmp/ccCnP6rB.s:2314   .text._ZN2A6D0Ev:000000000000004c .L0 
     /tmp/ccCnP6rB.s:2351   .text._ZN2A2D2Ev:0000000000000034 .L0 
     /tmp/ccCnP6rB.s:2398   .text._ZN2A2D0Ev:000000000000004c .L0 
     /tmp/ccCnP6rB.s:2435   .text._ZN2A1D2Ev:0000000000000034 .L0 
     /tmp/ccCnP6rB.s:2482   .text._ZN2A1D0Ev:000000000000004c .L0 
     /tmp/ccCnP6rB.s:3720   .text._ZN2A73runEv:00000000000000ac .L0 
     /tmp/ccCnP6rB.s:3833   .text._ZN2B73runEv:00000000000000ac .L0 
     /tmp/ccCnP6rB.s:5452   .text._ZN11testTRYWait3runEv:00000000000001d4 .L0 
     /tmp/ccCnP6rB.s:8      .rodata.str1.8:0000000000000000 .LC0
     /tmp/ccCnP6rB.s:38     .text:0000000000000014 .L0 
     /tmp/ccCnP6rB.s:11     .rodata.str1.8:0000000000000010 .LC1
     /tmp/ccCnP6rB.s:44     .text:0000000000000024 .L0 
     /tmp/ccCnP6rB.s:14     .rodata.str1.8:0000000000000018 .LC2
     /tmp/ccCnP6rB.s:87     .text:0000000000000068 .L0 
     /tmp/ccCnP6rB.s:111    .rodata.str1.8:0000000000000028 .LC3
     /tmp/ccCnP6rB.s:151    .text:00000000000000b4 .L0 
     /tmp/ccCnP6rB.s:114    .rodata.str1.8:0000000000000038 .LC4
     /tmp/ccCnP6rB.s:164    .text:00000000000000d8 .L0 
     /tmp/ccCnP6rB.s:219    .text:000000000000012c .L0 
     /tmp/ccCnP6rB.s:117    .rodata.str1.8:0000000000000048 .LC5
     /tmp/ccCnP6rB.s:231    .text:0000000000000150 .L0 
     /tmp/ccCnP6rB.s:120    .rodata.str1.8:0000000000000058 .LC6
     /tmp/ccCnP6rB.s:236    .text:0000000000000160 .L0 
     /tmp/ccCnP6rB.s:248    .text:0000000000000184 .L0 
     /tmp/ccCnP6rB.s:263    .text:000000000000019c .L0 
     /tmp/ccCnP6rB.s:123    .rodata.str1.8:0000000000000068 .LC7
     /tmp/ccCnP6rB.s:275    .text:00000000000001c0 .L0 
GAS LISTING /tmp/ccCnP6rB.s 			page 323


     /tmp/ccCnP6rB.s:300    .rodata.str1.8:0000000000000070 .LC8
     /tmp/ccCnP6rB.s:366    .text:0000000000000238 .L0 
     /tmp/ccCnP6rB.s:378    .text:000000000000025c .L0 
     /tmp/ccCnP6rB.s:427    .rodata.str1.8:00000000000000a8 .LC11
     /tmp/ccCnP6rB.s:498    .text:00000000000002f0 .L0 
     /tmp/ccCnP6rB.s:510    .text:0000000000000314 .L0 
     /tmp/ccCnP6rB.s:424    .rodata.str1.8:0000000000000098 .LC10
     /tmp/ccCnP6rB.s:515    .text:0000000000000324 .L0 
     /tmp/ccCnP6rB.s:527    .text:0000000000000348 .L0 
     /tmp/ccCnP6rB.s:430    .rodata.str1.8:00000000000000b8 .LC12
     /tmp/ccCnP6rB.s:548    .text:0000000000000378 .L0 
     /tmp/ccCnP6rB.s:421    .rodata.str1.8:0000000000000078 .LC9
     /tmp/ccCnP6rB.s:562    .text:0000000000000394 .L0 
     /tmp/ccCnP6rB.s:574    .text:00000000000003b8 .L0 
     /tmp/ccCnP6rB.s:579    .text:00000000000003c8 .L0 
     /tmp/ccCnP6rB.s:591    .text:00000000000003ec .L0 
     /tmp/ccCnP6rB.s:2493   .rodata.str1.8:0000000000000110 .LC16
     /tmp/ccCnP6rB.s:2571   .text:0000000000000488 .L0 
     /tmp/ccCnP6rB.s:2496   .rodata.str1.8:0000000000000120 .LC17
     /tmp/ccCnP6rB.s:2583   .text:00000000000004ac .L0 
     /tmp/ccCnP6rB.s:2595   .text:00000000000004d0 .L0 
     /tmp/ccCnP6rB.s:2605   .text:00000000000004ec .L0 
     /tmp/ccCnP6rB.s:2499   .rodata.str1.8:0000000000000140 .LC18
     /tmp/ccCnP6rB.s:2617   .text:0000000000000510 .L0 
     /tmp/ccCnP6rB.s:2629   .text:0000000000000534 .L0 
     /tmp/ccCnP6rB.s:2484   .rodata.str1.8:00000000000000d0 .LC13
     /tmp/ccCnP6rB.s:2643   .text:0000000000000550 .L0 
     /tmp/ccCnP6rB.s:2487   .rodata.str1.8:00000000000000f0 .LC14
     /tmp/ccCnP6rB.s:2655   .text:0000000000000574 .L0 
     /tmp/ccCnP6rB.s:2490   .rodata.str1.8:0000000000000100 .LC15
     /tmp/ccCnP6rB.s:2667   .text:0000000000000598 .L0 
     /tmp/ccCnP6rB.s:2502   .rodata.str1.8:0000000000000160 .LC19
     /tmp/ccCnP6rB.s:2682   .text:00000000000005b0 .L0 
     /tmp/ccCnP6rB.s:2687   .text:00000000000005c0 .L0 
     /tmp/ccCnP6rB.s:2699   .text:00000000000005e4 .L0 
     /tmp/ccCnP6rB.s:2724   .rodata.str1.8:0000000000000180 .LC20
     /tmp/ccCnP6rB.s:2799   .text:0000000000000664 .L0 
     /tmp/ccCnP6rB.s:2811   .text:0000000000000688 .L0 
     /tmp/ccCnP6rB.s:2823   .text:00000000000006ac .L0 
     /tmp/ccCnP6rB.s:2832   .text:00000000000006c4 .L0 
     /tmp/ccCnP6rB.s:2844   .text:00000000000006e8 .L0 
     /tmp/ccCnP6rB.s:2856   .text:000000000000070c .L0 
     /tmp/ccCnP6rB.s:2870   .text:0000000000000728 .L0 
     /tmp/ccCnP6rB.s:2727   .rodata.str1.8:0000000000000190 .LC21
     /tmp/ccCnP6rB.s:2882   .text:000000000000074c .L0 
     /tmp/ccCnP6rB.s:2894   .text:0000000000000770 .L0 
     /tmp/ccCnP6rB.s:2909   .text:0000000000000788 .L0 
     /tmp/ccCnP6rB.s:2730   .rodata.str1.8:00000000000001b0 .LC22
     /tmp/ccCnP6rB.s:2921   .text:00000000000007ac .L0 
     /tmp/ccCnP6rB.s:2946   .rodata.str1.8:00000000000001c0 .LC23
     /tmp/ccCnP6rB.s:3033   .text:000000000000082c .L0 
     /tmp/ccCnP6rB.s:3045   .text:0000000000000850 .L0 
     /tmp/ccCnP6rB.s:2949   .rodata.str1.8:00000000000001c8 .LC24
     /tmp/ccCnP6rB.s:3050   .text:0000000000000860 .L0 
     /tmp/ccCnP6rB.s:2952   .rodata.str1.8:00000000000001d8 .LC25
     /tmp/ccCnP6rB.s:3055   .text:0000000000000870 .L0 
     /tmp/ccCnP6rB.s:2955   .rodata.str1.8:00000000000001f0 .LC26
GAS LISTING /tmp/ccCnP6rB.s 			page 324


     /tmp/ccCnP6rB.s:3061   .text:0000000000000884 .L0 
     /tmp/ccCnP6rB.s:2958   .rodata.str1.8:0000000000000200 .LC27
     /tmp/ccCnP6rB.s:3066   .text:0000000000000894 .L0 
     /tmp/ccCnP6rB.s:2961   .rodata.str1.8:0000000000000218 .LC28
     /tmp/ccCnP6rB.s:3072   .text:00000000000008a8 .L0 
     /tmp/ccCnP6rB.s:3084   .text:00000000000008cc .L0 
     /tmp/ccCnP6rB.s:2964   .rodata.str1.8:0000000000000238 .LC29
     /tmp/ccCnP6rB.s:3103   .text:0000000000000904 .L0 
     /tmp/ccCnP6rB.s:3115   .text:0000000000000928 .L0 
     /tmp/ccCnP6rB.s:3129   .text:0000000000000944 .L0 
     /tmp/ccCnP6rB.s:3141   .text:0000000000000968 .L0 
     /tmp/ccCnP6rB.s:3254   .text:00000000000009f0 .L0 
     /tmp/ccCnP6rB.s:3266   .text:0000000000000a14 .L0 
     /tmp/ccCnP6rB.s:3176   .rodata.str1.8:0000000000000248 .LC30
     /tmp/ccCnP6rB.s:3271   .text:0000000000000a24 .L0 
     /tmp/ccCnP6rB.s:3179   .rodata.str1.8:0000000000000258 .LC31
     /tmp/ccCnP6rB.s:3276   .text:0000000000000a34 .L0 
     /tmp/ccCnP6rB.s:3182   .rodata.str1.8:0000000000000270 .LC32
     /tmp/ccCnP6rB.s:3282   .text:0000000000000a48 .L0 
     /tmp/ccCnP6rB.s:3294   .text:0000000000000a6c .L0 
     /tmp/ccCnP6rB.s:3185   .rodata.str1.8:0000000000000288 .LC33
     /tmp/ccCnP6rB.s:3313   .text:0000000000000aa4 .L0 
     /tmp/ccCnP6rB.s:3325   .text:0000000000000ac8 .L0 
     /tmp/ccCnP6rB.s:3339   .text:0000000000000ae4 .L0 
     /tmp/ccCnP6rB.s:3351   .text:0000000000000b08 .L0 
     /tmp/ccCnP6rB.s:3386   .rodata.str1.8:0000000000000298 .LC34
     /tmp/ccCnP6rB.s:3473   .text:0000000000000b90 .L0 
     /tmp/ccCnP6rB.s:3485   .text:0000000000000bb4 .L0 
     /tmp/ccCnP6rB.s:3389   .rodata.str1.8:00000000000002a0 .LC35
     /tmp/ccCnP6rB.s:3490   .text:0000000000000bc4 .L0 
     /tmp/ccCnP6rB.s:3392   .rodata.str1.8:00000000000002b8 .LC36
     /tmp/ccCnP6rB.s:3495   .text:0000000000000bd4 .L0 
     /tmp/ccCnP6rB.s:3395   .rodata.str1.8:00000000000002d0 .LC37
     /tmp/ccCnP6rB.s:3501   .text:0000000000000be8 .L0 
     /tmp/ccCnP6rB.s:3398   .rodata.str1.8:00000000000002e8 .LC38
     /tmp/ccCnP6rB.s:3506   .text:0000000000000bf8 .L0 
     /tmp/ccCnP6rB.s:3401   .rodata.str1.8:0000000000000300 .LC39
     /tmp/ccCnP6rB.s:3512   .text:0000000000000c0c .L0 
     /tmp/ccCnP6rB.s:3524   .text:0000000000000c30 .L0 
     /tmp/ccCnP6rB.s:3404   .rodata.str1.8:0000000000000328 .LC40
     /tmp/ccCnP6rB.s:3536   .text:0000000000000c54 .L0 
     /tmp/ccCnP6rB.s:3548   .text:0000000000000c78 .L0 
     /tmp/ccCnP6rB.s:3562   .text:0000000000000c94 .L0 
     /tmp/ccCnP6rB.s:3574   .text:0000000000000cb8 .L0 
     /tmp/ccCnP6rB.s:3899   .text:0000000000000d3c .L0 
     /tmp/ccCnP6rB.s:3911   .text:0000000000000d60 .L0 
     /tmp/ccCnP6rB.s:3916   .text:0000000000000d70 .L0 
     /tmp/ccCnP6rB.s:3928   .text:0000000000000d94 .L0 
     /tmp/ccCnP6rB.s:3949   .text:0000000000000dc4 .L0 
     /tmp/ccCnP6rB.s:3963   .text:0000000000000de0 .L0 
     /tmp/ccCnP6rB.s:3975   .text:0000000000000e04 .L0 
     /tmp/ccCnP6rB.s:3980   .text:0000000000000e14 .L0 
     /tmp/ccCnP6rB.s:3992   .text:0000000000000e38 .L0 
     /tmp/ccCnP6rB.s:4100   .text:0000000000000ed0 .L0 
     /tmp/ccCnP6rB.s:4112   .text:0000000000000ef4 .L0 
     /tmp/ccCnP6rB.s:4117   .text:0000000000000f04 .L0 
     /tmp/ccCnP6rB.s:4129   .text:0000000000000f28 .L0 
GAS LISTING /tmp/ccCnP6rB.s 			page 325


     /tmp/ccCnP6rB.s:4149   .text:0000000000000f54 .L0 
     /tmp/ccCnP6rB.s:4163   .text:0000000000000f70 .L0 
     /tmp/ccCnP6rB.s:4175   .text:0000000000000f94 .L0 
     /tmp/ccCnP6rB.s:4180   .text:0000000000000fa4 .L0 
     /tmp/ccCnP6rB.s:4192   .text:0000000000000fc8 .L0 
     /tmp/ccCnP6rB.s:4300   .text:0000000000001060 .L0 
     /tmp/ccCnP6rB.s:4312   .text:0000000000001084 .L0 
     /tmp/ccCnP6rB.s:4317   .text:0000000000001094 .L0 
     /tmp/ccCnP6rB.s:4329   .text:00000000000010b8 .L0 
     /tmp/ccCnP6rB.s:4346   .text:00000000000010e0 .L0 
     /tmp/ccCnP6rB.s:4360   .text:00000000000010fc .L0 
     /tmp/ccCnP6rB.s:4372   .text:0000000000001120 .L0 
     /tmp/ccCnP6rB.s:4377   .text:0000000000001130 .L0 
     /tmp/ccCnP6rB.s:4389   .text:0000000000001154 .L0 
     /tmp/ccCnP6rB.s:4497   .text:00000000000011ec .L0 
     /tmp/ccCnP6rB.s:4509   .text:0000000000001210 .L0 
     /tmp/ccCnP6rB.s:4514   .text:0000000000001220 .L0 
     /tmp/ccCnP6rB.s:4526   .text:0000000000001244 .L0 
     /tmp/ccCnP6rB.s:4542   .text:0000000000001268 .L0 
     /tmp/ccCnP6rB.s:4556   .text:0000000000001284 .L0 
     /tmp/ccCnP6rB.s:4568   .text:00000000000012a8 .L0 
     /tmp/ccCnP6rB.s:4573   .text:00000000000012b8 .L0 
     /tmp/ccCnP6rB.s:4585   .text:00000000000012dc .L0 
     /tmp/ccCnP6rB.s:4630   .rodata.str1.8:0000000000000338 .LC47
     /tmp/ccCnP6rB.s:4662   .text:0000000000001338 .L0 
     /tmp/ccCnP6rB.s:4633   .rodata.str1.8:0000000000000350 .LC48
     /tmp/ccCnP6rB.s:4706   .text:0000000000001378 .L0 
     /tmp/ccCnP6rB.s:4712   .text:000000000000138c .L0 
     /tmp/ccCnP6rB.s:4636   .rodata.str1.8:0000000000000370 .LC49
     /tmp/ccCnP6rB.s:4717   .text:000000000000139c .L0 
     /tmp/ccCnP6rB.s:4639   .rodata.str1.8:0000000000000388 .LC50
     /tmp/ccCnP6rB.s:4722   .text:00000000000013ac .L0 
     /tmp/ccCnP6rB.s:4782   .text:00000000000013ec .L0 
     /tmp/ccCnP6rB.s:4742   .rodata.str1.8:0000000000000398 .LC51
     /tmp/ccCnP6rB.s:4787   .text:00000000000013fc .L0 
     /tmp/ccCnP6rB.s:4745   .rodata.str1.8:00000000000003b8 .LC52
     /tmp/ccCnP6rB.s:4838   .text:0000000000001448 .L0 
     /tmp/ccCnP6rB.s:4844   .text:000000000000145c .L0 
     /tmp/ccCnP6rB.s:4748   .rodata.str1.8:00000000000003d0 .LC53
     /tmp/ccCnP6rB.s:4849   .text:000000000000146c .L0 
     /tmp/ccCnP6rB.s:4751   .rodata.str1.8:00000000000003e8 .LC54
     /tmp/ccCnP6rB.s:4854   .text:000000000000147c .L0 
     /tmp/ccCnP6rB.s:4943   .text:00000000000014f4 .L0 
     /tmp/ccCnP6rB.s:4955   .text:0000000000001518 .L0 
     /tmp/ccCnP6rB.s:4964   .text:0000000000001530 .L0 
     /tmp/ccCnP6rB.s:4874   .rodata.str1.8:00000000000003f8 .LC55
     /tmp/ccCnP6rB.s:4989   .text:000000000000155c .L0 
     /tmp/ccCnP6rB.s:5093   .text:00000000000015ec .L0 
     /tmp/ccCnP6rB.s:5105   .text:0000000000001610 .L0 
     /tmp/ccCnP6rB.s:5024   .rodata.str1.8:0000000000000410 .LC56
     /tmp/ccCnP6rB.s:5134   .text:0000000000001644 .L0 
     /tmp/ccCnP6rB.s:5511   .text:00000000000016bc .L0 
     /tmp/ccCnP6rB.s:5514   .text:00000000000016c8 .L0 
     /tmp/ccCnP6rB.s:5454   .rodata.str1.8:0000000000000428 .LC62
     /tmp/ccCnP6rB.s:5522   .text:00000000000016e0 .L0 
     /tmp/ccCnP6rB.s:5535   .text:0000000000001704 .L0 
     /tmp/ccCnP6rB.s:5574   .text:0000000000001758 .L0 
GAS LISTING /tmp/ccCnP6rB.s 			page 326


     /tmp/ccCnP6rB.s:5577   .text:0000000000001764 .L0 
     /tmp/ccCnP6rB.s:5585   .text:000000000000177c .L0 
     /tmp/ccCnP6rB.s:5598   .text:00000000000017a0 .L0 
     /tmp/ccCnP6rB.s:5637   .text:00000000000017f4 .L0 
     /tmp/ccCnP6rB.s:5640   .text:0000000000001800 .L0 
     /tmp/ccCnP6rB.s:5648   .text:0000000000001818 .L0 
     /tmp/ccCnP6rB.s:5661   .text:000000000000183c .L0 
     /tmp/ccCnP6rB.s:5700   .text:0000000000001890 .L0 
     /tmp/ccCnP6rB.s:5703   .text:000000000000189c .L0 
     /tmp/ccCnP6rB.s:5457   .rodata.str1.8:0000000000000440 .LC63
     /tmp/ccCnP6rB.s:5711   .text:00000000000018b4 .L0 
     /tmp/ccCnP6rB.s:5724   .text:00000000000018d8 .L0 
     /tmp/ccCnP6rB.s:5460   .rodata.str1.8:0000000000000458 .LC64
     /tmp/ccCnP6rB.s:5769   .text:0000000000001944 .L0 
     /tmp/ccCnP6rB.s:5463   .rodata.str1.8:0000000000000468 .LC65
     /tmp/ccCnP6rB.s:5816   .text:0000000000001990 .L0 
     /tmp/ccCnP6rB.s:5976   .text:0000000000001a1c .L0 
     /tmp/ccCnP6rB.s:5979   .text:0000000000001a28 .L0 
     /tmp/ccCnP6rB.s:5987   .text:0000000000001a40 .L0 
     /tmp/ccCnP6rB.s:6000   .text:0000000000001a64 .L0 
     /tmp/ccCnP6rB.s:6039   .text:0000000000001ab8 .L0 
     /tmp/ccCnP6rB.s:6042   .text:0000000000001ac4 .L0 
     /tmp/ccCnP6rB.s:6050   .text:0000000000001adc .L0 
     /tmp/ccCnP6rB.s:6063   .text:0000000000001b00 .L0 
     /tmp/ccCnP6rB.s:6102   .text:0000000000001b54 .L0 
     /tmp/ccCnP6rB.s:6105   .text:0000000000001b60 .L0 
     /tmp/ccCnP6rB.s:6113   .text:0000000000001b78 .L0 
     /tmp/ccCnP6rB.s:6126   .text:0000000000001b9c .L0 
     /tmp/ccCnP6rB.s:5927   .rodata.str1.8:0000000000000478 .LC66
     /tmp/ccCnP6rB.s:6166   .text:0000000000001bfc .L0 
     /tmp/ccCnP6rB.s:5930   .rodata.str1.8:0000000000000488 .LC67
     /tmp/ccCnP6rB.s:6213   .text:0000000000001c48 .L0 
     /tmp/ccCnP6rB.s:6345   .text:0000000000001cb4 .L0 
     /tmp/ccCnP6rB.s:6348   .text:0000000000001cc0 .L0 
     /tmp/ccCnP6rB.s:6304   .rodata.str1.8:0000000000000498 .LC68
     /tmp/ccCnP6rB.s:6357   .text:0000000000001cdc .L0 
     /tmp/ccCnP6rB.s:6370   .text:0000000000001d00 .L0 
     /tmp/ccCnP6rB.s:6451   .text:0000000000001da0 .L0 
     /tmp/ccCnP6rB.s:6454   .text:0000000000001dac .L0 
     /tmp/ccCnP6rB.s:6464   .text:0000000000001dcc .L0 
     /tmp/ccCnP6rB.s:6477   .text:0000000000001df0 .L0 
     /tmp/ccCnP6rB.s:6307   .rodata.str1.8:00000000000004b0 .LC69
     /tmp/ccCnP6rB.s:6580   .text:0000000000001ea4 .L0 
     /tmp/ccCnP6rB.s:6697   .text:0000000000001f04 .L0 
     /tmp/ccCnP6rB.s:6700   .text:0000000000001f10 .L0 
     /tmp/ccCnP6rB.s:6655   .rodata.str1.8:00000000000004d0 .LC70
     /tmp/ccCnP6rB.s:6708   .text:0000000000001f28 .L0 
     /tmp/ccCnP6rB.s:6658   .rodata.str1.8:00000000000004e0 .LC71
     /tmp/ccCnP6rB.s:6844   .text:0000000000002000 .L0 
     /tmp/ccCnP6rB.s:6944   .text:0000000000002058 .L0 
     /tmp/ccCnP6rB.s:6947   .text:0000000000002064 .L0 
     /tmp/ccCnP6rB.s:6955   .text:000000000000207c .L0 
     /tmp/ccCnP6rB.s:6902   .rodata.str1.8:0000000000000518 .LC72
     /tmp/ccCnP6rB.s:6968   .text:00000000000020a0 .L0 
     /tmp/ccCnP6rB.s:6905   .rodata.str1.8:0000000000000528 .LC73
     /tmp/ccCnP6rB.s:7103   .text:0000000000002178 .L0 
     /tmp/ccCnP6rB.s:7206   .text:00000000000021e0 .L0 
GAS LISTING /tmp/ccCnP6rB.s 			page 327


     /tmp/ccCnP6rB.s:7209   .text:00000000000021ec .L0 
     /tmp/ccCnP6rB.s:7161   .rodata.str1.8:0000000000000570 .LC74
     /tmp/ccCnP6rB.s:7219   .text:000000000000220c .L0 
     /tmp/ccCnP6rB.s:7232   .text:0000000000002230 .L0 
     /tmp/ccCnP6rB.s:7271   .text:0000000000002284 .L0 
     /tmp/ccCnP6rB.s:7274   .text:0000000000002290 .L0 
     /tmp/ccCnP6rB.s:7284   .text:00000000000022b0 .L0 
     /tmp/ccCnP6rB.s:7297   .text:00000000000022d4 .L0 
     /tmp/ccCnP6rB.s:7337   .text:0000000000002328 .L0 
     /tmp/ccCnP6rB.s:7340   .text:0000000000002334 .L0 
     /tmp/ccCnP6rB.s:7350   .text:0000000000002354 .L0 
     /tmp/ccCnP6rB.s:7363   .text:0000000000002378 .L0 
     /tmp/ccCnP6rB.s:7164   .rodata.str1.8:0000000000000588 .LC75
     /tmp/ccCnP6rB.s:7485   .text:0000000000002450 .L0 
     /tmp/ccCnP6rB.s:7615   .text:00000000000024c4 .L0 
     /tmp/ccCnP6rB.s:7618   .text:00000000000024d0 .L0 
     /tmp/ccCnP6rB.s:7626   .text:00000000000024e8 .L0 
     /tmp/ccCnP6rB.s:7639   .text:000000000000250c .L0 
     /tmp/ccCnP6rB.s:7575   .rodata.str1.8:00000000000005b8 .LC76
     /tmp/ccCnP6rB.s:7684   .text:0000000000002574 .L0 
     /tmp/ccCnP6rB.s:7782   .text:00000000000025d4 .L0 
     /tmp/ccCnP6rB.s:7785   .text:00000000000025e0 .L0 
     /tmp/ccCnP6rB.s:7736   .rodata.str1.8:00000000000005e0 .LC77
     /tmp/ccCnP6rB.s:7793   .text:00000000000025f8 .L0 
     /tmp/ccCnP6rB.s:7806   .text:000000000000261c .L0 
     /tmp/ccCnP6rB.s:7739   .rodata.str1.8:00000000000005f8 .LC78
     /tmp/ccCnP6rB.s:7933   .text:00000000000026f4 .L0 
     /tmp/ccCnP6rB.s:8042   .text:000000000000275c .L0 
     /tmp/ccCnP6rB.s:8045   .text:0000000000002768 .L0 
     /tmp/ccCnP6rB.s:7993   .rodata.str1.8:0000000000000638 .LC79
     /tmp/ccCnP6rB.s:8053   .text:0000000000002780 .L0 
     /tmp/ccCnP6rB.s:8082   .text:00000000000027c0 .L0 
     /tmp/ccCnP6rB.s:8094   .text:00000000000027d0 .L0 
     /tmp/ccCnP6rB.s:8097   .text:00000000000027dc .L0 
     /tmp/ccCnP6rB.s:7996   .rodata.str1.8:0000000000000650 .LC80
     /tmp/ccCnP6rB.s:8105   .text:00000000000027f4 .L0 
     /tmp/ccCnP6rB.s:7999   .rodata.str1.8:0000000000000668 .LC81
     /tmp/ccCnP6rB.s:8235   .text:00000000000028d8 .L0 
     /tmp/ccCnP6rB.s:8349   .text:0000000000002938 .L0 
     /tmp/ccCnP6rB.s:8352   .text:0000000000002944 .L0 
     /tmp/ccCnP6rB.s:8361   .text:0000000000002960 .L0 
     /tmp/ccCnP6rB.s:8374   .text:0000000000002984 .L0 
     /tmp/ccCnP6rB.s:8455   .text:0000000000002a24 .L0 
     /tmp/ccCnP6rB.s:8458   .text:0000000000002a30 .L0 
     /tmp/ccCnP6rB.s:8468   .text:0000000000002a50 .L0 
     /tmp/ccCnP6rB.s:8481   .text:0000000000002a74 .L0 
     /tmp/ccCnP6rB.s:8311   .rodata.str1.8:0000000000000698 .LC82
     /tmp/ccCnP6rB.s:8584   .text:0000000000002b28 .L0 
     /tmp/ccCnP6rB.s:8703   .text:0000000000002b94 .L0 
     /tmp/ccCnP6rB.s:8706   .text:0000000000002ba0 .L0 
     /tmp/ccCnP6rB.s:8715   .text:0000000000002bbc .L0 
     /tmp/ccCnP6rB.s:8728   .text:0000000000002be0 .L0 
     /tmp/ccCnP6rB.s:8801   .text:0000000000002c6c .L0 
     /tmp/ccCnP6rB.s:8804   .text:0000000000002c78 .L0 
     /tmp/ccCnP6rB.s:8814   .text:0000000000002c98 .L0 
     /tmp/ccCnP6rB.s:8827   .text:0000000000002cbc .L0 
     /tmp/ccCnP6rB.s:8866   .text:0000000000002d04 .L0 
GAS LISTING /tmp/ccCnP6rB.s 			page 328


     /tmp/ccCnP6rB.s:8869   .text:0000000000002d10 .L0 
     /tmp/ccCnP6rB.s:8878   .text:0000000000002d2c .L0 
     /tmp/ccCnP6rB.s:8891   .text:0000000000002d50 .L0 
     /tmp/ccCnP6rB.s:8659   .rodata.str1.8:00000000000006c0 .LC83
     /tmp/ccCnP6rB.s:9014   .text:0000000000002e20 .L0 
     /tmp/ccCnP6rB.s:9173   .text:0000000000002eb8 .L0 
     /tmp/ccCnP6rB.s:9176   .text:0000000000002ec4 .L0 
     /tmp/ccCnP6rB.s:9185   .text:0000000000002ee0 .L0 
     /tmp/ccCnP6rB.s:9198   .text:0000000000002f04 .L0 
     /tmp/ccCnP6rB.s:9281   .text:0000000000002fa0 .L0 
     /tmp/ccCnP6rB.s:9284   .text:0000000000002fac .L0 
     /tmp/ccCnP6rB.s:9294   .text:0000000000002fcc .L0 
     /tmp/ccCnP6rB.s:9307   .text:0000000000002ff0 .L0 
     /tmp/ccCnP6rB.s:9354   .text:0000000000003050 .L0 
     /tmp/ccCnP6rB.s:9357   .text:000000000000305c .L0 
     /tmp/ccCnP6rB.s:9367   .text:000000000000307c .L0 
     /tmp/ccCnP6rB.s:9380   .text:00000000000030a0 .L0 
     /tmp/ccCnP6rB.s:9414   .text:00000000000030e4 .L0 
     /tmp/ccCnP6rB.s:9417   .text:00000000000030f0 .L0 
     /tmp/ccCnP6rB.s:9426   .text:000000000000310c .L0 
     /tmp/ccCnP6rB.s:9439   .text:0000000000003130 .L0 
     /tmp/ccCnP6rB.s:9113   .rodata.str1.8:00000000000006e0 .LC84
     /tmp/ccCnP6rB.s:9537   .text:00000000000031d8 .L0 
     /tmp/ccCnP6rB.s:9708   .text:0000000000003278 .L0 
     /tmp/ccCnP6rB.s:9711   .text:0000000000003284 .L0 
     /tmp/ccCnP6rB.s:9721   .text:00000000000032a4 .L0 
     /tmp/ccCnP6rB.s:9734   .text:00000000000032c8 .L0 
     /tmp/ccCnP6rB.s:9767   .text:000000000000330c .L0 
     /tmp/ccCnP6rB.s:9770   .text:0000000000003318 .L0 
     /tmp/ccCnP6rB.s:9779   .text:0000000000003334 .L0 
     /tmp/ccCnP6rB.s:9792   .text:0000000000003358 .L0 
     /tmp/ccCnP6rB.s:9921   .text:0000000000003430 .L0 
     /tmp/ccCnP6rB.s:10034  .text:00000000000034a8 .L0 
     /tmp/ccCnP6rB.s:10049  .text:00000000000034cc .L0 
     /tmp/ccCnP6rB.s:10067  .text:00000000000034ec .L0 
     /tmp/ccCnP6rB.s:10088  .text:0000000000003510 .L0 
     /tmp/ccCnP6rB.s:10288  .text:0000000000003630 .L0 
     /tmp/ccCnP6rB.s:10237  .rodata.str1.8:0000000000000700 .LC85
     /tmp/ccCnP6rB.s:10295  .text:000000000000363c .L0 
     /tmp/ccCnP6rB.s:10314  .text:0000000000003664 .L0 
     /tmp/ccCnP6rB.s:10240  .rodata.str1.8:0000000000000710 .LC86
     /tmp/ccCnP6rB.s:10321  .text:0000000000003670 .L0 
     /tmp/ccCnP6rB.s:10340  .text:0000000000003698 .L0 
     /tmp/ccCnP6rB.s:10243  .rodata.str1.8:0000000000000720 .LC87
     /tmp/ccCnP6rB.s:10359  .text:00000000000036ac .L0 
     /tmp/ccCnP6rB.s:10246  .rodata.str1.8:0000000000000730 .LC88
     /tmp/ccCnP6rB.s:10420  .text:0000000000003734 .L0 
     /tmp/ccCnP6rB.s:10554  .text:00000000000037ec .L0 
     /tmp/ccCnP6rB.s:10569  .text:0000000000003810 .L0 
     /tmp/ccCnP6rB.s:10581  .text:0000000000003820 .L0 
     /tmp/ccCnP6rB.s:10607  .text:000000000000385c .L0 
     /tmp/ccCnP6rB.s:10657  .text:00000000000038a8 .L0 
     /tmp/ccCnP6rB.s:10699  .text:00000000000038f8 .L0 
     /tmp/ccCnP6rB.s:10710  .text:0000000000003910 .L0 
     /tmp/ccCnP6rB.s:10513  .rodata.str1.8:0000000000000758 .LC89
     /tmp/ccCnP6rB.s:10721  .text:0000000000003928 .L0 
     /tmp/ccCnP6rB.s:63     .text:0000000000000048 .L5
GAS LISTING /tmp/ccCnP6rB.s 			page 329


     /tmp/ccCnP6rB.s:81     .text:0000000000000068 .L2
     /tmp/ccCnP6rB.s:53     .text:000000000000003c .L3
     /tmp/ccCnP6rB.s:71     .text:0000000000000054 .L4
     /tmp/ccCnP6rB.s:212    .text:0000000000000124 .L13
     /tmp/ccCnP6rB.s:204    .text:0000000000000120 .L9
     /tmp/ccCnP6rB.s:173    .text:00000000000000f0 .L10
     /tmp/ccCnP6rB.s:194    .text:000000000000010c .L11
     /tmp/ccCnP6rB.s:257    .text:000000000000019c .L8
     /tmp/ccCnP6rB.s:185    .text:00000000000000fc .L12
     /tmp/ccCnP6rB.s:389    .text:0000000000000278 .L21
     /tmp/ccCnP6rB.s:360    .text:0000000000000238 .L17
     /tmp/ccCnP6rB.s:330    .text:000000000000020c .L18
     /tmp/ccCnP6rB.s:351    .text:0000000000000228 .L19
     /tmp/ccCnP6rB.s:398    .text:0000000000000288 .L15
     /tmp/ccCnP6rB.s:342    .text:0000000000000218 .L20
     /tmp/ccCnP6rB.s:555    .text:000000000000038c .L31
     /tmp/ccCnP6rB.s:492    .text:00000000000002f0 .L25
     /tmp/ccCnP6rB.s:463    .text:00000000000002c8 .L26
     /tmp/ccCnP6rB.s:483    .text:00000000000002e0 .L27
     /tmp/ccCnP6rB.s:600    .text:0000000000000404 .L29
     /tmp/ccCnP6rB.s:611    .text:0000000000000418 .L23
     /tmp/ccCnP6rB.s:475    .text:00000000000002d4 .L28
     /tmp/ccCnP6rB.s:541    .text:0000000000000370 .L30
     /tmp/ccCnP6rB.s:2636   .text:0000000000000548 .L127
     /tmp/ccCnP6rB.s:2565   .text:0000000000000488 .L123
     /tmp/ccCnP6rB.s:2535   .text:000000000000045c .L124
     /tmp/ccCnP6rB.s:2555   .text:0000000000000474 .L125
     /tmp/ccCnP6rB.s:2676   .text:00000000000005b0 .L122
     /tmp/ccCnP6rB.s:2547   .text:0000000000000468 .L126
     /tmp/ccCnP6rB.s:2863   .text:0000000000000720 .L135
     /tmp/ccCnP6rB.s:2793   .text:0000000000000664 .L131
     /tmp/ccCnP6rB.s:2763   .text:0000000000000638 .L132
     /tmp/ccCnP6rB.s:2784   .text:0000000000000654 .L133
     /tmp/ccCnP6rB.s:2903   .text:0000000000000788 .L130
     /tmp/ccCnP6rB.s:2775   .text:0000000000000644 .L134
     /tmp/ccCnP6rB.s:3122   .text:000000000000093c .L143
     /tmp/ccCnP6rB.s:3027   .text:000000000000082c .L139
     /tmp/ccCnP6rB.s:2997   .text:0000000000000800 .L140
     /tmp/ccCnP6rB.s:3017   .text:0000000000000818 .L141
     /tmp/ccCnP6rB.s:3150   .text:0000000000000980 .L137
     /tmp/ccCnP6rB.s:3009   .text:000000000000080c .L142
     /tmp/ccCnP6rB.s:3332   .text:0000000000000adc .L151
     /tmp/ccCnP6rB.s:3248   .text:00000000000009f0 .L147
     /tmp/ccCnP6rB.s:3218   .text:00000000000009c4 .L148
     /tmp/ccCnP6rB.s:3238   .text:00000000000009dc .L149
     /tmp/ccCnP6rB.s:3360   .text:0000000000000b20 .L145
     /tmp/ccCnP6rB.s:3230   .text:00000000000009d0 .L150
     /tmp/ccCnP6rB.s:3555   .text:0000000000000c8c .L159
     /tmp/ccCnP6rB.s:3467   .text:0000000000000b90 .L155
     /tmp/ccCnP6rB.s:3437   .text:0000000000000b64 .L156
     /tmp/ccCnP6rB.s:3457   .text:0000000000000b7c .L157
     /tmp/ccCnP6rB.s:3583   .text:0000000000000cd0 .L153
     /tmp/ccCnP6rB.s:3449   .text:0000000000000b70 .L158
     /tmp/ccCnP6rB.s:3956   .text:0000000000000dd8 .L181
     /tmp/ccCnP6rB.s:3893   .text:0000000000000d3c .L175
     /tmp/ccCnP6rB.s:3864   .text:0000000000000d14 .L176
     /tmp/ccCnP6rB.s:3884   .text:0000000000000d2c .L177
GAS LISTING /tmp/ccCnP6rB.s 			page 330


     /tmp/ccCnP6rB.s:4001   .text:0000000000000e50 .L179
     /tmp/ccCnP6rB.s:4012   .text:0000000000000e64 .L173
     /tmp/ccCnP6rB.s:3876   .text:0000000000000d20 .L178
     /tmp/ccCnP6rB.s:3942   .text:0000000000000dbc .L180
     /tmp/ccCnP6rB.s:4156   .text:0000000000000f68 .L191
     /tmp/ccCnP6rB.s:4094   .text:0000000000000ed0 .L185
     /tmp/ccCnP6rB.s:4065   .text:0000000000000ea8 .L186
     /tmp/ccCnP6rB.s:4085   .text:0000000000000ec0 .L187
     /tmp/ccCnP6rB.s:4201   .text:0000000000000fe0 .L189
     /tmp/ccCnP6rB.s:4212   .text:0000000000000ff4 .L183
     /tmp/ccCnP6rB.s:4077   .text:0000000000000eb4 .L188
     /tmp/ccCnP6rB.s:4142   .text:0000000000000f4c .L190
     /tmp/ccCnP6rB.s:4353   .text:00000000000010f4 .L201
     /tmp/ccCnP6rB.s:4294   .text:0000000000001060 .L195
     /tmp/ccCnP6rB.s:4265   .text:0000000000001038 .L196
     /tmp/ccCnP6rB.s:4285   .text:0000000000001050 .L197
     /tmp/ccCnP6rB.s:4398   .text:000000000000116c .L199
     /tmp/ccCnP6rB.s:4409   .text:0000000000001180 .L193
     /tmp/ccCnP6rB.s:4277   .text:0000000000001044 .L198
     /tmp/ccCnP6rB.s:4343   .text:00000000000010e0 .L200
     /tmp/ccCnP6rB.s:4549   .text:000000000000127c .L211
     /tmp/ccCnP6rB.s:4491   .text:00000000000011ec .L205
     /tmp/ccCnP6rB.s:4462   .text:00000000000011c4 .L206
     /tmp/ccCnP6rB.s:4482   .text:00000000000011dc .L207
     /tmp/ccCnP6rB.s:4594   .text:00000000000012f4 .L209
     /tmp/ccCnP6rB.s:4605   .text:0000000000001308 .L203
     /tmp/ccCnP6rB.s:4474   .text:00000000000011d0 .L208
     /tmp/ccCnP6rB.s:4539   .text:0000000000001268 .L210
     /tmp/ccCnP6rB.s:4682   .text:000000000000135c .L217
     /tmp/ccCnP6rB.s:4699   .text:0000000000001378 .L214
     /tmp/ccCnP6rB.s:4672   .text:0000000000001350 .L215
     /tmp/ccCnP6rB.s:4690   .text:0000000000001368 .L216
     /tmp/ccCnP6rB.s:4793   .text:0000000000001410 .L221
     /tmp/ccCnP6rB.s:4779   .text:00000000000013ec .L227
     /tmp/ccCnP6rB.s:4814   .text:000000000000142c .L220
     /tmp/ccCnP6rB.s:4831   .text:0000000000001448 .L222
     /tmp/ccCnP6rB.s:4804   .text:0000000000001420 .L223
     /tmp/ccCnP6rB.s:4822   .text:0000000000001438 .L224
     /tmp/ccCnP6rB.s:4975   .text:000000000000154c .L235
     /tmp/ccCnP6rB.s:4937   .text:00000000000014f4 .L230
     /tmp/ccCnP6rB.s:4907   .text:00000000000014c8 .L231
     /tmp/ccCnP6rB.s:4928   .text:00000000000014e4 .L232
     /tmp/ccCnP6rB.s:4985   .text:000000000000155c .L237
     /tmp/ccCnP6rB.s:4999   .text:000000000000157c .L228
     /tmp/ccCnP6rB.s:4919   .text:00000000000014d4 .L233
     /tmp/ccCnP6rB.s:4961   .text:0000000000001530 .L234
     /tmp/ccCnP6rB.s:5120   .text:0000000000001634 .L245
     /tmp/ccCnP6rB.s:5087   .text:00000000000015ec .L240
     /tmp/ccCnP6rB.s:5057   .text:00000000000015c0 .L241
     /tmp/ccCnP6rB.s:5078   .text:00000000000015dc .L242
     /tmp/ccCnP6rB.s:5130   .text:0000000000001644 .L247
     /tmp/ccCnP6rB.s:5144   .text:0000000000001664 .L238
     /tmp/ccCnP6rB.s:5069   .text:00000000000015cc .L243
     /tmp/ccCnP6rB.s:5111   .text:0000000000001628 .L244
     /tmp/ccCnP6rB.s:5557   .text:0000000000001740 .L295
     /tmp/ccCnP6rB.s:5620   .text:00000000000017dc .L296
     /tmp/ccCnP6rB.s:5683   .text:0000000000001878 .L297
GAS LISTING /tmp/ccCnP6rB.s 			page 331


     /tmp/ccCnP6rB.s:5746   .text:0000000000001914 .L298
     /tmp/ccCnP6rB.s:5788   .text:0000000000001968 .L280
     /tmp/ccCnP6rB.s:5806   .text:0000000000001988 .L277
     /tmp/ccCnP6rB.s:5778   .text:000000000000195c .L278
     /tmp/ccCnP6rB.s:5796   .text:0000000000001974 .L279
     /tmp/ccCnP6rB.s:5546   .text:0000000000001728 .L267
     /tmp/ccCnP6rB.s:5609   .text:00000000000017c4 .L270
     /tmp/ccCnP6rB.s:5672   .text:0000000000001860 .L273
     /tmp/ccCnP6rB.s:5735   .text:00000000000018fc .L276
     /tmp/ccCnP6rB.s:6022   .text:0000000000001aa0 .L324
     /tmp/ccCnP6rB.s:6085   .text:0000000000001b3c .L325
     /tmp/ccCnP6rB.s:6148   .text:0000000000001bd8 .L326
     /tmp/ccCnP6rB.s:6185   .text:0000000000001c20 .L312
     /tmp/ccCnP6rB.s:6203   .text:0000000000001c40 .L309
     /tmp/ccCnP6rB.s:6175   .text:0000000000001c14 .L310
     /tmp/ccCnP6rB.s:6193   .text:0000000000001c2c .L311
     /tmp/ccCnP6rB.s:6011   .text:0000000000001a88 .L302
     /tmp/ccCnP6rB.s:6074   .text:0000000000001b24 .L305
     /tmp/ccCnP6rB.s:6137   .text:0000000000001bc0 .L308
     /tmp/ccCnP6rB.s:6403   .text:0000000000001d50 .L337
     /tmp/ccCnP6rB.s:6393   .text:0000000000001d3c .L353
     /tmp/ccCnP6rB.s:6507   .text:0000000000001e40 .L328
     /tmp/ccCnP6rB.s:6431   .text:0000000000001d84 .L329
     /tmp/ccCnP6rB.s:6341   .text:0000000000001cb4 .L354
     /tmp/ccCnP6rB.s:6500   .text:0000000000001e2c .L355
     /tmp/ccCnP6rB.s:6399   .text:0000000000001d4c .L333
     /tmp/ccCnP6rB.s:6530   .text:0000000000001e60 .L343
     /tmp/ccCnP6rB.s:6517   .text:0000000000001e48 .L339
     /tmp/ccCnP6rB.s:6549   .text:0000000000001e7c .L344
     /tmp/ccCnP6rB.s:6536   .text:0000000000001e64 .L338
     /tmp/ccCnP6rB.s:6561   .text:0000000000001e88 .L340
     /tmp/ccCnP6rB.s:6576   .text:0000000000001ea4 .L341
     /tmp/ccCnP6rB.s:6557   .text:0000000000001e84 .L342
     /tmp/ccCnP6rB.s:6382   .text:0000000000001d24 .L332
     /tmp/ccCnP6rB.s:6489   .text:0000000000001e14 .L336
     /tmp/ccCnP6rB.s:6738   .text:0000000000001f6c .L361
     /tmp/ccCnP6rB.s:6732   .text:0000000000001f64 .L374
     /tmp/ccCnP6rB.s:6762   .text:0000000000001f94 .L366
     /tmp/ccCnP6rB.s:6693   .text:0000000000001f04 .L375
     /tmp/ccCnP6rB.s:6787   .text:0000000000001fb4 .L367
     /tmp/ccCnP6rB.s:6770   .text:0000000000001f98 .L357
     /tmp/ccCnP6rB.s:6809   .text:0000000000001fd4 .L368
     /tmp/ccCnP6rB.s:6793   .text:0000000000001fb8 .L362
     /tmp/ccCnP6rB.s:6821   .text:0000000000001fe0 .L363
     /tmp/ccCnP6rB.s:6840   .text:0000000000002000 .L364
     /tmp/ccCnP6rB.s:6817   .text:0000000000001fdc .L365
     /tmp/ccCnP6rB.s:6721   .text:0000000000001f4c .L360
     /tmp/ccCnP6rB.s:6997   .text:00000000000020e4 .L381
     /tmp/ccCnP6rB.s:6991   .text:00000000000020dc .L394
     /tmp/ccCnP6rB.s:7021   .text:000000000000210c .L386
     /tmp/ccCnP6rB.s:6940   .text:0000000000002058 .L395
     /tmp/ccCnP6rB.s:7046   .text:000000000000212c .L387
     /tmp/ccCnP6rB.s:7029   .text:0000000000002110 .L377
     /tmp/ccCnP6rB.s:7068   .text:000000000000214c .L388
     /tmp/ccCnP6rB.s:7052   .text:0000000000002130 .L382
     /tmp/ccCnP6rB.s:7080   .text:0000000000002158 .L383
     /tmp/ccCnP6rB.s:7099   .text:0000000000002178 .L384
GAS LISTING /tmp/ccCnP6rB.s 			page 332


     /tmp/ccCnP6rB.s:7076   .text:0000000000002154 .L385
     /tmp/ccCnP6rB.s:6980   .text:00000000000020c4 .L380
     /tmp/ccCnP6rB.s:7254   .text:000000000000226c .L420
     /tmp/ccCnP6rB.s:7320   .text:0000000000002310 .L421
     /tmp/ccCnP6rB.s:7386   .text:00000000000023b4 .L422
     /tmp/ccCnP6rB.s:7462   .text:0000000000002428 .L406
     /tmp/ccCnP6rB.s:7472   .text:000000000000243c .L407
     /tmp/ccCnP6rB.s:7482   .text:0000000000002450 .L408
     /tmp/ccCnP6rB.s:7243   .text:0000000000002254 .L399
     /tmp/ccCnP6rB.s:7309   .text:00000000000022f8 .L402
     /tmp/ccCnP6rB.s:7375   .text:000000000000239c .L405
     /tmp/ccCnP6rB.s:7661   .text:0000000000002548 .L433
     /tmp/ccCnP6rB.s:7681   .text:0000000000002574 .L427
     /tmp/ccCnP6rB.s:7650   .text:0000000000002530 .L426
     /tmp/ccCnP6rB.s:7835   .text:0000000000002660 .L439
     /tmp/ccCnP6rB.s:7829   .text:0000000000002658 .L452
     /tmp/ccCnP6rB.s:7858   .text:0000000000002688 .L444
     /tmp/ccCnP6rB.s:7778   .text:00000000000025d4 .L453
     /tmp/ccCnP6rB.s:7877   .text:00000000000026a0 .L435
     /tmp/ccCnP6rB.s:7867   .text:0000000000002690 .L454
     /tmp/ccCnP6rB.s:7897   .text:00000000000026c0 .L440
     /tmp/ccCnP6rB.s:7888   .text:00000000000026b0 .L455
     /tmp/ccCnP6rB.s:7912   .text:00000000000026d4 .L441
     /tmp/ccCnP6rB.s:7929   .text:00000000000026f4 .L442
     /tmp/ccCnP6rB.s:7908   .text:00000000000026d0 .L443
     /tmp/ccCnP6rB.s:7818   .text:0000000000002640 .L438
     /tmp/ccCnP6rB.s:8077   .text:00000000000027bc .L480
     /tmp/ccCnP6rB.s:8138   .text:0000000000002844 .L464
     /tmp/ccCnP6rB.s:8129   .text:0000000000002830 .L481
     /tmp/ccCnP6rB.s:8160   .text:000000000000286c .L469
     /tmp/ccCnP6rB.s:8090   .text:00000000000027d0 .L482
     /tmp/ccCnP6rB.s:8179   .text:0000000000002884 .L460
     /tmp/ccCnP6rB.s:8169   .text:0000000000002874 .L483
     /tmp/ccCnP6rB.s:8199   .text:00000000000028a4 .L465
     /tmp/ccCnP6rB.s:8190   .text:0000000000002894 .L484
     /tmp/ccCnP6rB.s:8214   .text:00000000000028b8 .L466
     /tmp/ccCnP6rB.s:8231   .text:00000000000028d8 .L467
     /tmp/ccCnP6rB.s:8210   .text:00000000000028b4 .L468
     /tmp/ccCnP6rB.s:8065   .text:00000000000027a4 .L459
     /tmp/ccCnP6rB.s:8118   .text:0000000000002818 .L463
     /tmp/ccCnP6rB.s:8407   .text:00000000000029d4 .L495
     /tmp/ccCnP6rB.s:8397   .text:00000000000029c0 .L511
     /tmp/ccCnP6rB.s:8511   .text:0000000000002ac4 .L486
     /tmp/ccCnP6rB.s:8435   .text:0000000000002a08 .L487
     /tmp/ccCnP6rB.s:8345   .text:0000000000002938 .L512
     /tmp/ccCnP6rB.s:8504   .text:0000000000002ab0 .L513
     /tmp/ccCnP6rB.s:8403   .text:00000000000029d0 .L491
     /tmp/ccCnP6rB.s:8534   .text:0000000000002ae4 .L501
     /tmp/ccCnP6rB.s:8521   .text:0000000000002acc .L497
     /tmp/ccCnP6rB.s:8553   .text:0000000000002b00 .L502
     /tmp/ccCnP6rB.s:8540   .text:0000000000002ae8 .L496
     /tmp/ccCnP6rB.s:8565   .text:0000000000002b0c .L498
     /tmp/ccCnP6rB.s:8580   .text:0000000000002b28 .L499
     /tmp/ccCnP6rB.s:8561   .text:0000000000002b08 .L500
     /tmp/ccCnP6rB.s:8386   .text:00000000000029a8 .L490
     /tmp/ccCnP6rB.s:8493   .text:0000000000002a98 .L494
     /tmp/ccCnP6rB.s:8759   .text:0000000000002c2c .L519
GAS LISTING /tmp/ccCnP6rB.s 			page 333


     /tmp/ccCnP6rB.s:8751   .text:0000000000002c1c .L545
     /tmp/ccCnP6rB.s:8781   .text:0000000000002c54 .L515
     /tmp/ccCnP6rB.s:8699   .text:0000000000002b94 .L546
     /tmp/ccCnP6rB.s:8851   .text:0000000000002cf8 .L547
     /tmp/ccCnP6rB.s:8922   .text:0000000000002d9c .L527
     /tmp/ccCnP6rB.s:8914   .text:0000000000002d8c .L548
     /tmp/ccCnP6rB.s:8944   .text:0000000000002dc4 .L523
     /tmp/ccCnP6rB.s:8862   .text:0000000000002d04 .L549
     /tmp/ccCnP6rB.s:8969   .text:0000000000002de4 .L533
     /tmp/ccCnP6rB.s:8955   .text:0000000000002dcc .L529
     /tmp/ccCnP6rB.s:8995   .text:0000000000002e04 .L530
     /tmp/ccCnP6rB.s:8975   .text:0000000000002de8 .L528
     /tmp/ccCnP6rB.s:9010   .text:0000000000002e20 .L531
     /tmp/ccCnP6rB.s:8989   .text:0000000000002e00 .L532
     /tmp/ccCnP6rB.s:8740   .text:0000000000002c04 .L518
     /tmp/ccCnP6rB.s:8839   .text:0000000000002ce0 .L522
     /tmp/ccCnP6rB.s:8903   .text:0000000000002d74 .L526
     /tmp/ccCnP6rB.s:9229   .text:0000000000002f48 .L568
     /tmp/ccCnP6rB.s:9221   .text:0000000000002f40 .L589
     /tmp/ccCnP6rB.s:9469   .text:000000000000317c .L551
     /tmp/ccCnP6rB.s:9259   .text:0000000000002f84 .L552
     /tmp/ccCnP6rB.s:9335   .text:0000000000003034 .L553
     /tmp/ccCnP6rB.s:9153   .text:0000000000002e9c .L590
     /tmp/ccCnP6rB.s:9410   .text:00000000000030e4 .L591
     /tmp/ccCnP6rB.s:9330   .text:000000000000302c .L592
     /tmp/ccCnP6rB.s:9225   .text:0000000000002f44 .L558
     /tmp/ccCnP6rB.s:9404   .text:00000000000030dc .L593
     /tmp/ccCnP6rB.s:9462   .text:000000000000316c .L594
     /tmp/ccCnP6rB.s:9492   .text:000000000000319c .L574
     /tmp/ccCnP6rB.s:9479   .text:0000000000003184 .L570
     /tmp/ccCnP6rB.s:9518   .text:00000000000031bc .L571
     /tmp/ccCnP6rB.s:9498   .text:00000000000031a0 .L569
     /tmp/ccCnP6rB.s:9533   .text:00000000000031d8 .L572
     /tmp/ccCnP6rB.s:9512   .text:00000000000031b8 .L573
     /tmp/ccCnP6rB.s:9210   .text:0000000000002f28 .L557
     /tmp/ccCnP6rB.s:9319   .text:0000000000003014 .L561
     /tmp/ccCnP6rB.s:9392   .text:00000000000030c4 .L564
     /tmp/ccCnP6rB.s:9451   .text:0000000000003154 .L567
     /tmp/ccCnP6rB.s:9824   .text:00000000000033a4 .L605
     /tmp/ccCnP6rB.s:9757   .text:0000000000003304 .L620
     /tmp/ccCnP6rB.s:9820   .text:00000000000033a0 .L601
     /tmp/ccCnP6rB.s:9814   .text:0000000000003394 .L621
     /tmp/ccCnP6rB.s:9851   .text:00000000000033d4 .L596
     /tmp/ccCnP6rB.s:9688   .text:000000000000325c .L622
     /tmp/ccCnP6rB.s:9763   .text:000000000000330c .L623
     /tmp/ccCnP6rB.s:9876   .text:00000000000033f4 .L611
     /tmp/ccCnP6rB.s:9862   .text:00000000000033dc .L607
     /tmp/ccCnP6rB.s:9902   .text:0000000000003414 .L608
     /tmp/ccCnP6rB.s:9882   .text:00000000000033f8 .L606
     /tmp/ccCnP6rB.s:9917   .text:0000000000003430 .L609
     /tmp/ccCnP6rB.s:9896   .text:0000000000003410 .L610
     /tmp/ccCnP6rB.s:9745   .text:00000000000032ec .L600
     /tmp/ccCnP6rB.s:9803   .text:000000000000337c .L604
     /tmp/ccCnP6rB.s:10123  .text:0000000000003560 .L625
     /tmp/ccCnP6rB.s:10133  .text:0000000000003574 .L624
     /tmp/ccCnP6rB.s:10397  .text:000000000000370c .L637
     /tmp/ccCnP6rB.s:10407  .text:0000000000003720 .L638
GAS LISTING /tmp/ccCnP6rB.s 			page 334


     /tmp/ccCnP6rB.s:10417  .text:0000000000003734 .L639
     /tmp/ccCnP6rB.s:10595  .text:0000000000003844 .L650
     /tmp/ccCnP6rB.s:10618  .text:0000000000003870 .L660
     /tmp/ccCnP6rB.s:10577  .text:0000000000003820 .L668
     /tmp/ccCnP6rB.s:10645  .text:000000000000389c .L661
     /tmp/ccCnP6rB.s:10625  .text:0000000000003874 .L649
     /tmp/ccCnP6rB.s:10665  .text:00000000000038c0 .L662
     /tmp/ccCnP6rB.s:10651  .text:00000000000038a0 .L651
     /tmp/ccCnP6rB.s:10677  .text:00000000000038cc .L652
     /tmp/ccCnP6rB.s:10695  .text:00000000000038f8 .L653
     /tmp/ccCnP6rB.s:10673  .text:00000000000038c8 .L654
     /tmp/ccCnP6rB.s:10707  .text:0000000000003910 .L655
     /tmp/ccCnP6rB.s:10718  .text:0000000000003928 .L656
     /tmp/ccCnP6rB.s:653    .text._ZN2A7D2Ev:0000000000000010 .L0 
     /tmp/ccCnP6rB.s:695    .text._ZN2A7D0Ev:0000000000000018 .L0 
     /tmp/ccCnP6rB.s:737    .text._ZN2B7D2Ev:0000000000000010 .L0 
     /tmp/ccCnP6rB.s:779    .text._ZN2B7D0Ev:0000000000000018 .L0 
     /tmp/ccCnP6rB.s:821    .text._ZN11testTRYWaitD2Ev:0000000000000010 .L0 
     /tmp/ccCnP6rB.s:863    .text._ZN11testTRYWaitD0Ev:0000000000000018 .L0 
     /tmp/ccCnP6rB.s:905    .text._ZN3C13D2Ev:0000000000000010 .L0 
     /tmp/ccCnP6rB.s:947    .text._ZN3C13D0Ev:0000000000000018 .L0 
     /tmp/ccCnP6rB.s:989    .text._ZN3B13D2Ev:0000000000000010 .L0 
     /tmp/ccCnP6rB.s:1031   .text._ZN3B13D0Ev:0000000000000018 .L0 
     /tmp/ccCnP6rB.s:1073   .text._ZN3A13D2Ev:0000000000000010 .L0 
     /tmp/ccCnP6rB.s:1115   .text._ZN3A13D0Ev:0000000000000018 .L0 
     /tmp/ccCnP6rB.s:1157   .text._ZN3B12D2Ev:0000000000000010 .L0 
     /tmp/ccCnP6rB.s:1199   .text._ZN3B12D0Ev:0000000000000018 .L0 
     /tmp/ccCnP6rB.s:1241   .text._ZN3A12D2Ev:0000000000000010 .L0 
     /tmp/ccCnP6rB.s:1283   .text._ZN3A12D0Ev:0000000000000018 .L0 
     /tmp/ccCnP6rB.s:1325   .text._ZN3A11D2Ev:0000000000000010 .L0 
     /tmp/ccCnP6rB.s:1367   .text._ZN3A11D0Ev:0000000000000018 .L0 
     /tmp/ccCnP6rB.s:1409   .text._ZN3A10D2Ev:0000000000000010 .L0 
     /tmp/ccCnP6rB.s:1451   .text._ZN3A10D0Ev:0000000000000018 .L0 
     /tmp/ccCnP6rB.s:1493   .text._ZN2A9D2Ev:0000000000000010 .L0 
     /tmp/ccCnP6rB.s:1535   .text._ZN2A9D0Ev:0000000000000018 .L0 
     /tmp/ccCnP6rB.s:1577   .text._ZN2A8D2Ev:0000000000000010 .L0 
     /tmp/ccCnP6rB.s:1619   .text._ZN2A8D0Ev:0000000000000018 .L0 
     /tmp/ccCnP6rB.s:1661   .text._ZN2A5D2Ev:0000000000000010 .L0 
     /tmp/ccCnP6rB.s:1703   .text._ZN2A5D0Ev:0000000000000018 .L0 
     /tmp/ccCnP6rB.s:1745   .text._ZN2C4D2Ev:0000000000000010 .L0 
     /tmp/ccCnP6rB.s:1787   .text._ZN2C4D0Ev:0000000000000018 .L0 
     /tmp/ccCnP6rB.s:1829   .text._ZN2B4D2Ev:0000000000000010 .L0 
     /tmp/ccCnP6rB.s:1871   .text._ZN2B4D0Ev:0000000000000018 .L0 
     /tmp/ccCnP6rB.s:1913   .text._ZN2A4D2Ev:0000000000000010 .L0 
     /tmp/ccCnP6rB.s:1955   .text._ZN2A4D0Ev:0000000000000018 .L0 
     /tmp/ccCnP6rB.s:1997   .text._ZN2C3D2Ev:0000000000000010 .L0 
     /tmp/ccCnP6rB.s:2039   .text._ZN2C3D0Ev:0000000000000018 .L0 
     /tmp/ccCnP6rB.s:2081   .text._ZN2B3D2Ev:0000000000000010 .L0 
     /tmp/ccCnP6rB.s:2123   .text._ZN2B3D0Ev:0000000000000018 .L0 
     /tmp/ccCnP6rB.s:2165   .text._ZN2A3D2Ev:0000000000000010 .L0 
     /tmp/ccCnP6rB.s:2207   .text._ZN2A3D0Ev:0000000000000018 .L0 
     /tmp/ccCnP6rB.s:2249   .text._ZN2A6D2Ev:0000000000000010 .L0 
     /tmp/ccCnP6rB.s:2291   .text._ZN2A6D0Ev:0000000000000018 .L0 
     /tmp/ccCnP6rB.s:2333   .text._ZN2A2D2Ev:0000000000000010 .L0 
     /tmp/ccCnP6rB.s:2375   .text._ZN2A2D0Ev:0000000000000018 .L0 
     /tmp/ccCnP6rB.s:2417   .text._ZN2A1D2Ev:0000000000000010 .L0 
     /tmp/ccCnP6rB.s:2459   .text._ZN2A1D0Ev:0000000000000018 .L0 
GAS LISTING /tmp/ccCnP6rB.s 			page 335


     /tmp/ccCnP6rB.s:3609   .rodata._ZN2A73runEv.str1.8:0000000000000000 .LC41
     /tmp/ccCnP6rB.s:3641   .text._ZN2A73runEv:000000000000001c .L0 
     /tmp/ccCnP6rB.s:3612   .rodata._ZN2A73runEv.str1.8:0000000000000018 .LC42
     /tmp/ccCnP6rB.s:3684   .text._ZN2A73runEv:000000000000005c .L0 
     /tmp/ccCnP6rB.s:3615   .rodata._ZN2A73runEv.str1.8:0000000000000030 .LC43
     /tmp/ccCnP6rB.s:3695   .text._ZN2A73runEv:000000000000007c .L0 
     /tmp/ccCnP6rB.s:3661   .text._ZN2A73runEv:0000000000000040 .L165
     /tmp/ccCnP6rB.s:3678   .text._ZN2A73runEv:000000000000005c .L162
     /tmp/ccCnP6rB.s:3651   .text._ZN2A73runEv:0000000000000034 .L163
     /tmp/ccCnP6rB.s:3669   .text._ZN2A73runEv:000000000000004c .L164
     /tmp/ccCnP6rB.s:3722   .rodata._ZN2B73runEv.str1.8:0000000000000000 .LC44
     /tmp/ccCnP6rB.s:3754   .text._ZN2B73runEv:000000000000001c .L0 
     /tmp/ccCnP6rB.s:3725   .rodata._ZN2B73runEv.str1.8:0000000000000018 .LC45
     /tmp/ccCnP6rB.s:3797   .text._ZN2B73runEv:000000000000005c .L0 
     /tmp/ccCnP6rB.s:3728   .rodata._ZN2B73runEv.str1.8:0000000000000030 .LC46
     /tmp/ccCnP6rB.s:3808   .text._ZN2B73runEv:000000000000007c .L0 
     /tmp/ccCnP6rB.s:3774   .text._ZN2B73runEv:0000000000000040 .L171
     /tmp/ccCnP6rB.s:3791   .text._ZN2B73runEv:000000000000005c .L168
     /tmp/ccCnP6rB.s:3764   .text._ZN2B73runEv:0000000000000034 .L169
     /tmp/ccCnP6rB.s:3782   .text._ZN2B73runEv:000000000000004c .L170
     /tmp/ccCnP6rB.s:5169   .rodata._ZN11testTRYWait3runEv.str1.8:0000000000000000 .LC57
     /tmp/ccCnP6rB.s:5221   .text._ZN11testTRYWait3runEv:000000000000002c .L0 
     /tmp/ccCnP6rB.s:5234   .text._ZN11testTRYWait3runEv:0000000000000050 .L0 
     /tmp/ccCnP6rB.s:5172   .rodata._ZN11testTRYWait3runEv.str1.8:0000000000000040 .LC58
     /tmp/ccCnP6rB.s:5283   .text._ZN11testTRYWait3runEv:00000000000000a4 .L0 
     /tmp/ccCnP6rB.s:5295   .text._ZN11testTRYWait3runEv:00000000000000c8 .L0 
     /tmp/ccCnP6rB.s:5305   .text._ZN11testTRYWait3runEv:00000000000000d8 .L0 
     /tmp/ccCnP6rB.s:5181   .rodata._ZN11testTRYWait3runEv.str1.8:00000000000000d8 .LC61
     /tmp/ccCnP6rB.s:5310   .text._ZN11testTRYWait3runEv:00000000000000e8 .L0 
     /tmp/ccCnP6rB.s:5175   .rodata._ZN11testTRYWait3runEv.str1.8:0000000000000070 .LC59
     /tmp/ccCnP6rB.s:5342   .text._ZN11testTRYWait3runEv:0000000000000118 .L0 
     /tmp/ccCnP6rB.s:5355   .text._ZN11testTRYWait3runEv:000000000000013c .L0 
     /tmp/ccCnP6rB.s:5178   .rodata._ZN11testTRYWait3runEv.str1.8:00000000000000b8 .LC60
     /tmp/ccCnP6rB.s:5441   .text._ZN11testTRYWait3runEv:00000000000001c0 .L0 
     /tmp/ccCnP6rB.s:5409   .text._ZN11testTRYWait3runEv:0000000000000190 .L260
     /tmp/ccCnP6rB.s:5253   .text._ZN11testTRYWait3runEv:0000000000000074 .L254
     /tmp/ccCnP6rB.s:5272   .text._ZN11testTRYWait3runEv:0000000000000098 .L251
     /tmp/ccCnP6rB.s:5243   .text._ZN11testTRYWait3runEv:0000000000000068 .L252
     /tmp/ccCnP6rB.s:5262   .text._ZN11testTRYWait3runEv:0000000000000084 .L253
     /tmp/ccCnP6rB.s:5374   .text._ZN11testTRYWait3runEv:0000000000000160 .L259
     /tmp/ccCnP6rB.s:5394   .text._ZN11testTRYWait3runEv:0000000000000184 .L256
     /tmp/ccCnP6rB.s:5364   .text._ZN11testTRYWait3runEv:0000000000000154 .L257
     /tmp/ccCnP6rB.s:5383   .text._ZN11testTRYWait3runEv:0000000000000170 .L258
     /tmp/ccCnP6rB.s:5299   .text._ZN11testTRYWait3runEv:00000000000000d8 .L249
     /tmp/ccCnP6rB.s:5215   .text._ZN11testTRYWait3runEv:000000000000002c .L262
     /tmp/ccCnP6rB.s:5334   .text._ZN11testTRYWait3runEv:0000000000000118 .L263
     /tmp/ccCnP6rB.s:5498   .text:00000000000016a8 .LEHB0
     /tmp/ccCnP6rB.s:5470   .text:0000000000001680 .LFB45
     /tmp/ccCnP6rB.s:5501   .text:00000000000016b0 .LEHE0
     /tmp/ccCnP6rB.s:5504   .text:00000000000016b4 .LEHB1
     /tmp/ccCnP6rB.s:5510   .text:00000000000016bc .LEHE1
     /tmp/ccCnP6rB.s:5846   .text:00000000000019c4 .L281
     /tmp/ccCnP6rB.s:5523   .text:00000000000016e8 .LEHB2
     /tmp/ccCnP6rB.s:5538   .text:0000000000001714 .LEHE2
     /tmp/ccCnP6rB.s:5540   .text:0000000000001718 .L285
     /tmp/ccCnP6rB.s:5554   .text:0000000000001738 .LEHB3
     /tmp/ccCnP6rB.s:5563   .text:000000000000174c .LEHE3
GAS LISTING /tmp/ccCnP6rB.s 			page 336


     /tmp/ccCnP6rB.s:5566   .text:0000000000001750 .LEHB4
     /tmp/ccCnP6rB.s:5572   .text:0000000000001758 .LEHE4
     /tmp/ccCnP6rB.s:5851   .text:00000000000019cc .L282
     /tmp/ccCnP6rB.s:5586   .text:0000000000001784 .LEHB5
     /tmp/ccCnP6rB.s:5601   .text:00000000000017b0 .LEHE5
     /tmp/ccCnP6rB.s:5603   .text:00000000000017b4 .L286
     /tmp/ccCnP6rB.s:5617   .text:00000000000017d4 .LEHB6
     /tmp/ccCnP6rB.s:5626   .text:00000000000017e8 .LEHE6
     /tmp/ccCnP6rB.s:5629   .text:00000000000017ec .LEHB7
     /tmp/ccCnP6rB.s:5635   .text:00000000000017f4 .LEHE7
     /tmp/ccCnP6rB.s:5855   .text:00000000000019d4 .L283
     /tmp/ccCnP6rB.s:5649   .text:0000000000001820 .LEHB8
     /tmp/ccCnP6rB.s:5664   .text:000000000000184c .LEHE8
     /tmp/ccCnP6rB.s:5666   .text:0000000000001850 .L287
     /tmp/ccCnP6rB.s:5680   .text:0000000000001870 .LEHB9
     /tmp/ccCnP6rB.s:5689   .text:0000000000001884 .LEHE9
     /tmp/ccCnP6rB.s:5692   .text:0000000000001888 .LEHB10
     /tmp/ccCnP6rB.s:5698   .text:0000000000001890 .LEHE10
     /tmp/ccCnP6rB.s:5859   .text:00000000000019dc .L284
     /tmp/ccCnP6rB.s:5712   .text:00000000000018bc .LEHB11
     /tmp/ccCnP6rB.s:5727   .text:00000000000018e8 .LEHE11
     /tmp/ccCnP6rB.s:5729   .text:00000000000018ec .L288
     /tmp/ccCnP6rB.s:5743   .text:000000000000190c .LEHB12
     /tmp/ccCnP6rB.s:5819   .text:00000000000019a0 .LEHE12
     /tmp/ccCnP6rB.s:5963   .text:0000000000001a08 .LEHB13
     /tmp/ccCnP6rB.s:5937   .text:00000000000019e4 .LFB46
     /tmp/ccCnP6rB.s:5966   .text:0000000000001a10 .LEHE13
     /tmp/ccCnP6rB.s:5969   .text:0000000000001a14 .LEHB14
     /tmp/ccCnP6rB.s:5975   .text:0000000000001a1c .LEHE14
     /tmp/ccCnP6rB.s:6240   .text:0000000000001c78 .L313
     /tmp/ccCnP6rB.s:5988   .text:0000000000001a48 .LEHB15
     /tmp/ccCnP6rB.s:6003   .text:0000000000001a74 .LEHE15
     /tmp/ccCnP6rB.s:6005   .text:0000000000001a78 .L316
     /tmp/ccCnP6rB.s:6019   .text:0000000000001a98 .LEHB16
     /tmp/ccCnP6rB.s:6028   .text:0000000000001aac .LEHE16
     /tmp/ccCnP6rB.s:6031   .text:0000000000001ab0 .LEHB17
     /tmp/ccCnP6rB.s:6037   .text:0000000000001ab8 .LEHE17
     /tmp/ccCnP6rB.s:6245   .text:0000000000001c80 .L314
     /tmp/ccCnP6rB.s:6051   .text:0000000000001ae4 .LEHB18
     /tmp/ccCnP6rB.s:6066   .text:0000000000001b10 .LEHE18
     /tmp/ccCnP6rB.s:6068   .text:0000000000001b14 .L317
     /tmp/ccCnP6rB.s:6082   .text:0000000000001b34 .LEHB19
     /tmp/ccCnP6rB.s:6091   .text:0000000000001b48 .LEHE19
     /tmp/ccCnP6rB.s:6094   .text:0000000000001b4c .LEHB20
     /tmp/ccCnP6rB.s:6100   .text:0000000000001b54 .LEHE20
     /tmp/ccCnP6rB.s:6249   .text:0000000000001c88 .L315
     /tmp/ccCnP6rB.s:6114   .text:0000000000001b80 .LEHB21
     /tmp/ccCnP6rB.s:6129   .text:0000000000001bac .LEHE21
     /tmp/ccCnP6rB.s:6131   .text:0000000000001bb0 .L318
     /tmp/ccCnP6rB.s:6145   .text:0000000000001bd0 .LEHB22
     /tmp/ccCnP6rB.s:6216   .text:0000000000001c58 .LEHE22
     /tmp/ccCnP6rB.s:6358   .text:0000000000001ce4 .LEHB23
     /tmp/ccCnP6rB.s:6314   .text:0000000000001c90 .LFB9
     /tmp/ccCnP6rB.s:6373   .text:0000000000001d10 .LEHE23
     /tmp/ccCnP6rB.s:6375   .text:0000000000001d14 .L347
     /tmp/ccCnP6rB.s:6390   .text:0000000000001d34 .LEHB24
     /tmp/ccCnP6rB.s:6418   .text:0000000000001d70 .LEHE24
GAS LISTING /tmp/ccCnP6rB.s 			page 337


     /tmp/ccCnP6rB.s:6425   .text:0000000000001d78 .LEHB25
     /tmp/ccCnP6rB.s:6428   .text:0000000000001d80 .LEHE25
     /tmp/ccCnP6rB.s:6605   .text:0000000000001ed0 .L345
     /tmp/ccCnP6rB.s:6437   .text:0000000000001d88 .LEHB26
     /tmp/ccCnP6rB.s:6440   .text:0000000000001d90 .LEHE26
     /tmp/ccCnP6rB.s:6447   .text:0000000000001d98 .LEHB27
     /tmp/ccCnP6rB.s:6450   .text:0000000000001da0 .LEHE27
     /tmp/ccCnP6rB.s:6611   .text:0000000000001ed8 .L346
     /tmp/ccCnP6rB.s:6465   .text:0000000000001dd4 .LEHB28
     /tmp/ccCnP6rB.s:6480   .text:0000000000001e00 .LEHE28
     /tmp/ccCnP6rB.s:6482   .text:0000000000001e04 .L348
     /tmp/ccCnP6rB.s:6497   .text:0000000000001e24 .LEHB29
     /tmp/ccCnP6rB.s:6583   .text:0000000000001eb4 .LEHE29
     /tmp/ccCnP6rB.s:6709   .text:0000000000001f30 .LEHB30
     /tmp/ccCnP6rB.s:6665   .text:0000000000001ee0 .LFB14
     /tmp/ccCnP6rB.s:6712   .text:0000000000001f38 .LEHE30
     /tmp/ccCnP6rB.s:6714   .text:0000000000001f3c .L370
     /tmp/ccCnP6rB.s:6729   .text:0000000000001f5c .LEHB31
     /tmp/ccCnP6rB.s:6749   .text:0000000000001f80 .LEHE31
     /tmp/ccCnP6rB.s:6756   .text:0000000000001f88 .LEHB32
     /tmp/ccCnP6rB.s:6759   .text:0000000000001f90 .LEHE32
     /tmp/ccCnP6rB.s:6869   .text:000000000000202c .L369
     /tmp/ccCnP6rB.s:6779   .text:0000000000001fa4 .LEHB33
     /tmp/ccCnP6rB.s:6847   .text:0000000000002010 .LEHE33
     /tmp/ccCnP6rB.s:6956   .text:0000000000002084 .LEHB34
     /tmp/ccCnP6rB.s:6912   .text:0000000000002034 .LFB19
     /tmp/ccCnP6rB.s:6971   .text:00000000000020b0 .LEHE34
     /tmp/ccCnP6rB.s:6973   .text:00000000000020b4 .L390
     /tmp/ccCnP6rB.s:6988   .text:00000000000020d4 .LEHB35
     /tmp/ccCnP6rB.s:7008   .text:00000000000020f8 .LEHE35
     /tmp/ccCnP6rB.s:7015   .text:0000000000002100 .LEHB36
     /tmp/ccCnP6rB.s:7018   .text:0000000000002108 .LEHE36
     /tmp/ccCnP6rB.s:7128   .text:00000000000021a4 .L389
     /tmp/ccCnP6rB.s:7038   .text:000000000000211c .LEHB37
     /tmp/ccCnP6rB.s:7106   .text:0000000000002188 .LEHE37
     /tmp/ccCnP6rB.s:7193   .text:00000000000021cc .LEHB38
     /tmp/ccCnP6rB.s:7171   .text:00000000000021ac .LFB35
     /tmp/ccCnP6rB.s:7196   .text:00000000000021d4 .LEHE38
     /tmp/ccCnP6rB.s:7199   .text:00000000000021d8 .LEHB39
     /tmp/ccCnP6rB.s:7205   .text:00000000000021e0 .LEHE39
     /tmp/ccCnP6rB.s:7509   .text:000000000000247c .L409
     /tmp/ccCnP6rB.s:7220   .text:0000000000002214 .LEHB40
     /tmp/ccCnP6rB.s:7235   .text:0000000000002240 .LEHE40
     /tmp/ccCnP6rB.s:7237   .text:0000000000002244 .L412
     /tmp/ccCnP6rB.s:7251   .text:0000000000002264 .LEHB41
     /tmp/ccCnP6rB.s:7260   .text:0000000000002278 .LEHE41
     /tmp/ccCnP6rB.s:7263   .text:000000000000227c .LEHB42
     /tmp/ccCnP6rB.s:7269   .text:0000000000002284 .LEHE42
     /tmp/ccCnP6rB.s:7514   .text:0000000000002484 .L410
     /tmp/ccCnP6rB.s:7285   .text:00000000000022b8 .LEHB43
     /tmp/ccCnP6rB.s:7300   .text:00000000000022e4 .LEHE43
     /tmp/ccCnP6rB.s:7302   .text:00000000000022e8 .L413
     /tmp/ccCnP6rB.s:7317   .text:0000000000002308 .LEHB44
     /tmp/ccCnP6rB.s:7326   .text:000000000000231c .LEHE44
     /tmp/ccCnP6rB.s:7329   .text:0000000000002320 .LEHB45
     /tmp/ccCnP6rB.s:7335   .text:0000000000002328 .LEHE45
     /tmp/ccCnP6rB.s:7519   .text:000000000000248c .L411
GAS LISTING /tmp/ccCnP6rB.s 			page 338


     /tmp/ccCnP6rB.s:7351   .text:000000000000235c .LEHB46
     /tmp/ccCnP6rB.s:7366   .text:0000000000002388 .LEHE46
     /tmp/ccCnP6rB.s:7368   .text:000000000000238c .L414
     /tmp/ccCnP6rB.s:7383   .text:00000000000023ac .LEHB47
     /tmp/ccCnP6rB.s:7488   .text:0000000000002460 .LEHE47
     /tmp/ccCnP6rB.s:7602   .text:00000000000024b0 .LEHB48
     /tmp/ccCnP6rB.s:7582   .text:0000000000002494 .LFB48
     /tmp/ccCnP6rB.s:7605   .text:00000000000024b8 .LEHE48
     /tmp/ccCnP6rB.s:7608   .text:00000000000024bc .LEHB49
     /tmp/ccCnP6rB.s:7614   .text:00000000000024c4 .LEHE49
     /tmp/ccCnP6rB.s:7704   .text:000000000000259c .L428
     /tmp/ccCnP6rB.s:7627   .text:00000000000024f0 .LEHB50
     /tmp/ccCnP6rB.s:7642   .text:000000000000251c .LEHE50
     /tmp/ccCnP6rB.s:7644   .text:0000000000002520 .L429
     /tmp/ccCnP6rB.s:7658   .text:0000000000002540 .LEHB51
     /tmp/ccCnP6rB.s:7687   .text:0000000000002584 .LEHE51
     /tmp/ccCnP6rB.s:7769   .text:00000000000025c4 .LEHB52
     /tmp/ccCnP6rB.s:7746   .text:00000000000025a4 .LFB53
     /tmp/ccCnP6rB.s:7772   .text:00000000000025cc .LEHE52
     /tmp/ccCnP6rB.s:7794   .text:0000000000002600 .LEHB53
     /tmp/ccCnP6rB.s:7809   .text:000000000000262c .LEHE53
     /tmp/ccCnP6rB.s:7811   .text:0000000000002630 .L448
     /tmp/ccCnP6rB.s:7826   .text:0000000000002650 .LEHB54
     /tmp/ccCnP6rB.s:7845   .text:0000000000002674 .LEHE54
     /tmp/ccCnP6rB.s:7852   .text:000000000000267c .LEHB55
     /tmp/ccCnP6rB.s:7855   .text:0000000000002684 .LEHE55
     /tmp/ccCnP6rB.s:7956   .text:0000000000002720 .L447
     /tmp/ccCnP6rB.s:7871   .text:0000000000002694 .LEHB56
     /tmp/ccCnP6rB.s:7936   .text:0000000000002704 .LEHE56
     /tmp/ccCnP6rB.s:8029   .text:0000000000002748 .LEHB57
     /tmp/ccCnP6rB.s:8006   .text:0000000000002728 .LFB62
     /tmp/ccCnP6rB.s:8032   .text:0000000000002750 .LEHE57
     /tmp/ccCnP6rB.s:8035   .text:0000000000002754 .LEHB58
     /tmp/ccCnP6rB.s:8041   .text:000000000000275c .LEHE58
     /tmp/ccCnP6rB.s:8258   .text:0000000000002904 .L472
     /tmp/ccCnP6rB.s:8054   .text:0000000000002788 .LEHB59
     /tmp/ccCnP6rB.s:8057   .text:0000000000002790 .LEHE59
     /tmp/ccCnP6rB.s:8059   .text:0000000000002794 .L474
     /tmp/ccCnP6rB.s:8073   .text:00000000000027b4 .LEHB60
     /tmp/ccCnP6rB.s:8076   .text:00000000000027bc .LEHE60
     /tmp/ccCnP6rB.s:8106   .text:00000000000027fc .LEHB61
     /tmp/ccCnP6rB.s:8109   .text:0000000000002804 .LEHE61
     /tmp/ccCnP6rB.s:8111   .text:0000000000002808 .L475
     /tmp/ccCnP6rB.s:8126   .text:0000000000002828 .LEHB62
     /tmp/ccCnP6rB.s:8147   .text:0000000000002858 .LEHE62
     /tmp/ccCnP6rB.s:8154   .text:0000000000002860 .LEHB63
     /tmp/ccCnP6rB.s:8157   .text:0000000000002868 .LEHE63
     /tmp/ccCnP6rB.s:8263   .text:000000000000290c .L473
     /tmp/ccCnP6rB.s:8173   .text:0000000000002878 .LEHB64
     /tmp/ccCnP6rB.s:8238   .text:00000000000028e8 .LEHE64
     /tmp/ccCnP6rB.s:8362   .text:0000000000002968 .LEHB65
     /tmp/ccCnP6rB.s:8318   .text:0000000000002914 .LFB67
     /tmp/ccCnP6rB.s:8377   .text:0000000000002994 .LEHE65
     /tmp/ccCnP6rB.s:8379   .text:0000000000002998 .L505
     /tmp/ccCnP6rB.s:8394   .text:00000000000029b8 .LEHB66
     /tmp/ccCnP6rB.s:8422   .text:00000000000029f4 .LEHE66
     /tmp/ccCnP6rB.s:8429   .text:00000000000029fc .LEHB67
GAS LISTING /tmp/ccCnP6rB.s 			page 339


     /tmp/ccCnP6rB.s:8432   .text:0000000000002a04 .LEHE67
     /tmp/ccCnP6rB.s:8609   .text:0000000000002b54 .L503
     /tmp/ccCnP6rB.s:8441   .text:0000000000002a0c .LEHB68
     /tmp/ccCnP6rB.s:8444   .text:0000000000002a14 .LEHE68
     /tmp/ccCnP6rB.s:8451   .text:0000000000002a1c .LEHB69
     /tmp/ccCnP6rB.s:8454   .text:0000000000002a24 .LEHE69
     /tmp/ccCnP6rB.s:8615   .text:0000000000002b5c .L504
     /tmp/ccCnP6rB.s:8469   .text:0000000000002a58 .LEHB70
     /tmp/ccCnP6rB.s:8484   .text:0000000000002a84 .LEHE70
     /tmp/ccCnP6rB.s:8486   .text:0000000000002a88 .L506
     /tmp/ccCnP6rB.s:8501   .text:0000000000002aa8 .LEHB71
     /tmp/ccCnP6rB.s:8587   .text:0000000000002b38 .LEHE71
     /tmp/ccCnP6rB.s:8716   .text:0000000000002bc4 .LEHB72
     /tmp/ccCnP6rB.s:8666   .text:0000000000002b64 .LFB72
     /tmp/ccCnP6rB.s:8731   .text:0000000000002bf0 .LEHE72
     /tmp/ccCnP6rB.s:8733   .text:0000000000002bf4 .L537
     /tmp/ccCnP6rB.s:8748   .text:0000000000002c14 .LEHB73
     /tmp/ccCnP6rB.s:8768   .text:0000000000002c40 .LEHE73
     /tmp/ccCnP6rB.s:8775   .text:0000000000002c48 .LEHB74
     /tmp/ccCnP6rB.s:8778   .text:0000000000002c50 .LEHE74
     /tmp/ccCnP6rB.s:9042   .text:0000000000002e54 .L534
     /tmp/ccCnP6rB.s:8788   .text:0000000000002c58 .LEHB75
     /tmp/ccCnP6rB.s:8791   .text:0000000000002c60 .LEHE75
     /tmp/ccCnP6rB.s:8794   .text:0000000000002c64 .LEHB76
     /tmp/ccCnP6rB.s:8800   .text:0000000000002c6c .LEHE76
     /tmp/ccCnP6rB.s:9048   .text:0000000000002e5c .L535
     /tmp/ccCnP6rB.s:8815   .text:0000000000002ca0 .LEHB77
     /tmp/ccCnP6rB.s:8830   .text:0000000000002ccc .LEHE77
     /tmp/ccCnP6rB.s:8832   .text:0000000000002cd0 .L538
     /tmp/ccCnP6rB.s:8847   .text:0000000000002cf0 .LEHB78
     /tmp/ccCnP6rB.s:8850   .text:0000000000002cf8 .LEHE78
     /tmp/ccCnP6rB.s:8879   .text:0000000000002d34 .LEHB79
     /tmp/ccCnP6rB.s:8894   .text:0000000000002d60 .LEHE79
     /tmp/ccCnP6rB.s:8896   .text:0000000000002d64 .L539
     /tmp/ccCnP6rB.s:8911   .text:0000000000002d84 .LEHB80
     /tmp/ccCnP6rB.s:8931   .text:0000000000002db0 .LEHE80
     /tmp/ccCnP6rB.s:8938   .text:0000000000002db8 .LEHB81
     /tmp/ccCnP6rB.s:8941   .text:0000000000002dc0 .LEHE81
     /tmp/ccCnP6rB.s:9053   .text:0000000000002e64 .L536
     /tmp/ccCnP6rB.s:8962   .text:0000000000002dd4 .LEHB82
     /tmp/ccCnP6rB.s:9017   .text:0000000000002e30 .LEHE82
     /tmp/ccCnP6rB.s:9159   .text:0000000000002ea0 .LEHB83
     /tmp/ccCnP6rB.s:9120   .text:0000000000002e6c .LFB77
     /tmp/ccCnP6rB.s:9162   .text:0000000000002ea8 .LEHE83
     /tmp/ccCnP6rB.s:9169   .text:0000000000002eb0 .LEHB84
     /tmp/ccCnP6rB.s:9172   .text:0000000000002eb8 .LEHE84
     /tmp/ccCnP6rB.s:9565   .text:000000000000320c .L575
     /tmp/ccCnP6rB.s:9186   .text:0000000000002ee8 .LEHB85
     /tmp/ccCnP6rB.s:9201   .text:0000000000002f14 .LEHE85
     /tmp/ccCnP6rB.s:9203   .text:0000000000002f18 .L579
     /tmp/ccCnP6rB.s:9218   .text:0000000000002f38 .LEHB86
     /tmp/ccCnP6rB.s:9246   .text:0000000000002f70 .LEHE86
     /tmp/ccCnP6rB.s:9253   .text:0000000000002f78 .LEHB87
     /tmp/ccCnP6rB.s:9256   .text:0000000000002f80 .LEHE87
     /tmp/ccCnP6rB.s:9581   .text:0000000000003224 .L578
     /tmp/ccCnP6rB.s:9267   .text:0000000000002f88 .LEHB88
     /tmp/ccCnP6rB.s:9270   .text:0000000000002f90 .LEHE88
GAS LISTING /tmp/ccCnP6rB.s 			page 340


     /tmp/ccCnP6rB.s:9277   .text:0000000000002f98 .LEHB89
     /tmp/ccCnP6rB.s:9280   .text:0000000000002fa0 .LEHE89
     /tmp/ccCnP6rB.s:9571   .text:0000000000003214 .L576
     /tmp/ccCnP6rB.s:9295   .text:0000000000002fd4 .LEHB90
     /tmp/ccCnP6rB.s:9310   .text:0000000000003000 .LEHE90
     /tmp/ccCnP6rB.s:9312   .text:0000000000003004 .L580
     /tmp/ccCnP6rB.s:9327   .text:0000000000003024 .LEHB91
     /tmp/ccCnP6rB.s:9343   .text:0000000000003040 .LEHE91
     /tmp/ccCnP6rB.s:9350   .text:0000000000003048 .LEHB92
     /tmp/ccCnP6rB.s:9353   .text:0000000000003050 .LEHE92
     /tmp/ccCnP6rB.s:9576   .text:000000000000321c .L577
     /tmp/ccCnP6rB.s:9368   .text:0000000000003084 .LEHB93
     /tmp/ccCnP6rB.s:9383   .text:00000000000030b0 .LEHE93
     /tmp/ccCnP6rB.s:9385   .text:00000000000030b4 .L581
     /tmp/ccCnP6rB.s:9400   .text:00000000000030d4 .LEHB94
     /tmp/ccCnP6rB.s:9403   .text:00000000000030dc .LEHE94
     /tmp/ccCnP6rB.s:9427   .text:0000000000003114 .LEHB95
     /tmp/ccCnP6rB.s:9442   .text:0000000000003140 .LEHE95
     /tmp/ccCnP6rB.s:9444   .text:0000000000003144 .L582
     /tmp/ccCnP6rB.s:9459   .text:0000000000003164 .LEHB96
     /tmp/ccCnP6rB.s:9540   .text:00000000000031e8 .LEHE96
     /tmp/ccCnP6rB.s:9694   .text:0000000000003260 .LEHB97
     /tmp/ccCnP6rB.s:9655   .text:000000000000322c .LFB82
     /tmp/ccCnP6rB.s:9697   .text:0000000000003268 .LEHE97
     /tmp/ccCnP6rB.s:9704   .text:0000000000003270 .LEHB98
     /tmp/ccCnP6rB.s:9707   .text:0000000000003278 .LEHE98
     /tmp/ccCnP6rB.s:9949   .text:0000000000003464 .L612
     /tmp/ccCnP6rB.s:9722   .text:00000000000032ac .LEHB99
     /tmp/ccCnP6rB.s:9737   .text:00000000000032d8 .LEHE99
     /tmp/ccCnP6rB.s:9739   .text:00000000000032dc .L614
     /tmp/ccCnP6rB.s:9753   .text:00000000000032fc .LEHB100
     /tmp/ccCnP6rB.s:9756   .text:0000000000003304 .LEHE100
     /tmp/ccCnP6rB.s:9780   .text:000000000000333c .LEHB101
     /tmp/ccCnP6rB.s:9795   .text:0000000000003368 .LEHE101
     /tmp/ccCnP6rB.s:9797   .text:000000000000336c .L615
     /tmp/ccCnP6rB.s:9811   .text:000000000000338c .LEHB102
     /tmp/ccCnP6rB.s:9838   .text:00000000000033c0 .LEHE102
     /tmp/ccCnP6rB.s:9845   .text:00000000000033c8 .LEHB103
     /tmp/ccCnP6rB.s:9848   .text:00000000000033d0 .LEHE103
     /tmp/ccCnP6rB.s:9954   .text:000000000000346c .L613
     /tmp/ccCnP6rB.s:9869   .text:00000000000033e4 .LEHB104
     /tmp/ccCnP6rB.s:9924   .text:0000000000003440 .LEHE104
     /tmp/ccCnP6rB.s:10023  .text:0000000000003490 .LEHB105
     /tmp/ccCnP6rB.s:10003  .text:0000000000003474 .LFB91
     /tmp/ccCnP6rB.s:10026  .text:0000000000003498 .LEHE105
     /tmp/ccCnP6rB.s:10029  .text:00000000000034a0 .LEHB106
     /tmp/ccCnP6rB.s:10032  .text:00000000000034a8 .LEHE106
     /tmp/ccCnP6rB.s:10150  .text:000000000000358c .L631
     /tmp/ccCnP6rB.s:10038  .text:00000000000034b4 .LEHB107
     /tmp/ccCnP6rB.s:10041  .text:00000000000034bc .LEHE107
     /tmp/ccCnP6rB.s:10044  .text:00000000000034c4 .LEHB108
     /tmp/ccCnP6rB.s:10047  .text:00000000000034cc .LEHE108
     /tmp/ccCnP6rB.s:10160  .text:00000000000035a8 .L632
     /tmp/ccCnP6rB.s:10053  .text:00000000000034d8 .LEHB109
     /tmp/ccCnP6rB.s:10056  .text:00000000000034e0 .LEHE109
     /tmp/ccCnP6rB.s:10059  .text:00000000000034e4 .LEHB110
     /tmp/ccCnP6rB.s:10065  .text:00000000000034ec .LEHE110
GAS LISTING /tmp/ccCnP6rB.s 			page 341


     /tmp/ccCnP6rB.s:10169  .text:00000000000035c4 .L633
     /tmp/ccCnP6rB.s:10075  .text:00000000000034fc .LEHB111
     /tmp/ccCnP6rB.s:10078  .text:0000000000003504 .LEHE111
     /tmp/ccCnP6rB.s:10081  .text:0000000000003508 .LEHB112
     /tmp/ccCnP6rB.s:10087  .text:0000000000003510 .LEHE112
     /tmp/ccCnP6rB.s:10178  .text:00000000000035e0 .L634
     /tmp/ccCnP6rB.s:10096  .text:0000000000003520 .LEHB113
     /tmp/ccCnP6rB.s:10188  .text:00000000000035fc .LEHE113
     /tmp/ccCnP6rB.s:10275  .text:000000000000361c .LEHB114
     /tmp/ccCnP6rB.s:10253  .text:00000000000035fc .LFB105
     /tmp/ccCnP6rB.s:10278  .text:0000000000003624 .LEHE114
     /tmp/ccCnP6rB.s:10281  .text:0000000000003628 .LEHB115
     /tmp/ccCnP6rB.s:10287  .text:0000000000003630 .LEHE115
     /tmp/ccCnP6rB.s:10443  .text:0000000000003760 .L643
     /tmp/ccCnP6rB.s:10296  .text:0000000000003644 .LEHB116
     /tmp/ccCnP6rB.s:10304  .text:0000000000003658 .LEHE116
     /tmp/ccCnP6rB.s:10307  .text:000000000000365c .LEHB117
     /tmp/ccCnP6rB.s:10313  .text:0000000000003664 .LEHE117
     /tmp/ccCnP6rB.s:10453  .text:000000000000377c .L644
     /tmp/ccCnP6rB.s:10322  .text:0000000000003678 .LEHB118
     /tmp/ccCnP6rB.s:10330  .text:000000000000368c .LEHE118
     /tmp/ccCnP6rB.s:10333  .text:0000000000003690 .LEHB119
     /tmp/ccCnP6rB.s:10339  .text:0000000000003698 .LEHE119
     /tmp/ccCnP6rB.s:10462  .text:0000000000003798 .L645
     /tmp/ccCnP6rB.s:10360  .text:00000000000036b4 .LEHB120
     /tmp/ccCnP6rB.s:10472  .text:00000000000037b4 .LEHE120
     /tmp/ccCnP6rB.s:10543  .text:00000000000037d4 .LEHB121
     /tmp/ccCnP6rB.s:10520  .text:00000000000037b4 .LFB110
     /tmp/ccCnP6rB.s:10546  .text:00000000000037dc .LEHE121
     /tmp/ccCnP6rB.s:10549  .text:00000000000037e4 .LEHB122
     /tmp/ccCnP6rB.s:10552  .text:00000000000037ec .LEHE122
     /tmp/ccCnP6rB.s:10742  .text:0000000000003954 .L663
     /tmp/ccCnP6rB.s:10558  .text:00000000000037f8 .LEHB123
     /tmp/ccCnP6rB.s:10561  .text:0000000000003800 .LEHE123
     /tmp/ccCnP6rB.s:10564  .text:0000000000003808 .LEHB124
     /tmp/ccCnP6rB.s:10567  .text:0000000000003810 .LEHE124
     /tmp/ccCnP6rB.s:10752  .text:0000000000003970 .L664
     /tmp/ccCnP6rB.s:10602  .text:0000000000003850 .LEHB125
     /tmp/ccCnP6rB.s:10605  .text:0000000000003858 .LEHE125
     /tmp/ccCnP6rB.s:10609  .text:0000000000003864 .LEHB126
     /tmp/ccCnP6rB.s:10615  .text:000000000000386c .LEHE126
     /tmp/ccCnP6rB.s:10761  .text:000000000000398c .L665
     /tmp/ccCnP6rB.s:10637  .text:000000000000388c .LEHB127
     /tmp/ccCnP6rB.s:10772  .text:00000000000039a8 .LEHE127
     /tmp/ccCnP6rB.s:25645  .debug_abbrev:0000000000000000 .Ldebug_abbrev0
     /tmp/ccCnP6rB.s:32289  .debug_str:0000000000000dd6 .LASF320
     /tmp/ccCnP6rB.s:32123  .debug_str:00000000000009af .LASF321
     /tmp/ccCnP6rB.s:32231  .debug_str:0000000000000c7b .LASF322
     /tmp/ccCnP6rB.s:31477  .debug_ranges:0000000000000000 .Ldebug_ranges0
     /tmp/ccCnP6rB.s:31743  .debug_line:0000000000000000 .Ldebug_line0
     /tmp/ccCnP6rB.s:31785  .debug_str:00000000000000fe .LASF0
     /tmp/ccCnP6rB.s:32349  .debug_str:0000000000001062 .LASF1
     /tmp/ccCnP6rB.s:32251  .debug_str:0000000000000cee .LASF2
     /tmp/ccCnP6rB.s:32073  .debug_str:0000000000000872 .LASF4
     /tmp/ccCnP6rB.s:32259  .debug_str:0000000000000d26 .LASF3
     /tmp/ccCnP6rB.s:32155  .debug_str:0000000000000a82 .LASF5
     /tmp/ccCnP6rB.s:32017  .debug_str:00000000000006f2 .LASF6
GAS LISTING /tmp/ccCnP6rB.s 			page 342


     /tmp/ccCnP6rB.s:32189  .debug_str:0000000000000b66 .LASF7
     /tmp/ccCnP6rB.s:31815  .debug_str:00000000000001c7 .LASF8
     /tmp/ccCnP6rB.s:32339  .debug_str:0000000000001021 .LASF9
     /tmp/ccCnP6rB.s:31959  .debug_str:0000000000000573 .LASF10
     /tmp/ccCnP6rB.s:31877  .debug_str:000000000000035c .LASF11
     /tmp/ccCnP6rB.s:32051  .debug_str:00000000000007dd .LASF12
     /tmp/ccCnP6rB.s:31965  .debug_str:000000000000059a .LASF13
     /tmp/ccCnP6rB.s:32229  .debug_str:0000000000000c6f .LASF14
     /tmp/ccCnP6rB.s:31975  .debug_str:00000000000005e6 .LASF15
     /tmp/ccCnP6rB.s:31931  .debug_str:00000000000004bc .LASF16
     /tmp/ccCnP6rB.s:32223  .debug_str:0000000000000c56 .LASF17
     /tmp/ccCnP6rB.s:32013  .debug_str:00000000000006e1 .LASF18
     /tmp/ccCnP6rB.s:31949  .debug_str:0000000000000544 .LASF19
     /tmp/ccCnP6rB.s:32027  .debug_str:000000000000072a .LASF20
     /tmp/ccCnP6rB.s:32101  .debug_str:0000000000000924 .LASF21
     /tmp/ccCnP6rB.s:32233  .debug_str:0000000000000c8f .LASF22
     /tmp/ccCnP6rB.s:31787  .debug_str:000000000000010b .LASF23
     /tmp/ccCnP6rB.s:32115  .debug_str:0000000000000982 .LASF40
     /tmp/ccCnP6rB.s:32049  .debug_str:00000000000007c8 .LASF24
     /tmp/ccCnP6rB.s:32031  .debug_str:000000000000073f .LASF26
     /tmp/ccCnP6rB.s:32335  .debug_str:0000000000000fff .LASF25
     /tmp/ccCnP6rB.s:31765  .debug_str:0000000000000085 .LASF27
     /tmp/ccCnP6rB.s:32163  .debug_str:0000000000000ab2 .LASF28
     /tmp/ccCnP6rB.s:31819  .debug_str:00000000000001ec .LASF29
     /tmp/ccCnP6rB.s:31925  .debug_str:0000000000000486 .LASF30
     /tmp/ccCnP6rB.s:31995  .debug_str:0000000000000678 .LASF31
     /tmp/ccCnP6rB.s:32035  .debug_str:0000000000000759 .LASF32
     /tmp/ccCnP6rB.s:32171  .debug_str:0000000000000afa .LASF33
     /tmp/ccCnP6rB.s:31779  .debug_str:00000000000000e5 .LASF34
     /tmp/ccCnP6rB.s:31781  .debug_str:00000000000000ea .LASF35
     /tmp/ccCnP6rB.s:31885  .debug_str:000000000000038e .LASF36
     /tmp/ccCnP6rB.s:31789  .debug_str:0000000000000113 .LASF37
     /tmp/ccCnP6rB.s:31773  .debug_str:00000000000000aa .LASF38
     /tmp/ccCnP6rB.s:32097  .debug_str:0000000000000904 .LASF39
     /tmp/ccCnP6rB.s:31913  .debug_str:000000000000042c .LASF102
     /tmp/ccCnP6rB.s:32301  .debug_str:0000000000000ed6 .LASF85
     /tmp/ccCnP6rB.s:31757  .debug_str:000000000000004b .LASF87
     /tmp/ccCnP6rB.s:32357  .debug_str:00000000000010a6 .LASF89
     /tmp/ccCnP6rB.s:32029  .debug_str:0000000000000738 .LASF41
     /tmp/ccCnP6rB.s:32217  .debug_str:0000000000000c2a .LASF42
     /tmp/ccCnP6rB.s:32237  .debug_str:0000000000000ca1 .LASF43
     /tmp/ccCnP6rB.s:32041  .debug_str:000000000000078a .LASF44
     /tmp/ccCnP6rB.s:31751  .debug_str:0000000000000025 .LASF45
     /tmp/ccCnP6rB.s:32303  .debug_str:0000000000000eed .LASF46
     /tmp/ccCnP6rB.s:32227  .debug_str:0000000000000c6a .LASF47
     /tmp/ccCnP6rB.s:32167  .debug_str:0000000000000ad6 .LASF48
     /tmp/ccCnP6rB.s:31903  .debug_str:00000000000003f6 .LASF49
     /tmp/ccCnP6rB.s:32137  .debug_str:00000000000009fd .LASF50
     /tmp/ccCnP6rB.s:31945  .debug_str:0000000000000539 .LASF51
     /tmp/ccCnP6rB.s:31761  .debug_str:0000000000000064 .LASF52
     /tmp/ccCnP6rB.s:31923  .debug_str:0000000000000480 .LASF53
     /tmp/ccCnP6rB.s:32327  .debug_str:0000000000000fc0 .LASF54
     /tmp/ccCnP6rB.s:32091  .debug_str:00000000000008e2 .LASF55
     /tmp/ccCnP6rB.s:32363  .debug_str:00000000000010cd .LASF56
     /tmp/ccCnP6rB.s:32367  .debug_str:00000000000010ef .LASF57
     /tmp/ccCnP6rB.s:32309  .debug_str:0000000000000f19 .LASF58
     /tmp/ccCnP6rB.s:31797  .debug_str:0000000000000158 .LASF59
GAS LISTING /tmp/ccCnP6rB.s 			page 343


     /tmp/ccCnP6rB.s:32321  .debug_str:0000000000000f8b .LASF60
     /tmp/ccCnP6rB.s:32215  .debug_str:0000000000000c23 .LASF61
     /tmp/ccCnP6rB.s:32379  .debug_str:0000000000001126 .LASF62
     /tmp/ccCnP6rB.s:32225  .debug_str:0000000000000c5b .LASF63
     /tmp/ccCnP6rB.s:32113  .debug_str:000000000000096c .LASF64
     /tmp/ccCnP6rB.s:31907  .debug_str:000000000000040d .LASF65
     /tmp/ccCnP6rB.s:32391  .debug_str:0000000000001172 .LASF66
     /tmp/ccCnP6rB.s:32087  .debug_str:00000000000008ce .LASF67
     /tmp/ccCnP6rB.s:31991  .debug_str:0000000000000650 .LASF68
     /tmp/ccCnP6rB.s:32161  .debug_str:0000000000000aa4 .LASF69
     /tmp/ccCnP6rB.s:32061  .debug_str:0000000000000823 .LASF70
     /tmp/ccCnP6rB.s:32099  .debug_str:000000000000091c .LASF71
     /tmp/ccCnP6rB.s:32107  .debug_str:0000000000000942 .LASF72
     /tmp/ccCnP6rB.s:32019  .debug_str:0000000000000705 .LASF73
     /tmp/ccCnP6rB.s:32079  .debug_str:0000000000000897 .LASF74
     /tmp/ccCnP6rB.s:32023  .debug_str:0000000000000717 .LASF75
     /tmp/ccCnP6rB.s:31799  .debug_str:000000000000015d .LASF76
     /tmp/ccCnP6rB.s:31813  .debug_str:00000000000001bd .LASF77
     /tmp/ccCnP6rB.s:32395  .debug_str:000000000000118d .LASF78
     /tmp/ccCnP6rB.s:31843  .debug_str:0000000000000291 .LASF79
     /tmp/ccCnP6rB.s:32253  .debug_str:0000000000000cfc .LASF80
     /tmp/ccCnP6rB.s:32047  .debug_str:00000000000007c2 .LASF81
     /tmp/ccCnP6rB.s:31829  .debug_str:0000000000000225 .LASF82
     /tmp/ccCnP6rB.s:31861  .debug_str:00000000000002f9 .LASF83
     /tmp/ccCnP6rB.s:32179  .debug_str:0000000000000b28 .LASF84
     /tmp/ccCnP6rB.s:32377  .debug_str:000000000000111f .LASF100
     /tmp/ccCnP6rB.s:31755  .debug_str:000000000000003e .LASF93
     /tmp/ccCnP6rB.s:32385  .debug_str:000000000000114c .LASF86
     /tmp/ccCnP6rB.s:32393  .debug_str:0000000000001188 .LASF88
     /tmp/ccCnP6rB.s:32059  .debug_str:0000000000000817 .LASF90
     /tmp/ccCnP6rB.s:32341  .debug_str:000000000000102f .LASF91
     /tmp/ccCnP6rB.s:32037  .debug_str:000000000000076f .LASF92
     /tmp/ccCnP6rB.s:31963  .debug_str:000000000000058e .LASF94
     /tmp/ccCnP6rB.s:32191  .debug_str:0000000000000b79 .LASF95
     /tmp/ccCnP6rB.s:32129  .debug_str:00000000000009d0 .LASF96
     /tmp/ccCnP6rB.s:32343  .debug_str:000000000000103d .LASF97
     /tmp/ccCnP6rB.s:31917  .debug_str:0000000000000459 .LASF98
     /tmp/ccCnP6rB.s:31889  .debug_str:00000000000003a2 .LASF99
     /tmp/ccCnP6rB.s:32193  .debug_str:0000000000000b87 .LASF101
     /tmp/ccCnP6rB.s:31935  .debug_str:00000000000004e2 .LASF103
     /tmp/ccCnP6rB.s:31961  .debug_str:0000000000000582 .LASF104
     /tmp/ccCnP6rB.s:32007  .debug_str:00000000000006bb .LASF105
     /tmp/ccCnP6rB.s:31873  .debug_str:0000000000000338 .LASF106
     /tmp/ccCnP6rB.s:32255  .debug_str:0000000000000d0f .LASF107
     /tmp/ccCnP6rB.s:31973  .debug_str:00000000000005d8 .LASF108
     /tmp/ccCnP6rB.s:31783  .debug_str:00000000000000ef .LASF109
     /tmp/ccCnP6rB.s:32185  .debug_str:0000000000000b51 .LASF110
     /tmp/ccCnP6rB.s:31809  .debug_str:00000000000001a4 .LASF111
     /tmp/ccCnP6rB.s:32127  .debug_str:00000000000009cb .LASF112
     /tmp/ccCnP6rB.s:31905  .debug_str:0000000000000401 .LASF113
     /tmp/ccCnP6rB.s:31763  .debug_str:0000000000000077 .LASF114
     /tmp/ccCnP6rB.s:32305  .debug_str:0000000000000eff .LASF115
     /tmp/ccCnP6rB.s:31805  .debug_str:000000000000018b .LASF116
     /tmp/ccCnP6rB.s:32295  .debug_str:0000000000000eaf .LASF117
     /tmp/ccCnP6rB.s:31871  .debug_str:0000000000000333 .LASF118
     /tmp/ccCnP6rB.s:32197  .debug_str:0000000000000b9d .LASF119
     /tmp/ccCnP6rB.s:32071  .debug_str:0000000000000864 .LASF120
GAS LISTING /tmp/ccCnP6rB.s 			page 344


     /tmp/ccCnP6rB.s:32057  .debug_str:0000000000000808 .LASF121
     /tmp/ccCnP6rB.s:32287  .debug_str:0000000000000dd1 .LASF122
     /tmp/ccCnP6rB.s:32039  .debug_str:000000000000077e .LASF123
     /tmp/ccCnP6rB.s:31921  .debug_str:0000000000000472 .LASF124
     /tmp/ccCnP6rB.s:31869  .debug_str:000000000000032e .LASF125
     /tmp/ccCnP6rB.s:31759  .debug_str:0000000000000058 .LASF126
     /tmp/ccCnP6rB.s:32355  .debug_str:0000000000001098 .LASF127
     /tmp/ccCnP6rB.s:31795  .debug_str:0000000000000149 .LASF128
     /tmp/ccCnP6rB.s:31859  .debug_str:00000000000002ed .LASF129
     /tmp/ccCnP6rB.s:32207  .debug_str:0000000000000bea .LASF130
     /tmp/ccCnP6rB.s:32069  .debug_str:000000000000085f .LASF131
     /tmp/ccCnP6rB.s:31999  .debug_str:000000000000068b .LASF132
     /tmp/ccCnP6rB.s:31987  .debug_str:0000000000000638 .LASF133
     /tmp/ccCnP6rB.s:31823  .debug_str:00000000000001ff .LASF134
     /tmp/ccCnP6rB.s:31883  .debug_str:0000000000000383 .LASF135
     /tmp/ccCnP6rB.s:32081  .debug_str:00000000000008ac .LASF136
     /tmp/ccCnP6rB.s:32267  .debug_str:0000000000000d56 .LASF141
     /tmp/ccCnP6rB.s:32269  .debug_str:0000000000000d61 .LASF137
     /tmp/ccCnP6rB.s:32245  .debug_str:0000000000000cc8 .LASF138
     /tmp/ccCnP6rB.s:32241  .debug_str:0000000000000cb3 .LASF139
     /tmp/ccCnP6rB.s:32125  .debug_str:00000000000009be .LASF140
     /tmp/ccCnP6rB.s:31827  .debug_str:000000000000021a .LASF142
     /tmp/ccCnP6rB.s:32147  .debug_str:0000000000000a3c .LASF143
     /tmp/ccCnP6rB.s:32181  .debug_str:0000000000000b37 .LASF144
     /tmp/ccCnP6rB.s:32109  .debug_str:0000000000000956 .LASF145
     /tmp/ccCnP6rB.s:32011  .debug_str:00000000000006d4 .LASF146
     /tmp/ccCnP6rB.s:31821  .debug_str:00000000000001f4 .LASF147
     /tmp/ccCnP6rB.s:31899  .debug_str:00000000000003db .LASF148
     /tmp/ccCnP6rB.s:32001  .debug_str:0000000000000697 .LASF149
     /tmp/ccCnP6rB.s:32353  .debug_str:000000000000108d .LASF150
     /tmp/ccCnP6rB.s:31753  .debug_str:0000000000000031 .LASF151
     /tmp/ccCnP6rB.s:32077  .debug_str:000000000000088c .LASF152
     /tmp/ccCnP6rB.s:31807  .debug_str:0000000000000197 .LASF153
     /tmp/ccCnP6rB.s:32157  .debug_str:0000000000000a89 .LASF154
     /tmp/ccCnP6rB.s:32145  .debug_str:0000000000000a31 .LASF155
     /tmp/ccCnP6rB.s:31897  .debug_str:00000000000003ce .LASF156
     /tmp/ccCnP6rB.s:31865  .debug_str:0000000000000312 .LASF157
     /tmp/ccCnP6rB.s:31941  .debug_str:0000000000000521 .LASF158
     /tmp/ccCnP6rB.s:32297  .debug_str:0000000000000ebd .LASF159
     /tmp/ccCnP6rB.s:32387  .debug_str:000000000000115a .LASF160
     /tmp/ccCnP6rB.s:31791  .debug_str:000000000000011f .LASF161
     /tmp/ccCnP6rB.s:32279  .debug_str:0000000000000d9c .LASF162
     /tmp/ccCnP6rB.s:32359  .debug_str:00000000000010bb .LASF163
     /tmp/ccCnP6rB.s:31937  .debug_str:00000000000004fd .LASF164
     /tmp/ccCnP6rB.s:32133  .debug_str:00000000000009e7 .LASF165
     /tmp/ccCnP6rB.s:32209  .debug_str:0000000000000bf8 .LASF166
     /tmp/ccCnP6rB.s:31857  .debug_str:00000000000002e2 .LASF167
     /tmp/ccCnP6rB.s:32105  .debug_str:0000000000000935 .LASF168
     /tmp/ccCnP6rB.s:31915  .debug_str:000000000000044b .LASF169
     /tmp/ccCnP6rB.s:32381  .debug_str:0000000000001135 .LASF170
     /tmp/ccCnP6rB.s:31967  .debug_str:00000000000005aa .LASF171
     /tmp/ccCnP6rB.s:31841  .debug_str:0000000000000286 .LASF172
     /tmp/ccCnP6rB.s:32221  .debug_str:0000000000000c49 .LASF173
     /tmp/ccCnP6rB.s:32053  .debug_str:00000000000007ed .LASF174
     /tmp/ccCnP6rB.s:32371  .debug_str:0000000000001104 .LASF175
     /tmp/ccCnP6rB.s:32373  .debug_str:000000000000110c .LASF176
     /tmp/ccCnP6rB.s:32365  .debug_str:00000000000010e4 .LASF177
GAS LISTING /tmp/ccCnP6rB.s 			page 345


     /tmp/ccCnP6rB.s:32291  .debug_str:0000000000000e9a .LASF178
     /tmp/ccCnP6rB.s:31793  .debug_str:000000000000012c .LASF179
     /tmp/ccCnP6rB.s:32119  .debug_str:0000000000000997 .LASF180
     /tmp/ccCnP6rB.s:31845  .debug_str:0000000000000299 .LASF181
     /tmp/ccCnP6rB.s:31983  .debug_str:0000000000000620 .LASF182
     /tmp/ccCnP6rB.s:31853  .debug_str:00000000000002c7 .LASF183
     /tmp/ccCnP6rB.s:31911  .debug_str:0000000000000421 .LASF184
     /tmp/ccCnP6rB.s:32151  .debug_str:0000000000000a56 .LASF185
     /tmp/ccCnP6rB.s:31825  .debug_str:000000000000020d .LASF186
     /tmp/ccCnP6rB.s:32093  .debug_str:00000000000008ed .LASF187
     /tmp/ccCnP6rB.s:32389  .debug_str:0000000000001165 .LASF188
     /tmp/ccCnP6rB.s:32333  .debug_str:0000000000000ff1 .LASF189
     /tmp/ccCnP6rB.s:31951  .debug_str:0000000000000549 .LASF193
     /tmp/ccCnP6rB.s:31833  .debug_str:0000000000000243 .LASF323
     /tmp/ccCnP6rB.s:32249  .debug_str:0000000000000ce1 .LASF195
     /tmp/ccCnP6rB.s:32337  .debug_str:0000000000001016 .LASF190
     /tmp/ccCnP6rB.s:31831  .debug_str:0000000000000236 .LASF191
     /tmp/ccCnP6rB.s:31749  .debug_str:0000000000000017 .LASF192
     /tmp/ccCnP6rB.s:31919  .debug_str:0000000000000467 .LASF194
     /tmp/ccCnP6rB.s:32055  .debug_str:00000000000007fb .LASF196
     /tmp/ccCnP6rB.s:32307  .debug_str:0000000000000f0e .LASF197
     /tmp/ccCnP6rB.s:32021  .debug_str:000000000000070a .LASF198
     /tmp/ccCnP6rB.s:32083  .debug_str:00000000000008b9 .LASF199
     /tmp/ccCnP6rB.s:32169  .debug_str:0000000000000aef .LASF200
     /tmp/ccCnP6rB.s:31881  .debug_str:0000000000000376 .LASF201
     /tmp/ccCnP6rB.s:31927  .debug_str:000000000000049e .LASF202
     /tmp/ccCnP6rB.s:32311  .debug_str:0000000000000f2b .LASF203
     /tmp/ccCnP6rB.s:31901  .debug_str:00000000000003e8 .LASF204
     /tmp/ccCnP6rB.s:31745  .debug_str:0000000000000000 .LASF205
     /tmp/ccCnP6rB.s:32159  .debug_str:0000000000000a97 .LASF206
     /tmp/ccCnP6rB.s:32121  .debug_str:00000000000009a4 .LASF207
     /tmp/ccCnP6rB.s:32361  .debug_str:00000000000010c8 .LASF208
     /tmp/ccCnP6rB.s:32243  .debug_str:0000000000000cbe .LASF209
     /tmp/ccCnP6rB.s:31771  .debug_str:000000000000009f .LASF210
     /tmp/ccCnP6rB.s:2440   .text._ZN2A1D0Ev:0000000000000000 .LFB198
     /tmp/ccCnP6rB.s:2480   .text._ZN2A1D0Ev:000000000000004c .LFE198
     /tmp/ccCnP6rB.s:26954  .debug_loc:0000000000000000 .LLST79
     /tmp/ccCnP6rB.s:2456   .text._ZN2A1D0Ev:0000000000000018 .LBB190
     /tmp/ccCnP6rB.s:2464   .text._ZN2A1D0Ev:000000000000002c .LBE190
     /tmp/ccCnP6rB.s:26972  .debug_loc:000000000000004c .LLST80
     /tmp/ccCnP6rB.s:2462   .text._ZN2A1D0Ev:000000000000002c .LVL227
     /tmp/ccCnP6rB.s:2467   .text._ZN2A1D0Ev:0000000000000038 .LVL228
     /tmp/ccCnP6rB.s:32263  .debug_str:0000000000000d40 .LASF211
     /tmp/ccCnP6rB.s:2403   .text._ZN2A1D2Ev:0000000000000000 .LFB196
     /tmp/ccCnP6rB.s:2431   .text._ZN2A1D2Ev:0000000000000034 .LFE196
     /tmp/ccCnP6rB.s:26983  .debug_loc:0000000000000082 .LLST78
     /tmp/ccCnP6rB.s:2420   .text._ZN2A1D2Ev:0000000000000024 .LVL224
     /tmp/ccCnP6rB.s:31777  .debug_str:00000000000000da .LASF212
     /tmp/ccCnP6rB.s:2356   .text._ZN2A2D0Ev:0000000000000000 .LFB194
     /tmp/ccCnP6rB.s:2396   .text._ZN2A2D0Ev:000000000000004c .LFE194
     /tmp/ccCnP6rB.s:26997  .debug_loc:00000000000000bb .LLST76
     /tmp/ccCnP6rB.s:2372   .text._ZN2A2D0Ev:0000000000000018 .LBB187
     /tmp/ccCnP6rB.s:2380   .text._ZN2A2D0Ev:000000000000002c .LBE187
     /tmp/ccCnP6rB.s:27015  .debug_loc:0000000000000107 .LLST77
     /tmp/ccCnP6rB.s:2378   .text._ZN2A2D0Ev:000000000000002c .LVL220
     /tmp/ccCnP6rB.s:2383   .text._ZN2A2D0Ev:0000000000000038 .LVL221
     /tmp/ccCnP6rB.s:32177  .debug_str:0000000000000b1d .LASF213
GAS LISTING /tmp/ccCnP6rB.s 			page 346


     /tmp/ccCnP6rB.s:2319   .text._ZN2A2D2Ev:0000000000000000 .LFB192
     /tmp/ccCnP6rB.s:2347   .text._ZN2A2D2Ev:0000000000000034 .LFE192
     /tmp/ccCnP6rB.s:27026  .debug_loc:000000000000013d .LLST75
     /tmp/ccCnP6rB.s:2336   .text._ZN2A2D2Ev:0000000000000024 .LVL217
     /tmp/ccCnP6rB.s:31909  .debug_str:0000000000000416 .LASF214
     /tmp/ccCnP6rB.s:2272   .text._ZN2A6D0Ev:0000000000000000 .LFB190
     /tmp/ccCnP6rB.s:2312   .text._ZN2A6D0Ev:000000000000004c .LFE190
     /tmp/ccCnP6rB.s:27040  .debug_loc:0000000000000176 .LLST73
     /tmp/ccCnP6rB.s:2288   .text._ZN2A6D0Ev:0000000000000018 .LBB184
     /tmp/ccCnP6rB.s:2296   .text._ZN2A6D0Ev:000000000000002c .LBE184
     /tmp/ccCnP6rB.s:27058  .debug_loc:00000000000001c2 .LLST74
     /tmp/ccCnP6rB.s:2294   .text._ZN2A6D0Ev:000000000000002c .LVL213
     /tmp/ccCnP6rB.s:2299   .text._ZN2A6D0Ev:0000000000000038 .LVL214
     /tmp/ccCnP6rB.s:32293  .debug_str:0000000000000ea4 .LASF215
     /tmp/ccCnP6rB.s:2235   .text._ZN2A6D2Ev:0000000000000000 .LFB188
     /tmp/ccCnP6rB.s:2263   .text._ZN2A6D2Ev:0000000000000034 .LFE188
     /tmp/ccCnP6rB.s:27069  .debug_loc:00000000000001f8 .LLST72
     /tmp/ccCnP6rB.s:2252   .text._ZN2A6D2Ev:0000000000000024 .LVL210
     /tmp/ccCnP6rB.s:31943  .debug_str:000000000000052e .LASF216
     /tmp/ccCnP6rB.s:2188   .text._ZN2A3D0Ev:0000000000000000 .LFB186
     /tmp/ccCnP6rB.s:2228   .text._ZN2A3D0Ev:000000000000004c .LFE186
     /tmp/ccCnP6rB.s:27083  .debug_loc:0000000000000231 .LLST70
     /tmp/ccCnP6rB.s:2204   .text._ZN2A3D0Ev:0000000000000018 .LBB181
     /tmp/ccCnP6rB.s:2212   .text._ZN2A3D0Ev:000000000000002c .LBE181
     /tmp/ccCnP6rB.s:27101  .debug_loc:000000000000027d .LLST71
     /tmp/ccCnP6rB.s:2210   .text._ZN2A3D0Ev:000000000000002c .LVL206
     /tmp/ccCnP6rB.s:2215   .text._ZN2A3D0Ev:0000000000000038 .LVL207
     /tmp/ccCnP6rB.s:32211  .debug_str:0000000000000c05 .LASF217
     /tmp/ccCnP6rB.s:2151   .text._ZN2A3D2Ev:0000000000000000 .LFB184
     /tmp/ccCnP6rB.s:2179   .text._ZN2A3D2Ev:0000000000000034 .LFE184
     /tmp/ccCnP6rB.s:27112  .debug_loc:00000000000002b3 .LLST69
     /tmp/ccCnP6rB.s:2168   .text._ZN2A3D2Ev:0000000000000024 .LVL203
     /tmp/ccCnP6rB.s:32257  .debug_str:0000000000000d1b .LASF218
     /tmp/ccCnP6rB.s:2104   .text._ZN2B3D0Ev:0000000000000000 .LFB182
     /tmp/ccCnP6rB.s:2144   .text._ZN2B3D0Ev:000000000000004c .LFE182
     /tmp/ccCnP6rB.s:27126  .debug_loc:00000000000002ec .LLST67
     /tmp/ccCnP6rB.s:2120   .text._ZN2B3D0Ev:0000000000000018 .LBB178
     /tmp/ccCnP6rB.s:2128   .text._ZN2B3D0Ev:000000000000002c .LBE178
     /tmp/ccCnP6rB.s:27144  .debug_loc:0000000000000338 .LLST68
     /tmp/ccCnP6rB.s:2126   .text._ZN2B3D0Ev:000000000000002c .LVL199
     /tmp/ccCnP6rB.s:2131   .text._ZN2B3D0Ev:0000000000000038 .LVL200
     /tmp/ccCnP6rB.s:31997  .debug_str:0000000000000680 .LASF219
     /tmp/ccCnP6rB.s:2067   .text._ZN2B3D2Ev:0000000000000000 .LFB180
     /tmp/ccCnP6rB.s:2095   .text._ZN2B3D2Ev:0000000000000034 .LFE180
     /tmp/ccCnP6rB.s:27155  .debug_loc:000000000000036e .LLST66
     /tmp/ccCnP6rB.s:2084   .text._ZN2B3D2Ev:0000000000000024 .LVL196
     /tmp/ccCnP6rB.s:32117  .debug_str:000000000000098c .LASF220
     /tmp/ccCnP6rB.s:2020   .text._ZN2C3D0Ev:0000000000000000 .LFB178
     /tmp/ccCnP6rB.s:2060   .text._ZN2C3D0Ev:000000000000004c .LFE178
     /tmp/ccCnP6rB.s:27169  .debug_loc:00000000000003a7 .LLST64
     /tmp/ccCnP6rB.s:2036   .text._ZN2C3D0Ev:0000000000000018 .LBB175
     /tmp/ccCnP6rB.s:2044   .text._ZN2C3D0Ev:000000000000002c .LBE175
     /tmp/ccCnP6rB.s:27187  .debug_loc:00000000000003f3 .LLST65
     /tmp/ccCnP6rB.s:2042   .text._ZN2C3D0Ev:000000000000002c .LVL192
     /tmp/ccCnP6rB.s:2047   .text._ZN2C3D0Ev:0000000000000038 .LVL193
     /tmp/ccCnP6rB.s:31989  .debug_str:0000000000000645 .LASF221
     /tmp/ccCnP6rB.s:1983   .text._ZN2C3D2Ev:0000000000000000 .LFB176
GAS LISTING /tmp/ccCnP6rB.s 			page 347


     /tmp/ccCnP6rB.s:2011   .text._ZN2C3D2Ev:0000000000000034 .LFE176
     /tmp/ccCnP6rB.s:27198  .debug_loc:0000000000000429 .LLST63
     /tmp/ccCnP6rB.s:2000   .text._ZN2C3D2Ev:0000000000000024 .LVL189
     /tmp/ccCnP6rB.s:32375  .debug_str:0000000000001114 .LASF222
     /tmp/ccCnP6rB.s:1936   .text._ZN2A4D0Ev:0000000000000000 .LFB174
     /tmp/ccCnP6rB.s:1976   .text._ZN2A4D0Ev:000000000000004c .LFE174
     /tmp/ccCnP6rB.s:27212  .debug_loc:0000000000000462 .LLST61
     /tmp/ccCnP6rB.s:1952   .text._ZN2A4D0Ev:0000000000000018 .LBB172
     /tmp/ccCnP6rB.s:1960   .text._ZN2A4D0Ev:000000000000002c .LBE172
     /tmp/ccCnP6rB.s:27230  .debug_loc:00000000000004ae .LLST62
     /tmp/ccCnP6rB.s:1958   .text._ZN2A4D0Ev:000000000000002c .LVL185
     /tmp/ccCnP6rB.s:1963   .text._ZN2A4D0Ev:0000000000000038 .LVL186
     /tmp/ccCnP6rB.s:32235  .debug_str:0000000000000c96 .LASF223
     /tmp/ccCnP6rB.s:1899   .text._ZN2A4D2Ev:0000000000000000 .LFB172
     /tmp/ccCnP6rB.s:1927   .text._ZN2A4D2Ev:0000000000000034 .LFE172
     /tmp/ccCnP6rB.s:27241  .debug_loc:00000000000004e4 .LLST60
     /tmp/ccCnP6rB.s:1916   .text._ZN2A4D2Ev:0000000000000024 .LVL182
     /tmp/ccCnP6rB.s:31767  .debug_str:000000000000008c .LASF224
     /tmp/ccCnP6rB.s:1852   .text._ZN2B4D0Ev:0000000000000000 .LFB170
     /tmp/ccCnP6rB.s:1892   .text._ZN2B4D0Ev:000000000000004c .LFE170
     /tmp/ccCnP6rB.s:27255  .debug_loc:000000000000051d .LLST58
     /tmp/ccCnP6rB.s:1868   .text._ZN2B4D0Ev:0000000000000018 .LBB169
     /tmp/ccCnP6rB.s:1876   .text._ZN2B4D0Ev:000000000000002c .LBE169
     /tmp/ccCnP6rB.s:27273  .debug_loc:0000000000000569 .LLST59
     /tmp/ccCnP6rB.s:1874   .text._ZN2B4D0Ev:000000000000002c .LVL178
     /tmp/ccCnP6rB.s:1879   .text._ZN2B4D0Ev:0000000000000038 .LVL179
     /tmp/ccCnP6rB.s:32025  .debug_str:000000000000071f .LASF225
     /tmp/ccCnP6rB.s:1815   .text._ZN2B4D2Ev:0000000000000000 .LFB168
     /tmp/ccCnP6rB.s:1843   .text._ZN2B4D2Ev:0000000000000034 .LFE168
     /tmp/ccCnP6rB.s:27284  .debug_loc:000000000000059f .LLST57
     /tmp/ccCnP6rB.s:1832   .text._ZN2B4D2Ev:0000000000000024 .LVL175
     /tmp/ccCnP6rB.s:31895  .debug_str:00000000000003c3 .LASF226
     /tmp/ccCnP6rB.s:1768   .text._ZN2C4D0Ev:0000000000000000 .LFB166
     /tmp/ccCnP6rB.s:1808   .text._ZN2C4D0Ev:000000000000004c .LFE166
     /tmp/ccCnP6rB.s:27298  .debug_loc:00000000000005d8 .LLST55
     /tmp/ccCnP6rB.s:1784   .text._ZN2C4D0Ev:0000000000000018 .LBB166
     /tmp/ccCnP6rB.s:1792   .text._ZN2C4D0Ev:000000000000002c .LBE166
     /tmp/ccCnP6rB.s:27316  .debug_loc:0000000000000624 .LLST56
     /tmp/ccCnP6rB.s:1790   .text._ZN2C4D0Ev:000000000000002c .LVL171
     /tmp/ccCnP6rB.s:1795   .text._ZN2C4D0Ev:0000000000000038 .LVL172
     /tmp/ccCnP6rB.s:31801  .debug_str:0000000000000174 .LASF227
     /tmp/ccCnP6rB.s:1731   .text._ZN2C4D2Ev:0000000000000000 .LFB164
     /tmp/ccCnP6rB.s:1759   .text._ZN2C4D2Ev:0000000000000034 .LFE164
     /tmp/ccCnP6rB.s:27327  .debug_loc:000000000000065a .LLST54
     /tmp/ccCnP6rB.s:1748   .text._ZN2C4D2Ev:0000000000000024 .LVL168
     /tmp/ccCnP6rB.s:32135  .debug_str:00000000000009f2 .LASF228
     /tmp/ccCnP6rB.s:1684   .text._ZN2A5D0Ev:0000000000000000 .LFB162
     /tmp/ccCnP6rB.s:1724   .text._ZN2A5D0Ev:000000000000004c .LFE162
     /tmp/ccCnP6rB.s:27341  .debug_loc:0000000000000693 .LLST52
     /tmp/ccCnP6rB.s:1700   .text._ZN2A5D0Ev:0000000000000018 .LBB163
     /tmp/ccCnP6rB.s:1708   .text._ZN2A5D0Ev:000000000000002c .LBE163
     /tmp/ccCnP6rB.s:27359  .debug_loc:00000000000006df .LLST53
     /tmp/ccCnP6rB.s:1706   .text._ZN2A5D0Ev:000000000000002c .LVL164
     /tmp/ccCnP6rB.s:1711   .text._ZN2A5D0Ev:0000000000000038 .LVL165
     /tmp/ccCnP6rB.s:32009  .debug_str:00000000000006c9 .LASF229
     /tmp/ccCnP6rB.s:1647   .text._ZN2A5D2Ev:0000000000000000 .LFB160
     /tmp/ccCnP6rB.s:1675   .text._ZN2A5D2Ev:0000000000000034 .LFE160
GAS LISTING /tmp/ccCnP6rB.s 			page 348


     /tmp/ccCnP6rB.s:27370  .debug_loc:0000000000000715 .LLST51
     /tmp/ccCnP6rB.s:1664   .text._ZN2A5D2Ev:0000000000000024 .LVL161
     /tmp/ccCnP6rB.s:32345  .debug_str:0000000000001049 .LASF230
     /tmp/ccCnP6rB.s:676    .text._ZN2A7D0Ev:0000000000000000 .LFB158
     /tmp/ccCnP6rB.s:716    .text._ZN2A7D0Ev:000000000000004c .LFE158
     /tmp/ccCnP6rB.s:27384  .debug_loc:000000000000074e .LLST16
     /tmp/ccCnP6rB.s:692    .text._ZN2A7D0Ev:0000000000000018 .LBB127
     /tmp/ccCnP6rB.s:700    .text._ZN2A7D0Ev:000000000000002c .LBE127
     /tmp/ccCnP6rB.s:27402  .debug_loc:000000000000079a .LLST17
     /tmp/ccCnP6rB.s:698    .text._ZN2A7D0Ev:000000000000002c .LVL80
     /tmp/ccCnP6rB.s:703    .text._ZN2A7D0Ev:0000000000000038 .LVL81
     /tmp/ccCnP6rB.s:32203  .debug_str:0000000000000bca .LASF231
     /tmp/ccCnP6rB.s:639    .text._ZN2A7D2Ev:0000000000000000 .LFB156
     /tmp/ccCnP6rB.s:667    .text._ZN2A7D2Ev:0000000000000034 .LFE156
     /tmp/ccCnP6rB.s:27413  .debug_loc:00000000000007d0 .LLST15
     /tmp/ccCnP6rB.s:656    .text._ZN2A7D2Ev:0000000000000024 .LVL77
     /tmp/ccCnP6rB.s:32369  .debug_str:00000000000010f9 .LASF232
     /tmp/ccCnP6rB.s:760    .text._ZN2B7D0Ev:0000000000000000 .LFB154
     /tmp/ccCnP6rB.s:800    .text._ZN2B7D0Ev:000000000000004c .LFE154
     /tmp/ccCnP6rB.s:27427  .debug_loc:0000000000000809 .LLST19
     /tmp/ccCnP6rB.s:776    .text._ZN2B7D0Ev:0000000000000018 .LBB130
     /tmp/ccCnP6rB.s:784    .text._ZN2B7D0Ev:000000000000002c .LBE130
     /tmp/ccCnP6rB.s:27445  .debug_loc:0000000000000855 .LLST20
     /tmp/ccCnP6rB.s:782    .text._ZN2B7D0Ev:000000000000002c .LVL87
     /tmp/ccCnP6rB.s:787    .text._ZN2B7D0Ev:0000000000000038 .LVL88
     /tmp/ccCnP6rB.s:31977  .debug_str:00000000000005fc .LASF233
     /tmp/ccCnP6rB.s:723    .text._ZN2B7D2Ev:0000000000000000 .LFB152
     /tmp/ccCnP6rB.s:751    .text._ZN2B7D2Ev:0000000000000034 .LFE152
     /tmp/ccCnP6rB.s:27456  .debug_loc:000000000000088b .LLST18
     /tmp/ccCnP6rB.s:740    .text._ZN2B7D2Ev:0000000000000024 .LVL84
     /tmp/ccCnP6rB.s:32111  .debug_str:0000000000000961 .LASF234
     /tmp/ccCnP6rB.s:1600   .text._ZN2A8D0Ev:0000000000000000 .LFB150
     /tmp/ccCnP6rB.s:1640   .text._ZN2A8D0Ev:000000000000004c .LFE150
     /tmp/ccCnP6rB.s:27470  .debug_loc:00000000000008c4 .LLST49
     /tmp/ccCnP6rB.s:1616   .text._ZN2A8D0Ev:0000000000000018 .LBB160
     /tmp/ccCnP6rB.s:1624   .text._ZN2A8D0Ev:000000000000002c .LBE160
     /tmp/ccCnP6rB.s:27488  .debug_loc:0000000000000910 .LLST50
     /tmp/ccCnP6rB.s:1622   .text._ZN2A8D0Ev:000000000000002c .LVL157
     /tmp/ccCnP6rB.s:1627   .text._ZN2A8D0Ev:0000000000000038 .LVL158
     /tmp/ccCnP6rB.s:31981  .debug_str:0000000000000615 .LASF235
     /tmp/ccCnP6rB.s:1563   .text._ZN2A8D2Ev:0000000000000000 .LFB148
     /tmp/ccCnP6rB.s:1591   .text._ZN2A8D2Ev:0000000000000034 .LFE148
     /tmp/ccCnP6rB.s:27499  .debug_loc:0000000000000946 .LLST48
     /tmp/ccCnP6rB.s:1580   .text._ZN2A8D2Ev:0000000000000024 .LVL154
     /tmp/ccCnP6rB.s:31887  .debug_str:0000000000000397 .LASF236
     /tmp/ccCnP6rB.s:1516   .text._ZN2A9D0Ev:0000000000000000 .LFB146
     /tmp/ccCnP6rB.s:1556   .text._ZN2A9D0Ev:000000000000004c .LFE146
     /tmp/ccCnP6rB.s:27513  .debug_loc:000000000000097f .LLST46
     /tmp/ccCnP6rB.s:1532   .text._ZN2A9D0Ev:0000000000000018 .LBB157
     /tmp/ccCnP6rB.s:1540   .text._ZN2A9D0Ev:000000000000002c .LBE157
     /tmp/ccCnP6rB.s:27531  .debug_loc:00000000000009cb .LLST47
     /tmp/ccCnP6rB.s:1538   .text._ZN2A9D0Ev:000000000000002c .LVL150
     /tmp/ccCnP6rB.s:1543   .text._ZN2A9D0Ev:0000000000000038 .LVL151
     /tmp/ccCnP6rB.s:32299  .debug_str:0000000000000ecb .LASF237
     /tmp/ccCnP6rB.s:1479   .text._ZN2A9D2Ev:0000000000000000 .LFB144
     /tmp/ccCnP6rB.s:1507   .text._ZN2A9D2Ev:0000000000000034 .LFE144
     /tmp/ccCnP6rB.s:27542  .debug_loc:0000000000000a01 .LLST45
GAS LISTING /tmp/ccCnP6rB.s 			page 349


     /tmp/ccCnP6rB.s:1496   .text._ZN2A9D2Ev:0000000000000024 .LVL147
     /tmp/ccCnP6rB.s:32219  .debug_str:0000000000000c3d .LASF238
     /tmp/ccCnP6rB.s:1432   .text._ZN3A10D0Ev:0000000000000000 .LFB142
     /tmp/ccCnP6rB.s:1472   .text._ZN3A10D0Ev:000000000000004c .LFE142
     /tmp/ccCnP6rB.s:27556  .debug_loc:0000000000000a3a .LLST43
     /tmp/ccCnP6rB.s:1448   .text._ZN3A10D0Ev:0000000000000018 .LBB154
     /tmp/ccCnP6rB.s:1456   .text._ZN3A10D0Ev:000000000000002c .LBE154
     /tmp/ccCnP6rB.s:27574  .debug_loc:0000000000000a86 .LLST44
     /tmp/ccCnP6rB.s:1454   .text._ZN3A10D0Ev:000000000000002c .LVL143
     /tmp/ccCnP6rB.s:1459   .text._ZN3A10D0Ev:0000000000000038 .LVL144
     /tmp/ccCnP6rB.s:31969  .debug_str:00000000000005b7 .LASF239
     /tmp/ccCnP6rB.s:1395   .text._ZN3A10D2Ev:0000000000000000 .LFB140
     /tmp/ccCnP6rB.s:1423   .text._ZN3A10D2Ev:0000000000000034 .LFE140
     /tmp/ccCnP6rB.s:27585  .debug_loc:0000000000000abc .LLST42
     /tmp/ccCnP6rB.s:1412   .text._ZN3A10D2Ev:0000000000000024 .LVL140
     /tmp/ccCnP6rB.s:32043  .debug_str:00000000000007a4 .LASF240
     /tmp/ccCnP6rB.s:1348   .text._ZN3A11D0Ev:0000000000000000 .LFB138
     /tmp/ccCnP6rB.s:1388   .text._ZN3A11D0Ev:000000000000004c .LFE138
     /tmp/ccCnP6rB.s:27599  .debug_loc:0000000000000af5 .LLST40
     /tmp/ccCnP6rB.s:1364   .text._ZN3A11D0Ev:0000000000000018 .LBB151
     /tmp/ccCnP6rB.s:1372   .text._ZN3A11D0Ev:000000000000002c .LBE151
     /tmp/ccCnP6rB.s:27617  .debug_loc:0000000000000b41 .LLST41
     /tmp/ccCnP6rB.s:1370   .text._ZN3A11D0Ev:000000000000002c .LVL136
     /tmp/ccCnP6rB.s:1375   .text._ZN3A11D0Ev:0000000000000038 .LVL137
     /tmp/ccCnP6rB.s:31993  .debug_str:000000000000066c .LASF241
     /tmp/ccCnP6rB.s:1311   .text._ZN3A11D2Ev:0000000000000000 .LFB136
     /tmp/ccCnP6rB.s:1339   .text._ZN3A11D2Ev:0000000000000034 .LFE136
     /tmp/ccCnP6rB.s:27628  .debug_loc:0000000000000b77 .LLST39
     /tmp/ccCnP6rB.s:1328   .text._ZN3A11D2Ev:0000000000000024 .LVL133
     /tmp/ccCnP6rB.s:32275  .debug_str:0000000000000d85 .LASF242
     /tmp/ccCnP6rB.s:1264   .text._ZN3A12D0Ev:0000000000000000 .LFB134
     /tmp/ccCnP6rB.s:1304   .text._ZN3A12D0Ev:000000000000004c .LFE134
     /tmp/ccCnP6rB.s:27642  .debug_loc:0000000000000bb0 .LLST37
     /tmp/ccCnP6rB.s:1280   .text._ZN3A12D0Ev:0000000000000018 .LBB148
     /tmp/ccCnP6rB.s:1288   .text._ZN3A12D0Ev:000000000000002c .LBE148
     /tmp/ccCnP6rB.s:27660  .debug_loc:0000000000000bfc .LLST38
     /tmp/ccCnP6rB.s:1286   .text._ZN3A12D0Ev:000000000000002c .LVL129
     /tmp/ccCnP6rB.s:1291   .text._ZN3A12D0Ev:0000000000000038 .LVL130
     /tmp/ccCnP6rB.s:32015  .debug_str:00000000000006e6 .LASF243
     /tmp/ccCnP6rB.s:1227   .text._ZN3A12D2Ev:0000000000000000 .LFB132
     /tmp/ccCnP6rB.s:1255   .text._ZN3A12D2Ev:0000000000000034 .LFE132
     /tmp/ccCnP6rB.s:27671  .debug_loc:0000000000000c32 .LLST36
     /tmp/ccCnP6rB.s:1244   .text._ZN3A12D2Ev:0000000000000024 .LVL126
     /tmp/ccCnP6rB.s:32173  .debug_str:0000000000000b00 .LASF244
     /tmp/ccCnP6rB.s:1180   .text._ZN3B12D0Ev:0000000000000000 .LFB130
     /tmp/ccCnP6rB.s:1220   .text._ZN3B12D0Ev:000000000000004c .LFE130
     /tmp/ccCnP6rB.s:27685  .debug_loc:0000000000000c6b .LLST34
     /tmp/ccCnP6rB.s:1196   .text._ZN3B12D0Ev:0000000000000018 .LBB145
     /tmp/ccCnP6rB.s:1204   .text._ZN3B12D0Ev:000000000000002c .LBE145
     /tmp/ccCnP6rB.s:27703  .debug_loc:0000000000000cb7 .LLST35
     /tmp/ccCnP6rB.s:1202   .text._ZN3B12D0Ev:000000000000002c .LVL122
     /tmp/ccCnP6rB.s:1207   .text._ZN3B12D0Ev:0000000000000038 .LVL123
     /tmp/ccCnP6rB.s:31851  .debug_str:00000000000002bb .LASF245
     /tmp/ccCnP6rB.s:1143   .text._ZN3B12D2Ev:0000000000000000 .LFB128
     /tmp/ccCnP6rB.s:1171   .text._ZN3B12D2Ev:0000000000000034 .LFE128
     /tmp/ccCnP6rB.s:27714  .debug_loc:0000000000000ced .LLST33
     /tmp/ccCnP6rB.s:1160   .text._ZN3B12D2Ev:0000000000000024 .LVL119
GAS LISTING /tmp/ccCnP6rB.s 			page 350


     /tmp/ccCnP6rB.s:32239  .debug_str:0000000000000ca7 .LASF246
     /tmp/ccCnP6rB.s:1096   .text._ZN3A13D0Ev:0000000000000000 .LFB126
     /tmp/ccCnP6rB.s:1136   .text._ZN3A13D0Ev:000000000000004c .LFE126
     /tmp/ccCnP6rB.s:27728  .debug_loc:0000000000000d26 .LLST31
     /tmp/ccCnP6rB.s:1112   .text._ZN3A13D0Ev:0000000000000018 .LBB142
     /tmp/ccCnP6rB.s:1120   .text._ZN3A13D0Ev:000000000000002c .LBE142
     /tmp/ccCnP6rB.s:27746  .debug_loc:0000000000000d72 .LLST32
     /tmp/ccCnP6rB.s:1118   .text._ZN3A13D0Ev:000000000000002c .LVL115
     /tmp/ccCnP6rB.s:1123   .text._ZN3A13D0Ev:0000000000000038 .LVL116
     /tmp/ccCnP6rB.s:32103  .debug_str:0000000000000929 .LASF247
     /tmp/ccCnP6rB.s:1059   .text._ZN3A13D2Ev:0000000000000000 .LFB124
     /tmp/ccCnP6rB.s:1087   .text._ZN3A13D2Ev:0000000000000034 .LFE124
     /tmp/ccCnP6rB.s:27757  .debug_loc:0000000000000da8 .LLST30
     /tmp/ccCnP6rB.s:1076   .text._ZN3A13D2Ev:0000000000000024 .LVL112
     /tmp/ccCnP6rB.s:32139  .debug_str:0000000000000a0f .LASF248
     /tmp/ccCnP6rB.s:1012   .text._ZN3B13D0Ev:0000000000000000 .LFB122
     /tmp/ccCnP6rB.s:1052   .text._ZN3B13D0Ev:000000000000004c .LFE122
     /tmp/ccCnP6rB.s:27771  .debug_loc:0000000000000de1 .LLST28
     /tmp/ccCnP6rB.s:1028   .text._ZN3B13D0Ev:0000000000000018 .LBB139
     /tmp/ccCnP6rB.s:1036   .text._ZN3B13D0Ev:000000000000002c .LBE139
     /tmp/ccCnP6rB.s:27789  .debug_loc:0000000000000e2d .LLST29
     /tmp/ccCnP6rB.s:1034   .text._ZN3B13D0Ev:000000000000002c .LVL108
     /tmp/ccCnP6rB.s:1039   .text._ZN3B13D0Ev:0000000000000038 .LVL109
     /tmp/ccCnP6rB.s:31803  .debug_str:000000000000017f .LASF249
     /tmp/ccCnP6rB.s:975    .text._ZN3B13D2Ev:0000000000000000 .LFB120
     /tmp/ccCnP6rB.s:1003   .text._ZN3B13D2Ev:0000000000000034 .LFE120
     /tmp/ccCnP6rB.s:27800  .debug_loc:0000000000000e63 .LLST27
     /tmp/ccCnP6rB.s:992    .text._ZN3B13D2Ev:0000000000000024 .LVL105
     /tmp/ccCnP6rB.s:32329  .debug_str:0000000000000fd9 .LASF250
     /tmp/ccCnP6rB.s:928    .text._ZN3C13D0Ev:0000000000000000 .LFB118
     /tmp/ccCnP6rB.s:968    .text._ZN3C13D0Ev:000000000000004c .LFE118
     /tmp/ccCnP6rB.s:27814  .debug_loc:0000000000000e9c .LLST25
     /tmp/ccCnP6rB.s:944    .text._ZN3C13D0Ev:0000000000000018 .LBB136
     /tmp/ccCnP6rB.s:952    .text._ZN3C13D0Ev:000000000000002c .LBE136
     /tmp/ccCnP6rB.s:27832  .debug_loc:0000000000000ee8 .LLST26
     /tmp/ccCnP6rB.s:950    .text._ZN3C13D0Ev:000000000000002c .LVL101
     /tmp/ccCnP6rB.s:955    .text._ZN3C13D0Ev:0000000000000038 .LVL102
     /tmp/ccCnP6rB.s:32183  .debug_str:0000000000000b45 .LASF251
     /tmp/ccCnP6rB.s:891    .text._ZN3C13D2Ev:0000000000000000 .LFB116
     /tmp/ccCnP6rB.s:919    .text._ZN3C13D2Ev:0000000000000034 .LFE116
     /tmp/ccCnP6rB.s:27843  .debug_loc:0000000000000f1e .LLST24
     /tmp/ccCnP6rB.s:908    .text._ZN3C13D2Ev:0000000000000024 .LVL98
     /tmp/ccCnP6rB.s:31971  .debug_str:00000000000005c3 .LASF252
     /tmp/ccCnP6rB.s:844    .text._ZN11testTRYWaitD0Ev:0000000000000000 .LFB114
     /tmp/ccCnP6rB.s:884    .text._ZN11testTRYWaitD0Ev:000000000000004c .LFE114
     /tmp/ccCnP6rB.s:27857  .debug_loc:0000000000000f57 .LLST22
     /tmp/ccCnP6rB.s:860    .text._ZN11testTRYWaitD0Ev:0000000000000018 .LBB133
     /tmp/ccCnP6rB.s:868    .text._ZN11testTRYWaitD0Ev:000000000000002c .LBE133
     /tmp/ccCnP6rB.s:27875  .debug_loc:0000000000000fa3 .LLST23
     /tmp/ccCnP6rB.s:866    .text._ZN11testTRYWaitD0Ev:000000000000002c .LVL94
     /tmp/ccCnP6rB.s:871    .text._ZN11testTRYWaitD0Ev:0000000000000038 .LVL95
     /tmp/ccCnP6rB.s:31817  .debug_str:00000000000001d7 .LASF253
     /tmp/ccCnP6rB.s:807    .text._ZN11testTRYWaitD2Ev:0000000000000000 .LFB112
     /tmp/ccCnP6rB.s:835    .text._ZN11testTRYWaitD2Ev:0000000000000034 .LFE112
     /tmp/ccCnP6rB.s:27886  .debug_loc:0000000000000fd9 .LLST21
     /tmp/ccCnP6rB.s:824    .text._ZN11testTRYWaitD2Ev:0000000000000024 .LVL91
     /tmp/ccCnP6rB.s:31847  .debug_str:00000000000002a4 .LASF254
GAS LISTING /tmp/ccCnP6rB.s 			page 351


     /tmp/ccCnP6rB.s:32175  .debug_str:0000000000000b0c .LASF256
     /tmp/ccCnP6rB.s:10775  .text:00000000000039a8 .LFE110
     /tmp/ccCnP6rB.s:27900  .debug_loc:0000000000001012 .LLST313
     /tmp/ccCnP6rB.s:10578  .text:0000000000003820 .LBB595
     /tmp/ccCnP6rB.s:27916  .debug_loc:000000000000105c .LLST314
     /tmp/ccCnP6rB.s:27931  .debug_loc:00000000000010a5 .LLST315
     /tmp/ccCnP6rB.s:10614  .text:000000000000386c .LVL1303
     /tmp/ccCnP6rB.s:10604  .text:0000000000003858 .LVL1301
     /tmp/ccCnP6rB.s:10768  .text:000000000000399c .LVL1327
     /tmp/ccCnP6rB.s:10622  .text:0000000000003870 .LBB599
     /tmp/ccCnP6rB.s:10646  .text:000000000000389c .LBE599
     /tmp/ccCnP6rB.s:27946  .debug_loc:00000000000010ee .LLST316
     /tmp/ccCnP6rB.s:10639  .text:0000000000003894 .LVL1306
     /tmp/ccCnP6rB.s:10647  .text:000000000000389c .LBB600
     /tmp/ccCnP6rB.s:10666  .text:00000000000038c0 .LBE600
     /tmp/ccCnP6rB.s:27957  .debug_loc:0000000000001124 .LLST317
     /tmp/ccCnP6rB.s:10659  .text:00000000000038b8 .LVL1310
     /tmp/ccCnP6rB.s:10667  .text:00000000000038c0 .LBB601
     /tmp/ccCnP6rB.s:10696  .text:00000000000038f8 .LBE601
     /tmp/ccCnP6rB.s:27968  .debug_loc:000000000000115a .LLST318
     /tmp/ccCnP6rB.s:10693  .text:00000000000038f4 .LVL1316
     /tmp/ccCnP6rB.s:10545  .text:00000000000037dc .LVL1293
     /tmp/ccCnP6rB.s:10551  .text:00000000000037ec .LVL1294
     /tmp/ccCnP6rB.s:10560  .text:0000000000003800 .LVL1295
     /tmp/ccCnP6rB.s:10566  .text:0000000000003810 .LVL1296
     /tmp/ccCnP6rB.s:10723  .text:0000000000003938 .LVL1319
     /tmp/ccCnP6rB.s:10748  .text:0000000000003964 .LVL1322
     /tmp/ccCnP6rB.s:10751  .text:0000000000003970 .LVL1323
     /tmp/ccCnP6rB.s:10757  .text:0000000000003980 .LVL1324
     /tmp/ccCnP6rB.s:10760  .text:000000000000398c .LVL1325
     /tmp/ccCnP6rB.s:10771  .text:00000000000039a8 .LVL1328
     /tmp/ccCnP6rB.s:5188   .text._ZN11testTRYWait3runEv:0000000000000000 .LFB109
     /tmp/ccCnP6rB.s:5450   .text._ZN11testTRYWait3runEv:00000000000001d4 .LFE109
     /tmp/ccCnP6rB.s:27975  .debug_loc:000000000000117d .LLST138
     /tmp/ccCnP6rB.s:27997  .debug_loc:00000000000011dc .LLST139
     /tmp/ccCnP6rB.s:28017  .debug_loc:0000000000001239 .LLST140
     /tmp/ccCnP6rB.s:28032  .debug_loc:0000000000001282 .LLST141
     /tmp/ccCnP6rB.s:5238   .text._ZN11testTRYWait3runEv:0000000000000060 .LBB300
     /tmp/ccCnP6rB.s:5275   .text._ZN11testTRYWait3runEv:0000000000000098 .LBE300
     /tmp/ccCnP6rB.s:28047  .debug_loc:00000000000012cb .LLST142
     /tmp/ccCnP6rB.s:5259   .text._ZN11testTRYWait3runEv:0000000000000080 .LBB302
     /tmp/ccCnP6rB.s:5273   .text._ZN11testTRYWait3runEv:0000000000000098 .LBE302
     /tmp/ccCnP6rB.s:28059  .debug_loc:0000000000001302 .LLST143
     /tmp/ccCnP6rB.s:5248   .text._ZN11testTRYWait3runEv:0000000000000070 .LVL593
     /tmp/ccCnP6rB.s:5359   .text._ZN11testTRYWait3runEv:000000000000014c .LBB306
     /tmp/ccCnP6rB.s:5397   .text._ZN11testTRYWait3runEv:0000000000000184 .LBE306
     /tmp/ccCnP6rB.s:28070  .debug_loc:0000000000001338 .LLST144
     /tmp/ccCnP6rB.s:5380   .text._ZN11testTRYWait3runEv:000000000000016c .LBB308
     /tmp/ccCnP6rB.s:5395   .text._ZN11testTRYWait3runEv:0000000000000184 .LBE308
     /tmp/ccCnP6rB.s:28082  .debug_loc:000000000000136f .LLST145
     /tmp/ccCnP6rB.s:5369   .text._ZN11testTRYWait3runEv:000000000000015c .LVL611
     /tmp/ccCnP6rB.s:5224   .text._ZN11testTRYWait3runEv:000000000000003c .LVL589
     /tmp/ccCnP6rB.s:5231   .text._ZN11testTRYWait3runEv:0000000000000050 .LVL590
     /tmp/ccCnP6rB.s:5236   .text._ZN11testTRYWait3runEv:0000000000000060 .LVL591
     /tmp/ccCnP6rB.s:5280   .text._ZN11testTRYWait3runEv:00000000000000a4 .LVL597
     /tmp/ccCnP6rB.s:5285   .text._ZN11testTRYWait3runEv:00000000000000b4 .LVL598
     /tmp/ccCnP6rB.s:5292   .text._ZN11testTRYWait3runEv:00000000000000c8 .LVL599
GAS LISTING /tmp/ccCnP6rB.s 			page 352


     /tmp/ccCnP6rB.s:5297   .text._ZN11testTRYWait3runEv:00000000000000d8 .LVL600
     /tmp/ccCnP6rB.s:5345   .text._ZN11testTRYWait3runEv:0000000000000128 .LVL607
     /tmp/ccCnP6rB.s:5352   .text._ZN11testTRYWait3runEv:000000000000013c .LVL608
     /tmp/ccCnP6rB.s:5357   .text._ZN11testTRYWait3runEv:000000000000014c .LVL609
     /tmp/ccCnP6rB.s:5408   .text._ZN11testTRYWait3runEv:0000000000000190 .LVL617
     /tmp/ccCnP6rB.s:5419   .text._ZN11testTRYWait3runEv:00000000000001a0 .LVL618
     /tmp/ccCnP6rB.s:5426   .text._ZN11testTRYWait3runEv:00000000000001b0 .LVL620
     /tmp/ccCnP6rB.s:5444   .text._ZN11testTRYWait3runEv:00000000000001d0 .LVL622
     /tmp/ccCnP6rB.s:5307   .text._ZN11testTRYWait3runEv:00000000000000e8 .LVL601
     /tmp/ccCnP6rB.s:5312   .text._ZN11testTRYWait3runEv:00000000000000f8 .LVL602
     /tmp/ccCnP6rB.s:31875  .debug_str:000000000000033d .LASF258
     /tmp/ccCnP6rB.s:32187  .debug_str:0000000000000b5d .LASF255
     /tmp/ccCnP6rB.s:32281  .debug_str:0000000000000da7 .LASF257
     /tmp/ccCnP6rB.s:10474  .text:00000000000037b4 .LFE105
     /tmp/ccCnP6rB.s:28093  .debug_loc:00000000000013a5 .LLST304
     /tmp/ccCnP6rB.s:28104  .debug_loc:00000000000013db .LLST305
     /tmp/ccCnP6rB.s:28115  .debug_loc:0000000000001411 .LLST306
     /tmp/ccCnP6rB.s:10282  .text:0000000000003628 .LBB586
     /tmp/ccCnP6rB.s:10292  .text:000000000000363c .LBE586
     /tmp/ccCnP6rB.s:28122  .debug_loc:0000000000001434 .LLST307
     /tmp/ccCnP6rB.s:10286  .text:0000000000003630 .LVL1259
     /tmp/ccCnP6rB.s:10308  .text:000000000000365c .LBB588
     /tmp/ccCnP6rB.s:10318  .text:0000000000003670 .LBE588
     /tmp/ccCnP6rB.s:28137  .debug_loc:000000000000147d .LLST308
     /tmp/ccCnP6rB.s:10312  .text:0000000000003664 .LVL1264
     /tmp/ccCnP6rB.s:10334  .text:0000000000003690 .LBB590
     /tmp/ccCnP6rB.s:10347  .text:00000000000036a8 .LBE590
     /tmp/ccCnP6rB.s:28152  .debug_loc:00000000000014c6 .LLST309
     /tmp/ccCnP6rB.s:28163  .debug_loc:00000000000014fc .LLST310
     /tmp/ccCnP6rB.s:10338  .text:0000000000003698 .LVL1269
     /tmp/ccCnP6rB.s:10349  .text:00000000000036a8 .LBB592
     /tmp/ccCnP6rB.s:10356  .text:00000000000036ac .LBE592
     /tmp/ccCnP6rB.s:28174  .debug_loc:0000000000001532 .LLST311
     /tmp/ccCnP6rB.s:28181  .debug_loc:0000000000001555 .LLST312
     /tmp/ccCnP6rB.s:10277  .text:0000000000003624 .LVL1257
     /tmp/ccCnP6rB.s:10298  .text:000000000000364c .LVL1261
     /tmp/ccCnP6rB.s:10303  .text:0000000000003658 .LVL1262
     /tmp/ccCnP6rB.s:10324  .text:0000000000003680 .LVL1266
     /tmp/ccCnP6rB.s:10329  .text:000000000000368c .LVL1267
     /tmp/ccCnP6rB.s:10362  .text:00000000000036bc .LVL1272
     /tmp/ccCnP6rB.s:10367  .text:00000000000036c8 .LVL1273
     /tmp/ccCnP6rB.s:10372  .text:00000000000036d4 .LVL1274
     /tmp/ccCnP6rB.s:10377  .text:00000000000036e0 .LVL1275
     /tmp/ccCnP6rB.s:10382  .text:00000000000036ec .LVL1276
     /tmp/ccCnP6rB.s:10387  .text:00000000000036f8 .LVL1277
     /tmp/ccCnP6rB.s:10396  .text:000000000000370c .LVL1278
     /tmp/ccCnP6rB.s:10406  .text:0000000000003720 .LVL1279
     /tmp/ccCnP6rB.s:10416  .text:0000000000003734 .LVL1280
     /tmp/ccCnP6rB.s:10422  .text:0000000000003744 .LVL1281
     /tmp/ccCnP6rB.s:10449  .text:0000000000003770 .LVL1286
     /tmp/ccCnP6rB.s:10452  .text:000000000000377c .LVL1287
     /tmp/ccCnP6rB.s:10458  .text:000000000000378c .LVL1288
     /tmp/ccCnP6rB.s:10461  .text:0000000000003798 .LVL1289
     /tmp/ccCnP6rB.s:10468  .text:00000000000037a8 .LVL1291
     /tmp/ccCnP6rB.s:10471  .text:00000000000037b4 .LVL1292
     /tmp/ccCnP6rB.s:5031   .text:0000000000001598 .LFB104
     /tmp/ccCnP6rB.s:5165   .text:0000000000001680 .LFE104
GAS LISTING /tmp/ccCnP6rB.s 			page 353


     /tmp/ccCnP6rB.s:28188  .debug_loc:0000000000001578 .LLST134
     /tmp/ccCnP6rB.s:5052   .text:00000000000015b8 .LBB289
     /tmp/ccCnP6rB.s:5146   .text:0000000000001664 .LBE289
     /tmp/ccCnP6rB.s:28206  .debug_loc:00000000000015c4 .LLST135
     /tmp/ccCnP6rB.s:28218  .debug_loc:00000000000015fb .LLST136
     /tmp/ccCnP6rB.s:5075   .text:00000000000015d8 .LBB293
     /tmp/ccCnP6rB.s:5088   .text:00000000000015ec .LBE293
     /tmp/ccCnP6rB.s:28229  .debug_loc:0000000000001631 .LLST137
     /tmp/ccCnP6rB.s:5064   .text:00000000000015c8 .LVL570
     /tmp/ccCnP6rB.s:5095   .text:00000000000015fc .LVL574
     /tmp/ccCnP6rB.s:5102   .text:0000000000001610 .LVL575
     /tmp/ccCnP6rB.s:5107   .text:0000000000001620 .LVL576
     /tmp/ccCnP6rB.s:5115   .text:0000000000001630 .LVL577
     /tmp/ccCnP6rB.s:5136   .text:0000000000001654 .LVL580
     /tmp/ccCnP6rB.s:5141   .text:0000000000001660 .LVL581
     /tmp/ccCnP6rB.s:32323  .debug_str:0000000000000f9f .LASF259
     /tmp/ccCnP6rB.s:307    .text:00000000000001ec .LFB100
     /tmp/ccCnP6rB.s:417    .text:00000000000002a0 .LFE100
     /tmp/ccCnP6rB.s:28240  .debug_loc:0000000000001667 .LLST7
     /tmp/ccCnP6rB.s:325    .text:0000000000000204 .LBB110
     /tmp/ccCnP6rB.s:401    .text:0000000000000288 .LBE110
     /tmp/ccCnP6rB.s:28254  .debug_loc:00000000000016a0 .LLST8
     /tmp/ccCnP6rB.s:28266  .debug_loc:00000000000016d7 .LLST9
     /tmp/ccCnP6rB.s:348    .text:0000000000000224 .LBB114
     /tmp/ccCnP6rB.s:361    .text:0000000000000238 .LBE114
     /tmp/ccCnP6rB.s:28273  .debug_loc:00000000000016fa .LLST10
     /tmp/ccCnP6rB.s:337    .text:0000000000000214 .LVL38
     /tmp/ccCnP6rB.s:368    .text:0000000000000248 .LVL42
     /tmp/ccCnP6rB.s:375    .text:000000000000025c .LVL43
     /tmp/ccCnP6rB.s:380    .text:000000000000026c .LVL44
     /tmp/ccCnP6rB.s:384    .text:0000000000000274 .LVL45
     /tmp/ccCnP6rB.s:32095  .debug_str:00000000000008f8 .LASF260
     /tmp/ccCnP6rB.s:4881   .text:00000000000014a0 .LFB96
     /tmp/ccCnP6rB.s:5020   .text:0000000000001598 .LFE96
     /tmp/ccCnP6rB.s:28284  .debug_loc:0000000000001730 .LLST130
     /tmp/ccCnP6rB.s:4902   .text:00000000000014c0 .LBB281
     /tmp/ccCnP6rB.s:5001   .text:000000000000157c .LBE281
     /tmp/ccCnP6rB.s:28302  .debug_loc:000000000000177c .LLST131
     /tmp/ccCnP6rB.s:28314  .debug_loc:00000000000017b3 .LLST132
     /tmp/ccCnP6rB.s:4925   .text:00000000000014e0 .LBB285
     /tmp/ccCnP6rB.s:4938   .text:00000000000014f4 .LBE285
     /tmp/ccCnP6rB.s:28325  .debug_loc:00000000000017e9 .LLST133
     /tmp/ccCnP6rB.s:4914   .text:00000000000014d0 .LVL551
     /tmp/ccCnP6rB.s:4945   .text:0000000000001504 .LVL555
     /tmp/ccCnP6rB.s:4952   .text:0000000000001518 .LVL556
     /tmp/ccCnP6rB.s:4957   .text:0000000000001528 .LVL557
     /tmp/ccCnP6rB.s:4966   .text:0000000000001540 .LVL558
     /tmp/ccCnP6rB.s:4970   .text:0000000000001548 .LVL559
     /tmp/ccCnP6rB.s:4991   .text:000000000000156c .LVL562
     /tmp/ccCnP6rB.s:4996   .text:0000000000001578 .LVL563
     /tmp/ccCnP6rB.s:32383  .debug_str:0000000000001140 .LASF261
     /tmp/ccCnP6rB.s:31939  .debug_str:000000000000050b .LASF262
     /tmp/ccCnP6rB.s:32317  .debug_str:0000000000000f65 .LASF263
     /tmp/ccCnP6rB.s:10190  .text:00000000000035fc .LFE91
     /tmp/ccCnP6rB.s:28336  .debug_loc:000000000000181f .LLST300
     /tmp/ccCnP6rB.s:28347  .debug_loc:0000000000001855 .LLST301
     /tmp/ccCnP6rB.s:10060  .text:00000000000034e4 .LBB582
GAS LISTING /tmp/ccCnP6rB.s 			page 354


     /tmp/ccCnP6rB.s:10071  .text:00000000000034f8 .LBE582
     /tmp/ccCnP6rB.s:28354  .debug_loc:0000000000001878 .LLST302
     /tmp/ccCnP6rB.s:10064  .text:00000000000034ec .LVL1234
     /tmp/ccCnP6rB.s:10082  .text:0000000000003508 .LBB584
     /tmp/ccCnP6rB.s:10092  .text:000000000000351c .LBE584
     /tmp/ccCnP6rB.s:28369  .debug_loc:00000000000018c1 .LLST303
     /tmp/ccCnP6rB.s:10086  .text:0000000000003510 .LVL1238
     /tmp/ccCnP6rB.s:10025  .text:0000000000003498 .LVL1228
     /tmp/ccCnP6rB.s:10031  .text:00000000000034a8 .LVL1229
     /tmp/ccCnP6rB.s:10040  .text:00000000000034bc .LVL1230
     /tmp/ccCnP6rB.s:10046  .text:00000000000034cc .LVL1231
     /tmp/ccCnP6rB.s:10055  .text:00000000000034e0 .LVL1232
     /tmp/ccCnP6rB.s:10077  .text:0000000000003504 .LVL1236
     /tmp/ccCnP6rB.s:10098  .text:0000000000003528 .LVL1240
     /tmp/ccCnP6rB.s:10103  .text:0000000000003534 .LVL1241
     /tmp/ccCnP6rB.s:10108  .text:0000000000003540 .LVL1242
     /tmp/ccCnP6rB.s:10113  .text:000000000000354c .LVL1243
     /tmp/ccCnP6rB.s:10122  .text:0000000000003560 .LVL1244
     /tmp/ccCnP6rB.s:10132  .text:0000000000003574 .LVL1245
     /tmp/ccCnP6rB.s:10156  .text:000000000000359c .LVL1248
     /tmp/ccCnP6rB.s:10159  .text:00000000000035a8 .LVL1249
     /tmp/ccCnP6rB.s:10165  .text:00000000000035b8 .LVL1250
     /tmp/ccCnP6rB.s:10168  .text:00000000000035c4 .LVL1251
     /tmp/ccCnP6rB.s:10174  .text:00000000000035d4 .LVL1252
     /tmp/ccCnP6rB.s:10177  .text:00000000000035e0 .LVL1253
     /tmp/ccCnP6rB.s:10184  .text:00000000000035f0 .LVL1255
     /tmp/ccCnP6rB.s:10187  .text:00000000000035fc .LVL1256
     /tmp/ccCnP6rB.s:4758   .text:00000000000013d0 .LFB90
     /tmp/ccCnP6rB.s:4870   .text:00000000000014a0 .LFE90
     /tmp/ccCnP6rB.s:28380  .debug_loc:00000000000018f7 .LLST126
     /tmp/ccCnP6rB.s:4774   .text:00000000000013e4 .LBB276
     /tmp/ccCnP6rB.s:4797   .text:0000000000001418 .LBE276
     /tmp/ccCnP6rB.s:28394  .debug_loc:0000000000001930 .LLST127
     /tmp/ccCnP6rB.s:4784   .text:00000000000013fc .LVL534
     /tmp/ccCnP6rB.s:4789   .text:000000000000140c .LVL535
     /tmp/ccCnP6rB.s:4798   .text:0000000000001418 .LBB277
     /tmp/ccCnP6rB.s:4834   .text:0000000000001448 .LBE277
     /tmp/ccCnP6rB.s:28406  .debug_loc:0000000000001967 .LLST128
     /tmp/ccCnP6rB.s:4819   .text:0000000000001434 .LBB279
     /tmp/ccCnP6rB.s:4832   .text:0000000000001448 .LBE279
     /tmp/ccCnP6rB.s:28413  .debug_loc:000000000000198a .LLST129
     /tmp/ccCnP6rB.s:4809   .text:0000000000001428 .LVL539
     /tmp/ccCnP6rB.s:4840   .text:0000000000001458 .LVL543
     /tmp/ccCnP6rB.s:4846   .text:000000000000146c .LVL544
     /tmp/ccCnP6rB.s:4851   .text:000000000000147c .LVL545
     /tmp/ccCnP6rB.s:4856   .text:000000000000148c .LVL546
     /tmp/ccCnP6rB.s:4646   .text:0000000000001324 .LFB89
     /tmp/ccCnP6rB.s:4738   .text:00000000000013d0 .LFE89
     /tmp/ccCnP6rB.s:28424  .debug_loc:00000000000019c0 .LLST123
     /tmp/ccCnP6rB.s:4667   .text:0000000000001348 .LBB272
     /tmp/ccCnP6rB.s:4702   .text:0000000000001378 .LBE272
     /tmp/ccCnP6rB.s:28438  .debug_loc:00000000000019f9 .LLST124
     /tmp/ccCnP6rB.s:4687   .text:0000000000001364 .LBB274
     /tmp/ccCnP6rB.s:4700   .text:0000000000001378 .LBE274
     /tmp/ccCnP6rB.s:28450  .debug_loc:0000000000001a30 .LLST125
     /tmp/ccCnP6rB.s:4677   .text:0000000000001358 .LVL522
     /tmp/ccCnP6rB.s:4665   .text:0000000000001348 .LVL520
GAS LISTING /tmp/ccCnP6rB.s 			page 355


     /tmp/ccCnP6rB.s:4708   .text:0000000000001388 .LVL526
     /tmp/ccCnP6rB.s:4714   .text:000000000000139c .LVL527
     /tmp/ccCnP6rB.s:4719   .text:00000000000013ac .LVL528
     /tmp/ccCnP6rB.s:4724   .text:00000000000013bc .LVL529
     /tmp/ccCnP6rB.s:32331  .debug_str:0000000000000fe5 .LASF264
     /tmp/ccCnP6rB.s:31957  .debug_str:0000000000000567 .LASF265
     /tmp/ccCnP6rB.s:31837  .debug_str:000000000000026b .LASF266
     /tmp/ccCnP6rB.s:31867  .debug_str:000000000000031d .LASF267
     /tmp/ccCnP6rB.s:9958   .text:0000000000003474 .LFE82
     /tmp/ccCnP6rB.s:28461  .debug_loc:0000000000001a66 .LLST286
     /tmp/ccCnP6rB.s:9683   .text:0000000000003254 .LBB572
     /tmp/ccCnP6rB.s:9854   .text:00000000000033d4 .LBE572
     /tmp/ccCnP6rB.s:28479  .debug_loc:0000000000001ab3 .LLST287
     /tmp/ccCnP6rB.s:9700   .text:000000000000326c .LBB573
     /tmp/ccCnP6rB.s:9747   .text:00000000000032ec .LBE573
     /tmp/ccCnP6rB.s:28495  .debug_loc:0000000000001afd .LLST288
     /tmp/ccCnP6rB.s:28508  .debug_loc:0000000000001b35 .LLST289
     /tmp/ccCnP6rB.s:9706   .text:0000000000003278 .LVL1189
     /tmp/ccCnP6rB.s:9724   .text:00000000000032b4 .LVL1190
     /tmp/ccCnP6rB.s:9731   .text:00000000000032c8 .LVL1191
     /tmp/ccCnP6rB.s:9736   .text:00000000000032d8 .LVL1192
     /tmp/ccCnP6rB.s:9744   .text:00000000000032ec .LVL1193
     /tmp/ccCnP6rB.s:9764   .text:000000000000330c .LBB575
     /tmp/ccCnP6rB.s:28519  .debug_loc:0000000000001b6b .LLST290
     /tmp/ccCnP6rB.s:28537  .debug_loc:0000000000001bb7 .LLST291
     /tmp/ccCnP6rB.s:9782   .text:0000000000003344 .LVL1197
     /tmp/ccCnP6rB.s:9789   .text:0000000000003358 .LVL1198
     /tmp/ccCnP6rB.s:9794   .text:0000000000003368 .LVL1199
     /tmp/ccCnP6rB.s:9802   .text:000000000000337c .LVL1200
     /tmp/ccCnP6rB.s:9847   .text:00000000000033d0 .LVL1206
     /tmp/ccCnP6rB.s:9696   .text:0000000000003268 .LVL1187
     /tmp/ccCnP6rB.s:9751   .text:00000000000032f8 .LVL1194
     /tmp/ccCnP6rB.s:9809   .text:0000000000003388 .LVL1201
     /tmp/ccCnP6rB.s:9837   .text:00000000000033c0 .LVL1204
     /tmp/ccCnP6rB.s:9856   .text:00000000000033d4 .LBB579
     /tmp/ccCnP6rB.s:9877   .text:00000000000033f4 .LBE579
     /tmp/ccCnP6rB.s:28552  .debug_loc:0000000000001c00 .LLST292
     /tmp/ccCnP6rB.s:31893  .debug_str:00000000000003b7 .LASF268
     /tmp/ccCnP6rB.s:28560  .debug_loc:0000000000001c24 .LLST293
     /tmp/ccCnP6rB.s:32067  .debug_str:0000000000000853 .LASF269
     /tmp/ccCnP6rB.s:28573  .debug_loc:0000000000001c5d .LLST294
     /tmp/ccCnP6rB.s:31955  .debug_str:000000000000055d .LASF270
     /tmp/ccCnP6rB.s:28584  .debug_loc:0000000000001c93 .LLST295
     /tmp/ccCnP6rB.s:9871   .text:00000000000033ec .LVL1211
     /tmp/ccCnP6rB.s:9878   .text:00000000000033f4 .LBB580
     /tmp/ccCnP6rB.s:9897   .text:0000000000003410 .LBE580
     /tmp/ccCnP6rB.s:28591  .debug_loc:0000000000001cb6 .LLST296
     /tmp/ccCnP6rB.s:28599  .debug_loc:0000000000001cda .LLST297
     /tmp/ccCnP6rB.s:9890   .text:0000000000003408 .LVL1215
     /tmp/ccCnP6rB.s:9898   .text:0000000000003410 .LBB581
     /tmp/ccCnP6rB.s:9918   .text:0000000000003430 .LBE581
     /tmp/ccCnP6rB.s:28606  .debug_loc:0000000000001cfd .LLST298
     /tmp/ccCnP6rB.s:28613  .debug_loc:0000000000001d20 .LLST299
     /tmp/ccCnP6rB.s:9755   .text:0000000000003304 .LVL1195
     /tmp/ccCnP6rB.s:9813   .text:0000000000003394 .LVL1202
     /tmp/ccCnP6rB.s:9923   .text:0000000000003440 .LVL1221
     /tmp/ccCnP6rB.s:4436   .text:000000000000119c .LFB81
GAS LISTING /tmp/ccCnP6rB.s 			page 356


     /tmp/ccCnP6rB.s:4626   .text:0000000000001324 .LFE81
     /tmp/ccCnP6rB.s:28620  .debug_loc:0000000000001d43 .LLST119
     /tmp/ccCnP6rB.s:4457   .text:00000000000011bc .LBB264
     /tmp/ccCnP6rB.s:4607   .text:0000000000001308 .LBE264
     /tmp/ccCnP6rB.s:28638  .debug_loc:0000000000001d8f .LLST120
     /tmp/ccCnP6rB.s:28650  .debug_loc:0000000000001dc6 .LLST121
     /tmp/ccCnP6rB.s:4479   .text:00000000000011d8 .LBB268
     /tmp/ccCnP6rB.s:4492   .text:00000000000011ec .LBE268
     /tmp/ccCnP6rB.s:28666  .debug_loc:0000000000001e10 .LLST122
     /tmp/ccCnP6rB.s:4469   .text:00000000000011cc .LVL494
     /tmp/ccCnP6rB.s:4499   .text:00000000000011fc .LVL498
     /tmp/ccCnP6rB.s:4506   .text:0000000000001210 .LVL499
     /tmp/ccCnP6rB.s:4511   .text:0000000000001220 .LVL500
     /tmp/ccCnP6rB.s:4516   .text:0000000000001230 .LVL501
     /tmp/ccCnP6rB.s:4523   .text:0000000000001244 .LVL502
     /tmp/ccCnP6rB.s:4528   .text:0000000000001254 .LVL503
     /tmp/ccCnP6rB.s:4538   .text:0000000000001268 .LVL504
     /tmp/ccCnP6rB.s:4544   .text:0000000000001278 .LVL505
     /tmp/ccCnP6rB.s:4558   .text:0000000000001294 .LVL507
     /tmp/ccCnP6rB.s:4565   .text:00000000000012a8 .LVL508
     /tmp/ccCnP6rB.s:4570   .text:00000000000012b8 .LVL509
     /tmp/ccCnP6rB.s:4575   .text:00000000000012c8 .LVL510
     /tmp/ccCnP6rB.s:4582   .text:00000000000012dc .LVL511
     /tmp/ccCnP6rB.s:4587   .text:00000000000012ec .LVL512
     /tmp/ccCnP6rB.s:4602   .text:0000000000001304 .LVL514
     /tmp/ccCnP6rB.s:32165  .debug_str:0000000000000aca .LASF271
     /tmp/ccCnP6rB.s:32065  .debug_str:0000000000000843 .LASF272
     /tmp/ccCnP6rB.s:32205  .debug_str:0000000000000bd5 .LASF273
     /tmp/ccCnP6rB.s:9586   .text:000000000000322c .LFE77
     /tmp/ccCnP6rB.s:28677  .debug_loc:0000000000001e46 .LLST268
     /tmp/ccCnP6rB.s:9148   .text:0000000000002e94 .LBB548
     /tmp/ccCnP6rB.s:9470   .text:000000000000317c .LBE548
     /tmp/ccCnP6rB.s:28695  .debug_loc:0000000000001e93 .LLST269
     /tmp/ccCnP6rB.s:9165   .text:0000000000002eac .LBB549
     /tmp/ccCnP6rB.s:9212   .text:0000000000002f28 .LBE549
     /tmp/ccCnP6rB.s:28739  .debug_loc:0000000000001f62 .LLST270
     /tmp/ccCnP6rB.s:28752  .debug_loc:0000000000001f9a .LLST271
     /tmp/ccCnP6rB.s:9171   .text:0000000000002eb8 .LVL1116
     /tmp/ccCnP6rB.s:9188   .text:0000000000002ef0 .LVL1117
     /tmp/ccCnP6rB.s:9195   .text:0000000000002f04 .LVL1118
     /tmp/ccCnP6rB.s:9200   .text:0000000000002f14 .LVL1119
     /tmp/ccCnP6rB.s:9209   .text:0000000000002f28 .LVL1121
     /tmp/ccCnP6rB.s:9249   .text:0000000000002f74 .LBB551
     /tmp/ccCnP6rB.s:28767  .debug_loc:0000000000001fe3 .LLST272
     /tmp/ccCnP6rB.s:28785  .debug_loc:000000000000202f .LLST273
     /tmp/ccCnP6rB.s:9255   .text:0000000000002f80 .LVL1127
     /tmp/ccCnP6rB.s:9429   .text:000000000000311c .LVL1150
     /tmp/ccCnP6rB.s:9436   .text:0000000000003130 .LVL1151
     /tmp/ccCnP6rB.s:9441   .text:0000000000003140 .LVL1152
     /tmp/ccCnP6rB.s:9450   .text:0000000000003154 .LVL1154
     /tmp/ccCnP6rB.s:9273   .text:0000000000002f94 .LBB554
     /tmp/ccCnP6rB.s:9321   .text:0000000000003014 .LBE554
     /tmp/ccCnP6rB.s:28804  .debug_loc:000000000000208b .LLST274
     /tmp/ccCnP6rB.s:28817  .debug_loc:00000000000020c3 .LLST275
     /tmp/ccCnP6rB.s:9279   .text:0000000000002fa0 .LVL1131
     /tmp/ccCnP6rB.s:9297   .text:0000000000002fdc .LVL1132
     /tmp/ccCnP6rB.s:9304   .text:0000000000002ff0 .LVL1133
GAS LISTING /tmp/ccCnP6rB.s 			page 357


     /tmp/ccCnP6rB.s:9309   .text:0000000000003000 .LVL1134
     /tmp/ccCnP6rB.s:9318   .text:0000000000003014 .LVL1136
     /tmp/ccCnP6rB.s:9346   .text:0000000000003044 .LBB556
     /tmp/ccCnP6rB.s:9394   .text:00000000000030c4 .LBE556
     /tmp/ccCnP6rB.s:28832  .debug_loc:000000000000210c .LLST276
     /tmp/ccCnP6rB.s:28845  .debug_loc:0000000000002144 .LLST277
     /tmp/ccCnP6rB.s:9352   .text:0000000000003050 .LVL1141
     /tmp/ccCnP6rB.s:9370   .text:000000000000308c .LVL1142
     /tmp/ccCnP6rB.s:9377   .text:00000000000030a0 .LVL1143
     /tmp/ccCnP6rB.s:9382   .text:00000000000030b0 .LVL1144
     /tmp/ccCnP6rB.s:9391   .text:00000000000030c4 .LVL1146
     /tmp/ccCnP6rB.s:9161   .text:0000000000002ea8 .LVL1114
     /tmp/ccCnP6rB.s:9216   .text:0000000000002f34 .LVL1122
     /tmp/ccCnP6rB.s:9245   .text:0000000000002f70 .LVL1125
     /tmp/ccCnP6rB.s:9269   .text:0000000000002f90 .LVL1129
     /tmp/ccCnP6rB.s:9325   .text:0000000000003020 .LVL1137
     /tmp/ccCnP6rB.s:9342   .text:0000000000003040 .LVL1139
     /tmp/ccCnP6rB.s:9398   .text:00000000000030d0 .LVL1147
     /tmp/ccCnP6rB.s:9457   .text:0000000000003160 .LVL1155
     /tmp/ccCnP6rB.s:9473   .text:000000000000317c .LBB559
     /tmp/ccCnP6rB.s:9493   .text:000000000000319c .LBE559
     /tmp/ccCnP6rB.s:28860  .debug_loc:000000000000218d .LLST278
     /tmp/ccCnP6rB.s:28868  .debug_loc:00000000000021b1 .LLST279
     /tmp/ccCnP6rB.s:28881  .debug_loc:00000000000021ea .LLST280
     /tmp/ccCnP6rB.s:28892  .debug_loc:0000000000002220 .LLST281
     /tmp/ccCnP6rB.s:9487   .text:0000000000003194 .LVL1161
     /tmp/ccCnP6rB.s:9494   .text:000000000000319c .LBB560
     /tmp/ccCnP6rB.s:9513   .text:00000000000031b8 .LBE560
     /tmp/ccCnP6rB.s:28899  .debug_loc:0000000000002243 .LLST282
     /tmp/ccCnP6rB.s:28907  .debug_loc:0000000000002267 .LLST283
     /tmp/ccCnP6rB.s:9506   .text:00000000000031b0 .LVL1165
     /tmp/ccCnP6rB.s:9514   .text:00000000000031b8 .LBB561
     /tmp/ccCnP6rB.s:9534   .text:00000000000031d8 .LBE561
     /tmp/ccCnP6rB.s:28914  .debug_loc:000000000000228a .LLST284
     /tmp/ccCnP6rB.s:28921  .debug_loc:00000000000022ad .LLST285
     /tmp/ccCnP6rB.s:9220   .text:0000000000002f40 .LVL1123
     /tmp/ccCnP6rB.s:9329   .text:000000000000302c .LVL1138
     /tmp/ccCnP6rB.s:9402   .text:00000000000030dc .LVL1148
     /tmp/ccCnP6rB.s:9461   .text:000000000000316c .LVL1156
     /tmp/ccCnP6rB.s:9539   .text:00000000000031e8 .LVL1171
     /tmp/ccCnP6rB.s:4239   .text:0000000000001010 .LFB76
     /tmp/ccCnP6rB.s:4430   .text:000000000000119c .LFE76
     /tmp/ccCnP6rB.s:28928  .debug_loc:00000000000022d0 .LLST115
     /tmp/ccCnP6rB.s:4260   .text:0000000000001030 .LBB256
     /tmp/ccCnP6rB.s:4411   .text:0000000000001180 .LBE256
     /tmp/ccCnP6rB.s:28946  .debug_loc:000000000000231c .LLST116
     /tmp/ccCnP6rB.s:28958  .debug_loc:0000000000002353 .LLST117
     /tmp/ccCnP6rB.s:4282   .text:000000000000104c .LBB260
     /tmp/ccCnP6rB.s:4295   .text:0000000000001060 .LBE260
     /tmp/ccCnP6rB.s:28974  .debug_loc:000000000000239d .LLST118
     /tmp/ccCnP6rB.s:4272   .text:0000000000001040 .LVL467
     /tmp/ccCnP6rB.s:4302   .text:0000000000001070 .LVL471
     /tmp/ccCnP6rB.s:4309   .text:0000000000001084 .LVL472
     /tmp/ccCnP6rB.s:4314   .text:0000000000001094 .LVL473
     /tmp/ccCnP6rB.s:4319   .text:00000000000010a4 .LVL474
     /tmp/ccCnP6rB.s:4326   .text:00000000000010b8 .LVL475
     /tmp/ccCnP6rB.s:4331   .text:00000000000010c8 .LVL476
GAS LISTING /tmp/ccCnP6rB.s 			page 358


     /tmp/ccCnP6rB.s:4342   .text:00000000000010e0 .LVL477
     /tmp/ccCnP6rB.s:4348   .text:00000000000010f0 .LVL478
     /tmp/ccCnP6rB.s:4362   .text:000000000000110c .LVL480
     /tmp/ccCnP6rB.s:4369   .text:0000000000001120 .LVL481
     /tmp/ccCnP6rB.s:4374   .text:0000000000001130 .LVL482
     /tmp/ccCnP6rB.s:4379   .text:0000000000001140 .LVL483
     /tmp/ccCnP6rB.s:4386   .text:0000000000001154 .LVL484
     /tmp/ccCnP6rB.s:4391   .text:0000000000001164 .LVL485
     /tmp/ccCnP6rB.s:4406   .text:000000000000117c .LVL487
     /tmp/ccCnP6rB.s:31747  .debug_str:000000000000000b .LASF274
     /tmp/ccCnP6rB.s:32285  .debug_str:0000000000000dbf .LASF275
     /tmp/ccCnP6rB.s:32199  .debug_str:0000000000000ba9 .LASF276
     /tmp/ccCnP6rB.s:9058   .text:0000000000002e6c .LFE72
     /tmp/ccCnP6rB.s:28985  .debug_loc:00000000000023d3 .LLST251
     /tmp/ccCnP6rB.s:8694   .text:0000000000002b8c .LBB517
     /tmp/ccCnP6rB.s:8784   .text:0000000000002c54 .LBE517
     /tmp/ccCnP6rB.s:29003  .debug_loc:0000000000002420 .LLST252
     /tmp/ccCnP6rB.s:8700   .text:0000000000002b94 .LBB518
     /tmp/ccCnP6rB.s:29031  .debug_loc:00000000000024a3 .LLST253
     /tmp/ccCnP6rB.s:29049  .debug_loc:00000000000024ef .LLST254
     /tmp/ccCnP6rB.s:8718   .text:0000000000002bcc .LVL1050
     /tmp/ccCnP6rB.s:8725   .text:0000000000002be0 .LVL1051
     /tmp/ccCnP6rB.s:8730   .text:0000000000002bf0 .LVL1052
     /tmp/ccCnP6rB.s:8739   .text:0000000000002c04 .LVL1054
     /tmp/ccCnP6rB.s:8777   .text:0000000000002c50 .LVL1060
     /tmp/ccCnP6rB.s:8746   .text:0000000000002c10 .LVL1055
     /tmp/ccCnP6rB.s:8767   .text:0000000000002c40 .LVL1058
     /tmp/ccCnP6rB.s:8856   .text:0000000000002cfc .LBB524
     /tmp/ccCnP6rB.s:8947   .text:0000000000002dc4 .LBE524
     /tmp/ccCnP6rB.s:29064  .debug_loc:0000000000002538 .LLST257
     /tmp/ccCnP6rB.s:8863   .text:0000000000002d04 .LBB525
     /tmp/ccCnP6rB.s:29084  .debug_loc:0000000000002595 .LLST258
     /tmp/ccCnP6rB.s:29102  .debug_loc:00000000000025e1 .LLST259
     /tmp/ccCnP6rB.s:8881   .text:0000000000002d3c .LVL1075
     /tmp/ccCnP6rB.s:8888   .text:0000000000002d50 .LVL1076
     /tmp/ccCnP6rB.s:8893   .text:0000000000002d60 .LVL1077
     /tmp/ccCnP6rB.s:8902   .text:0000000000002d74 .LVL1079
     /tmp/ccCnP6rB.s:8940   .text:0000000000002dc0 .LVL1085
     /tmp/ccCnP6rB.s:8909   .text:0000000000002d80 .LVL1080
     /tmp/ccCnP6rB.s:8930   .text:0000000000002db0 .LVL1083
     /tmp/ccCnP6rB.s:8949   .text:0000000000002dc4 .LBB529
     /tmp/ccCnP6rB.s:8970   .text:0000000000002de4 .LBE529
     /tmp/ccCnP6rB.s:29117  .debug_loc:000000000000262a .LLST260
     /tmp/ccCnP6rB.s:29125  .debug_loc:000000000000264e .LLST261
     /tmp/ccCnP6rB.s:29138  .debug_loc:0000000000002687 .LLST262
     /tmp/ccCnP6rB.s:29149  .debug_loc:00000000000026bd .LLST263
     /tmp/ccCnP6rB.s:8964   .text:0000000000002ddc .LVL1090
     /tmp/ccCnP6rB.s:8971   .text:0000000000002de4 .LBB530
     /tmp/ccCnP6rB.s:8990   .text:0000000000002e00 .LBE530
     /tmp/ccCnP6rB.s:29156  .debug_loc:00000000000026e0 .LLST264
     /tmp/ccCnP6rB.s:29164  .debug_loc:0000000000002704 .LLST265
     /tmp/ccCnP6rB.s:8983   .text:0000000000002df8 .LVL1094
     /tmp/ccCnP6rB.s:8991   .text:0000000000002e00 .LBB531
     /tmp/ccCnP6rB.s:9011   .text:0000000000002e20 .LBE531
     /tmp/ccCnP6rB.s:29171  .debug_loc:0000000000002727 .LLST266
     /tmp/ccCnP6rB.s:29178  .debug_loc:000000000000274a .LLST267
     /tmp/ccCnP6rB.s:8795   .text:0000000000002c64 .LBB522
GAS LISTING /tmp/ccCnP6rB.s 			page 359


     /tmp/ccCnP6rB.s:8841   .text:0000000000002ce0 .LBE522
     /tmp/ccCnP6rB.s:29185  .debug_loc:000000000000276d .LLST255
     /tmp/ccCnP6rB.s:29198  .debug_loc:00000000000027a5 .LLST256
     /tmp/ccCnP6rB.s:8799   .text:0000000000002c6c .LVL1064
     /tmp/ccCnP6rB.s:8817   .text:0000000000002ca8 .LVL1065
     /tmp/ccCnP6rB.s:8824   .text:0000000000002cbc .LVL1066
     /tmp/ccCnP6rB.s:8829   .text:0000000000002ccc .LVL1067
     /tmp/ccCnP6rB.s:8838   .text:0000000000002ce0 .LVL1069
     /tmp/ccCnP6rB.s:8750   .text:0000000000002c1c .LVL1056
     /tmp/ccCnP6rB.s:8790   .text:0000000000002c60 .LVL1062
     /tmp/ccCnP6rB.s:8845   .text:0000000000002cec .LVL1070
     /tmp/ccCnP6rB.s:8849   .text:0000000000002cf8 .LVL1071
     /tmp/ccCnP6rB.s:8913   .text:0000000000002d8c .LVL1081
     /tmp/ccCnP6rB.s:9016   .text:0000000000002e30 .LVL1100
     /tmp/ccCnP6rB.s:4039   .text:0000000000000e80 .LFB71
     /tmp/ccCnP6rB.s:4233   .text:0000000000001010 .LFE71
     /tmp/ccCnP6rB.s:29209  .debug_loc:00000000000027db .LLST111
     /tmp/ccCnP6rB.s:4060   .text:0000000000000ea0 .LBB248
     /tmp/ccCnP6rB.s:4214   .text:0000000000000ff4 .LBE248
     /tmp/ccCnP6rB.s:29227  .debug_loc:0000000000002827 .LLST112
     /tmp/ccCnP6rB.s:29239  .debug_loc:000000000000285e .LLST113
     /tmp/ccCnP6rB.s:4082   .text:0000000000000ebc .LBB252
     /tmp/ccCnP6rB.s:4095   .text:0000000000000ed0 .LBE252
     /tmp/ccCnP6rB.s:29255  .debug_loc:00000000000028a8 .LLST114
     /tmp/ccCnP6rB.s:4072   .text:0000000000000eb0 .LVL439
     /tmp/ccCnP6rB.s:4102   .text:0000000000000ee0 .LVL443
     /tmp/ccCnP6rB.s:4109   .text:0000000000000ef4 .LVL444
     /tmp/ccCnP6rB.s:4114   .text:0000000000000f04 .LVL445
     /tmp/ccCnP6rB.s:4119   .text:0000000000000f14 .LVL446
     /tmp/ccCnP6rB.s:4126   .text:0000000000000f28 .LVL447
     /tmp/ccCnP6rB.s:4131   .text:0000000000000f38 .LVL448
     /tmp/ccCnP6rB.s:4141   .text:0000000000000f4c .LVL449
     /tmp/ccCnP6rB.s:4146   .text:0000000000000f54 .LVL450
     /tmp/ccCnP6rB.s:4151   .text:0000000000000f64 .LVL451
     /tmp/ccCnP6rB.s:4165   .text:0000000000000f80 .LVL453
     /tmp/ccCnP6rB.s:4172   .text:0000000000000f94 .LVL454
     /tmp/ccCnP6rB.s:4177   .text:0000000000000fa4 .LVL455
     /tmp/ccCnP6rB.s:4182   .text:0000000000000fb4 .LVL456
     /tmp/ccCnP6rB.s:4189   .text:0000000000000fc8 .LVL457
     /tmp/ccCnP6rB.s:4194   .text:0000000000000fd8 .LVL458
     /tmp/ccCnP6rB.s:4209   .text:0000000000000ff0 .LVL460
     /tmp/ccCnP6rB.s:31863  .debug_str:0000000000000307 .LASF277
     /tmp/ccCnP6rB.s:31769  .debug_str:0000000000000097 .LASF278
     /tmp/ccCnP6rB.s:32271  .debug_str:0000000000000d6e .LASF279
     /tmp/ccCnP6rB.s:8620   .text:0000000000002b64 .LFE67
     /tmp/ccCnP6rB.s:29266  .debug_loc:00000000000028de .LLST237
     /tmp/ccCnP6rB.s:8340   .text:0000000000002930 .LBB493
     /tmp/ccCnP6rB.s:8512   .text:0000000000002ac4 .LBE493
     /tmp/ccCnP6rB.s:29299  .debug_loc:000000000000296a .LLST238
     /tmp/ccCnP6rB.s:8346   .text:0000000000002938 .LBB494
     /tmp/ccCnP6rB.s:29327  .debug_loc:00000000000029ed .LLST239
     /tmp/ccCnP6rB.s:29345  .debug_loc:0000000000002a39 .LLST240
     /tmp/ccCnP6rB.s:8364   .text:0000000000002970 .LVL1001
     /tmp/ccCnP6rB.s:8371   .text:0000000000002984 .LVL1002
     /tmp/ccCnP6rB.s:8376   .text:0000000000002994 .LVL1003
     /tmp/ccCnP6rB.s:8385   .text:00000000000029a8 .LVL1005
     /tmp/ccCnP6rB.s:8431   .text:0000000000002a04 .LVL1011
GAS LISTING /tmp/ccCnP6rB.s 			page 360


     /tmp/ccCnP6rB.s:8447   .text:0000000000002a18 .LBB498
     /tmp/ccCnP6rB.s:8495   .text:0000000000002a98 .LBE498
     /tmp/ccCnP6rB.s:29364  .debug_loc:0000000000002a95 .LLST241
     /tmp/ccCnP6rB.s:29377  .debug_loc:0000000000002acd .LLST242
     /tmp/ccCnP6rB.s:8453   .text:0000000000002a24 .LVL1015
     /tmp/ccCnP6rB.s:8471   .text:0000000000002a60 .LVL1016
     /tmp/ccCnP6rB.s:8478   .text:0000000000002a74 .LVL1017
     /tmp/ccCnP6rB.s:8483   .text:0000000000002a84 .LVL1018
     /tmp/ccCnP6rB.s:8492   .text:0000000000002a98 .LVL1020
     /tmp/ccCnP6rB.s:8392   .text:00000000000029b4 .LVL1006
     /tmp/ccCnP6rB.s:8421   .text:00000000000029f4 .LVL1009
     /tmp/ccCnP6rB.s:8443   .text:0000000000002a14 .LVL1013
     /tmp/ccCnP6rB.s:8499   .text:0000000000002aa4 .LVL1021
     /tmp/ccCnP6rB.s:8515   .text:0000000000002ac4 .LBB500
     /tmp/ccCnP6rB.s:8535   .text:0000000000002ae4 .LBE500
     /tmp/ccCnP6rB.s:29392  .debug_loc:0000000000002b16 .LLST243
     /tmp/ccCnP6rB.s:29400  .debug_loc:0000000000002b3a .LLST244
     /tmp/ccCnP6rB.s:29431  .debug_loc:0000000000002bb4 .LLST245
     /tmp/ccCnP6rB.s:29444  .debug_loc:0000000000002bed .LLST246
     /tmp/ccCnP6rB.s:8529   .text:0000000000002adc .LVL1027
     /tmp/ccCnP6rB.s:8536   .text:0000000000002ae4 .LBB501
     /tmp/ccCnP6rB.s:8554   .text:0000000000002b00 .LBE501
     /tmp/ccCnP6rB.s:29463  .debug_loc:0000000000002c3b .LLST247
     /tmp/ccCnP6rB.s:29471  .debug_loc:0000000000002c5f .LLST248
     /tmp/ccCnP6rB.s:8548   .text:0000000000002af8 .LVL1031
     /tmp/ccCnP6rB.s:8555   .text:0000000000002b00 .LBB502
     /tmp/ccCnP6rB.s:8581   .text:0000000000002b28 .LBE502
     /tmp/ccCnP6rB.s:29478  .debug_loc:0000000000002c82 .LLST249
     /tmp/ccCnP6rB.s:29485  .debug_loc:0000000000002ca5 .LLST250
     /tmp/ccCnP6rB.s:8396   .text:00000000000029c0 .LVL1007
     /tmp/ccCnP6rB.s:8503   .text:0000000000002ab0 .LVL1022
     /tmp/ccCnP6rB.s:8586   .text:0000000000002b38 .LVL1038
     /tmp/ccCnP6rB.s:3838   .text:0000000000000cec .LFB66
     /tmp/ccCnP6rB.s:4033   .text:0000000000000e80 .LFE66
     /tmp/ccCnP6rB.s:29492  .debug_loc:0000000000002cc8 .LLST107
     /tmp/ccCnP6rB.s:3859   .text:0000000000000d0c .LBB240
     /tmp/ccCnP6rB.s:4014   .text:0000000000000e64 .LBE240
     /tmp/ccCnP6rB.s:29510  .debug_loc:0000000000002d14 .LLST108
     /tmp/ccCnP6rB.s:29522  .debug_loc:0000000000002d4b .LLST109
     /tmp/ccCnP6rB.s:3881   .text:0000000000000d28 .LBB244
     /tmp/ccCnP6rB.s:3894   .text:0000000000000d3c .LBE244
     /tmp/ccCnP6rB.s:29538  .debug_loc:0000000000002d95 .LLST110
     /tmp/ccCnP6rB.s:3871   .text:0000000000000d1c .LVL411
     /tmp/ccCnP6rB.s:3901   .text:0000000000000d4c .LVL415
     /tmp/ccCnP6rB.s:3908   .text:0000000000000d60 .LVL416
     /tmp/ccCnP6rB.s:3913   .text:0000000000000d70 .LVL417
     /tmp/ccCnP6rB.s:3918   .text:0000000000000d80 .LVL418
     /tmp/ccCnP6rB.s:3925   .text:0000000000000d94 .LVL419
     /tmp/ccCnP6rB.s:3930   .text:0000000000000da4 .LVL420
     /tmp/ccCnP6rB.s:3941   .text:0000000000000dbc .LVL421
     /tmp/ccCnP6rB.s:3946   .text:0000000000000dc4 .LVL422
     /tmp/ccCnP6rB.s:3951   .text:0000000000000dd4 .LVL423
     /tmp/ccCnP6rB.s:3965   .text:0000000000000df0 .LVL425
     /tmp/ccCnP6rB.s:3972   .text:0000000000000e04 .LVL426
     /tmp/ccCnP6rB.s:3977   .text:0000000000000e14 .LVL427
     /tmp/ccCnP6rB.s:3982   .text:0000000000000e24 .LVL428
     /tmp/ccCnP6rB.s:3989   .text:0000000000000e38 .LVL429
GAS LISTING /tmp/ccCnP6rB.s 			page 361


     /tmp/ccCnP6rB.s:3994   .text:0000000000000e48 .LVL430
     /tmp/ccCnP6rB.s:4009   .text:0000000000000e60 .LVL432
     /tmp/ccCnP6rB.s:32247  .debug_str:0000000000000cd6 .LASF280
     /tmp/ccCnP6rB.s:32325  .debug_str:0000000000000fac .LASF281
     /tmp/ccCnP6rB.s:31775  .debug_str:00000000000000c1 .LASF282
     /tmp/ccCnP6rB.s:8268   .text:0000000000002914 .LFE62
     /tmp/ccCnP6rB.s:32143  .debug_str:0000000000000a2b .LASF283
     /tmp/ccCnP6rB.s:8085   .text:00000000000027c8 .LBB475
     /tmp/ccCnP6rB.s:8163   .text:000000000000286c .LBE475
     /tmp/ccCnP6rB.s:29549  .debug_loc:0000000000002dcb .LLST229
     /tmp/ccCnP6rB.s:8091   .text:00000000000027d0 .LBB476
     /tmp/ccCnP6rB.s:29569  .debug_loc:0000000000002e28 .LLST230
     /tmp/ccCnP6rB.s:8108   .text:0000000000002804 .LVL970
     /tmp/ccCnP6rB.s:8117   .text:0000000000002818 .LVL972
     /tmp/ccCnP6rB.s:8156   .text:0000000000002868 .LVL978
     /tmp/ccCnP6rB.s:8124   .text:0000000000002824 .LVL973
     /tmp/ccCnP6rB.s:8146   .text:0000000000002858 .LVL976
     /tmp/ccCnP6rB.s:8164   .text:000000000000286c .LBB480
     /tmp/ccCnP6rB.s:8183   .text:000000000000288c .LBE480
     /tmp/ccCnP6rB.s:29584  .debug_loc:0000000000002e71 .LLST231
     /tmp/ccCnP6rB.s:29591  .debug_loc:0000000000002e94 .LLST232
     /tmp/ccCnP6rB.s:8175   .text:0000000000002880 .LVL981
     /tmp/ccCnP6rB.s:8184   .text:000000000000288c .LBB481
     /tmp/ccCnP6rB.s:8203   .text:00000000000028ac .LBE481
     /tmp/ccCnP6rB.s:29598  .debug_loc:0000000000002eb7 .LLST233
     /tmp/ccCnP6rB.s:29605  .debug_loc:0000000000002eda .LLST234
     /tmp/ccCnP6rB.s:8195   .text:00000000000028a0 .LVL985
     /tmp/ccCnP6rB.s:8204   .text:00000000000028ac .LBB482
     /tmp/ccCnP6rB.s:8232   .text:00000000000028d8 .LBE482
     /tmp/ccCnP6rB.s:29612  .debug_loc:0000000000002efd .LLST235
     /tmp/ccCnP6rB.s:29623  .debug_loc:0000000000002f33 .LLST236
     /tmp/ccCnP6rB.s:8036   .text:0000000000002754 .LBB473
     /tmp/ccCnP6rB.s:8067   .text:00000000000027a4 .LBE473
     /tmp/ccCnP6rB.s:29630  .debug_loc:0000000000002f56 .LLST228
     /tmp/ccCnP6rB.s:8040   .text:000000000000275c .LVL963
     /tmp/ccCnP6rB.s:8056   .text:0000000000002790 .LVL964
     /tmp/ccCnP6rB.s:8064   .text:00000000000027a4 .LVL965
     /tmp/ccCnP6rB.s:8031   .text:0000000000002750 .LVL961
     /tmp/ccCnP6rB.s:8071   .text:00000000000027b0 .LVL966
     /tmp/ccCnP6rB.s:8075   .text:00000000000027bc .LVL967
     /tmp/ccCnP6rB.s:8128   .text:0000000000002830 .LVL974
     /tmp/ccCnP6rB.s:8237   .text:00000000000028e8 .LVL993
     /tmp/ccCnP6rB.s:3735   .text._ZN2B73runEv:0000000000000000 .LFB61
     /tmp/ccCnP6rB.s:3831   .text._ZN2B73runEv:00000000000000ac .LFE61
     /tmp/ccCnP6rB.s:29641  .debug_loc:0000000000002f8c .LLST104
     /tmp/ccCnP6rB.s:3759   .text._ZN2B73runEv:000000000000002c .LBB236
     /tmp/ccCnP6rB.s:3794   .text._ZN2B73runEv:000000000000005c .LBE236
     /tmp/ccCnP6rB.s:29659  .debug_loc:0000000000002fd8 .LLST105
     /tmp/ccCnP6rB.s:3779   .text._ZN2B73runEv:0000000000000048 .LBB238
     /tmp/ccCnP6rB.s:3792   .text._ZN2B73runEv:000000000000005c .LBE238
     /tmp/ccCnP6rB.s:29671  .debug_loc:000000000000300f .LLST106
     /tmp/ccCnP6rB.s:3769   .text._ZN2B73runEv:000000000000003c .LVL398
     /tmp/ccCnP6rB.s:3757   .text._ZN2B73runEv:000000000000002c .LVL396
     /tmp/ccCnP6rB.s:3799   .text._ZN2B73runEv:000000000000006c .LVL402
     /tmp/ccCnP6rB.s:3805   .text._ZN2B73runEv:000000000000007c .LVL403
     /tmp/ccCnP6rB.s:3810   .text._ZN2B73runEv:000000000000008c .LVL404
     /tmp/ccCnP6rB.s:3814   .text._ZN2B73runEv:0000000000000094 .LVL405
GAS LISTING /tmp/ccCnP6rB.s 			page 362


     /tmp/ccCnP6rB.s:32277  .debug_str:0000000000000d91 .LASF284
     /tmp/ccCnP6rB.s:3622   .text._ZN2A73runEv:0000000000000000 .LFB57
     /tmp/ccCnP6rB.s:3718   .text._ZN2A73runEv:00000000000000ac .LFE57
     /tmp/ccCnP6rB.s:29682  .debug_loc:0000000000003045 .LLST101
     /tmp/ccCnP6rB.s:3646   .text._ZN2A73runEv:000000000000002c .LBB232
     /tmp/ccCnP6rB.s:3681   .text._ZN2A73runEv:000000000000005c .LBE232
     /tmp/ccCnP6rB.s:29700  .debug_loc:0000000000003091 .LLST102
     /tmp/ccCnP6rB.s:3666   .text._ZN2A73runEv:0000000000000048 .LBB234
     /tmp/ccCnP6rB.s:3679   .text._ZN2A73runEv:000000000000005c .LBE234
     /tmp/ccCnP6rB.s:29712  .debug_loc:00000000000030c8 .LLST103
     /tmp/ccCnP6rB.s:3656   .text._ZN2A73runEv:000000000000003c .LVL384
     /tmp/ccCnP6rB.s:3644   .text._ZN2A73runEv:000000000000002c .LVL382
     /tmp/ccCnP6rB.s:3686   .text._ZN2A73runEv:000000000000006c .LVL388
     /tmp/ccCnP6rB.s:3692   .text._ZN2A73runEv:000000000000007c .LVL389
     /tmp/ccCnP6rB.s:3697   .text._ZN2A73runEv:000000000000008c .LVL390
     /tmp/ccCnP6rB.s:3701   .text._ZN2A73runEv:0000000000000094 .LVL391
     /tmp/ccCnP6rB.s:31811  .debug_str:00000000000001b2 .LASF285
     /tmp/ccCnP6rB.s:32131  .debug_str:00000000000009d5 .LASF286
     /tmp/ccCnP6rB.s:32315  .debug_str:0000000000000f4e .LASF287
     /tmp/ccCnP6rB.s:7962   .text:0000000000002728 .LFE53
     /tmp/ccCnP6rB.s:32261  .debug_str:0000000000000d38 .LASF288
     /tmp/ccCnP6rB.s:7773   .text:00000000000025cc .LBB455
     /tmp/ccCnP6rB.s:7861   .text:0000000000002688 .LBE455
     /tmp/ccCnP6rB.s:29723  .debug_loc:00000000000030fe .LLST219
     /tmp/ccCnP6rB.s:29742  .debug_loc:000000000000315a .LLST220
     /tmp/ccCnP6rB.s:7779   .text:00000000000025d4 .LBB456
     /tmp/ccCnP6rB.s:29757  .debug_loc:00000000000031a3 .LLST221
     /tmp/ccCnP6rB.s:7796   .text:0000000000002608 .LVL930
     /tmp/ccCnP6rB.s:7803   .text:000000000000261c .LVL931
     /tmp/ccCnP6rB.s:7808   .text:000000000000262c .LVL932
     /tmp/ccCnP6rB.s:7817   .text:0000000000002640 .LVL934
     /tmp/ccCnP6rB.s:7854   .text:0000000000002684 .LVL941
     /tmp/ccCnP6rB.s:7824   .text:000000000000264c .LVL935
     /tmp/ccCnP6rB.s:7844   .text:0000000000002674 .LVL939
     /tmp/ccCnP6rB.s:7862   .text:0000000000002688 .LBB460
     /tmp/ccCnP6rB.s:7881   .text:00000000000026a8 .LBE460
     /tmp/ccCnP6rB.s:29772  .debug_loc:00000000000031ec .LLST222
     /tmp/ccCnP6rB.s:29779  .debug_loc:000000000000320f .LLST223
     /tmp/ccCnP6rB.s:7873   .text:000000000000269c .LVL944
     /tmp/ccCnP6rB.s:7882   .text:00000000000026a8 .LBB461
     /tmp/ccCnP6rB.s:7901   .text:00000000000026c8 .LBE461
     /tmp/ccCnP6rB.s:29786  .debug_loc:0000000000003232 .LLST224
     /tmp/ccCnP6rB.s:29793  .debug_loc:0000000000003255 .LLST225
     /tmp/ccCnP6rB.s:7893   .text:00000000000026bc .LVL948
     /tmp/ccCnP6rB.s:7902   .text:00000000000026c8 .LBB462
     /tmp/ccCnP6rB.s:7930   .text:00000000000026f4 .LBE462
     /tmp/ccCnP6rB.s:29800  .debug_loc:0000000000003278 .LLST226
     /tmp/ccCnP6rB.s:29811  .debug_loc:00000000000032ae .LLST227
     /tmp/ccCnP6rB.s:7771   .text:00000000000025cc .LVL928
     /tmp/ccCnP6rB.s:7828   .text:0000000000002658 .LVL936
     /tmp/ccCnP6rB.s:7935   .text:0000000000002704 .LVL956
     /tmp/ccCnP6rB.s:130    .text:0000000000000094 .LFB52
     /tmp/ccCnP6rB.s:296    .text:00000000000001ec .LFE52
     /tmp/ccCnP6rB.s:29818  .debug_loc:00000000000032d1 .LLST3
     /tmp/ccCnP6rB.s:168    .text:00000000000000e8 .LBB102
     /tmp/ccCnP6rB.s:260    .text:000000000000019c .LBE102
     /tmp/ccCnP6rB.s:29836  .debug_loc:000000000000331d .LLST4
GAS LISTING /tmp/ccCnP6rB.s 			page 363


     /tmp/ccCnP6rB.s:29848  .debug_loc:0000000000003354 .LLST5
     /tmp/ccCnP6rB.s:191    .text:0000000000000108 .LBB106
     /tmp/ccCnP6rB.s:205    .text:0000000000000120 .LBE106
     /tmp/ccCnP6rB.s:29860  .debug_loc:000000000000338b .LLST6
     /tmp/ccCnP6rB.s:180    .text:00000000000000f8 .LVL18
     /tmp/ccCnP6rB.s:221    .text:000000000000013c .LVL23
     /tmp/ccCnP6rB.s:228    .text:0000000000000150 .LVL24
     /tmp/ccCnP6rB.s:233    .text:0000000000000160 .LVL25
     /tmp/ccCnP6rB.s:238    .text:0000000000000170 .LVL26
     /tmp/ccCnP6rB.s:245    .text:0000000000000184 .LVL27
     /tmp/ccCnP6rB.s:250    .text:0000000000000194 .LVL28
     /tmp/ccCnP6rB.s:154    .text:00000000000000c4 .LVL14
     /tmp/ccCnP6rB.s:161    .text:00000000000000d8 .LVL15
     /tmp/ccCnP6rB.s:166    .text:00000000000000e8 .LVL16
     /tmp/ccCnP6rB.s:265    .text:00000000000001ac .LVL30
     /tmp/ccCnP6rB.s:272    .text:00000000000001c0 .LVL31
     /tmp/ccCnP6rB.s:277    .text:00000000000001d0 .LVL32
     /tmp/ccCnP6rB.s:32283  .debug_str:0000000000000db4 .LASF289
     /tmp/ccCnP6rB.s:31979  .debug_str:0000000000000607 .LASF290
     /tmp/ccCnP6rB.s:32075  .debug_str:0000000000000879 .LASF291
     /tmp/ccCnP6rB.s:7709   .text:00000000000025a4 .LFE48
     /tmp/ccCnP6rB.s:29871  .debug_loc:00000000000033c1 .LLST217
     /tmp/ccCnP6rB.s:7609   .text:00000000000024bc .LBB446
     /tmp/ccCnP6rB.s:7652   .text:0000000000002530 .LBE446
     /tmp/ccCnP6rB.s:29878  .debug_loc:00000000000033e4 .LLST218
     /tmp/ccCnP6rB.s:7613   .text:00000000000024c4 .LVL915
     /tmp/ccCnP6rB.s:7629   .text:00000000000024f8 .LVL916
     /tmp/ccCnP6rB.s:7636   .text:000000000000250c .LVL917
     /tmp/ccCnP6rB.s:7641   .text:000000000000251c .LVL918
     /tmp/ccCnP6rB.s:7649   .text:0000000000002530 .LVL919
     /tmp/ccCnP6rB.s:7604   .text:00000000000024b8 .LVL913
     /tmp/ccCnP6rB.s:7656   .text:000000000000253c .LVL920
     /tmp/ccCnP6rB.s:7660   .text:0000000000002548 .LVL921
     /tmp/ccCnP6rB.s:7666   .text:0000000000002554 .LVL922
     /tmp/ccCnP6rB.s:7671   .text:0000000000002560 .LVL923
     /tmp/ccCnP6rB.s:7680   .text:0000000000002574 .LVL924
     /tmp/ccCnP6rB.s:7686   .text:0000000000002584 .LVL925
     /tmp/ccCnP6rB.s:21     .text:0000000000000000 .LFB47
     /tmp/ccCnP6rB.s:107    .text:0000000000000094 .LFE47
     /tmp/ccCnP6rB.s:29889  .debug_loc:000000000000341a .LLST0
     /tmp/ccCnP6rB.s:48     .text:0000000000000034 .LBB98
     /tmp/ccCnP6rB.s:84     .text:0000000000000068 .LBE98
     /tmp/ccCnP6rB.s:29903  .debug_loc:0000000000003453 .LLST1
     /tmp/ccCnP6rB.s:68     .text:0000000000000050 .LBB100
     /tmp/ccCnP6rB.s:82     .text:0000000000000068 .LBE100
     /tmp/ccCnP6rB.s:29915  .debug_loc:000000000000348a .LLST2
     /tmp/ccCnP6rB.s:58     .text:0000000000000044 .LVL5
     /tmp/ccCnP6rB.s:41     .text:0000000000000024 .LVL2
     /tmp/ccCnP6rB.s:46     .text:0000000000000034 .LVL3
     /tmp/ccCnP6rB.s:89     .text:0000000000000078 .LVL9
     /tmp/ccCnP6rB.s:93     .text:0000000000000080 .LVL10
     /tmp/ccCnP6rB.s:6253   .text:0000000000001c90 .LFE46
     /tmp/ccCnP6rB.s:29926  .debug_loc:00000000000034c0 .LLST157
     /tmp/ccCnP6rB.s:29940  .debug_loc:00000000000034f9 .LLST158
     /tmp/ccCnP6rB.s:29951  .debug_loc:000000000000352f .LLST159
     /tmp/ccCnP6rB.s:29962  .debug_loc:0000000000003565 .LLST160
     /tmp/ccCnP6rB.s:6170   .text:0000000000001c0c .LBB362
GAS LISTING /tmp/ccCnP6rB.s 			page 364


     /tmp/ccCnP6rB.s:6206   .text:0000000000001c40 .LBE362
     /tmp/ccCnP6rB.s:29969  .debug_loc:0000000000003588 .LLST164
     /tmp/ccCnP6rB.s:6190   .text:0000000000001c28 .LBB364
     /tmp/ccCnP6rB.s:6204   .text:0000000000001c40 .LBE364
     /tmp/ccCnP6rB.s:29981  .debug_loc:00000000000035bf .LLST165
     /tmp/ccCnP6rB.s:6180   .text:0000000000001c1c .LVL716
     /tmp/ccCnP6rB.s:5970   .text:0000000000001a14 .LBB356
     /tmp/ccCnP6rB.s:6013   .text:0000000000001a88 .LBE356
     /tmp/ccCnP6rB.s:29992  .debug_loc:00000000000035f5 .LLST161
     /tmp/ccCnP6rB.s:5974   .text:0000000000001a1c .LVL686
     /tmp/ccCnP6rB.s:5990   .text:0000000000001a50 .LVL687
     /tmp/ccCnP6rB.s:5997   .text:0000000000001a64 .LVL688
     /tmp/ccCnP6rB.s:6002   .text:0000000000001a74 .LVL689
     /tmp/ccCnP6rB.s:6010   .text:0000000000001a88 .LVL690
     /tmp/ccCnP6rB.s:6032   .text:0000000000001ab0 .LBB358
     /tmp/ccCnP6rB.s:6076   .text:0000000000001b24 .LBE358
     /tmp/ccCnP6rB.s:30007  .debug_loc:000000000000363e .LLST162
     /tmp/ccCnP6rB.s:6036   .text:0000000000001ab8 .LVL695
     /tmp/ccCnP6rB.s:6053   .text:0000000000001aec .LVL696
     /tmp/ccCnP6rB.s:6060   .text:0000000000001b00 .LVL697
     /tmp/ccCnP6rB.s:6065   .text:0000000000001b10 .LVL698
     /tmp/ccCnP6rB.s:6073   .text:0000000000001b24 .LVL699
     /tmp/ccCnP6rB.s:6095   .text:0000000000001b4c .LBB360
     /tmp/ccCnP6rB.s:6139   .text:0000000000001bc0 .LBE360
     /tmp/ccCnP6rB.s:30022  .debug_loc:0000000000003687 .LLST163
     /tmp/ccCnP6rB.s:6099   .text:0000000000001b54 .LVL704
     /tmp/ccCnP6rB.s:6116   .text:0000000000001b88 .LVL705
     /tmp/ccCnP6rB.s:6123   .text:0000000000001b9c .LVL706
     /tmp/ccCnP6rB.s:6128   .text:0000000000001bac .LVL707
     /tmp/ccCnP6rB.s:6136   .text:0000000000001bc0 .LVL708
     /tmp/ccCnP6rB.s:5965   .text:0000000000001a10 .LVL684
     /tmp/ccCnP6rB.s:6017   .text:0000000000001a94 .LVL691
     /tmp/ccCnP6rB.s:6021   .text:0000000000001aa0 .LVL692
     /tmp/ccCnP6rB.s:6027   .text:0000000000001aac .LVL693
     /tmp/ccCnP6rB.s:6080   .text:0000000000001b30 .LVL700
     /tmp/ccCnP6rB.s:6084   .text:0000000000001b3c .LVL701
     /tmp/ccCnP6rB.s:6090   .text:0000000000001b48 .LVL702
     /tmp/ccCnP6rB.s:6143   .text:0000000000001bcc .LVL709
     /tmp/ccCnP6rB.s:6147   .text:0000000000001bd8 .LVL710
     /tmp/ccCnP6rB.s:6153   .text:0000000000001be4 .LVL711
     /tmp/ccCnP6rB.s:6158   .text:0000000000001bf0 .LVL712
     /tmp/ccCnP6rB.s:6163   .text:0000000000001bfc .LVL713
     /tmp/ccCnP6rB.s:6168   .text:0000000000001c0c .LVL714
     /tmp/ccCnP6rB.s:6210   .text:0000000000001c48 .LVL720
     /tmp/ccCnP6rB.s:6215   .text:0000000000001c58 .LVL721
     /tmp/ccCnP6rB.s:5863   .text:00000000000019e4 .LFE45
     /tmp/ccCnP6rB.s:30037  .debug_loc:00000000000036d0 .LLST146
     /tmp/ccCnP6rB.s:30051  .debug_loc:0000000000003709 .LLST147
     /tmp/ccCnP6rB.s:30062  .debug_loc:000000000000373f .LLST148
     /tmp/ccCnP6rB.s:30073  .debug_loc:0000000000003775 .LLST149
     /tmp/ccCnP6rB.s:30084  .debug_loc:00000000000037ab .LLST150
     /tmp/ccCnP6rB.s:5773   .text:0000000000001954 .LBB340
     /tmp/ccCnP6rB.s:5809   .text:0000000000001988 .LBE340
     /tmp/ccCnP6rB.s:30091  .debug_loc:00000000000037ce .LLST155
     /tmp/ccCnP6rB.s:5793   .text:0000000000001970 .LBB342
     /tmp/ccCnP6rB.s:5807   .text:0000000000001988 .LBE342
     /tmp/ccCnP6rB.s:30103  .debug_loc:0000000000003805 .LLST156
GAS LISTING /tmp/ccCnP6rB.s 			page 365


     /tmp/ccCnP6rB.s:5783   .text:0000000000001964 .LVL667
     /tmp/ccCnP6rB.s:5505   .text:00000000000016b4 .LBB332
     /tmp/ccCnP6rB.s:5548   .text:0000000000001728 .LBE332
     /tmp/ccCnP6rB.s:30114  .debug_loc:000000000000383b .LLST151
     /tmp/ccCnP6rB.s:5509   .text:00000000000016bc .LVL627
     /tmp/ccCnP6rB.s:5525   .text:00000000000016f0 .LVL628
     /tmp/ccCnP6rB.s:5532   .text:0000000000001704 .LVL629
     /tmp/ccCnP6rB.s:5537   .text:0000000000001714 .LVL630
     /tmp/ccCnP6rB.s:5545   .text:0000000000001728 .LVL631
     /tmp/ccCnP6rB.s:5567   .text:0000000000001750 .LBB334
     /tmp/ccCnP6rB.s:5611   .text:00000000000017c4 .LBE334
     /tmp/ccCnP6rB.s:30129  .debug_loc:0000000000003884 .LLST152
     /tmp/ccCnP6rB.s:5571   .text:0000000000001758 .LVL636
     /tmp/ccCnP6rB.s:5588   .text:000000000000178c .LVL637
     /tmp/ccCnP6rB.s:5595   .text:00000000000017a0 .LVL638
     /tmp/ccCnP6rB.s:5600   .text:00000000000017b0 .LVL639
     /tmp/ccCnP6rB.s:5608   .text:00000000000017c4 .LVL640
     /tmp/ccCnP6rB.s:5630   .text:00000000000017ec .LBB336
     /tmp/ccCnP6rB.s:5674   .text:0000000000001860 .LBE336
     /tmp/ccCnP6rB.s:30144  .debug_loc:00000000000038cd .LLST153
     /tmp/ccCnP6rB.s:5634   .text:00000000000017f4 .LVL645
     /tmp/ccCnP6rB.s:5651   .text:0000000000001828 .LVL646
     /tmp/ccCnP6rB.s:5658   .text:000000000000183c .LVL647
     /tmp/ccCnP6rB.s:5663   .text:000000000000184c .LVL648
     /tmp/ccCnP6rB.s:5671   .text:0000000000001860 .LVL649
     /tmp/ccCnP6rB.s:5693   .text:0000000000001888 .LBB338
     /tmp/ccCnP6rB.s:5737   .text:00000000000018fc .LBE338
     /tmp/ccCnP6rB.s:30159  .debug_loc:0000000000003916 .LLST154
     /tmp/ccCnP6rB.s:5697   .text:0000000000001890 .LVL654
     /tmp/ccCnP6rB.s:5714   .text:00000000000018c4 .LVL655
     /tmp/ccCnP6rB.s:5721   .text:00000000000018d8 .LVL656
     /tmp/ccCnP6rB.s:5726   .text:00000000000018e8 .LVL657
     /tmp/ccCnP6rB.s:5734   .text:00000000000018fc .LVL658
     /tmp/ccCnP6rB.s:5500   .text:00000000000016b0 .LVL625
     /tmp/ccCnP6rB.s:5552   .text:0000000000001734 .LVL632
     /tmp/ccCnP6rB.s:5556   .text:0000000000001740 .LVL633
     /tmp/ccCnP6rB.s:5562   .text:000000000000174c .LVL634
     /tmp/ccCnP6rB.s:5615   .text:00000000000017d0 .LVL641
     /tmp/ccCnP6rB.s:5619   .text:00000000000017dc .LVL642
     /tmp/ccCnP6rB.s:5625   .text:00000000000017e8 .LVL643
     /tmp/ccCnP6rB.s:5678   .text:000000000000186c .LVL650
     /tmp/ccCnP6rB.s:5682   .text:0000000000001878 .LVL651
     /tmp/ccCnP6rB.s:5688   .text:0000000000001884 .LVL652
     /tmp/ccCnP6rB.s:5741   .text:0000000000001908 .LVL659
     /tmp/ccCnP6rB.s:5745   .text:0000000000001914 .LVL660
     /tmp/ccCnP6rB.s:5751   .text:0000000000001920 .LVL661
     /tmp/ccCnP6rB.s:5756   .text:000000000000192c .LVL662
     /tmp/ccCnP6rB.s:5761   .text:0000000000001938 .LVL663
     /tmp/ccCnP6rB.s:5766   .text:0000000000001944 .LVL664
     /tmp/ccCnP6rB.s:5771   .text:0000000000001954 .LVL665
     /tmp/ccCnP6rB.s:5813   .text:0000000000001990 .LVL671
     /tmp/ccCnP6rB.s:5818   .text:00000000000019a0 .LVL672
     /tmp/ccCnP6rB.s:31985  .debug_str:000000000000062d .LASF292
     /tmp/ccCnP6rB.s:32273  .debug_str:0000000000000d7a .LASF293
     /tmp/ccCnP6rB.s:31849  .debug_str:00000000000002b0 .LASF294
     /tmp/ccCnP6rB.s:32005  .debug_str:00000000000006aa .LASF295
     /tmp/ccCnP6rB.s:32313  .debug_str:0000000000000f38 .LASF296
GAS LISTING /tmp/ccCnP6rB.s 			page 366


     /tmp/ccCnP6rB.s:7524   .text:0000000000002494 .LFE35
     /tmp/ccCnP6rB.s:30174  .debug_loc:000000000000395f .LLST202
     /tmp/ccCnP6rB.s:30193  .debug_loc:00000000000039bb .LLST203
     /tmp/ccCnP6rB.s:30208  .debug_loc:0000000000003a04 .LLST204
     /tmp/ccCnP6rB.s:7200   .text:00000000000021d8 .LBB431
     /tmp/ccCnP6rB.s:7245   .text:0000000000002254 .LBE431
     /tmp/ccCnP6rB.s:30215  .debug_loc:0000000000003a27 .LLST205
     /tmp/ccCnP6rB.s:7204   .text:00000000000021e0 .LVL865
     /tmp/ccCnP6rB.s:7222   .text:000000000000221c .LVL866
     /tmp/ccCnP6rB.s:7229   .text:0000000000002230 .LVL867
     /tmp/ccCnP6rB.s:7234   .text:0000000000002240 .LVL868
     /tmp/ccCnP6rB.s:7242   .text:0000000000002254 .LVL869
     /tmp/ccCnP6rB.s:7264   .text:000000000000227c .LBB433
     /tmp/ccCnP6rB.s:7311   .text:00000000000022f8 .LBE433
     /tmp/ccCnP6rB.s:30230  .debug_loc:0000000000003a70 .LLST206
     /tmp/ccCnP6rB.s:7268   .text:0000000000002284 .LVL874
     /tmp/ccCnP6rB.s:7287   .text:00000000000022c0 .LVL875
     /tmp/ccCnP6rB.s:7294   .text:00000000000022d4 .LVL876
     /tmp/ccCnP6rB.s:7299   .text:00000000000022e4 .LVL877
     /tmp/ccCnP6rB.s:7308   .text:00000000000022f8 .LVL879
     /tmp/ccCnP6rB.s:7330   .text:0000000000002320 .LBB435
     /tmp/ccCnP6rB.s:7377   .text:000000000000239c .LBE435
     /tmp/ccCnP6rB.s:30241  .debug_loc:0000000000003aa6 .LLST207
     /tmp/ccCnP6rB.s:7334   .text:0000000000002328 .LVL884
     /tmp/ccCnP6rB.s:7353   .text:0000000000002364 .LVL885
     /tmp/ccCnP6rB.s:7360   .text:0000000000002378 .LVL886
     /tmp/ccCnP6rB.s:7365   .text:0000000000002388 .LVL887
     /tmp/ccCnP6rB.s:7374   .text:000000000000239c .LVL889
     /tmp/ccCnP6rB.s:7388   .text:00000000000023b4 .LBB437
     /tmp/ccCnP6rB.s:7398   .text:00000000000023bc .LBE437
     /tmp/ccCnP6rB.s:30256  .debug_loc:0000000000003aef .LLST208
     /tmp/ccCnP6rB.s:30263  .debug_loc:0000000000003b12 .LLST209
     /tmp/ccCnP6rB.s:30270  .debug_loc:0000000000003b35 .LLST210
     /tmp/ccCnP6rB.s:7400   .text:00000000000023bc .LBB439
     /tmp/ccCnP6rB.s:7410   .text:00000000000023c4 .LBE439
     /tmp/ccCnP6rB.s:30277  .debug_loc:0000000000003b58 .LLST211
     /tmp/ccCnP6rB.s:30285  .debug_loc:0000000000003b7c .LLST212
     /tmp/ccCnP6rB.s:30292  .debug_loc:0000000000003b9f .LLST213
     /tmp/ccCnP6rB.s:7412   .text:00000000000023c4 .LBB441
     /tmp/ccCnP6rB.s:7422   .text:00000000000023cc .LBE441
     /tmp/ccCnP6rB.s:30299  .debug_loc:0000000000003bc2 .LLST214
     /tmp/ccCnP6rB.s:30306  .debug_loc:0000000000003be5 .LLST215
     /tmp/ccCnP6rB.s:30313  .debug_loc:0000000000003c08 .LLST216
     /tmp/ccCnP6rB.s:7195   .text:00000000000021d4 .LVL863
     /tmp/ccCnP6rB.s:7249   .text:0000000000002260 .LVL870
     /tmp/ccCnP6rB.s:7253   .text:000000000000226c .LVL871
     /tmp/ccCnP6rB.s:7259   .text:0000000000002278 .LVL872
     /tmp/ccCnP6rB.s:7315   .text:0000000000002304 .LVL880
     /tmp/ccCnP6rB.s:7319   .text:0000000000002310 .LVL881
     /tmp/ccCnP6rB.s:7325   .text:000000000000231c .LVL882
     /tmp/ccCnP6rB.s:7381   .text:00000000000023a8 .LVL890
     /tmp/ccCnP6rB.s:7385   .text:00000000000023b4 .LVL891
     /tmp/ccCnP6rB.s:7427   .text:00000000000023d8 .LVL895
     /tmp/ccCnP6rB.s:7432   .text:00000000000023e4 .LVL896
     /tmp/ccCnP6rB.s:7437   .text:00000000000023f0 .LVL897
     /tmp/ccCnP6rB.s:7442   .text:00000000000023fc .LVL898
     /tmp/ccCnP6rB.s:7447   .text:0000000000002408 .LVL899
GAS LISTING /tmp/ccCnP6rB.s 			page 367


     /tmp/ccCnP6rB.s:7452   .text:0000000000002414 .LVL900
     /tmp/ccCnP6rB.s:7461   .text:0000000000002428 .LVL901
     /tmp/ccCnP6rB.s:7471   .text:000000000000243c .LVL902
     /tmp/ccCnP6rB.s:7481   .text:0000000000002450 .LVL903
     /tmp/ccCnP6rB.s:7487   .text:0000000000002460 .LVL904
     /tmp/ccCnP6rB.s:3411   .text:0000000000000b3c .LFB34
     /tmp/ccCnP6rB.s:3605   .text:0000000000000cec .LFE34
     /tmp/ccCnP6rB.s:30320  .debug_loc:0000000000003c2b .LLST97
     /tmp/ccCnP6rB.s:3432   .text:0000000000000b5c .LBB224
     /tmp/ccCnP6rB.s:3586   .text:0000000000000cd0 .LBE224
     /tmp/ccCnP6rB.s:30338  .debug_loc:0000000000003c77 .LLST98
     /tmp/ccCnP6rB.s:30350  .debug_loc:0000000000003cae .LLST99
     /tmp/ccCnP6rB.s:3454   .text:0000000000000b78 .LBB228
     /tmp/ccCnP6rB.s:3468   .text:0000000000000b90 .LBE228
     /tmp/ccCnP6rB.s:30362  .debug_loc:0000000000003ce5 .LLST100
     /tmp/ccCnP6rB.s:3444   .text:0000000000000b6c .LVL354
     /tmp/ccCnP6rB.s:3475   .text:0000000000000ba0 .LVL358
     /tmp/ccCnP6rB.s:3482   .text:0000000000000bb4 .LVL359
     /tmp/ccCnP6rB.s:3487   .text:0000000000000bc4 .LVL360
     /tmp/ccCnP6rB.s:3492   .text:0000000000000bd4 .LVL361
     /tmp/ccCnP6rB.s:3498   .text:0000000000000be8 .LVL362
     /tmp/ccCnP6rB.s:3503   .text:0000000000000bf8 .LVL363
     /tmp/ccCnP6rB.s:3509   .text:0000000000000c0c .LVL364
     /tmp/ccCnP6rB.s:3514   .text:0000000000000c1c .LVL365
     /tmp/ccCnP6rB.s:3521   .text:0000000000000c30 .LVL366
     /tmp/ccCnP6rB.s:3526   .text:0000000000000c40 .LVL367
     /tmp/ccCnP6rB.s:3531   .text:0000000000000c4c .LVL368
     /tmp/ccCnP6rB.s:3533   .text:0000000000000c54 .LVL369
     /tmp/ccCnP6rB.s:3538   .text:0000000000000c64 .LVL370
     /tmp/ccCnP6rB.s:3545   .text:0000000000000c78 .LVL371
     /tmp/ccCnP6rB.s:3550   .text:0000000000000c88 .LVL372
     /tmp/ccCnP6rB.s:3564   .text:0000000000000ca4 .LVL374
     /tmp/ccCnP6rB.s:3571   .text:0000000000000cb8 .LVL375
     /tmp/ccCnP6rB.s:3576   .text:0000000000000cc8 .LVL376
     /tmp/ccCnP6rB.s:32265  .debug_str:0000000000000d4b .LASF297
     /tmp/ccCnP6rB.s:3192   .text:000000000000099c .LFB29
     /tmp/ccCnP6rB.s:3382   .text:0000000000000b3c .LFE29
     /tmp/ccCnP6rB.s:30373  .debug_loc:0000000000003d1b .LLST93
     /tmp/ccCnP6rB.s:3213   .text:00000000000009bc .LBB216
     /tmp/ccCnP6rB.s:3363   .text:0000000000000b20 .LBE216
     /tmp/ccCnP6rB.s:30391  .debug_loc:0000000000003d67 .LLST94
     /tmp/ccCnP6rB.s:30403  .debug_loc:0000000000003d9e .LLST95
     /tmp/ccCnP6rB.s:3235   .text:00000000000009d8 .LBB220
     /tmp/ccCnP6rB.s:3249   .text:00000000000009f0 .LBE220
     /tmp/ccCnP6rB.s:30415  .debug_loc:0000000000003dd5 .LLST96
     /tmp/ccCnP6rB.s:3225   .text:00000000000009cc .LVL325
     /tmp/ccCnP6rB.s:3256   .text:0000000000000a00 .LVL329
     /tmp/ccCnP6rB.s:3263   .text:0000000000000a14 .LVL330
     /tmp/ccCnP6rB.s:3268   .text:0000000000000a24 .LVL331
     /tmp/ccCnP6rB.s:3273   .text:0000000000000a34 .LVL332
     /tmp/ccCnP6rB.s:3279   .text:0000000000000a48 .LVL333
     /tmp/ccCnP6rB.s:3284   .text:0000000000000a58 .LVL334
     /tmp/ccCnP6rB.s:3291   .text:0000000000000a6c .LVL335
     /tmp/ccCnP6rB.s:3296   .text:0000000000000a7c .LVL336
     /tmp/ccCnP6rB.s:3301   .text:0000000000000a88 .LVL337
     /tmp/ccCnP6rB.s:3303   .text:0000000000000a90 .LVL338
     /tmp/ccCnP6rB.s:3308   .text:0000000000000a9c .LVL339
GAS LISTING /tmp/ccCnP6rB.s 			page 368


     /tmp/ccCnP6rB.s:3310   .text:0000000000000aa4 .LVL340
     /tmp/ccCnP6rB.s:3315   .text:0000000000000ab4 .LVL341
     /tmp/ccCnP6rB.s:3322   .text:0000000000000ac8 .LVL342
     /tmp/ccCnP6rB.s:3327   .text:0000000000000ad8 .LVL343
     /tmp/ccCnP6rB.s:3341   .text:0000000000000af4 .LVL345
     /tmp/ccCnP6rB.s:3348   .text:0000000000000b08 .LVL346
     /tmp/ccCnP6rB.s:3353   .text:0000000000000b18 .LVL347
     /tmp/ccCnP6rB.s:31835  .debug_str:0000000000000260 .LASF298
     /tmp/ccCnP6rB.s:2971   .text:00000000000007d8 .LFB24
     /tmp/ccCnP6rB.s:3172   .text:000000000000099c .LFE24
     /tmp/ccCnP6rB.s:30426  .debug_loc:0000000000003e0b .LLST89
     /tmp/ccCnP6rB.s:2992   .text:00000000000007f8 .LBB208
     /tmp/ccCnP6rB.s:3153   .text:0000000000000980 .LBE208
     /tmp/ccCnP6rB.s:30444  .debug_loc:0000000000003e57 .LLST90
     /tmp/ccCnP6rB.s:30456  .debug_loc:0000000000003e8e .LLST91
     /tmp/ccCnP6rB.s:3014   .text:0000000000000814 .LBB212
     /tmp/ccCnP6rB.s:3028   .text:000000000000082c .LBE212
     /tmp/ccCnP6rB.s:30468  .debug_loc:0000000000003ec5 .LLST92
     /tmp/ccCnP6rB.s:3004   .text:0000000000000808 .LVL294
     /tmp/ccCnP6rB.s:3035   .text:000000000000083c .LVL298
     /tmp/ccCnP6rB.s:3042   .text:0000000000000850 .LVL299
     /tmp/ccCnP6rB.s:3047   .text:0000000000000860 .LVL300
     /tmp/ccCnP6rB.s:3052   .text:0000000000000870 .LVL301
     /tmp/ccCnP6rB.s:3058   .text:0000000000000884 .LVL302
     /tmp/ccCnP6rB.s:3063   .text:0000000000000894 .LVL303
     /tmp/ccCnP6rB.s:3069   .text:00000000000008a8 .LVL304
     /tmp/ccCnP6rB.s:3074   .text:00000000000008b8 .LVL305
     /tmp/ccCnP6rB.s:3081   .text:00000000000008cc .LVL306
     /tmp/ccCnP6rB.s:3086   .text:00000000000008dc .LVL307
     /tmp/ccCnP6rB.s:3091   .text:00000000000008e8 .LVL308
     /tmp/ccCnP6rB.s:3093   .text:00000000000008f0 .LVL309
     /tmp/ccCnP6rB.s:3098   .text:00000000000008fc .LVL310
     /tmp/ccCnP6rB.s:3100   .text:0000000000000904 .LVL311
     /tmp/ccCnP6rB.s:3105   .text:0000000000000914 .LVL312
     /tmp/ccCnP6rB.s:3112   .text:0000000000000928 .LVL313
     /tmp/ccCnP6rB.s:3117   .text:0000000000000938 .LVL314
     /tmp/ccCnP6rB.s:3131   .text:0000000000000954 .LVL316
     /tmp/ccCnP6rB.s:3138   .text:0000000000000968 .LVL317
     /tmp/ccCnP6rB.s:3143   .text:0000000000000978 .LVL318
     /tmp/ccCnP6rB.s:32089  .debug_str:00000000000008d7 .LASF299
     /tmp/ccCnP6rB.s:32347  .debug_str:0000000000001054 .LASF300
     /tmp/ccCnP6rB.s:31929  .debug_str:00000000000004a9 .LASF303
     /tmp/ccCnP6rB.s:7134   .text:00000000000021ac .LFE19
     /tmp/ccCnP6rB.s:6934   .text:0000000000002050 .LBB408
     /tmp/ccCnP6rB.s:7024   .text:000000000000210c .LBE408
     /tmp/ccCnP6rB.s:30479  .debug_loc:0000000000003efb .LLST191
     /tmp/ccCnP6rB.s:30498  .debug_loc:0000000000003f57 .LLST192
     /tmp/ccCnP6rB.s:30531  .debug_loc:0000000000003fef .LLST193
     /tmp/ccCnP6rB.s:30550  .debug_loc:000000000000404b .LLST194
     /tmp/ccCnP6rB.s:6941   .text:0000000000002058 .LBB409
     /tmp/ccCnP6rB.s:30657  .debug_loc:00000000000041f0 .LLST195
     /tmp/ccCnP6rB.s:6958   .text:000000000000208c .LVL822
     /tmp/ccCnP6rB.s:6965   .text:00000000000020a0 .LVL823
     /tmp/ccCnP6rB.s:6970   .text:00000000000020b0 .LVL824
     /tmp/ccCnP6rB.s:6979   .text:00000000000020c4 .LVL826
     /tmp/ccCnP6rB.s:7017   .text:0000000000002108 .LVL834
     /tmp/ccCnP6rB.s:6986   .text:00000000000020d0 .LVL827
GAS LISTING /tmp/ccCnP6rB.s 			page 369


     /tmp/ccCnP6rB.s:7007   .text:00000000000020f8 .LVL832
     /tmp/ccCnP6rB.s:7025   .text:000000000000210c .LBB413
     /tmp/ccCnP6rB.s:7047   .text:000000000000212c .LBE413
     /tmp/ccCnP6rB.s:30672  .debug_loc:0000000000004239 .LLST196
     /tmp/ccCnP6rB.s:30685  .debug_loc:0000000000004271 .LLST197
     /tmp/ccCnP6rB.s:7040   .text:0000000000002124 .LVL839
     /tmp/ccCnP6rB.s:7048   .text:000000000000212c .LBB414
     /tmp/ccCnP6rB.s:7069   .text:000000000000214c .LBE414
     /tmp/ccCnP6rB.s:30692  .debug_loc:0000000000004294 .LLST198
     /tmp/ccCnP6rB.s:30705  .debug_loc:00000000000042cc .LLST199
     /tmp/ccCnP6rB.s:7062   .text:0000000000002144 .LVL845
     /tmp/ccCnP6rB.s:7070   .text:000000000000214c .LBB415
     /tmp/ccCnP6rB.s:7100   .text:0000000000002178 .LBE415
     /tmp/ccCnP6rB.s:30712  .debug_loc:00000000000042ef .LLST200
     /tmp/ccCnP6rB.s:30723  .debug_loc:0000000000004325 .LLST201
     /tmp/ccCnP6rB.s:6990   .text:00000000000020dc .LVL828
     /tmp/ccCnP6rB.s:7105   .text:0000000000002188 .LVL856
     /tmp/ccCnP6rB.s:2737   .text:0000000000000610 .LFB18
     /tmp/ccCnP6rB.s:2942   .text:00000000000007d8 .LFE18
     /tmp/ccCnP6rB.s:30730  .debug_loc:0000000000004348 .LLST85
     /tmp/ccCnP6rB.s:2758   .text:0000000000000630 .LBB200
     /tmp/ccCnP6rB.s:2906   .text:0000000000000788 .LBE200
     /tmp/ccCnP6rB.s:30748  .debug_loc:0000000000004394 .LLST86
     /tmp/ccCnP6rB.s:30760  .debug_loc:00000000000043cb .LLST87
     /tmp/ccCnP6rB.s:2781   .text:0000000000000650 .LBB204
     /tmp/ccCnP6rB.s:2794   .text:0000000000000664 .LBE204
     /tmp/ccCnP6rB.s:30772  .debug_loc:0000000000004402 .LLST88
     /tmp/ccCnP6rB.s:2770   .text:0000000000000640 .LVL264
     /tmp/ccCnP6rB.s:2801   .text:0000000000000674 .LVL268
     /tmp/ccCnP6rB.s:2808   .text:0000000000000688 .LVL269
     /tmp/ccCnP6rB.s:2813   .text:0000000000000698 .LVL270
     /tmp/ccCnP6rB.s:2820   .text:00000000000006ac .LVL271
     /tmp/ccCnP6rB.s:2825   .text:00000000000006bc .LVL272
     /tmp/ccCnP6rB.s:2829   .text:00000000000006c4 .LVL273
     /tmp/ccCnP6rB.s:2834   .text:00000000000006d4 .LVL274
     /tmp/ccCnP6rB.s:2841   .text:00000000000006e8 .LVL275
     /tmp/ccCnP6rB.s:2846   .text:00000000000006f8 .LVL276
     /tmp/ccCnP6rB.s:2853   .text:000000000000070c .LVL277
     /tmp/ccCnP6rB.s:2858   .text:000000000000071c .LVL278
     /tmp/ccCnP6rB.s:2872   .text:0000000000000738 .LVL280
     /tmp/ccCnP6rB.s:2879   .text:000000000000074c .LVL281
     /tmp/ccCnP6rB.s:2884   .text:000000000000075c .LVL282
     /tmp/ccCnP6rB.s:2891   .text:0000000000000770 .LVL283
     /tmp/ccCnP6rB.s:2896   .text:0000000000000780 .LVL284
     /tmp/ccCnP6rB.s:2911   .text:0000000000000798 .LVL286
     /tmp/ccCnP6rB.s:2918   .text:00000000000007ac .LVL287
     /tmp/ccCnP6rB.s:2923   .text:00000000000007bc .LVL288
     /tmp/ccCnP6rB.s:32063  .debug_str:0000000000000838 .LASF301
     /tmp/ccCnP6rB.s:31855  .debug_str:00000000000002d5 .LASF302
     /tmp/ccCnP6rB.s:32045  .debug_str:00000000000007b0 .LASF304
     /tmp/ccCnP6rB.s:6875   .text:0000000000002034 .LFE14
     /tmp/ccCnP6rB.s:32003  .debug_str:00000000000006a5 .LASF305
     /tmp/ccCnP6rB.s:6687   .text:0000000000001efc .LBB393
     /tmp/ccCnP6rB.s:6765   .text:0000000000001f94 .LBE393
     /tmp/ccCnP6rB.s:30783  .debug_loc:0000000000004438 .LLST180
     /tmp/ccCnP6rB.s:30802  .debug_loc:0000000000004494 .LLST181
     /tmp/ccCnP6rB.s:30835  .debug_loc:000000000000452c .LLST182
GAS LISTING /tmp/ccCnP6rB.s 			page 370


     /tmp/ccCnP6rB.s:30854  .debug_loc:0000000000004588 .LLST183
     /tmp/ccCnP6rB.s:6694   .text:0000000000001f04 .LBB394
     /tmp/ccCnP6rB.s:30961  .debug_loc:000000000000472c .LLST184
     /tmp/ccCnP6rB.s:6711   .text:0000000000001f38 .LVL780
     /tmp/ccCnP6rB.s:6720   .text:0000000000001f4c .LVL782
     /tmp/ccCnP6rB.s:6758   .text:0000000000001f90 .LVL790
     /tmp/ccCnP6rB.s:6727   .text:0000000000001f58 .LVL783
     /tmp/ccCnP6rB.s:6748   .text:0000000000001f80 .LVL788
     /tmp/ccCnP6rB.s:6766   .text:0000000000001f94 .LBB398
     /tmp/ccCnP6rB.s:6788   .text:0000000000001fb4 .LBE398
     /tmp/ccCnP6rB.s:30976  .debug_loc:0000000000004775 .LLST185
     /tmp/ccCnP6rB.s:30989  .debug_loc:00000000000047ad .LLST186
     /tmp/ccCnP6rB.s:6781   .text:0000000000001fac .LVL795
     /tmp/ccCnP6rB.s:6789   .text:0000000000001fb4 .LBB399
     /tmp/ccCnP6rB.s:6810   .text:0000000000001fd4 .LBE399
     /tmp/ccCnP6rB.s:30996  .debug_loc:00000000000047d0 .LLST187
     /tmp/ccCnP6rB.s:31009  .debug_loc:0000000000004808 .LLST188
     /tmp/ccCnP6rB.s:6803   .text:0000000000001fcc .LVL801
     /tmp/ccCnP6rB.s:6811   .text:0000000000001fd4 .LBB400
     /tmp/ccCnP6rB.s:6841   .text:0000000000002000 .LBE400
     /tmp/ccCnP6rB.s:31016  .debug_loc:000000000000482b .LLST189
     /tmp/ccCnP6rB.s:31027  .debug_loc:0000000000004861 .LLST190
     /tmp/ccCnP6rB.s:6731   .text:0000000000001f64 .LVL784
     /tmp/ccCnP6rB.s:6846   .text:0000000000002010 .LVL812
     /tmp/ccCnP6rB.s:2509   .text:0000000000000434 .LFB13
     /tmp/ccCnP6rB.s:2720   .text:0000000000000610 .LFE13
     /tmp/ccCnP6rB.s:31034  .debug_loc:0000000000004884 .LLST81
     /tmp/ccCnP6rB.s:2530   .text:0000000000000454 .LBB192
     /tmp/ccCnP6rB.s:2679   .text:00000000000005b0 .LBE192
     /tmp/ccCnP6rB.s:31052  .debug_loc:00000000000048d0 .LLST82
     /tmp/ccCnP6rB.s:31064  .debug_loc:0000000000004907 .LLST83
     /tmp/ccCnP6rB.s:2552   .text:0000000000000470 .LBB196
     /tmp/ccCnP6rB.s:2566   .text:0000000000000488 .LBE196
     /tmp/ccCnP6rB.s:31076  .debug_loc:000000000000493e .LLST84
     /tmp/ccCnP6rB.s:2542   .text:0000000000000464 .LVL233
     /tmp/ccCnP6rB.s:2573   .text:0000000000000498 .LVL237
     /tmp/ccCnP6rB.s:2580   .text:00000000000004ac .LVL238
     /tmp/ccCnP6rB.s:2585   .text:00000000000004bc .LVL239
     /tmp/ccCnP6rB.s:2592   .text:00000000000004d0 .LVL240
     /tmp/ccCnP6rB.s:2597   .text:00000000000004e0 .LVL241
     /tmp/ccCnP6rB.s:2602   .text:00000000000004ec .LVL242
     /tmp/ccCnP6rB.s:2607   .text:00000000000004fc .LVL243
     /tmp/ccCnP6rB.s:2614   .text:0000000000000510 .LVL244
     /tmp/ccCnP6rB.s:2619   .text:0000000000000520 .LVL245
     /tmp/ccCnP6rB.s:2626   .text:0000000000000534 .LVL246
     /tmp/ccCnP6rB.s:2631   .text:0000000000000544 .LVL247
     /tmp/ccCnP6rB.s:2645   .text:0000000000000560 .LVL249
     /tmp/ccCnP6rB.s:2652   .text:0000000000000574 .LVL250
     /tmp/ccCnP6rB.s:2657   .text:0000000000000584 .LVL251
     /tmp/ccCnP6rB.s:2664   .text:0000000000000598 .LVL252
     /tmp/ccCnP6rB.s:2669   .text:00000000000005a8 .LVL253
     /tmp/ccCnP6rB.s:2684   .text:00000000000005c0 .LVL255
     /tmp/ccCnP6rB.s:2689   .text:00000000000005d0 .LVL256
     /tmp/ccCnP6rB.s:2696   .text:00000000000005e4 .LVL257
     /tmp/ccCnP6rB.s:2701   .text:00000000000005f4 .LVL258
     /tmp/ccCnP6rB.s:32319  .debug_str:0000000000000f80 .LASF306
     /tmp/ccCnP6rB.s:31891  .debug_str:00000000000003b1 .LASF307
GAS LISTING /tmp/ccCnP6rB.s 			page 371


     /tmp/ccCnP6rB.s:32201  .debug_str:0000000000000bc0 .LASF308
     /tmp/ccCnP6rB.s:6616   .text:0000000000001ee0 .LFE9
     /tmp/ccCnP6rB.s:31087  .debug_loc:0000000000004974 .LLST166
     /tmp/ccCnP6rB.s:6336   .text:0000000000001cac .LBB376
     /tmp/ccCnP6rB.s:6508   .text:0000000000001e40 .LBE376
     /tmp/ccCnP6rB.s:31120  .debug_loc:0000000000004a00 .LLST167
     /tmp/ccCnP6rB.s:6342   .text:0000000000001cb4 .LBB377
     /tmp/ccCnP6rB.s:31148  .debug_loc:0000000000004a83 .LLST168
     /tmp/ccCnP6rB.s:31166  .debug_loc:0000000000004acf .LLST169
     /tmp/ccCnP6rB.s:6360   .text:0000000000001cec .LVL731
     /tmp/ccCnP6rB.s:6367   .text:0000000000001d00 .LVL732
     /tmp/ccCnP6rB.s:6372   .text:0000000000001d10 .LVL733
     /tmp/ccCnP6rB.s:6381   .text:0000000000001d24 .LVL735
     /tmp/ccCnP6rB.s:6427   .text:0000000000001d80 .LVL741
     /tmp/ccCnP6rB.s:6443   .text:0000000000001d94 .LBB381
     /tmp/ccCnP6rB.s:6491   .text:0000000000001e14 .LBE381
     /tmp/ccCnP6rB.s:31185  .debug_loc:0000000000004b2b .LLST170
     /tmp/ccCnP6rB.s:31198  .debug_loc:0000000000004b63 .LLST171
     /tmp/ccCnP6rB.s:6449   .text:0000000000001da0 .LVL745
     /tmp/ccCnP6rB.s:6467   .text:0000000000001ddc .LVL746
     /tmp/ccCnP6rB.s:6474   .text:0000000000001df0 .LVL747
     /tmp/ccCnP6rB.s:6479   .text:0000000000001e00 .LVL748
     /tmp/ccCnP6rB.s:6488   .text:0000000000001e14 .LVL750
     /tmp/ccCnP6rB.s:6388   .text:0000000000001d30 .LVL736
     /tmp/ccCnP6rB.s:6417   .text:0000000000001d70 .LVL739
     /tmp/ccCnP6rB.s:6439   .text:0000000000001d90 .LVL743
     /tmp/ccCnP6rB.s:6495   .text:0000000000001e20 .LVL751
     /tmp/ccCnP6rB.s:6511   .text:0000000000001e40 .LBB383
     /tmp/ccCnP6rB.s:6531   .text:0000000000001e60 .LBE383
     /tmp/ccCnP6rB.s:31213  .debug_loc:0000000000004bac .LLST172
     /tmp/ccCnP6rB.s:31221  .debug_loc:0000000000004bd0 .LLST173
     /tmp/ccCnP6rB.s:31252  .debug_loc:0000000000004c4a .LLST174
     /tmp/ccCnP6rB.s:31265  .debug_loc:0000000000004c83 .LLST175
     /tmp/ccCnP6rB.s:6525   .text:0000000000001e58 .LVL757
     /tmp/ccCnP6rB.s:6532   .text:0000000000001e60 .LBB384
     /tmp/ccCnP6rB.s:6550   .text:0000000000001e7c .LBE384
     /tmp/ccCnP6rB.s:31284  .debug_loc:0000000000004cd1 .LLST176
     /tmp/ccCnP6rB.s:31292  .debug_loc:0000000000004cf5 .LLST177
     /tmp/ccCnP6rB.s:6544   .text:0000000000001e74 .LVL761
     /tmp/ccCnP6rB.s:6551   .text:0000000000001e7c .LBB385
     /tmp/ccCnP6rB.s:6577   .text:0000000000001ea4 .LBE385
     /tmp/ccCnP6rB.s:31299  .debug_loc:0000000000004d18 .LLST178
     /tmp/ccCnP6rB.s:31306  .debug_loc:0000000000004d3b .LLST179
     /tmp/ccCnP6rB.s:6392   .text:0000000000001d3c .LVL737
     /tmp/ccCnP6rB.s:6499   .text:0000000000001e2c .LVL752
     /tmp/ccCnP6rB.s:6582   .text:0000000000001eb4 .LVL768
     /tmp/ccCnP6rB.s:437    .text:00000000000002a0 .LFB8
     /tmp/ccCnP6rB.s:632    .text:0000000000000434 .LFE8
     /tmp/ccCnP6rB.s:31313  .debug_loc:0000000000004d5e .LLST11
     /tmp/ccCnP6rB.s:458    .text:00000000000002c0 .LBB118
     /tmp/ccCnP6rB.s:613    .text:0000000000000418 .LBE118
     /tmp/ccCnP6rB.s:31331  .debug_loc:0000000000004daa .LLST12
     /tmp/ccCnP6rB.s:31343  .debug_loc:0000000000004de1 .LLST13
     /tmp/ccCnP6rB.s:480    .text:00000000000002dc .LBB122
     /tmp/ccCnP6rB.s:493    .text:00000000000002f0 .LBE122
     /tmp/ccCnP6rB.s:31359  .debug_loc:0000000000004e2b .LLST14
     /tmp/ccCnP6rB.s:470    .text:00000000000002d0 .LVL51
GAS LISTING /tmp/ccCnP6rB.s 			page 372


     /tmp/ccCnP6rB.s:500    .text:0000000000000300 .LVL55
     /tmp/ccCnP6rB.s:507    .text:0000000000000314 .LVL56
     /tmp/ccCnP6rB.s:512    .text:0000000000000324 .LVL57
     /tmp/ccCnP6rB.s:517    .text:0000000000000334 .LVL58
     /tmp/ccCnP6rB.s:524    .text:0000000000000348 .LVL59
     /tmp/ccCnP6rB.s:529    .text:0000000000000358 .LVL60
     /tmp/ccCnP6rB.s:540    .text:0000000000000370 .LVL61
     /tmp/ccCnP6rB.s:545    .text:0000000000000378 .LVL62
     /tmp/ccCnP6rB.s:550    .text:0000000000000388 .LVL63
     /tmp/ccCnP6rB.s:564    .text:00000000000003a4 .LVL65
     /tmp/ccCnP6rB.s:571    .text:00000000000003b8 .LVL66
     /tmp/ccCnP6rB.s:576    .text:00000000000003c8 .LVL67
     /tmp/ccCnP6rB.s:581    .text:00000000000003d8 .LVL68
     /tmp/ccCnP6rB.s:588    .text:00000000000003ec .LVL69
     /tmp/ccCnP6rB.s:593    .text:00000000000003fc .LVL70
     /tmp/ccCnP6rB.s:608    .text:0000000000000414 .LVL72
     /tmp/ccCnP6rB.s:31879  .debug_str:000000000000036b .LASF309
     /tmp/ccCnP6rB.s:32085  .debug_str:00000000000008c7 .LASF310
     /tmp/ccCnP6rB.s:32141  .debug_str:0000000000000a1b .LASF311
     /tmp/ccCnP6rB.s:31947  .debug_str:000000000000053e .LASF312
     /tmp/ccCnP6rB.s:32149  .debug_str:0000000000000a49 .LASF313
     /tmp/ccCnP6rB.s:32213  .debug_str:0000000000000c10 .LASF314
     /tmp/ccCnP6rB.s:32195  .debug_str:0000000000000b91 .LASF315
     /tmp/ccCnP6rB.s:31839  .debug_str:0000000000000277 .LASF324
     /tmp/ccCnP6rB.s:32351  .debug_str:0000000000001075 .LASF325
     /tmp/ccCnP6rB.s:32033  .debug_str:0000000000000744 .LASF316
     /tmp/ccCnP6rB.s:31933  .debug_str:00000000000004d2 .LASF317
     /tmp/ccCnP6rB.s:32153  .debug_str:0000000000000a73 .LASF318
     /tmp/ccCnP6rB.s:31953  .debug_str:0000000000000554 .LASF319
     /tmp/ccCnP6rB.s:2443   .text._ZN2A1D0Ev:0000000000000000 .LVL225
     /tmp/ccCnP6rB.s:2475   .text._ZN2A1D0Ev:0000000000000044 .LVL229
     /tmp/ccCnP6rB.s:2455   .text._ZN2A1D0Ev:0000000000000018 .LVL226
     /tmp/ccCnP6rB.s:2406   .text._ZN2A1D2Ev:0000000000000000 .LVL223
     /tmp/ccCnP6rB.s:2359   .text._ZN2A2D0Ev:0000000000000000 .LVL218
     /tmp/ccCnP6rB.s:2391   .text._ZN2A2D0Ev:0000000000000044 .LVL222
     /tmp/ccCnP6rB.s:2371   .text._ZN2A2D0Ev:0000000000000018 .LVL219
     /tmp/ccCnP6rB.s:2322   .text._ZN2A2D2Ev:0000000000000000 .LVL216
     /tmp/ccCnP6rB.s:2275   .text._ZN2A6D0Ev:0000000000000000 .LVL211
     /tmp/ccCnP6rB.s:2307   .text._ZN2A6D0Ev:0000000000000044 .LVL215
     /tmp/ccCnP6rB.s:2287   .text._ZN2A6D0Ev:0000000000000018 .LVL212
     /tmp/ccCnP6rB.s:2238   .text._ZN2A6D2Ev:0000000000000000 .LVL209
     /tmp/ccCnP6rB.s:2191   .text._ZN2A3D0Ev:0000000000000000 .LVL204
     /tmp/ccCnP6rB.s:2223   .text._ZN2A3D0Ev:0000000000000044 .LVL208
     /tmp/ccCnP6rB.s:2203   .text._ZN2A3D0Ev:0000000000000018 .LVL205
     /tmp/ccCnP6rB.s:2154   .text._ZN2A3D2Ev:0000000000000000 .LVL202
     /tmp/ccCnP6rB.s:2107   .text._ZN2B3D0Ev:0000000000000000 .LVL197
     /tmp/ccCnP6rB.s:2139   .text._ZN2B3D0Ev:0000000000000044 .LVL201
     /tmp/ccCnP6rB.s:2119   .text._ZN2B3D0Ev:0000000000000018 .LVL198
     /tmp/ccCnP6rB.s:2070   .text._ZN2B3D2Ev:0000000000000000 .LVL195
     /tmp/ccCnP6rB.s:2023   .text._ZN2C3D0Ev:0000000000000000 .LVL190
     /tmp/ccCnP6rB.s:2055   .text._ZN2C3D0Ev:0000000000000044 .LVL194
     /tmp/ccCnP6rB.s:2035   .text._ZN2C3D0Ev:0000000000000018 .LVL191
     /tmp/ccCnP6rB.s:1986   .text._ZN2C3D2Ev:0000000000000000 .LVL188
     /tmp/ccCnP6rB.s:1939   .text._ZN2A4D0Ev:0000000000000000 .LVL183
     /tmp/ccCnP6rB.s:1971   .text._ZN2A4D0Ev:0000000000000044 .LVL187
     /tmp/ccCnP6rB.s:1951   .text._ZN2A4D0Ev:0000000000000018 .LVL184
     /tmp/ccCnP6rB.s:1902   .text._ZN2A4D2Ev:0000000000000000 .LVL181
GAS LISTING /tmp/ccCnP6rB.s 			page 373


     /tmp/ccCnP6rB.s:1855   .text._ZN2B4D0Ev:0000000000000000 .LVL176
     /tmp/ccCnP6rB.s:1887   .text._ZN2B4D0Ev:0000000000000044 .LVL180
     /tmp/ccCnP6rB.s:1867   .text._ZN2B4D0Ev:0000000000000018 .LVL177
     /tmp/ccCnP6rB.s:1818   .text._ZN2B4D2Ev:0000000000000000 .LVL174
     /tmp/ccCnP6rB.s:1771   .text._ZN2C4D0Ev:0000000000000000 .LVL169
     /tmp/ccCnP6rB.s:1803   .text._ZN2C4D0Ev:0000000000000044 .LVL173
     /tmp/ccCnP6rB.s:1783   .text._ZN2C4D0Ev:0000000000000018 .LVL170
     /tmp/ccCnP6rB.s:1734   .text._ZN2C4D2Ev:0000000000000000 .LVL167
     /tmp/ccCnP6rB.s:1687   .text._ZN2A5D0Ev:0000000000000000 .LVL162
     /tmp/ccCnP6rB.s:1719   .text._ZN2A5D0Ev:0000000000000044 .LVL166
     /tmp/ccCnP6rB.s:1699   .text._ZN2A5D0Ev:0000000000000018 .LVL163
     /tmp/ccCnP6rB.s:1650   .text._ZN2A5D2Ev:0000000000000000 .LVL160
     /tmp/ccCnP6rB.s:679    .text._ZN2A7D0Ev:0000000000000000 .LVL78
     /tmp/ccCnP6rB.s:711    .text._ZN2A7D0Ev:0000000000000044 .LVL82
     /tmp/ccCnP6rB.s:691    .text._ZN2A7D0Ev:0000000000000018 .LVL79
     /tmp/ccCnP6rB.s:642    .text._ZN2A7D2Ev:0000000000000000 .LVL76
     /tmp/ccCnP6rB.s:763    .text._ZN2B7D0Ev:0000000000000000 .LVL85
     /tmp/ccCnP6rB.s:795    .text._ZN2B7D0Ev:0000000000000044 .LVL89
     /tmp/ccCnP6rB.s:775    .text._ZN2B7D0Ev:0000000000000018 .LVL86
     /tmp/ccCnP6rB.s:726    .text._ZN2B7D2Ev:0000000000000000 .LVL83
     /tmp/ccCnP6rB.s:1603   .text._ZN2A8D0Ev:0000000000000000 .LVL155
     /tmp/ccCnP6rB.s:1635   .text._ZN2A8D0Ev:0000000000000044 .LVL159
     /tmp/ccCnP6rB.s:1615   .text._ZN2A8D0Ev:0000000000000018 .LVL156
     /tmp/ccCnP6rB.s:1566   .text._ZN2A8D2Ev:0000000000000000 .LVL153
     /tmp/ccCnP6rB.s:1519   .text._ZN2A9D0Ev:0000000000000000 .LVL148
     /tmp/ccCnP6rB.s:1551   .text._ZN2A9D0Ev:0000000000000044 .LVL152
     /tmp/ccCnP6rB.s:1531   .text._ZN2A9D0Ev:0000000000000018 .LVL149
     /tmp/ccCnP6rB.s:1482   .text._ZN2A9D2Ev:0000000000000000 .LVL146
     /tmp/ccCnP6rB.s:1435   .text._ZN3A10D0Ev:0000000000000000 .LVL141
     /tmp/ccCnP6rB.s:1467   .text._ZN3A10D0Ev:0000000000000044 .LVL145
     /tmp/ccCnP6rB.s:1447   .text._ZN3A10D0Ev:0000000000000018 .LVL142
     /tmp/ccCnP6rB.s:1398   .text._ZN3A10D2Ev:0000000000000000 .LVL139
     /tmp/ccCnP6rB.s:1351   .text._ZN3A11D0Ev:0000000000000000 .LVL134
     /tmp/ccCnP6rB.s:1383   .text._ZN3A11D0Ev:0000000000000044 .LVL138
     /tmp/ccCnP6rB.s:1363   .text._ZN3A11D0Ev:0000000000000018 .LVL135
     /tmp/ccCnP6rB.s:1314   .text._ZN3A11D2Ev:0000000000000000 .LVL132
     /tmp/ccCnP6rB.s:1267   .text._ZN3A12D0Ev:0000000000000000 .LVL127
     /tmp/ccCnP6rB.s:1299   .text._ZN3A12D0Ev:0000000000000044 .LVL131
     /tmp/ccCnP6rB.s:1279   .text._ZN3A12D0Ev:0000000000000018 .LVL128
     /tmp/ccCnP6rB.s:1230   .text._ZN3A12D2Ev:0000000000000000 .LVL125
     /tmp/ccCnP6rB.s:1183   .text._ZN3B12D0Ev:0000000000000000 .LVL120
     /tmp/ccCnP6rB.s:1215   .text._ZN3B12D0Ev:0000000000000044 .LVL124
     /tmp/ccCnP6rB.s:1195   .text._ZN3B12D0Ev:0000000000000018 .LVL121
     /tmp/ccCnP6rB.s:1146   .text._ZN3B12D2Ev:0000000000000000 .LVL118
     /tmp/ccCnP6rB.s:1099   .text._ZN3A13D0Ev:0000000000000000 .LVL113
     /tmp/ccCnP6rB.s:1131   .text._ZN3A13D0Ev:0000000000000044 .LVL117
     /tmp/ccCnP6rB.s:1111   .text._ZN3A13D0Ev:0000000000000018 .LVL114
     /tmp/ccCnP6rB.s:1062   .text._ZN3A13D2Ev:0000000000000000 .LVL111
     /tmp/ccCnP6rB.s:1015   .text._ZN3B13D0Ev:0000000000000000 .LVL106
     /tmp/ccCnP6rB.s:1047   .text._ZN3B13D0Ev:0000000000000044 .LVL110
     /tmp/ccCnP6rB.s:1027   .text._ZN3B13D0Ev:0000000000000018 .LVL107
     /tmp/ccCnP6rB.s:978    .text._ZN3B13D2Ev:0000000000000000 .LVL104
     /tmp/ccCnP6rB.s:931    .text._ZN3C13D0Ev:0000000000000000 .LVL99
     /tmp/ccCnP6rB.s:963    .text._ZN3C13D0Ev:0000000000000044 .LVL103
     /tmp/ccCnP6rB.s:943    .text._ZN3C13D0Ev:0000000000000018 .LVL100
     /tmp/ccCnP6rB.s:894    .text._ZN3C13D2Ev:0000000000000000 .LVL97
     /tmp/ccCnP6rB.s:847    .text._ZN11testTRYWaitD0Ev:0000000000000000 .LVL92
GAS LISTING /tmp/ccCnP6rB.s 			page 374


     /tmp/ccCnP6rB.s:879    .text._ZN11testTRYWaitD0Ev:0000000000000044 .LVL96
     /tmp/ccCnP6rB.s:859    .text._ZN11testTRYWaitD0Ev:0000000000000018 .LVL93
     /tmp/ccCnP6rB.s:810    .text._ZN11testTRYWaitD2Ev:0000000000000000 .LVL90
     /tmp/ccCnP6rB.s:10571  .text:0000000000003818 .LVL1297
     /tmp/ccCnP6rB.s:10576  .text:0000000000003820 .LVL1298
     /tmp/ccCnP6rB.s:10736  .text:0000000000003948 .LVL1321
     /tmp/ccCnP6rB.s:10763  .text:0000000000003990 .LVL1326
     /tmp/ccCnP6rB.s:10584  .text:0000000000003830 .LVL1299
     /tmp/ccCnP6rB.s:10608  .text:0000000000003864 .LVL1302
     /tmp/ccCnP6rB.s:10617  .text:0000000000003870 .LVL1304
     /tmp/ccCnP6rB.s:10626  .text:0000000000003874 .LVL1305
     /tmp/ccCnP6rB.s:10642  .text:0000000000003898 .LVL1307
     /tmp/ccCnP6rB.s:10644  .text:000000000000389c .LVL1308
     /tmp/ccCnP6rB.s:10650  .text:00000000000038a0 .LVL1309
     /tmp/ccCnP6rB.s:10662  .text:00000000000038bc .LVL1311
     /tmp/ccCnP6rB.s:10664  .text:00000000000038c0 .LVL1312
     /tmp/ccCnP6rB.s:10670  .text:00000000000038c4 .LVL1313
     /tmp/ccCnP6rB.s:10672  .text:00000000000038c8 .LVL1314
     /tmp/ccCnP6rB.s:10733  .text:0000000000003944 .LVL1320
     /tmp/ccCnP6rB.s:5191   .text._ZN11testTRYWait3runEv:0000000000000000 .LVL585
     /tmp/ccCnP6rB.s:5214   .text._ZN11testTRYWait3runEv:000000000000002c .LVL587
     /tmp/ccCnP6rB.s:5324   .text._ZN11testTRYWait3runEv:0000000000000108 .LVL603
     /tmp/ccCnP6rB.s:5333   .text._ZN11testTRYWait3runEv:0000000000000118 .LVL605
     /tmp/ccCnP6rB.s:5210   .text._ZN11testTRYWait3runEv:0000000000000024 .LVL586
     /tmp/ccCnP6rB.s:5329   .text._ZN11testTRYWait3runEv:0000000000000110 .LVL604
     /tmp/ccCnP6rB.s:5404   .text._ZN11testTRYWait3runEv:0000000000000188 .LVL616
     /tmp/ccCnP6rB.s:5421   .text._ZN11testTRYWait3runEv:00000000000001a4 .LVL619
     /tmp/ccCnP6rB.s:5222   .text._ZN11testTRYWait3runEv:0000000000000034 .LVL588
     /tmp/ccCnP6rB.s:5343   .text._ZN11testTRYWait3runEv:0000000000000120 .LVL606
     /tmp/ccCnP6rB.s:5442   .text._ZN11testTRYWait3runEv:00000000000001c8 .LVL621
     /tmp/ccCnP6rB.s:5242   .text._ZN11testTRYWait3runEv:0000000000000068 .LVL592
     /tmp/ccCnP6rB.s:5263   .text._ZN11testTRYWait3runEv:0000000000000084 .LVL595
     /tmp/ccCnP6rB.s:5270   .text._ZN11testTRYWait3runEv:0000000000000094 .LVL596
     /tmp/ccCnP6rB.s:5363   .text._ZN11testTRYWait3runEv:0000000000000154 .LVL610
     /tmp/ccCnP6rB.s:5393   .text._ZN11testTRYWait3runEv:0000000000000184 .LVL615
     /tmp/ccCnP6rB.s:5384   .text._ZN11testTRYWait3runEv:0000000000000170 .LVL613
     /tmp/ccCnP6rB.s:5391   .text._ZN11testTRYWait3runEv:0000000000000180 .LVL614
     /tmp/ccCnP6rB.s:10290  .text:000000000000363c .LVL1260
     /tmp/ccCnP6rB.s:10435  .text:0000000000003754 .LVL1283
     /tmp/ccCnP6rB.s:10464  .text:000000000000379c .LVL1290
     /tmp/ccCnP6rB.s:10316  .text:0000000000003670 .LVL1265
     /tmp/ccCnP6rB.s:10438  .text:0000000000003758 .LVL1284
     /tmp/ccCnP6rB.s:10345  .text:00000000000036a8 .LVL1270
     /tmp/ccCnP6rB.s:10432  .text:0000000000003750 .LVL1282
     /tmp/ccCnP6rB.s:10280  .text:0000000000003628 .LVL1258
     /tmp/ccCnP6rB.s:10442  .text:0000000000003760 .LVL1285
     /tmp/ccCnP6rB.s:10306  .text:000000000000365c .LVL1263
     /tmp/ccCnP6rB.s:10332  .text:0000000000003690 .LVL1268
     /tmp/ccCnP6rB.s:10354  .text:00000000000036ac .LVL1271
     /tmp/ccCnP6rB.s:5034   .text:0000000000001598 .LVL567
     /tmp/ccCnP6rB.s:5056   .text:00000000000015c0 .LVL569
     /tmp/ccCnP6rB.s:5160   .text:0000000000001678 .LVL584
     /tmp/ccCnP6rB.s:5051   .text:00000000000015b8 .LVL568
     /tmp/ccCnP6rB.s:5157   .text:0000000000001674 .LVL583
     /tmp/ccCnP6rB.s:5119   .text:0000000000001634 .LVL578
     /tmp/ccCnP6rB.s:5129   .text:0000000000001644 .LVL579
     /tmp/ccCnP6rB.s:5143   .text:0000000000001664 .LVL582
GAS LISTING /tmp/ccCnP6rB.s 			page 375


     /tmp/ccCnP6rB.s:5079   .text:00000000000015dc .LVL572
     /tmp/ccCnP6rB.s:5085   .text:00000000000015e8 .LVL573
     /tmp/ccCnP6rB.s:310    .text:00000000000001ec .LVL35
     /tmp/ccCnP6rB.s:329    .text:000000000000020c .LVL37
     /tmp/ccCnP6rB.s:324    .text:0000000000000204 .LVL36
     /tmp/ccCnP6rB.s:412    .text:0000000000000298 .LVL47
     /tmp/ccCnP6rB.s:388    .text:0000000000000278 .LVL46
     /tmp/ccCnP6rB.s:352    .text:0000000000000228 .LVL40
     /tmp/ccCnP6rB.s:358    .text:0000000000000234 .LVL41
     /tmp/ccCnP6rB.s:4884   .text:00000000000014a0 .LVL548
     /tmp/ccCnP6rB.s:4906   .text:00000000000014c8 .LVL550
     /tmp/ccCnP6rB.s:5015   .text:0000000000001590 .LVL566
     /tmp/ccCnP6rB.s:4901   .text:00000000000014c0 .LVL549
     /tmp/ccCnP6rB.s:5012   .text:000000000000158c .LVL565
     /tmp/ccCnP6rB.s:4974   .text:000000000000154c .LVL560
     /tmp/ccCnP6rB.s:4984   .text:000000000000155c .LVL561
     /tmp/ccCnP6rB.s:4998   .text:000000000000157c .LVL564
     /tmp/ccCnP6rB.s:4929   .text:00000000000014e4 .LVL553
     /tmp/ccCnP6rB.s:4935   .text:00000000000014f0 .LVL554
     /tmp/ccCnP6rB.s:10069  .text:00000000000034f8 .LVL1235
     /tmp/ccCnP6rB.s:10146  .text:0000000000003584 .LVL1247
     /tmp/ccCnP6rB.s:10180  .text:00000000000035e4 .LVL1254
     /tmp/ccCnP6rB.s:10090  .text:000000000000351c .LVL1239
     /tmp/ccCnP6rB.s:10143  .text:0000000000003580 .LVL1246
     /tmp/ccCnP6rB.s:10058  .text:00000000000034e4 .LVL1233
     /tmp/ccCnP6rB.s:10080  .text:0000000000003508 .LVL1237
     /tmp/ccCnP6rB.s:4761   .text:00000000000013d0 .LVL531
     /tmp/ccCnP6rB.s:4778   .text:00000000000013ec .LVL533
     /tmp/ccCnP6rB.s:4773   .text:00000000000013e4 .LVL532
     /tmp/ccCnP6rB.s:4801   .text:000000000000141c .LVL537
     /tmp/ccCnP6rB.s:4803   .text:0000000000001420 .LVL538
     /tmp/ccCnP6rB.s:4865   .text:0000000000001498 .LVL547
     /tmp/ccCnP6rB.s:4823   .text:0000000000001438 .LVL541
     /tmp/ccCnP6rB.s:4829   .text:0000000000001444 .LVL542
     /tmp/ccCnP6rB.s:4649   .text:0000000000001324 .LVL518
     /tmp/ccCnP6rB.s:4663   .text:0000000000001340 .LVL519
     /tmp/ccCnP6rB.s:4671   .text:0000000000001350 .LVL521
     /tmp/ccCnP6rB.s:4733   .text:00000000000013c8 .LVL530
     /tmp/ccCnP6rB.s:4691   .text:0000000000001368 .LVL524
     /tmp/ccCnP6rB.s:4697   .text:0000000000001374 .LVL525
     /tmp/ccCnP6rB.s:9681   .text:0000000000003254 .LVL1185
     /tmp/ccCnP6rB.s:9929   .text:0000000000003444 .LVL1222
     /tmp/ccCnP6rB.s:9942   .text:0000000000003458 .LVL1225
     /tmp/ccCnP6rB.s:9948   .text:0000000000003464 .LVL1226
     /tmp/ccCnP6rB.s:9687   .text:000000000000325c .LVL1186
     /tmp/ccCnP6rB.s:9859   .text:00000000000033d8 .LVL1208
     /tmp/ccCnP6rB.s:9699   .text:000000000000326c .LVL1188
     /tmp/ccCnP6rB.s:9953   .text:000000000000346c .LVL1227
     /tmp/ccCnP6rB.s:9762   .text:000000000000330c .LVL1196
     /tmp/ccCnP6rB.s:9840   .text:00000000000033c4 .LVL1205
     /tmp/ccCnP6rB.s:9850   .text:00000000000033d4 .LVL1207
     /tmp/ccCnP6rB.s:9865   .text:00000000000033e0 .LVL1210
     /tmp/ccCnP6rB.s:9861   .text:00000000000033dc .LVL1209
     /tmp/ccCnP6rB.s:9881   .text:00000000000033f8 .LVL1213
     /tmp/ccCnP6rB.s:9885   .text:00000000000033fc .LVL1214
     /tmp/ccCnP6rB.s:9936   .text:0000000000003450 .LVL1223
     /tmp/ccCnP6rB.s:9907   .text:000000000000341c .LVL1219
GAS LISTING /tmp/ccCnP6rB.s 			page 376


     /tmp/ccCnP6rB.s:9915   .text:000000000000342c .LVL1220
     /tmp/ccCnP6rB.s:9895   .text:0000000000003410 .LVL1217
     /tmp/ccCnP6rB.s:9939   .text:0000000000003454 .LVL1224
     /tmp/ccCnP6rB.s:4439   .text:000000000000119c .LVL491
     /tmp/ccCnP6rB.s:4461   .text:00000000000011c4 .LVL493
     /tmp/ccCnP6rB.s:4618   .text:0000000000001318 .LVL516
     /tmp/ccCnP6rB.s:4456   .text:00000000000011bc .LVL492
     /tmp/ccCnP6rB.s:4621   .text:000000000000131c .LVL517
     /tmp/ccCnP6rB.s:4548   .text:000000000000127c .LVL506
     /tmp/ccCnP6rB.s:4593   .text:00000000000012f4 .LVL513
     /tmp/ccCnP6rB.s:4604   .text:0000000000001308 .LVL515
     /tmp/ccCnP6rB.s:4483   .text:00000000000011dc .LVL496
     /tmp/ccCnP6rB.s:4489   .text:00000000000011e8 .LVL497
     /tmp/ccCnP6rB.s:9146   .text:0000000000002e94 .LVL1112
     /tmp/ccCnP6rB.s:9545   .text:00000000000031ec .LVL1172
     /tmp/ccCnP6rB.s:9558   .text:0000000000003200 .LVL1175
     /tmp/ccCnP6rB.s:9564   .text:000000000000320c .LVL1176
     /tmp/ccCnP6rB.s:9152   .text:0000000000002e9c .LVL1113
     /tmp/ccCnP6rB.s:9205   .text:0000000000002f1c .LVL1120
     /tmp/ccCnP6rB.s:9314   .text:0000000000003008 .LVL1135
     /tmp/ccCnP6rB.s:9387   .text:00000000000030b8 .LVL1145
     /tmp/ccCnP6rB.s:9446   .text:0000000000003148 .LVL1153
     /tmp/ccCnP6rB.s:9478   .text:0000000000003184 .LVL1159
     /tmp/ccCnP6rB.s:9568   .text:0000000000003210 .LVL1177
     /tmp/ccCnP6rB.s:9570   .text:0000000000003214 .LVL1178
     /tmp/ccCnP6rB.s:9573   .text:0000000000003218 .LVL1179
     /tmp/ccCnP6rB.s:9575   .text:000000000000321c .LVL1180
     /tmp/ccCnP6rB.s:9578   .text:0000000000003220 .LVL1181
     /tmp/ccCnP6rB.s:9580   .text:0000000000003224 .LVL1182
     /tmp/ccCnP6rB.s:9583   .text:0000000000003228 .LVL1183
     /tmp/ccCnP6rB.s:9164   .text:0000000000002eac .LVL1115
     /tmp/ccCnP6rB.s:9248   .text:0000000000002f74 .LVL1126
     /tmp/ccCnP6rB.s:9258   .text:0000000000002f84 .LVL1128
     /tmp/ccCnP6rB.s:9409   .text:00000000000030e4 .LVL1149
     /tmp/ccCnP6rB.s:9272   .text:0000000000002f94 .LVL1130
     /tmp/ccCnP6rB.s:9345   .text:0000000000003044 .LVL1140
     /tmp/ccCnP6rB.s:9482   .text:0000000000003188 .LVL1160
     /tmp/ccCnP6rB.s:9472   .text:000000000000317c .LVL1157
     /tmp/ccCnP6rB.s:9497   .text:00000000000031a0 .LVL1163
     /tmp/ccCnP6rB.s:9476   .text:0000000000003180 .LVL1158
     /tmp/ccCnP6rB.s:9501   .text:00000000000031a4 .LVL1164
     /tmp/ccCnP6rB.s:9552   .text:00000000000031f8 .LVL1173
     /tmp/ccCnP6rB.s:9523   .text:00000000000031c4 .LVL1169
     /tmp/ccCnP6rB.s:9531   .text:00000000000031d4 .LVL1170
     /tmp/ccCnP6rB.s:9511   .text:00000000000031b8 .LVL1167
     /tmp/ccCnP6rB.s:9555   .text:00000000000031fc .LVL1174
     /tmp/ccCnP6rB.s:4242   .text:0000000000001010 .LVL464
     /tmp/ccCnP6rB.s:4264   .text:0000000000001038 .LVL466
     /tmp/ccCnP6rB.s:4422   .text:0000000000001190 .LVL489
     /tmp/ccCnP6rB.s:4259   .text:0000000000001030 .LVL465
     /tmp/ccCnP6rB.s:4425   .text:0000000000001194 .LVL490
     /tmp/ccCnP6rB.s:4352   .text:00000000000010f4 .LVL479
     /tmp/ccCnP6rB.s:4397   .text:000000000000116c .LVL486
     /tmp/ccCnP6rB.s:4408   .text:0000000000001180 .LVL488
     /tmp/ccCnP6rB.s:4286   .text:0000000000001050 .LVL469
     /tmp/ccCnP6rB.s:4292   .text:000000000000105c .LVL470
     /tmp/ccCnP6rB.s:8692   .text:0000000000002b8c .LVL1048
GAS LISTING /tmp/ccCnP6rB.s 			page 377


     /tmp/ccCnP6rB.s:9022   .text:0000000000002e34 .LVL1101
     /tmp/ccCnP6rB.s:9032   .text:0000000000002e44 .LVL1103
     /tmp/ccCnP6rB.s:9041   .text:0000000000002e54 .LVL1105
     /tmp/ccCnP6rB.s:8698   .text:0000000000002b94 .LVL1049
     /tmp/ccCnP6rB.s:8735   .text:0000000000002bf8 .LVL1053
     /tmp/ccCnP6rB.s:8834   .text:0000000000002cd4 .LVL1068
     /tmp/ccCnP6rB.s:8859   .text:0000000000002d00 .LVL1073
     /tmp/ccCnP6rB.s:9045   .text:0000000000002e58 .LVL1106
     /tmp/ccCnP6rB.s:9047   .text:0000000000002e5c .LVL1107
     /tmp/ccCnP6rB.s:9050   .text:0000000000002e60 .LVL1108
     /tmp/ccCnP6rB.s:8770   .text:0000000000002c44 .LVL1059
     /tmp/ccCnP6rB.s:8780   .text:0000000000002c54 .LVL1061
     /tmp/ccCnP6rB.s:8855   .text:0000000000002cfc .LVL1072
     /tmp/ccCnP6rB.s:8861   .text:0000000000002d04 .LVL1074
     /tmp/ccCnP6rB.s:8898   .text:0000000000002d68 .LVL1078
     /tmp/ccCnP6rB.s:8952   .text:0000000000002dc8 .LVL1087
     /tmp/ccCnP6rB.s:9052   .text:0000000000002e64 .LVL1109
     /tmp/ccCnP6rB.s:9055   .text:0000000000002e68 .LVL1110
     /tmp/ccCnP6rB.s:8933   .text:0000000000002db4 .LVL1084
     /tmp/ccCnP6rB.s:8943   .text:0000000000002dc4 .LVL1086
     /tmp/ccCnP6rB.s:8958   .text:0000000000002dd0 .LVL1089
     /tmp/ccCnP6rB.s:8954   .text:0000000000002dcc .LVL1088
     /tmp/ccCnP6rB.s:8974   .text:0000000000002de8 .LVL1092
     /tmp/ccCnP6rB.s:8978   .text:0000000000002dec .LVL1093
     /tmp/ccCnP6rB.s:9029   .text:0000000000002e40 .LVL1102
     /tmp/ccCnP6rB.s:9000   .text:0000000000002e0c .LVL1098
     /tmp/ccCnP6rB.s:9008   .text:0000000000002e1c .LVL1099
     /tmp/ccCnP6rB.s:8988   .text:0000000000002e00 .LVL1096
     /tmp/ccCnP6rB.s:9035   .text:0000000000002e48 .LVL1104
     /tmp/ccCnP6rB.s:8793   .text:0000000000002c64 .LVL1063
     /tmp/ccCnP6rB.s:4042   .text:0000000000000e80 .LVL436
     /tmp/ccCnP6rB.s:4064   .text:0000000000000ea8 .LVL438
     /tmp/ccCnP6rB.s:4225   .text:0000000000001004 .LVL462
     /tmp/ccCnP6rB.s:4059   .text:0000000000000ea0 .LVL437
     /tmp/ccCnP6rB.s:4228   .text:0000000000001008 .LVL463
     /tmp/ccCnP6rB.s:4155   .text:0000000000000f68 .LVL452
     /tmp/ccCnP6rB.s:4200   .text:0000000000000fe0 .LVL459
     /tmp/ccCnP6rB.s:4211   .text:0000000000000ff4 .LVL461
     /tmp/ccCnP6rB.s:4086   .text:0000000000000ec0 .LVL441
     /tmp/ccCnP6rB.s:4092   .text:0000000000000ecc .LVL442
     /tmp/ccCnP6rB.s:8338   .text:0000000000002930 .LVL999
     /tmp/ccCnP6rB.s:8558   .text:0000000000002b04 .LVL1033
     /tmp/ccCnP6rB.s:8560   .text:0000000000002b08 .LVL1034
     /tmp/ccCnP6rB.s:8595   .text:0000000000002b40 .LVL1039
     /tmp/ccCnP6rB.s:8606   .text:0000000000002b50 .LVL1042
     /tmp/ccCnP6rB.s:8608   .text:0000000000002b54 .LVL1043
     /tmp/ccCnP6rB.s:8344   .text:0000000000002938 .LVL1000
     /tmp/ccCnP6rB.s:8381   .text:000000000000299c .LVL1004
     /tmp/ccCnP6rB.s:8488   .text:0000000000002a8c .LVL1019
     /tmp/ccCnP6rB.s:8520   .text:0000000000002acc .LVL1025
     /tmp/ccCnP6rB.s:8612   .text:0000000000002b58 .LVL1044
     /tmp/ccCnP6rB.s:8614   .text:0000000000002b5c .LVL1045
     /tmp/ccCnP6rB.s:8617   .text:0000000000002b60 .LVL1046
     /tmp/ccCnP6rB.s:8424   .text:00000000000029f8 .LVL1010
     /tmp/ccCnP6rB.s:8434   .text:0000000000002a08 .LVL1012
     /tmp/ccCnP6rB.s:8446   .text:0000000000002a18 .LVL1014
     /tmp/ccCnP6rB.s:8524   .text:0000000000002ad0 .LVL1026
GAS LISTING /tmp/ccCnP6rB.s 			page 378


     /tmp/ccCnP6rB.s:8514   .text:0000000000002ac4 .LVL1023
     /tmp/ccCnP6rB.s:8539   .text:0000000000002ae8 .LVL1029
     /tmp/ccCnP6rB.s:8518   .text:0000000000002ac8 .LVL1024
     /tmp/ccCnP6rB.s:8601   .text:0000000000002b48 .LVL1041
     /tmp/ccCnP6rB.s:8543   .text:0000000000002aec .LVL1030
     /tmp/ccCnP6rB.s:8570   .text:0000000000002b14 .LVL1036
     /tmp/ccCnP6rB.s:8578   .text:0000000000002b24 .LVL1037
     /tmp/ccCnP6rB.s:8598   .text:0000000000002b44 .LVL1040
     /tmp/ccCnP6rB.s:3841   .text:0000000000000cec .LVL408
     /tmp/ccCnP6rB.s:3863   .text:0000000000000d14 .LVL410
     /tmp/ccCnP6rB.s:4025   .text:0000000000000e74 .LVL434
     /tmp/ccCnP6rB.s:3858   .text:0000000000000d0c .LVL409
     /tmp/ccCnP6rB.s:4028   .text:0000000000000e78 .LVL435
     /tmp/ccCnP6rB.s:3955   .text:0000000000000dd8 .LVL424
     /tmp/ccCnP6rB.s:4000   .text:0000000000000e50 .LVL431
     /tmp/ccCnP6rB.s:4011   .text:0000000000000e64 .LVL433
     /tmp/ccCnP6rB.s:3885   .text:0000000000000d2c .LVL413
     /tmp/ccCnP6rB.s:3891   .text:0000000000000d38 .LVL414
     /tmp/ccCnP6rB.s:8084   .text:00000000000027c8 .LVL968
     /tmp/ccCnP6rB.s:8089   .text:00000000000027d0 .LVL969
     /tmp/ccCnP6rB.s:8113   .text:000000000000280c .LVL971
     /tmp/ccCnP6rB.s:8251   .text:00000000000028f8 .LVL995
     /tmp/ccCnP6rB.s:8262   .text:000000000000290c .LVL997
     /tmp/ccCnP6rB.s:8265   .text:0000000000002910 .LVL998
     /tmp/ccCnP6rB.s:8149   .text:000000000000285c .LVL977
     /tmp/ccCnP6rB.s:8159   .text:000000000000286c .LVL979
     /tmp/ccCnP6rB.s:8168   .text:0000000000002874 .LVL980
     /tmp/ccCnP6rB.s:8178   .text:0000000000002884 .LVL982
     /tmp/ccCnP6rB.s:8187   .text:0000000000002890 .LVL983
     /tmp/ccCnP6rB.s:8189   .text:0000000000002894 .LVL984
     /tmp/ccCnP6rB.s:8198   .text:00000000000028a4 .LVL986
     /tmp/ccCnP6rB.s:8207   .text:00000000000028b0 .LVL987
     /tmp/ccCnP6rB.s:8209   .text:00000000000028b4 .LVL988
     /tmp/ccCnP6rB.s:8213   .text:00000000000028b8 .LVL989
     /tmp/ccCnP6rB.s:8218   .text:00000000000028c0 .LVL990
     /tmp/ccCnP6rB.s:8230   .text:00000000000028d8 .LVL992
     /tmp/ccCnP6rB.s:8248   .text:00000000000028f4 .LVL994
     /tmp/ccCnP6rB.s:8034   .text:0000000000002754 .LVL962
     /tmp/ccCnP6rB.s:8257   .text:0000000000002904 .LVL996
     /tmp/ccCnP6rB.s:3738   .text._ZN2B73runEv:0000000000000000 .LVL394
     /tmp/ccCnP6rB.s:3755   .text._ZN2B73runEv:0000000000000024 .LVL395
     /tmp/ccCnP6rB.s:3826   .text._ZN2B73runEv:00000000000000a4 .LVL407
     /tmp/ccCnP6rB.s:3763   .text._ZN2B73runEv:0000000000000034 .LVL397
     /tmp/ccCnP6rB.s:3823   .text._ZN2B73runEv:00000000000000a0 .LVL406
     /tmp/ccCnP6rB.s:3783   .text._ZN2B73runEv:000000000000004c .LVL400
     /tmp/ccCnP6rB.s:3789   .text._ZN2B73runEv:0000000000000058 .LVL401
     /tmp/ccCnP6rB.s:3625   .text._ZN2A73runEv:0000000000000000 .LVL380
     /tmp/ccCnP6rB.s:3642   .text._ZN2A73runEv:0000000000000024 .LVL381
     /tmp/ccCnP6rB.s:3713   .text._ZN2A73runEv:00000000000000a4 .LVL393
     /tmp/ccCnP6rB.s:3650   .text._ZN2A73runEv:0000000000000034 .LVL383
     /tmp/ccCnP6rB.s:3710   .text._ZN2A73runEv:00000000000000a0 .LVL392
     /tmp/ccCnP6rB.s:3670   .text._ZN2A73runEv:000000000000004c .LVL386
     /tmp/ccCnP6rB.s:3676   .text._ZN2A73runEv:0000000000000058 .LVL387
     /tmp/ccCnP6rB.s:7777   .text:00000000000025d4 .LVL929
     /tmp/ccCnP6rB.s:7813   .text:0000000000002634 .LVL933
     /tmp/ccCnP6rB.s:7834   .text:0000000000002660 .LVL937
     /tmp/ccCnP6rB.s:7839   .text:0000000000002668 .LVL938
GAS LISTING /tmp/ccCnP6rB.s 			page 379


     /tmp/ccCnP6rB.s:7857   .text:0000000000002688 .LVL942
     /tmp/ccCnP6rB.s:7955   .text:0000000000002720 .LVL959
     /tmp/ccCnP6rB.s:7959   .text:0000000000002724 .LVL960
     /tmp/ccCnP6rB.s:7949   .text:0000000000002714 .LVL958
     /tmp/ccCnP6rB.s:7847   .text:0000000000002678 .LVL940
     /tmp/ccCnP6rB.s:7866   .text:0000000000002690 .LVL943
     /tmp/ccCnP6rB.s:7876   .text:00000000000026a0 .LVL945
     /tmp/ccCnP6rB.s:7885   .text:00000000000026ac .LVL946
     /tmp/ccCnP6rB.s:7887   .text:00000000000026b0 .LVL947
     /tmp/ccCnP6rB.s:7896   .text:00000000000026c0 .LVL949
     /tmp/ccCnP6rB.s:7905   .text:00000000000026cc .LVL950
     /tmp/ccCnP6rB.s:7907   .text:00000000000026d0 .LVL951
     /tmp/ccCnP6rB.s:7911   .text:00000000000026d4 .LVL952
     /tmp/ccCnP6rB.s:7916   .text:00000000000026dc .LVL953
     /tmp/ccCnP6rB.s:7928   .text:00000000000026f4 .LVL955
     /tmp/ccCnP6rB.s:7946   .text:0000000000002710 .LVL957
     /tmp/ccCnP6rB.s:133    .text:0000000000000094 .LVL12
     /tmp/ccCnP6rB.s:152    .text:00000000000000bc .LVL13
     /tmp/ccCnP6rB.s:288    .text:00000000000001e0 .LVL33
     /tmp/ccCnP6rB.s:172    .text:00000000000000f0 .LVL17
     /tmp/ccCnP6rB.s:291    .text:00000000000001e4 .LVL34
     /tmp/ccCnP6rB.s:211    .text:0000000000000124 .LVL22
     /tmp/ccCnP6rB.s:256    .text:000000000000019c .LVL29
     /tmp/ccCnP6rB.s:195    .text:000000000000010c .LVL20
     /tmp/ccCnP6rB.s:202    .text:000000000000011c .LVL21
     /tmp/ccCnP6rB.s:7697   .text:0000000000002590 .LVL926
     /tmp/ccCnP6rB.s:7607   .text:00000000000024bc .LVL914
     /tmp/ccCnP6rB.s:7703   .text:000000000000259c .LVL927
     /tmp/ccCnP6rB.s:25     .text:0000000000000000 .LVL0
     /tmp/ccCnP6rB.s:39     .text:000000000000001c .LVL1
     /tmp/ccCnP6rB.s:52     .text:000000000000003c .LVL4
     /tmp/ccCnP6rB.s:102    .text:000000000000008c .LVL11
     /tmp/ccCnP6rB.s:72     .text:0000000000000054 .LVL7
     /tmp/ccCnP6rB.s:79     .text:0000000000000064 .LVL8
     /tmp/ccCnP6rB.s:5942   .text:00000000000019e4 .LVL682
     /tmp/ccCnP6rB.s:5962   .text:0000000000001a08 .LVL683
     /tmp/ccCnP6rB.s:6235   .text:0000000000001c70 .LVL725
     /tmp/ccCnP6rB.s:6244   .text:0000000000001c80 .LVL727
     /tmp/ccCnP6rB.s:6232   .text:0000000000001c6c .LVL724
     /tmp/ccCnP6rB.s:6248   .text:0000000000001c88 .LVL728
     /tmp/ccCnP6rB.s:6229   .text:0000000000001c68 .LVL723
     /tmp/ccCnP6rB.s:6174   .text:0000000000001c14 .LVL715
     /tmp/ccCnP6rB.s:6226   .text:0000000000001c64 .LVL722
     /tmp/ccCnP6rB.s:6194   .text:0000000000001c2c .LVL718
     /tmp/ccCnP6rB.s:6201   .text:0000000000001c3c .LVL719
     /tmp/ccCnP6rB.s:5968   .text:0000000000001a14 .LVL685
     /tmp/ccCnP6rB.s:6239   .text:0000000000001c78 .LVL726
     /tmp/ccCnP6rB.s:6030   .text:0000000000001ab0 .LVL694
     /tmp/ccCnP6rB.s:6093   .text:0000000000001b4c .LVL703
     /tmp/ccCnP6rB.s:5475   .text:0000000000001680 .LVL623
     /tmp/ccCnP6rB.s:5497   .text:00000000000016a8 .LVL624
     /tmp/ccCnP6rB.s:5841   .text:00000000000019bc .LVL677
     /tmp/ccCnP6rB.s:5850   .text:00000000000019cc .LVL679
     /tmp/ccCnP6rB.s:5838   .text:00000000000019b8 .LVL676
     /tmp/ccCnP6rB.s:5854   .text:00000000000019d4 .LVL680
     /tmp/ccCnP6rB.s:5835   .text:00000000000019b4 .LVL675
     /tmp/ccCnP6rB.s:5858   .text:00000000000019dc .LVL681
GAS LISTING /tmp/ccCnP6rB.s 			page 380


     /tmp/ccCnP6rB.s:5832   .text:00000000000019b0 .LVL674
     /tmp/ccCnP6rB.s:5777   .text:000000000000195c .LVL666
     /tmp/ccCnP6rB.s:5829   .text:00000000000019ac .LVL673
     /tmp/ccCnP6rB.s:5797   .text:0000000000001974 .LVL669
     /tmp/ccCnP6rB.s:5804   .text:0000000000001984 .LVL670
     /tmp/ccCnP6rB.s:5503   .text:00000000000016b4 .LVL626
     /tmp/ccCnP6rB.s:5845   .text:00000000000019c4 .LVL678
     /tmp/ccCnP6rB.s:5565   .text:0000000000001750 .LVL635
     /tmp/ccCnP6rB.s:5628   .text:00000000000017ec .LVL644
     /tmp/ccCnP6rB.s:5691   .text:0000000000001888 .LVL653
     /tmp/ccCnP6rB.s:7304   .text:00000000000022ec .LVL878
     /tmp/ccCnP6rB.s:7501   .text:0000000000002470 .LVL906
     /tmp/ccCnP6rB.s:7513   .text:0000000000002484 .LVL909
     /tmp/ccCnP6rB.s:7516   .text:0000000000002488 .LVL910
     /tmp/ccCnP6rB.s:7518   .text:000000000000248c .LVL911
     /tmp/ccCnP6rB.s:7370   .text:0000000000002390 .LVL888
     /tmp/ccCnP6rB.s:7498   .text:000000000000246c .LVL905
     /tmp/ccCnP6rB.s:7521   .text:0000000000002490 .LVL912
     /tmp/ccCnP6rB.s:7504   .text:0000000000002474 .LVL907
     /tmp/ccCnP6rB.s:7198   .text:00000000000021d8 .LVL864
     /tmp/ccCnP6rB.s:7508   .text:000000000000247c .LVL908
     /tmp/ccCnP6rB.s:7262   .text:000000000000227c .LVL873
     /tmp/ccCnP6rB.s:7328   .text:0000000000002320 .LVL883
     /tmp/ccCnP6rB.s:7396   .text:00000000000023bc .LVL892
     /tmp/ccCnP6rB.s:7408   .text:00000000000023c4 .LVL893
     /tmp/ccCnP6rB.s:7420   .text:00000000000023cc .LVL894
     /tmp/ccCnP6rB.s:3414   .text:0000000000000b3c .LVL351
     /tmp/ccCnP6rB.s:3436   .text:0000000000000b64 .LVL353
     /tmp/ccCnP6rB.s:3600   .text:0000000000000ce4 .LVL379
     /tmp/ccCnP6rB.s:3431   .text:0000000000000b5c .LVL352
     /tmp/ccCnP6rB.s:3597   .text:0000000000000ce0 .LVL378
     /tmp/ccCnP6rB.s:3554   .text:0000000000000c8c .LVL373
     /tmp/ccCnP6rB.s:3582   .text:0000000000000cd0 .LVL377
     /tmp/ccCnP6rB.s:3458   .text:0000000000000b7c .LVL356
     /tmp/ccCnP6rB.s:3465   .text:0000000000000b8c .LVL357
     /tmp/ccCnP6rB.s:3195   .text:000000000000099c .LVL322
     /tmp/ccCnP6rB.s:3217   .text:00000000000009c4 .LVL324
     /tmp/ccCnP6rB.s:3377   .text:0000000000000b34 .LVL350
     /tmp/ccCnP6rB.s:3212   .text:00000000000009bc .LVL323
     /tmp/ccCnP6rB.s:3374   .text:0000000000000b30 .LVL349
     /tmp/ccCnP6rB.s:3331   .text:0000000000000adc .LVL344
     /tmp/ccCnP6rB.s:3359   .text:0000000000000b20 .LVL348
     /tmp/ccCnP6rB.s:3239   .text:00000000000009dc .LVL327
     /tmp/ccCnP6rB.s:3246   .text:00000000000009ec .LVL328
     /tmp/ccCnP6rB.s:2974   .text:00000000000007d8 .LVL291
     /tmp/ccCnP6rB.s:2996   .text:0000000000000800 .LVL293
     /tmp/ccCnP6rB.s:3167   .text:0000000000000994 .LVL321
     /tmp/ccCnP6rB.s:2991   .text:00000000000007f8 .LVL292
     /tmp/ccCnP6rB.s:3164   .text:0000000000000990 .LVL320
     /tmp/ccCnP6rB.s:3121   .text:000000000000093c .LVL315
     /tmp/ccCnP6rB.s:3149   .text:0000000000000980 .LVL319
     /tmp/ccCnP6rB.s:3018   .text:0000000000000818 .LVL296
     /tmp/ccCnP6rB.s:3025   .text:0000000000000828 .LVL297
     /tmp/ccCnP6rB.s:6939   .text:0000000000002058 .LVL821
     /tmp/ccCnP6rB.s:6975   .text:00000000000020b8 .LVL825
     /tmp/ccCnP6rB.s:6996   .text:00000000000020e4 .LVL829
     /tmp/ccCnP6rB.s:7002   .text:00000000000020ec .LVL831
GAS LISTING /tmp/ccCnP6rB.s 			page 381


     /tmp/ccCnP6rB.s:7020   .text:000000000000210c .LVL835
     /tmp/ccCnP6rB.s:7127   .text:00000000000021a4 .LVL861
     /tmp/ccCnP6rB.s:7131   .text:00000000000021a8 .LVL862
     /tmp/ccCnP6rB.s:6933   .text:0000000000002050 .LVL819
     /tmp/ccCnP6rB.s:6937   .text:0000000000002054 .LVL820
     /tmp/ccCnP6rB.s:7073   .text:0000000000002150 .LVL848
     /tmp/ccCnP6rB.s:7075   .text:0000000000002154 .LVL849
     /tmp/ccCnP6rB.s:7125   .text:00000000000021a0 .LVL860
     /tmp/ccCnP6rB.s:7120   .text:0000000000002198 .LVL859
     /tmp/ccCnP6rB.s:7000   .text:00000000000020e8 .LVL830
     /tmp/ccCnP6rB.s:7028   .text:0000000000002110 .LVL836
     /tmp/ccCnP6rB.s:7032   .text:0000000000002114 .LVL837
     /tmp/ccCnP6rB.s:7045   .text:000000000000212c .LVL841
     /tmp/ccCnP6rB.s:7051   .text:0000000000002130 .LVL842
     /tmp/ccCnP6rB.s:7055   .text:0000000000002134 .LVL843
     /tmp/ccCnP6rB.s:7067   .text:000000000000214c .LVL847
     /tmp/ccCnP6rB.s:7083   .text:000000000000215c .LVL851
     /tmp/ccCnP6rB.s:7093   .text:000000000000216c .LVL853
     /tmp/ccCnP6rB.s:7098   .text:0000000000002178 .LVL855
     /tmp/ccCnP6rB.s:7114   .text:0000000000002190 .LVL857
     /tmp/ccCnP6rB.s:7010   .text:00000000000020fc .LVL833
     /tmp/ccCnP6rB.s:7034   .text:0000000000002118 .LVL838
     /tmp/ccCnP6rB.s:7043   .text:0000000000002128 .LVL840
     /tmp/ccCnP6rB.s:7057   .text:0000000000002138 .LVL844
     /tmp/ccCnP6rB.s:7065   .text:0000000000002148 .LVL846
     /tmp/ccCnP6rB.s:7079   .text:0000000000002158 .LVL850
     /tmp/ccCnP6rB.s:7085   .text:0000000000002160 .LVL852
     /tmp/ccCnP6rB.s:7117   .text:0000000000002194 .LVL858
     /tmp/ccCnP6rB.s:2740   .text:0000000000000610 .LVL261
     /tmp/ccCnP6rB.s:2762   .text:0000000000000638 .LVL263
     /tmp/ccCnP6rB.s:2934   .text:00000000000007cc .LVL289
     /tmp/ccCnP6rB.s:2757   .text:0000000000000630 .LVL262
     /tmp/ccCnP6rB.s:2937   .text:00000000000007d0 .LVL290
     /tmp/ccCnP6rB.s:2862   .text:0000000000000720 .LVL279
     /tmp/ccCnP6rB.s:2902   .text:0000000000000788 .LVL285
     /tmp/ccCnP6rB.s:2785   .text:0000000000000654 .LVL266
     /tmp/ccCnP6rB.s:2791   .text:0000000000000660 .LVL267
     /tmp/ccCnP6rB.s:6692   .text:0000000000001f04 .LVL779
     /tmp/ccCnP6rB.s:6716   .text:0000000000001f40 .LVL781
     /tmp/ccCnP6rB.s:6737   .text:0000000000001f6c .LVL785
     /tmp/ccCnP6rB.s:6743   .text:0000000000001f74 .LVL787
     /tmp/ccCnP6rB.s:6761   .text:0000000000001f94 .LVL791
     /tmp/ccCnP6rB.s:6868   .text:000000000000202c .LVL817
     /tmp/ccCnP6rB.s:6872   .text:0000000000002030 .LVL818
     /tmp/ccCnP6rB.s:6686   .text:0000000000001efc .LVL777
     /tmp/ccCnP6rB.s:6690   .text:0000000000001f00 .LVL778
     /tmp/ccCnP6rB.s:6814   .text:0000000000001fd8 .LVL804
     /tmp/ccCnP6rB.s:6816   .text:0000000000001fdc .LVL805
     /tmp/ccCnP6rB.s:6866   .text:0000000000002028 .LVL816
     /tmp/ccCnP6rB.s:6861   .text:0000000000002020 .LVL815
     /tmp/ccCnP6rB.s:6741   .text:0000000000001f70 .LVL786
     /tmp/ccCnP6rB.s:6769   .text:0000000000001f98 .LVL792
     /tmp/ccCnP6rB.s:6773   .text:0000000000001f9c .LVL793
     /tmp/ccCnP6rB.s:6786   .text:0000000000001fb4 .LVL797
     /tmp/ccCnP6rB.s:6792   .text:0000000000001fb8 .LVL798
     /tmp/ccCnP6rB.s:6796   .text:0000000000001fbc .LVL799
     /tmp/ccCnP6rB.s:6808   .text:0000000000001fd4 .LVL803
GAS LISTING /tmp/ccCnP6rB.s 			page 382


     /tmp/ccCnP6rB.s:6824   .text:0000000000001fe4 .LVL807
     /tmp/ccCnP6rB.s:6834   .text:0000000000001ff4 .LVL809
     /tmp/ccCnP6rB.s:6839   .text:0000000000002000 .LVL811
     /tmp/ccCnP6rB.s:6855   .text:0000000000002018 .LVL813
     /tmp/ccCnP6rB.s:6751   .text:0000000000001f84 .LVL789
     /tmp/ccCnP6rB.s:6775   .text:0000000000001fa0 .LVL794
     /tmp/ccCnP6rB.s:6784   .text:0000000000001fb0 .LVL796
     /tmp/ccCnP6rB.s:6798   .text:0000000000001fc0 .LVL800
     /tmp/ccCnP6rB.s:6806   .text:0000000000001fd0 .LVL802
     /tmp/ccCnP6rB.s:6820   .text:0000000000001fe0 .LVL806
     /tmp/ccCnP6rB.s:6826   .text:0000000000001fe8 .LVL808
     /tmp/ccCnP6rB.s:6858   .text:000000000000201c .LVL814
     /tmp/ccCnP6rB.s:2512   .text:0000000000000434 .LVL230
     /tmp/ccCnP6rB.s:2534   .text:000000000000045c .LVL232
     /tmp/ccCnP6rB.s:2712   .text:0000000000000604 .LVL259
     /tmp/ccCnP6rB.s:2529   .text:0000000000000454 .LVL231
     /tmp/ccCnP6rB.s:2715   .text:0000000000000608 .LVL260
     /tmp/ccCnP6rB.s:2635   .text:0000000000000548 .LVL248
     /tmp/ccCnP6rB.s:2675   .text:00000000000005b0 .LVL254
     /tmp/ccCnP6rB.s:2556   .text:0000000000000474 .LVL235
     /tmp/ccCnP6rB.s:2563   .text:0000000000000484 .LVL236
     /tmp/ccCnP6rB.s:6334   .text:0000000000001cac .LVL729
     /tmp/ccCnP6rB.s:6554   .text:0000000000001e80 .LVL763
     /tmp/ccCnP6rB.s:6556   .text:0000000000001e84 .LVL764
     /tmp/ccCnP6rB.s:6591   .text:0000000000001ebc .LVL769
     /tmp/ccCnP6rB.s:6602   .text:0000000000001ecc .LVL772
     /tmp/ccCnP6rB.s:6604   .text:0000000000001ed0 .LVL773
     /tmp/ccCnP6rB.s:6340   .text:0000000000001cb4 .LVL730
     /tmp/ccCnP6rB.s:6377   .text:0000000000001d18 .LVL734
     /tmp/ccCnP6rB.s:6484   .text:0000000000001e08 .LVL749
     /tmp/ccCnP6rB.s:6516   .text:0000000000001e48 .LVL755
     /tmp/ccCnP6rB.s:6608   .text:0000000000001ed4 .LVL774
     /tmp/ccCnP6rB.s:6610   .text:0000000000001ed8 .LVL775
     /tmp/ccCnP6rB.s:6613   .text:0000000000001edc .LVL776
     /tmp/ccCnP6rB.s:6420   .text:0000000000001d74 .LVL740
     /tmp/ccCnP6rB.s:6430   .text:0000000000001d84 .LVL742
     /tmp/ccCnP6rB.s:6442   .text:0000000000001d94 .LVL744
     /tmp/ccCnP6rB.s:6520   .text:0000000000001e4c .LVL756
     /tmp/ccCnP6rB.s:6510   .text:0000000000001e40 .LVL753
     /tmp/ccCnP6rB.s:6535   .text:0000000000001e64 .LVL759
     /tmp/ccCnP6rB.s:6514   .text:0000000000001e44 .LVL754
     /tmp/ccCnP6rB.s:6597   .text:0000000000001ec4 .LVL771
     /tmp/ccCnP6rB.s:6539   .text:0000000000001e68 .LVL760
     /tmp/ccCnP6rB.s:6566   .text:0000000000001e90 .LVL766
     /tmp/ccCnP6rB.s:6574   .text:0000000000001ea0 .LVL767
     /tmp/ccCnP6rB.s:6594   .text:0000000000001ec0 .LVL770
     /tmp/ccCnP6rB.s:440    .text:00000000000002a0 .LVL48
     /tmp/ccCnP6rB.s:462    .text:00000000000002c8 .LVL50
     /tmp/ccCnP6rB.s:624    .text:0000000000000428 .LVL74
     /tmp/ccCnP6rB.s:457    .text:00000000000002c0 .LVL49
     /tmp/ccCnP6rB.s:627    .text:000000000000042c .LVL75
     /tmp/ccCnP6rB.s:554    .text:000000000000038c .LVL64
     /tmp/ccCnP6rB.s:599    .text:0000000000000404 .LVL71
     /tmp/ccCnP6rB.s:610    .text:0000000000000418 .LVL73
     /tmp/ccCnP6rB.s:484    .text:00000000000002e0 .LVL53
     /tmp/ccCnP6rB.s:490    .text:00000000000002ec .LVL54
     /tmp/ccCnP6rB.s:11133  .debug_info:0000000000000000 .Ldebug_info0
GAS LISTING /tmp/ccCnP6rB.s 			page 383


     /tmp/ccCnP6rB.s:5      .text:0000000000000000 .Ltext0
     /tmp/ccCnP6rB.s:11127  .text:00000000000039a8 .Letext0
     /tmp/ccCnP6rB.s:175    .text:00000000000000f0 .LBB104
     /tmp/ccCnP6rB.s:207    .text:0000000000000120 .LBE104
     /tmp/ccCnP6rB.s:252    .text:0000000000000194 .LBB108
     /tmp/ccCnP6rB.s:258    .text:000000000000019c .LBE108
     /tmp/ccCnP6rB.s:332    .text:000000000000020c .LBB112
     /tmp/ccCnP6rB.s:363    .text:0000000000000238 .LBE112
     /tmp/ccCnP6rB.s:394    .text:0000000000000280 .LBB116
     /tmp/ccCnP6rB.s:399    .text:0000000000000288 .LBE116
     /tmp/ccCnP6rB.s:465    .text:00000000000002c8 .LBB120
     /tmp/ccCnP6rB.s:495    .text:00000000000002f0 .LBE120
     /tmp/ccCnP6rB.s:595    .text:00000000000003fc .LBB124
     /tmp/ccCnP6rB.s:601    .text:0000000000000404 .LBE124
     /tmp/ccCnP6rB.s:2537   .text:000000000000045c .LBB194
     /tmp/ccCnP6rB.s:2568   .text:0000000000000488 .LBE194
     /tmp/ccCnP6rB.s:2671   .text:00000000000005a8 .LBB198
     /tmp/ccCnP6rB.s:2677   .text:00000000000005b0 .LBE198
     /tmp/ccCnP6rB.s:2765   .text:0000000000000638 .LBB202
     /tmp/ccCnP6rB.s:2796   .text:0000000000000664 .LBE202
     /tmp/ccCnP6rB.s:2898   .text:0000000000000780 .LBB206
     /tmp/ccCnP6rB.s:2904   .text:0000000000000788 .LBE206
     /tmp/ccCnP6rB.s:2999   .text:0000000000000800 .LBB210
     /tmp/ccCnP6rB.s:3030   .text:000000000000082c .LBE210
     /tmp/ccCnP6rB.s:3145   .text:0000000000000978 .LBB214
     /tmp/ccCnP6rB.s:3151   .text:0000000000000980 .LBE214
     /tmp/ccCnP6rB.s:3220   .text:00000000000009c4 .LBB218
     /tmp/ccCnP6rB.s:3251   .text:00000000000009f0 .LBE218
     /tmp/ccCnP6rB.s:3355   .text:0000000000000b18 .LBB222
     /tmp/ccCnP6rB.s:3361   .text:0000000000000b20 .LBE222
     /tmp/ccCnP6rB.s:3439   .text:0000000000000b64 .LBB226
     /tmp/ccCnP6rB.s:3470   .text:0000000000000b90 .LBE226
     /tmp/ccCnP6rB.s:3578   .text:0000000000000cc8 .LBB230
     /tmp/ccCnP6rB.s:3584   .text:0000000000000cd0 .LBE230
     /tmp/ccCnP6rB.s:3866   .text:0000000000000d14 .LBB242
     /tmp/ccCnP6rB.s:3896   .text:0000000000000d3c .LBE242
     /tmp/ccCnP6rB.s:3996   .text:0000000000000e48 .LBB246
     /tmp/ccCnP6rB.s:4002   .text:0000000000000e50 .LBE246
     /tmp/ccCnP6rB.s:4067   .text:0000000000000ea8 .LBB250
     /tmp/ccCnP6rB.s:4097   .text:0000000000000ed0 .LBE250
     /tmp/ccCnP6rB.s:4196   .text:0000000000000fd8 .LBB254
     /tmp/ccCnP6rB.s:4202   .text:0000000000000fe0 .LBE254
     /tmp/ccCnP6rB.s:4267   .text:0000000000001038 .LBB258
     /tmp/ccCnP6rB.s:4297   .text:0000000000001060 .LBE258
     /tmp/ccCnP6rB.s:4393   .text:0000000000001164 .LBB262
     /tmp/ccCnP6rB.s:4399   .text:000000000000116c .LBE262
     /tmp/ccCnP6rB.s:4464   .text:00000000000011c4 .LBB266
     /tmp/ccCnP6rB.s:4494   .text:00000000000011ec .LBE266
     /tmp/ccCnP6rB.s:4589   .text:00000000000012ec .LBB270
     /tmp/ccCnP6rB.s:4595   .text:00000000000012f4 .LBE270
     /tmp/ccCnP6rB.s:4909   .text:00000000000014c8 .LBB283
     /tmp/ccCnP6rB.s:4940   .text:00000000000014f4 .LBE283
     /tmp/ccCnP6rB.s:4980   .text:0000000000001554 .LBB287
     /tmp/ccCnP6rB.s:4986   .text:000000000000155c .LBE287
     /tmp/ccCnP6rB.s:5059   .text:00000000000015c0 .LBB291
     /tmp/ccCnP6rB.s:5090   .text:00000000000015ec .LBE291
     /tmp/ccCnP6rB.s:5125   .text:000000000000163c .LBB295
GAS LISTING /tmp/ccCnP6rB.s 			page 384


     /tmp/ccCnP6rB.s:5131   .text:0000000000001644 .LBE295
     /tmp/ccCnP6rB.s:5216   .text._ZN11testTRYWait3runEv:000000000000002c .LBB297
     /tmp/ccCnP6rB.s:5302   .text._ZN11testTRYWait3runEv:00000000000000d8 .LBE297
     /tmp/ccCnP6rB.s:5336   .text._ZN11testTRYWait3runEv:0000000000000118 .LBB314
     /tmp/ccCnP6rB.s:5410   .text._ZN11testTRYWait3runEv:0000000000000190 .LBE314
     /tmp/ccCnP6rB.s:5414   .text._ZN11testTRYWait3runEv:0000000000000194 .LBB315
     /tmp/ccCnP6rB.s:5432   .text._ZN11testTRYWait3runEv:00000000000001b8 .LBE315
     /tmp/ccCnP6rB.s:5434   .text._ZN11testTRYWait3runEv:00000000000001b8 .LBB316
     /tmp/ccCnP6rB.s:5448   .text._ZN11testTRYWait3runEv:00000000000001d4 .LBE316
     /tmp/ccCnP6rB.s:6384   .text:0000000000001d24 .LBE377
     /tmp/ccCnP6rB.s:6421   .text:0000000000001d74 .LBB380
     /tmp/ccCnP6rB.s:6433   .text:0000000000001d84 .LBE380
     /tmp/ccCnP6rB.s:6723   .text:0000000000001f4c .LBE394
     /tmp/ccCnP6rB.s:6752   .text:0000000000001f84 .LBB397
     /tmp/ccCnP6rB.s:6764   .text:0000000000001f94 .LBE397
     /tmp/ccCnP6rB.s:6982   .text:00000000000020c4 .LBE409
     /tmp/ccCnP6rB.s:7011   .text:00000000000020fc .LBB412
     /tmp/ccCnP6rB.s:7023   .text:000000000000210c .LBE412
     /tmp/ccCnP6rB.s:7820   .text:0000000000002640 .LBE456
     /tmp/ccCnP6rB.s:7848   .text:0000000000002678 .LBB459
     /tmp/ccCnP6rB.s:7860   .text:0000000000002688 .LBE459
     /tmp/ccCnP6rB.s:8120   .text:0000000000002818 .LBE476
     /tmp/ccCnP6rB.s:8150   .text:000000000000285c .LBB479
     /tmp/ccCnP6rB.s:8162   .text:000000000000286c .LBE479
     /tmp/ccCnP6rB.s:8388   .text:00000000000029a8 .LBE494
     /tmp/ccCnP6rB.s:8425   .text:00000000000029f8 .LBB497
     /tmp/ccCnP6rB.s:8437   .text:0000000000002a08 .LBE497
     /tmp/ccCnP6rB.s:8742   .text:0000000000002c04 .LBE518
     /tmp/ccCnP6rB.s:8771   .text:0000000000002c44 .LBB521
     /tmp/ccCnP6rB.s:8783   .text:0000000000002c54 .LBE521
     /tmp/ccCnP6rB.s:8905   .text:0000000000002d74 .LBE525
     /tmp/ccCnP6rB.s:8934   .text:0000000000002db4 .LBB528
     /tmp/ccCnP6rB.s:8946   .text:0000000000002dc4 .LBE528
     /tmp/ccCnP6rB.s:9261   .text:0000000000002f84 .LBE551
     /tmp/ccCnP6rB.s:9411   .text:00000000000030e4 .LBB558
     /tmp/ccCnP6rB.s:9453   .text:0000000000003154 .LBE558
     /tmp/ccCnP6rB.s:9805   .text:000000000000337c .LBE575
     /tmp/ccCnP6rB.s:9841   .text:00000000000033c4 .LBB578
     /tmp/ccCnP6rB.s:9853   .text:00000000000033d4 .LBE578
     /tmp/ccCnP6rB.s:10572  .text:0000000000003818 .LBB594
     /tmp/ccCnP6rB.s:10621  .text:0000000000003870 .LBE594
     /tmp/ccCnP6rB.s:10764  .text:0000000000003990 .LBB602
     /tmp/ccCnP6rB.s:10773  .text:00000000000039a8 .LBE602
     /tmp/ccCnP6rB.s:10586  .text:0000000000003830 .LBE595
     /tmp/ccCnP6rB.s:10610  .text:0000000000003864 .LBB598
     /tmp/ccCnP6rB.s:10620  .text:0000000000003870 .LBE598
     /tmp/ccCnP6rB.s:5866   .gcc_except_table:0000000000000000 .LLSDA45
     /tmp/ccCnP6rB.s:6255   .gcc_except_table:00000000000000ae .LLSDA46
     /tmp/ccCnP6rB.s:6618   .gcc_except_table:0000000000000135 .LLSDA9
     /tmp/ccCnP6rB.s:6877   .gcc_except_table:0000000000000194 .LLSDA14
     /tmp/ccCnP6rB.s:7136   .gcc_except_table:00000000000001cc .LLSDA19
     /tmp/ccCnP6rB.s:7526   .gcc_except_table:0000000000000204 .LLSDA35
     /tmp/ccCnP6rB.s:7711   .gcc_except_table:000000000000028b .LLSDA48
     /tmp/ccCnP6rB.s:7964   .gcc_except_table:00000000000002c3 .LLSDA53
     /tmp/ccCnP6rB.s:8270   .gcc_except_table:0000000000000308 .LLSDA62
     /tmp/ccCnP6rB.s:8622   .gcc_except_table:0000000000000374 .LLSDA67
     /tmp/ccCnP6rB.s:9060   .gcc_except_table:00000000000003d3 .LLSDA72
GAS LISTING /tmp/ccCnP6rB.s 			page 385


     /tmp/ccCnP6rB.s:9588   .gcc_except_table:0000000000000467 .LLSDA77
     /tmp/ccCnP6rB.s:9960   .gcc_except_table:0000000000000522 .LLSDA82
     /tmp/ccCnP6rB.s:10192  .gcc_except_table:000000000000058e .LLSDA91
     /tmp/ccCnP6rB.s:10476  .gcc_except_table:0000000000000607 .LLSDA105
     /tmp/ccCnP6rB.s:10777  .gcc_except_table:0000000000000666 .LLSDA110
                           .group:0000000000000000 _ZN2A7D5Ev
                           .group:0000000000000000 _ZN2B7D5Ev
                           .group:0000000000000000 _ZN11testTRYWaitD5Ev
                           .group:0000000000000000 _ZN3C13D5Ev
                           .group:0000000000000000 _ZN3B13D5Ev
                           .group:0000000000000000 _ZN3A13D5Ev
                           .group:0000000000000000 _ZN3B12D5Ev
                           .group:0000000000000000 _ZN3A12D5Ev
                           .group:0000000000000000 _ZN3A11D5Ev
                           .group:0000000000000000 _ZN3A10D5Ev
                           .group:0000000000000000 _ZN2A9D5Ev
                           .group:0000000000000000 _ZN2A8D5Ev
                           .group:0000000000000000 _ZN2A5D5Ev
                           .group:0000000000000000 _ZN2C4D5Ev
                           .group:0000000000000000 _ZN2B4D5Ev
                           .group:0000000000000000 _ZN2A4D5Ev
                           .group:0000000000000000 _ZN2C3D5Ev
                           .group:0000000000000000 _ZN2B3D5Ev
                           .group:0000000000000000 _ZN2A3D5Ev
                           .group:0000000000000000 _ZN2A6D5Ev
                           .group:0000000000000000 _ZN2A2D5Ev
                           .group:0000000000000000 _ZN2A1D5Ev

UNDEFINED SYMBOLS
_Z11printStringPKc
_Z15thread_dispatchv
_Z8printIntiii
_ZN6Thread5womanEj
_ZN6Thread3manEj
_ZN6ThreadD2Ev
_ZdlPv
_ZN6Thread7barrierEv
_ZN6Thread9barrier_2Ev
_ZN6Thread4sendEPKc
_ZN6Thread7receiveEv
_ZN6Thread8producerEi
_ZN6Thread8consumerEi
_ZN6Thread1HEj
_ZN6Thread1OEj
_ZN6Thread4cookEv
_ZN6Thread6savageEj
_ZN6Thread10birdParentEj
_ZN6Thread9birdChildEj
_ZN6Thread4medaEv
_ZN6Thread5pcelaEj
_ZN9Semaphore5waitNEi
_ZN9Semaphore7signalNEv
_ZN6Thread10pingThreadEv
_ZN9Semaphore6signalEv
_ZN6Thread11getThreadIdEv
_ZN9Semaphore7trywaitEv
_Znwm
GAS LISTING /tmp/ccCnP6rB.s 			page 386


_ZN6ThreadC2Ev
_Unwind_Resume
_ZN6Thread5startEv
_ZN6Thread7joinALLEv
__gxx_personality_v0
_ZN6Thread4joinEv
_ZN6Thread13setMaxThreadsEi
_ZN9SemaphoreC1Ej
_ZN9Semaphore4waitEv
