GAS LISTING /tmp/ccCnP6rB.s 			page 1


   1              		.file	"Test8.cpp"
   2              		.option pic
   3              		.option norelax
   4              		.text
   5              	.Ltext0:
   6              		.section	.rodata.str1.8,"aMS",@progbits,1
   7              		.align	3
   8              	.LC0:
   9 0000 43206F62 		.string	"C obrada...\n "
   9      72616461 
   9      2E2E2E0A 
   9      2000
  10 000e 0000     		.align	3
  11              	.LC1:
  12 0010 0A00     		.string	"\n"
  13 0012 00000000 		.align	3
  13      0000
  14              	.LC2:
  15 0018 43207A61 		.string	"C zavrsila \n"
  15      76727369 
  15      6C61200A 
  15      00
  16              		.text
  17              		.align	2
  18              		.globl	_ZN2C43runEv
  20              	_ZN2C43runEv:
  21              	.LFB47:
  22              		.file 1 "test/Test8.cpp"
   1:test/Test8.cpp **** //
   2:test/Test8.cpp **** // Created by os on 9/19/24.
   3:test/Test8.cpp **** //
   4:test/Test8.cpp **** 
   5:test/Test8.cpp **** #include "Test8.hpp"
   6:test/Test8.cpp **** #include "../h/syscall_cpp.hpp"
   7:test/Test8.cpp **** #include "printing.hpp"
   8:test/Test8.cpp **** 
   9:test/Test8.cpp **** static int ID=1;
  10:test/Test8.cpp **** static int X=13;
  11:test/Test8.cpp **** class A1:public Thread{
  12:test/Test8.cpp ****     int id;
  13:test/Test8.cpp ****     int type;
  14:test/Test8.cpp ****     //0-man
  15:test/Test8.cpp ****     //1-woman
  16:test/Test8.cpp **** public:
  17:test/Test8.cpp ****     A1(int t):Thread(),id(ID++),type(t){
  18:test/Test8.cpp ****         printString("Nit kreirana - id: ");
  19:test/Test8.cpp ****         printInt(id);
  20:test/Test8.cpp ****         printString("\n");
  21:test/Test8.cpp ****     }
  22:test/Test8.cpp **** protected:
  23:test/Test8.cpp ****     void run() override;
  24:test/Test8.cpp **** };
  25:test/Test8.cpp **** 
  26:test/Test8.cpp **** void A1::run() {
  27:test/Test8.cpp ****     for(int m=0;m<3;m++){
  28:test/Test8.cpp ****         printString("Nit, pocetak wrappera- id: ");
  29:test/Test8.cpp ****         printInt(id);
GAS LISTING /tmp/ccCnP6rB.s 			page 2


  30:test/Test8.cpp ****         printString("\n");
  31:test/Test8.cpp ****         printString("Iteracija: ");
  32:test/Test8.cpp ****         printInt(m);
  33:test/Test8.cpp ****         printString("\n");
  34:test/Test8.cpp ****         for(int i=0;i<1000;i++){
  35:test/Test8.cpp ****             for(int j=0;j<1000;j++){}
  36:test/Test8.cpp ****             thread_dispatch();
  37:test/Test8.cpp ****         }
  38:test/Test8.cpp ****         printString("Nit - id: ");
  39:test/Test8.cpp ****         printInt(id);
  40:test/Test8.cpp ****         printString("\n");
  41:test/Test8.cpp ****         printString("Iteracija: ");
  42:test/Test8.cpp ****         printInt(m);
  43:test/Test8.cpp ****         printString("\n");
  44:test/Test8.cpp ****         if(type){
  45:test/Test8.cpp ****             woman(id);
  46:test/Test8.cpp ****         }else if(type==0){
  47:test/Test8.cpp ****             man(id);
  48:test/Test8.cpp ****         }
  49:test/Test8.cpp ****         thread_dispatch();
  50:test/Test8.cpp ****         printString("Jedna itercija gotova\n");
  51:test/Test8.cpp ****     }
  52:test/Test8.cpp **** 
  53:test/Test8.cpp **** }
  54:test/Test8.cpp **** void test8(){
  55:test/Test8.cpp ****     A1* niz[X];
  56:test/Test8.cpp ****     for(int i=0;i<X;i++){
  57:test/Test8.cpp ****         if(i%3==0){
  58:test/Test8.cpp ****             niz[i]=new A1(0);
  59:test/Test8.cpp ****         }else{
  60:test/Test8.cpp ****             niz[i]=new A1(1);
  61:test/Test8.cpp ****         }
  62:test/Test8.cpp ****     }
  63:test/Test8.cpp ****     for(auto nit:niz){
  64:test/Test8.cpp ****         nit->start();
  65:test/Test8.cpp ****     }
  66:test/Test8.cpp **** 
  67:test/Test8.cpp ****     for(auto nit:niz){
  68:test/Test8.cpp ****         nit->join();
  69:test/Test8.cpp ****     }
  70:test/Test8.cpp ****     for(auto nit:niz){
  71:test/Test8.cpp ****         delete nit;
  72:test/Test8.cpp ****     }
  73:test/Test8.cpp ****     printString("TEST 8 - unisex WC gotov\n");
  74:test/Test8.cpp **** };
  75:test/Test8.cpp **** 
  76:test/Test8.cpp **** 
  77:test/Test8.cpp **** //BARIJERA - 1. nacin preko liste
  78:test/Test8.cpp **** static int IDD=1;
  79:test/Test8.cpp **** 
  80:test/Test8.cpp **** class A2:public Thread{
  81:test/Test8.cpp ****     int id;
  82:test/Test8.cpp **** public:
  83:test/Test8.cpp ****     A2():Thread(),id(IDD++){
  84:test/Test8.cpp ****         printString("Nit A kreirana\n");
  85:test/Test8.cpp ****     }
  86:test/Test8.cpp **** protected:
GAS LISTING /tmp/ccCnP6rB.s 			page 3


  87:test/Test8.cpp ****     void run() override;
  88:test/Test8.cpp **** };
  89:test/Test8.cpp **** 
  90:test/Test8.cpp **** void A2::run(){
  91:test/Test8.cpp ****     for(int m=0;m<3;m++){
  92:test/Test8.cpp ****         printString("Pocetak wrappera - nit id: ");
  93:test/Test8.cpp ****         printInt(id);
  94:test/Test8.cpp ****         printString(" i iteracija ");
  95:test/Test8.cpp ****         printInt(m);
  96:test/Test8.cpp ****         printString(". Obrada...\n");
  97:test/Test8.cpp ****         for(int i=0;i<1000;i++){
  98:test/Test8.cpp ****             for(int j=0;j<10000;j++){
  99:test/Test8.cpp **** 
 100:test/Test8.cpp ****             }
 101:test/Test8.cpp ****             thread_dispatch();
 102:test/Test8.cpp ****         }
 103:test/Test8.cpp ****         printString("Nit id: ");
 104:test/Test8.cpp ****         printInt(id);
 105:test/Test8.cpp ****         printString(" poziva barijeru, iteracija: ");
 106:test/Test8.cpp ****         printInt(m);
 107:test/Test8.cpp ****         printString("\n");
 108:test/Test8.cpp ****         barrier();
 109:test/Test8.cpp ****         printString("Nit id: ");
 110:test/Test8.cpp ****         printInt(id);
 111:test/Test8.cpp ****         printString(" prosla barijeru, iteracija: ");
 112:test/Test8.cpp ****         printInt(m);
 113:test/Test8.cpp ****         printString("\n");
 114:test/Test8.cpp ****     }
 115:test/Test8.cpp ****     printString("Gotove sve tri iteracije\n");
 116:test/Test8.cpp ****     printString("Nit id: ");
 117:test/Test8.cpp ****     printInt(id);
 118:test/Test8.cpp ****     printString("\n");
 119:test/Test8.cpp **** }
 120:test/Test8.cpp **** 
 121:test/Test8.cpp **** void testBarijera(){
 122:test/Test8.cpp ****     A2* niti[6];
 123:test/Test8.cpp ****     for(auto & nit:niti){
 124:test/Test8.cpp ****         nit = new A2();
 125:test/Test8.cpp ****     }
 126:test/Test8.cpp ****     for(auto & nit:niti){
 127:test/Test8.cpp ****         nit->start();
 128:test/Test8.cpp ****     }
 129:test/Test8.cpp ****     for(auto & nit:niti){
 130:test/Test8.cpp ****         nit->join();
 131:test/Test8.cpp ****     }
 132:test/Test8.cpp ****     for(auto & nit:niti){
 133:test/Test8.cpp ****         delete nit;
 134:test/Test8.cpp ****     }
 135:test/Test8.cpp ****     printString("TEST 8 - sinhronizacija na BARIJERI uspesno zavrsen\n");
 136:test/Test8.cpp **** }
 137:test/Test8.cpp **** 
 138:test/Test8.cpp **** //Barijera 2. nacin preko semafora
 139:test/Test8.cpp **** int z = 1;
 140:test/Test8.cpp **** class A6:public Thread{
 141:test/Test8.cpp ****     int id;
 142:test/Test8.cpp **** public:
 143:test/Test8.cpp ****     A6():Thread(),id(z++){
GAS LISTING /tmp/ccCnP6rB.s 			page 4


 144:test/Test8.cpp ****         printString("Nit id - ");
 145:test/Test8.cpp ****         printInt(id);
 146:test/Test8.cpp ****         printString(" kreirana\n");
 147:test/Test8.cpp ****     }
 148:test/Test8.cpp **** protected:
 149:test/Test8.cpp ****     void run() override;
 150:test/Test8.cpp **** };
 151:test/Test8.cpp **** 
 152:test/Test8.cpp **** void A6::run() {
 153:test/Test8.cpp ****     for(int i=0;i<3;i++){
 154:test/Test8.cpp **** 
 155:test/Test8.cpp ****         printString("Nit id - ");
 156:test/Test8.cpp ****         printInt(id);
 157:test/Test8.cpp ****         printString(" i pocetak obrade, iteracija: ");
 158:test/Test8.cpp ****         printInt(i);
 159:test/Test8.cpp ****         printString("\n");
 160:test/Test8.cpp ****         for(int j=0;j<10000;j++){
 161:test/Test8.cpp ****             for(int k=0;k<1000;k++){}
 162:test/Test8.cpp ****             thread_dispatch();
 163:test/Test8.cpp ****         }
 164:test/Test8.cpp ****         printString("Nit id - ");
 165:test/Test8.cpp ****         printInt(id);
 166:test/Test8.cpp ****         printString(" poziva barijeru, iteracija: ");
 167:test/Test8.cpp ****         printInt(i);
 168:test/Test8.cpp ****         printString("\n");
 169:test/Test8.cpp ****         Thread::barrier_2();
 170:test/Test8.cpp ****         printString("Nit id - ");
 171:test/Test8.cpp ****         printInt(id);
 172:test/Test8.cpp ****         printString(" prosla barijeru, iteracija: ");
 173:test/Test8.cpp ****         printInt(i);
 174:test/Test8.cpp ****         printString("\n");
 175:test/Test8.cpp **** 
 176:test/Test8.cpp ****     }
 177:test/Test8.cpp ****     printString("Nit id - ");
 178:test/Test8.cpp ****     printInt(id);
 179:test/Test8.cpp ****     printString(" zavrsila\n");
 180:test/Test8.cpp **** }
 181:test/Test8.cpp **** void testBarijera2(){
 182:test/Test8.cpp ****     A6* niz[10];
 183:test/Test8.cpp ****     for(auto & nit:niz){
 184:test/Test8.cpp ****         nit = new A6();
 185:test/Test8.cpp ****     }
 186:test/Test8.cpp ****     for(auto& nit : niz){
 187:test/Test8.cpp ****         nit->start();
 188:test/Test8.cpp ****     }
 189:test/Test8.cpp ****     for(auto& nit : niz){
 190:test/Test8.cpp ****         nit->join();
 191:test/Test8.cpp ****     }
 192:test/Test8.cpp ****     for(auto& nit : niz){
 193:test/Test8.cpp ****         delete nit;
 194:test/Test8.cpp ****     }
 195:test/Test8.cpp ****     printString("Test 8 - blokiranje na barijeri sa dvojakim vratima- USPESNO ZAVRSEN\n");
 196:test/Test8.cpp **** }
 197:test/Test8.cpp **** 
 198:test/Test8.cpp **** //SEND - RECEIVE
 199:test/Test8.cpp **** //POZIVAJUCA NIT - ona u cijem run wrapperu se poziva nit->send() se suspednuje ako nit nije primil
 200:test/Test8.cpp **** //neku poruku a poslata joj je
GAS LISTING /tmp/ccCnP6rB.s 			page 5


 201:test/Test8.cpp **** //POZIVAJUCA NIT - ona u cijem kontekstu se zove receive() se suspenduje ako nema poruka
 202:test/Test8.cpp **** int IDd=1;
 203:test/Test8.cpp **** 
 204:test/Test8.cpp **** class A3:public Thread{
 205:test/Test8.cpp ****     int id;
 206:test/Test8.cpp **** 
 207:test/Test8.cpp ****     Thread* toSend1;
 208:test/Test8.cpp ****     Thread* toSend2;
 209:test/Test8.cpp **** 
 210:test/Test8.cpp **** public:
 211:test/Test8.cpp ****     A3():Thread(),id(IDd++),toSend1(nullptr),toSend2(nullptr){
 212:test/Test8.cpp ****         printString("Nit A kreirana - id: ");
 213:test/Test8.cpp ****         printInt(id);
 214:test/Test8.cpp ****         printString("\n");
 215:test/Test8.cpp ****     }
 216:test/Test8.cpp ****     void setToSend(Thread* t1, Thread* t2){
 217:test/Test8.cpp ****         toSend1 = t1;
 218:test/Test8.cpp ****         toSend2 = t2;
 219:test/Test8.cpp ****     }
 220:test/Test8.cpp **** protected:
 221:test/Test8.cpp ****     void run() override;
 222:test/Test8.cpp **** };
 223:test/Test8.cpp **** void A3::run(){
 224:test/Test8.cpp ****     for(int m=1;m<6;m++){
 225:test/Test8.cpp ****         printString("A: ");
 226:test/Test8.cpp ****         printInt(m);
 227:test/Test8.cpp ****         printString("\n");
 228:test/Test8.cpp ****         for(int i=0;i<1000;i++){
 229:test/Test8.cpp ****             for(int j=0;j<10000;j++){
 230:test/Test8.cpp **** 
 231:test/Test8.cpp ****             }
 232:test/Test8.cpp ****             thread_dispatch();
 233:test/Test8.cpp ****         }
 234:test/Test8.cpp **** 
 235:test/Test8.cpp ****         printString("A: ");
 236:test/Test8.cpp ****         printInt(m);
 237:test/Test8.cpp ****         printString("\n");
 238:test/Test8.cpp ****         printString("A salje B\n");
 239:test/Test8.cpp ****         toSend1->send("B: poruka od A za B\n");
 240:test/Test8.cpp ****             printString("A salje C\n");
 241:test/Test8.cpp ****         toSend2->send("C: poruka od A za C\n ");
 242:test/Test8.cpp ****         printString("A poslala sve i sad prima: ");
 243:test/Test8.cpp ****         printInt(m);
 244:test/Test8.cpp ****         printString("\n");
 245:test/Test8.cpp **** 
 246:test/Test8.cpp **** //        printString("A prima poruke: ");
 247:test/Test8.cpp **** //        printInt(m);
 248:test/Test8.cpp **** //        printString(". put\n");
 249:test/Test8.cpp ****         printString(receive());
 250:test/Test8.cpp ****         printString(receive());
 251:test/Test8.cpp ****         printString("A sve primila: ");
 252:test/Test8.cpp ****         printInt(m);
 253:test/Test8.cpp ****         printString("\n");
 254:test/Test8.cpp ****     }
 255:test/Test8.cpp **** //    printString("Gotove sve tri iteracije\n");
 256:test/Test8.cpp **** //    printString("Nit A id: ");
 257:test/Test8.cpp **** //    printInt(id);
GAS LISTING /tmp/ccCnP6rB.s 			page 6


 258:test/Test8.cpp **** //    printString("\n");
 259:test/Test8.cpp **** }
 260:test/Test8.cpp **** 
 261:test/Test8.cpp **** class B3:public Thread{
 262:test/Test8.cpp ****     int id;
 263:test/Test8.cpp **** 
 264:test/Test8.cpp ****     Thread* toSend1;
 265:test/Test8.cpp ****     Thread* toSend2;
 266:test/Test8.cpp **** 
 267:test/Test8.cpp **** public:
 268:test/Test8.cpp ****     B3():Thread(),id(IDd++),toSend1(nullptr),toSend2(nullptr){
 269:test/Test8.cpp ****         printString("Nit B kreirana - id: ");
 270:test/Test8.cpp ****         printInt(id);
 271:test/Test8.cpp ****         printString("\n");
 272:test/Test8.cpp ****     }
 273:test/Test8.cpp ****     void setToSend(Thread* t1, Thread* t2){
 274:test/Test8.cpp ****         toSend1 = t1;
 275:test/Test8.cpp ****         toSend2 = t2;
 276:test/Test8.cpp ****     }
 277:test/Test8.cpp **** protected:
 278:test/Test8.cpp ****     void run() override;
 279:test/Test8.cpp **** };
 280:test/Test8.cpp **** void B3::run(){
 281:test/Test8.cpp ****     for(int m=1;m<6;m++){
 282:test/Test8.cpp ****         printString("B: ");
 283:test/Test8.cpp ****         printInt(m);
 284:test/Test8.cpp ****         printString("\n");
 285:test/Test8.cpp ****         for(int i=0;i<1000;i++){
 286:test/Test8.cpp ****             for(int j=0;j<10000;j++){
 287:test/Test8.cpp **** 
 288:test/Test8.cpp ****             }
 289:test/Test8.cpp ****             thread_dispatch();
 290:test/Test8.cpp ****         }
 291:test/Test8.cpp **** 
 292:test/Test8.cpp ****         printString("B: ");
 293:test/Test8.cpp ****         printInt(m);
 294:test/Test8.cpp ****         printString("\n");
 295:test/Test8.cpp ****         printString("B salje niti A\n");
 296:test/Test8.cpp ****         toSend1->send("A: poruka od B za A\n");
 297:test/Test8.cpp ****         printString("B poslala i sad prima: ");
 298:test/Test8.cpp ****         printInt(m);
 299:test/Test8.cpp ****         printString("\n");
 300:test/Test8.cpp **** 
 301:test/Test8.cpp **** //        printString("B prima poruke: ");
 302:test/Test8.cpp **** //        printInt(m);
 303:test/Test8.cpp **** //        printString(". put\n");
 304:test/Test8.cpp ****         printString(receive());
 305:test/Test8.cpp ****         printString(receive());
 306:test/Test8.cpp ****         printString("B primila sve: ");
 307:test/Test8.cpp ****         printInt(m);
 308:test/Test8.cpp ****         printString("\n");
 309:test/Test8.cpp ****     }
 310:test/Test8.cpp **** //    printString("Gotove sve tri iteracije\n");
 311:test/Test8.cpp **** //    printString("Nit B id: ");
 312:test/Test8.cpp **** //    printInt(id);
 313:test/Test8.cpp **** //    printString("\n");
 314:test/Test8.cpp **** }
GAS LISTING /tmp/ccCnP6rB.s 			page 7


 315:test/Test8.cpp **** 
 316:test/Test8.cpp **** class C3:public Thread{
 317:test/Test8.cpp ****     int id;
 318:test/Test8.cpp **** 
 319:test/Test8.cpp ****     Thread* toSend1;
 320:test/Test8.cpp ****     Thread* toSend2;
 321:test/Test8.cpp **** 
 322:test/Test8.cpp **** public:
 323:test/Test8.cpp ****     C3():Thread(),id(IDd++),toSend1(nullptr),toSend2(nullptr){
 324:test/Test8.cpp ****         printString("Nit kreirana - id: ");
 325:test/Test8.cpp ****         printInt(id);
 326:test/Test8.cpp ****         printString("\n");
 327:test/Test8.cpp ****     }
 328:test/Test8.cpp ****     void setToSend(Thread* t1, Thread* t2){
 329:test/Test8.cpp ****         toSend1 = t1;
 330:test/Test8.cpp ****         toSend2 = t2;
 331:test/Test8.cpp ****     }
 332:test/Test8.cpp **** protected:
 333:test/Test8.cpp ****     void run() override;
 334:test/Test8.cpp **** };
 335:test/Test8.cpp **** void C3::run(){
 336:test/Test8.cpp ****     for(int m=1;m<6;m++){
 337:test/Test8.cpp **** //        printString("Pocetak wrappera C- nit id: ");
 338:test/Test8.cpp **** //        printInt(id);
 339:test/Test8.cpp **** //        printString(" i iteracija ");
 340:test/Test8.cpp **** //        printInt(m);
 341:test/Test8.cpp **** //        printString(". Obrada...\n");
 342:test/Test8.cpp ****         printString("C: ");
 343:test/Test8.cpp ****         printInt(m);
 344:test/Test8.cpp ****         printString("\n");
 345:test/Test8.cpp ****         for(int i=0;i<1000;i++){
 346:test/Test8.cpp ****             for(int j=0;j<10000;j++){
 347:test/Test8.cpp **** 
 348:test/Test8.cpp ****             }
 349:test/Test8.cpp ****             thread_dispatch();
 350:test/Test8.cpp ****         }
 351:test/Test8.cpp **** 
 352:test/Test8.cpp ****         printString("C: ");
 353:test/Test8.cpp ****         printInt(m);
 354:test/Test8.cpp ****         printString("\n");
 355:test/Test8.cpp ****         printString("C salje poruku niti A\n");
 356:test/Test8.cpp ****         toSend1->send("A: poruka od C za A\n");
 357:test/Test8.cpp ****         printString("C salje8 poruku niti B\n");
 358:test/Test8.cpp ****         toSend2->send("B: poruka od C za B\n ");
 359:test/Test8.cpp ****         printString("C sve poruke poslate i sad prima: ");
 360:test/Test8.cpp ****         printInt(m);
 361:test/Test8.cpp ****         printString("\n");
 362:test/Test8.cpp ****         printString(receive());
 363:test/Test8.cpp ****         printString("C primila : ");
 364:test/Test8.cpp ****         printInt(m);
 365:test/Test8.cpp ****         printString("\n");
 366:test/Test8.cpp **** 
 367:test/Test8.cpp ****     }
 368:test/Test8.cpp **** //    printString("Gotove sve tri iteracije\n");
 369:test/Test8.cpp **** //    printString("Nit C id: ");
 370:test/Test8.cpp **** //    printInt(id);
 371:test/Test8.cpp **** //    printString("\n");
GAS LISTING /tmp/ccCnP6rB.s 			page 8


 372:test/Test8.cpp **** }
 373:test/Test8.cpp **** 
 374:test/Test8.cpp **** void testSEND_RECEIVE(){
 375:test/Test8.cpp ****     A3* a3 = new A3();
 376:test/Test8.cpp ****     B3* b3=new B3();
 377:test/Test8.cpp ****     C3* c3 = new C3();
 378:test/Test8.cpp **** 
 379:test/Test8.cpp ****     a3->setToSend(b3,c3);
 380:test/Test8.cpp ****     b3->setToSend(a3, nullptr);
 381:test/Test8.cpp ****     c3->setToSend(a3,b3);
 382:test/Test8.cpp **** 
 383:test/Test8.cpp ****     a3->start();
 384:test/Test8.cpp ****     b3->start();
 385:test/Test8.cpp ****     c3->start();
 386:test/Test8.cpp **** 
 387:test/Test8.cpp ****     a3->join();
 388:test/Test8.cpp ****     b3->join();
 389:test/Test8.cpp ****     c3->join();
 390:test/Test8.cpp **** 
 391:test/Test8.cpp ****     delete a3;
 392:test/Test8.cpp ****     delete b3;
 393:test/Test8.cpp ****     delete c3;
 394:test/Test8.cpp **** 
 395:test/Test8.cpp ****     printString("TEST 8 - Send/Receive message uspesno zavrsen\n");
 396:test/Test8.cpp **** }
 397:test/Test8.cpp **** 
 398:test/Test8.cpp **** int IDdd=1;
 399:test/Test8.cpp **** 
 400:test/Test8.cpp **** class A4:public Thread{
 401:test/Test8.cpp ****     int id;
 402:test/Test8.cpp **** 
 403:test/Test8.cpp **** public:
 404:test/Test8.cpp ****     A4():Thread(),id(IDdd++){
 405:test/Test8.cpp ****         printString("Nit A kreirana - id: ");
 406:test/Test8.cpp ****         printInt(id);
 407:test/Test8.cpp ****         printString("\n");
 408:test/Test8.cpp ****     }
 409:test/Test8.cpp **** protected:
 410:test/Test8.cpp ****     void run() override;
 411:test/Test8.cpp **** };
 412:test/Test8.cpp **** 
 413:test/Test8.cpp **** 
 414:test/Test8.cpp **** class B4:public Thread{
 415:test/Test8.cpp ****     int id;
 416:test/Test8.cpp **** 
 417:test/Test8.cpp **** public:
 418:test/Test8.cpp ****     B4():Thread(),id(IDdd++){
 419:test/Test8.cpp ****         printString("Nit B kreirana - id: ");
 420:test/Test8.cpp ****         printInt(id);
 421:test/Test8.cpp ****         printString("\n");
 422:test/Test8.cpp ****     }
 423:test/Test8.cpp **** protected:
 424:test/Test8.cpp ****     void run() override;
 425:test/Test8.cpp **** };
 426:test/Test8.cpp **** 
 427:test/Test8.cpp **** class C4:public Thread{
 428:test/Test8.cpp ****     int id;
GAS LISTING /tmp/ccCnP6rB.s 			page 9


 429:test/Test8.cpp **** 
 430:test/Test8.cpp **** public:
 431:test/Test8.cpp ****     C4():Thread(),id(IDdd++){
 432:test/Test8.cpp ****         printString("Nit C kreirana - id: ");
 433:test/Test8.cpp ****         printInt(id);
 434:test/Test8.cpp ****         printString("\n");
 435:test/Test8.cpp ****     }
 436:test/Test8.cpp **** protected:
 437:test/Test8.cpp ****     void run() override;
 438:test/Test8.cpp **** };
 439:test/Test8.cpp **** 
 440:test/Test8.cpp **** void A4::run(){
 441:test/Test8.cpp **** 
 442:test/Test8.cpp ****     B4* b1 = new B4();
 443:test/Test8.cpp ****     B4* b2 = new B4();
 444:test/Test8.cpp ****     B4* b3 = new B4();
 445:test/Test8.cpp ****     C4* c1 = new C4();
 446:test/Test8.cpp ****     b1->start();
 447:test/Test8.cpp ****     b2->start();
 448:test/Test8.cpp ****     b3->start();
 449:test/Test8.cpp ****     c1->start();
 450:test/Test8.cpp ****     printString("A obrada...\n ");
 451:test/Test8.cpp ****     for(int i=0;i<1000;i++){
 452:test/Test8.cpp ****         for(int j=0;j<10000;j++){
 453:test/Test8.cpp **** 
 454:test/Test8.cpp ****         }
 455:test/Test8.cpp ****         thread_dispatch();
 456:test/Test8.cpp ****     }
 457:test/Test8.cpp ****     joinALL();
 458:test/Test8.cpp ****     printString("A zavrsila\n");
 459:test/Test8.cpp **** 
 460:test/Test8.cpp **** 
 461:test/Test8.cpp **** }
 462:test/Test8.cpp **** 
 463:test/Test8.cpp **** void B4::run(){
 464:test/Test8.cpp **** 
 465:test/Test8.cpp ****     C4* c1 = new C4();
 466:test/Test8.cpp ****     C4* c2 = new C4();
 467:test/Test8.cpp ****     C4* c3 = new C4();
 468:test/Test8.cpp ****     c1->start();
 469:test/Test8.cpp ****     c2->start();
 470:test/Test8.cpp ****     c3->start();
 471:test/Test8.cpp ****     printString("B obrada...\n");
 472:test/Test8.cpp ****     for(int i=0;i<1000;i++){
 473:test/Test8.cpp ****         for(int j=0;j<10000;j++){
 474:test/Test8.cpp **** 
 475:test/Test8.cpp ****         }
 476:test/Test8.cpp ****         thread_dispatch();
 477:test/Test8.cpp ****     }
 478:test/Test8.cpp ****     joinALL();
 479:test/Test8.cpp ****     printString("B zavrsila \n");
 480:test/Test8.cpp **** 
 481:test/Test8.cpp **** }
 482:test/Test8.cpp **** void C4::run(){
  23              		.loc 1 482 15
  24              		.cfi_startproc
  25              	.LVL0:
GAS LISTING /tmp/ccCnP6rB.s 			page 10


  26 0000 130101FE 		addi	sp,sp,-32
  27              		.cfi_def_cfa_offset 32
  28 0004 233C1100 		sd	ra,24(sp)
  29 0008 23388100 		sd	s0,16(sp)
  30 000c 23349100 		sd	s1,8(sp)
  31              		.cfi_offset 1, -8
  32              		.cfi_offset 8, -16
  33              		.cfi_offset 9, -24
  34 0010 13040102 		addi	s0,sp,32
  35              		.cfi_def_cfa 8, 0
 483:test/Test8.cpp **** 
 484:test/Test8.cpp ****     printString("C obrada...\n ");
  36              		.loc 1 484 5
  37              		.loc 1 484 16 is_stmt 0
  38 0014 17050000 		lla	a0,.LC0
  38      13050500 
  39              	.LVL1:
  40 001c 97000000 		call	_Z11printStringPKc@plt
  40      E7800000 
  41              	.LVL2:
 485:test/Test8.cpp **** 
 486:test/Test8.cpp ****     printString("\n");
  42              		.loc 1 486 5 is_stmt 1
  43              		.loc 1 486 16 is_stmt 0
  44 0024 17050000 		lla	a0,.LC1
  44      13050500 
  45 002c 97000000 		call	_Z11printStringPKc@plt
  45      E7800000 
  46              	.LVL3:
 487:test/Test8.cpp ****     for(int i=0;i<1000;i++){
  47              		.loc 1 487 5 is_stmt 1
  48              	.LBB98:
  49              		.loc 1 487 13 is_stmt 0
  50 0034 93040000 		li	s1,0
  51 0038 6F000001 		j	.L5
  52              	.LVL4:
  53              	.L3:
  54              	.LBB99:
 488:test/Test8.cpp ****         for(int j=0;j<10000;j++){
 489:test/Test8.cpp **** 
 490:test/Test8.cpp ****         }
 491:test/Test8.cpp ****         thread_dispatch();
  55              		.loc 1 491 9 is_stmt 1 discriminator 2
  56              		.loc 1 491 24 is_stmt 0 discriminator 2
  57 003c 97000000 		call	_Z15thread_dispatchv@plt
  57      E7800000 
  58              	.LVL5:
  59              	.LBE99:
 487:test/Test8.cpp ****     for(int i=0;i<1000;i++){
  60              		.loc 1 487 5 is_stmt 1 discriminator 2
  61 0044 9B841400 		addiw	s1,s1,1
  62              	.LVL6:
  63              	.L5:
 487:test/Test8.cpp ****     for(int i=0;i<1000;i++){
  64              		.loc 1 487 18 discriminator 1
  65 0048 9307703E 		li	a5,999
  66 004c 63CE9700 		bgt	s1,a5,.L2
GAS LISTING /tmp/ccCnP6rB.s 			page 11


  67              	.LBB101:
  68              	.LBB100:
 488:test/Test8.cpp ****         for(int j=0;j<10000;j++){
  69              		.loc 1 488 17 is_stmt 0
  70 0050 13070000 		li	a4,0
  71              	.L4:
  72              	.LVL7:
 488:test/Test8.cpp ****         for(int j=0;j<10000;j++){
  73              		.loc 1 488 22 is_stmt 1 discriminator 3
  74 0054 B7270000 		li	a5,8192
  75 0058 9387F770 		addi	a5,a5,1807
  76 005c E3C0E7FE 		bgt	a4,a5,.L3
 488:test/Test8.cpp ****         for(int j=0;j<10000;j++){
  77              		.loc 1 488 9 discriminator 2
  78 0060 1B071700 		addiw	a4,a4,1
  79              	.LVL8:
  80 0064 6FF01FFF 		j	.L4
  81              	.L2:
  82              	.LBE100:
  83              	.LBE101:
  84              	.LBE98:
 492:test/Test8.cpp ****     }
 493:test/Test8.cpp **** 
 494:test/Test8.cpp ****     printString("C zavrsila \n");
  85              		.loc 1 494 5
  86              		.loc 1 494 16 is_stmt 0
  87 0068 17050000 		lla	a0,.LC2
  87      13050500 
  88 0070 97000000 		call	_Z11printStringPKc@plt
  88      E7800000 
  89              	.LVL9:
 495:test/Test8.cpp ****     thread_dispatch();
  90              		.loc 1 495 5 is_stmt 1
  91              		.loc 1 495 20 is_stmt 0
  92 0078 97000000 		call	_Z15thread_dispatchv@plt
  92      E7800000 
  93              	.LVL10:
 496:test/Test8.cpp **** 
 497:test/Test8.cpp **** 
 498:test/Test8.cpp **** }
  94              		.loc 1 498 1
  95 0080 83308101 		ld	ra,24(sp)
  96              		.cfi_restore 1
  97 0084 03340101 		ld	s0,16(sp)
  98              		.cfi_restore 8
  99              		.cfi_def_cfa 2, 32
 100 0088 83348100 		ld	s1,8(sp)
 101              		.cfi_restore 9
 102              	.LVL11:
 103 008c 13010102 		addi	sp,sp,32
 104              		.cfi_def_cfa_offset 0
 105 0090 67800000 		jr	ra
 106              		.cfi_endproc
 107              	.LFE47:
 109              		.section	.rodata.str1.8
 110 0025 000000   		.align	3
 111              	.LC3:
GAS LISTING /tmp/ccCnP6rB.s 			page 12


 112 0028 54687265 		.string	"Thread ID = "
 112      61642049 
 112      44203D20 
 112      00
 113 0035 000000   		.align	3
 114              	.LC4:
 115 0038 3A205354 		.string	": START!\n"
 115      41525421 
 115      0A00
 116 0042 00000000 		.align	3
 116      0000
 117              	.LC5:
 118 0048 3A204845 		.string	": HELLO! "
 118      4C4C4F21 
 118      2000
 119 0052 00000000 		.align	3
 119      0000
 120              	.LC6:
 121 0058 49746572 		.string	"Iteration: "
 121      6174696F 
 121      6E3A2000 
 122 0064 00000000 		.align	3
 123              	.LC7:
 124 0068 3A20454E 		.string	": END!\n"
 124      44210A00 
 125              		.text
 126              		.align	2
 127              		.globl	_ZN2A53runEv
 129              	_ZN2A53runEv:
 130              	.LFB52:
 499:test/Test8.cpp **** 
 500:test/Test8.cpp **** void test_JOIN_all(){
 501:test/Test8.cpp ****     A4* a4 = new A4();
 502:test/Test8.cpp ****     a4->start();
 503:test/Test8.cpp ****     a4->join();
 504:test/Test8.cpp ****     delete a4;
 505:test/Test8.cpp **** 
 506:test/Test8.cpp ****     printString("TEST 8 - join ALL uspesno zavrsen\n");
 507:test/Test8.cpp **** 
 508:test/Test8.cpp **** }
 509:test/Test8.cpp **** 
 510:test/Test8.cpp **** //set Max User Threads
 511:test/Test8.cpp **** static int identifikator=1;
 512:test/Test8.cpp **** class A5:public Thread{
 513:test/Test8.cpp ****     int id;
 514:test/Test8.cpp **** public:
 515:test/Test8.cpp ****     A5():Thread(),id(identifikator++){
 516:test/Test8.cpp ****         printString("Nit A kreirana, ID: ");
 517:test/Test8.cpp ****         printInt(id);
 518:test/Test8.cpp ****         printString("\n");
 519:test/Test8.cpp ****     }
 520:test/Test8.cpp **** protected:
 521:test/Test8.cpp ****     void run() override;
 522:test/Test8.cpp **** 
 523:test/Test8.cpp **** };
 524:test/Test8.cpp **** 
 525:test/Test8.cpp **** void A5::run() {
GAS LISTING /tmp/ccCnP6rB.s 			page 13


 131              		.loc 1 525 16 is_stmt 1
 132              		.cfi_startproc
 133              	.LVL12:
 134 0094 130101FD 		addi	sp,sp,-48
 135              		.cfi_def_cfa_offset 48
 136 0098 23341102 		sd	ra,40(sp)
 137 009c 23308102 		sd	s0,32(sp)
 138 00a0 233C9100 		sd	s1,24(sp)
 139 00a4 23382101 		sd	s2,16(sp)
 140 00a8 23343101 		sd	s3,8(sp)
 141              		.cfi_offset 1, -8
 142              		.cfi_offset 8, -16
 143              		.cfi_offset 9, -24
 144              		.cfi_offset 18, -32
 145              		.cfi_offset 19, -40
 146 00ac 13040103 		addi	s0,sp,48
 147              		.cfi_def_cfa 8, 0
 148 00b0 13090500 		mv	s2,a0
 526:test/Test8.cpp ****     //int id = getThreadId();
 527:test/Test8.cpp ****     printString("Thread ID = ");
 149              		.loc 1 527 5
 150              		.loc 1 527 16 is_stmt 0
 151 00b4 17050000 		lla	a0,.LC3
 151      13050500 
 152              	.LVL13:
 153 00bc 97000000 		call	_Z11printStringPKc@plt
 153      E7800000 
 154              	.LVL14:
 528:test/Test8.cpp ****     printInt(id);
 155              		.loc 1 528 5 is_stmt 1
 156              		.loc 1 528 13 is_stmt 0
 157 00c4 13060000 		li	a2,0
 158 00c8 9305A000 		li	a1,10
 159 00cc 03250902 		lw	a0,32(s2)
 160 00d0 97000000 		call	_Z8printIntiii@plt
 160      E7800000 
 161              	.LVL15:
 529:test/Test8.cpp ****     printString(": START!\n");
 162              		.loc 1 529 5 is_stmt 1
 163              		.loc 1 529 16 is_stmt 0
 164 00d8 17050000 		lla	a0,.LC4
 164      13050500 
 165 00e0 97000000 		call	_Z11printStringPKc@plt
 165      E7800000 
 166              	.LVL16:
 530:test/Test8.cpp ****     for(int i=0;i<5;i++){
 167              		.loc 1 530 5 is_stmt 1
 168              	.LBB102:
 169              		.loc 1 530 13 is_stmt 0
 170 00e8 93090000 		li	s3,0
 171 00ec 6F008003 		j	.L13
 172              	.LVL17:
 173              	.L10:
 174              	.LBB103:
 175              	.LBB104:
 176              	.LBB105:
 531:test/Test8.cpp ****         //int id = getThreadId();
GAS LISTING /tmp/ccCnP6rB.s 			page 14


 532:test/Test8.cpp ****         printString("Thread ID = ");
 533:test/Test8.cpp ****         printInt(id);
 534:test/Test8.cpp ****         printString(": HELLO! ");
 535:test/Test8.cpp ****         printString("Iteration: ");
 536:test/Test8.cpp ****         printInt(i);
 537:test/Test8.cpp ****         printString("\n");
 538:test/Test8.cpp ****         for(int j=0;j<10000;j++){
 539:test/Test8.cpp ****             for(int k=0;k<10000;k++){}
 540:test/Test8.cpp ****             thread_dispatch();
 177              		.loc 1 540 13 is_stmt 1 discriminator 2
 178              		.loc 1 540 28 is_stmt 0 discriminator 2
 179 00f0 97000000 		call	_Z15thread_dispatchv@plt
 179      E7800000 
 180              	.LVL18:
 181              	.LBE105:
 538:test/Test8.cpp ****             for(int k=0;k<10000;k++){}
 182              		.loc 1 538 9 is_stmt 1 discriminator 2
 183 00f8 9B841400 		addiw	s1,s1,1
 184              	.LVL19:
 185              	.L12:
 538:test/Test8.cpp ****             for(int k=0;k<10000;k++){}
 186              		.loc 1 538 22 discriminator 1
 187 00fc B7270000 		li	a5,8192
 188 0100 9387F770 		addi	a5,a5,1807
 189 0104 63CE9700 		bgt	s1,a5,.L9
 190              	.LBB107:
 191              	.LBB106:
 539:test/Test8.cpp ****             thread_dispatch();
 192              		.loc 1 539 21 is_stmt 0
 193 0108 13070000 		li	a4,0
 194              	.L11:
 195              	.LVL20:
 539:test/Test8.cpp ****             thread_dispatch();
 196              		.loc 1 539 26 is_stmt 1 discriminator 3
 197 010c B7270000 		li	a5,8192
 198 0110 9387F770 		addi	a5,a5,1807
 199 0114 E3CEE7FC 		bgt	a4,a5,.L10
 539:test/Test8.cpp ****             thread_dispatch();
 200              		.loc 1 539 13 discriminator 2
 201 0118 1B071700 		addiw	a4,a4,1
 202              	.LVL21:
 203 011c 6FF01FFF 		j	.L11
 204              	.L9:
 205              	.LBE106:
 206              	.LBE107:
 207              	.LBE104:
 208              	.LBE103:
 530:test/Test8.cpp ****         //int id = getThreadId();
 209              		.loc 1 530 5 discriminator 2
 210 0120 9B891900 		addiw	s3,s3,1
 211              	.LVL22:
 212              	.L13:
 530:test/Test8.cpp ****         //int id = getThreadId();
 213              		.loc 1 530 18 discriminator 1
 214 0124 93074000 		li	a5,4
 215 0128 63CA3707 		bgt	s3,a5,.L8
 216              	.LBB109:
GAS LISTING /tmp/ccCnP6rB.s 			page 15


 532:test/Test8.cpp ****         printInt(id);
 217              		.loc 1 532 9
 532:test/Test8.cpp ****         printInt(id);
 218              		.loc 1 532 20 is_stmt 0
 219 012c 17050000 		lla	a0,.LC3
 219      13050500 
 220 0134 97000000 		call	_Z11printStringPKc@plt
 220      E7800000 
 221              	.LVL23:
 533:test/Test8.cpp ****         printString(": HELLO! ");
 222              		.loc 1 533 9 is_stmt 1
 533:test/Test8.cpp ****         printString(": HELLO! ");
 223              		.loc 1 533 17 is_stmt 0
 224 013c 13060000 		li	a2,0
 225 0140 9305A000 		li	a1,10
 226 0144 03250902 		lw	a0,32(s2)
 227 0148 97000000 		call	_Z8printIntiii@plt
 227      E7800000 
 228              	.LVL24:
 534:test/Test8.cpp ****         printString("Iteration: ");
 229              		.loc 1 534 9 is_stmt 1
 534:test/Test8.cpp ****         printString("Iteration: ");
 230              		.loc 1 534 20 is_stmt 0
 231 0150 17050000 		lla	a0,.LC5
 231      13050500 
 232 0158 97000000 		call	_Z11printStringPKc@plt
 232      E7800000 
 233              	.LVL25:
 535:test/Test8.cpp ****         printInt(i);
 234              		.loc 1 535 9 is_stmt 1
 535:test/Test8.cpp ****         printInt(i);
 235              		.loc 1 535 20 is_stmt 0
 236 0160 17050000 		lla	a0,.LC6
 236      13050500 
 237 0168 97000000 		call	_Z11printStringPKc@plt
 237      E7800000 
 238              	.LVL26:
 536:test/Test8.cpp ****         printString("\n");
 239              		.loc 1 536 9 is_stmt 1
 536:test/Test8.cpp ****         printString("\n");
 240              		.loc 1 536 17 is_stmt 0
 241 0170 13060000 		li	a2,0
 242 0174 9305A000 		li	a1,10
 243 0178 13850900 		mv	a0,s3
 244 017c 97000000 		call	_Z8printIntiii@plt
 244      E7800000 
 245              	.LVL27:
 537:test/Test8.cpp ****         for(int j=0;j<10000;j++){
 246              		.loc 1 537 9 is_stmt 1
 537:test/Test8.cpp ****         for(int j=0;j<10000;j++){
 247              		.loc 1 537 20 is_stmt 0
 248 0184 17050000 		lla	a0,.LC1
 248      13050500 
 249 018c 97000000 		call	_Z11printStringPKc@plt
 249      E7800000 
 250              	.LVL28:
 538:test/Test8.cpp ****             for(int k=0;k<10000;k++){}
GAS LISTING /tmp/ccCnP6rB.s 			page 16


 251              		.loc 1 538 9 is_stmt 1
 252              	.LBB108:
 538:test/Test8.cpp ****             for(int k=0;k<10000;k++){}
 253              		.loc 1 538 17 is_stmt 0
 254 0194 93040000 		li	s1,0
 255 0198 6FF05FF6 		j	.L12
 256              	.LVL29:
 257              	.L8:
 258              	.LBE108:
 259              	.LBE109:
 260              	.LBE102:
 541:test/Test8.cpp ****         }
 542:test/Test8.cpp **** //        printString("Thread ID = ");
 543:test/Test8.cpp **** //        printInt(id);
 544:test/Test8.cpp **** //        printString(": BACK FROM PROCESSING!\n");
 545:test/Test8.cpp **** //        printString("Iteration: ");
 546:test/Test8.cpp **** //        printInt(i);
 547:test/Test8.cpp **** //        printString("\n");
 548:test/Test8.cpp **** 
 549:test/Test8.cpp ****     }
 550:test/Test8.cpp ****     printString("Thread ID = ");
 261              		.loc 1 550 5 is_stmt 1
 262              		.loc 1 550 16 is_stmt 0
 263 019c 17050000 		lla	a0,.LC3
 263      13050500 
 264 01a4 97000000 		call	_Z11printStringPKc@plt
 264      E7800000 
 265              	.LVL30:
 551:test/Test8.cpp ****     printInt(id);
 266              		.loc 1 551 5 is_stmt 1
 267              		.loc 1 551 13 is_stmt 0
 268 01ac 13060000 		li	a2,0
 269 01b0 9305A000 		li	a1,10
 270 01b4 03250902 		lw	a0,32(s2)
 271 01b8 97000000 		call	_Z8printIntiii@plt
 271      E7800000 
 272              	.LVL31:
 552:test/Test8.cpp ****     printString(": END!\n");
 273              		.loc 1 552 5 is_stmt 1
 274              		.loc 1 552 16 is_stmt 0
 275 01c0 17050000 		lla	a0,.LC7
 275      13050500 
 276 01c8 97000000 		call	_Z11printStringPKc@plt
 276      E7800000 
 277              	.LVL32:
 553:test/Test8.cpp **** }
 278              		.loc 1 553 1
 279 01d0 83308102 		ld	ra,40(sp)
 280              		.cfi_restore 1
 281 01d4 03340102 		ld	s0,32(sp)
 282              		.cfi_restore 8
 283              		.cfi_def_cfa 2, 48
 284 01d8 83348101 		ld	s1,24(sp)
 285              		.cfi_restore 9
 286 01dc 03390101 		ld	s2,16(sp)
 287              		.cfi_restore 18
 288              	.LVL33:
GAS LISTING /tmp/ccCnP6rB.s 			page 17


 289 01e0 83398100 		ld	s3,8(sp)
 290              		.cfi_restore 19
 291              	.LVL34:
 292 01e4 13010103 		addi	sp,sp,48
 293              		.cfi_def_cfa_offset 0
 294 01e8 67800000 		jr	ra
 295              		.cfi_endproc
 296              	.LFE52:
 298              		.section	.rodata.str1.8
 299              		.align	3
 300              	.LC8:
 301 0070 423A2000 		.string	"B: "
 302              		.text
 303              		.align	2
 304              		.globl	_ZN3B133runEv
 306              	_ZN3B133runEv:
 307              	.LFB100:
 554:test/Test8.cpp **** 
 555:test/Test8.cpp **** void testSetMaxThreads(){
 556:test/Test8.cpp ****     Thread* threads[21];
 557:test/Test8.cpp ****     Thread::setMaxThreads(7);
 558:test/Test8.cpp ****     for(auto& th:threads){
 559:test/Test8.cpp ****         th=new A5();
 560:test/Test8.cpp ****     }
 561:test/Test8.cpp ****     for(auto& th:threads){
 562:test/Test8.cpp ****         th->start();
 563:test/Test8.cpp ****     }
 564:test/Test8.cpp ****     for(auto& th:threads){
 565:test/Test8.cpp ****         th->join();
 566:test/Test8.cpp ****     }
 567:test/Test8.cpp ****     for(auto& th:threads){
 568:test/Test8.cpp ****         delete th;
 569:test/Test8.cpp ****     }
 570:test/Test8.cpp ****     printString("TEST 8 - Maksimalan Broj Korisnickih Niti - USPESNO ZAVRSEN\n");
 571:test/Test8.cpp **** 
 572:test/Test8.cpp **** };
 573:test/Test8.cpp **** static int x=0;
 574:test/Test8.cpp **** class A7:public Thread{
 575:test/Test8.cpp ****     int id;
 576:test/Test8.cpp **** public:
 577:test/Test8.cpp ****     A7(): Thread(),id(x++){
 578:test/Test8.cpp ****         printString("Producer kreiran\n");
 579:test/Test8.cpp ****     }
 580:test/Test8.cpp **** protected:
 581:test/Test8.cpp ****     void run() override {
 582:test/Test8.cpp **** 
 583:test/Test8.cpp ****         printString("Producer run wrapper\n");
 584:test/Test8.cpp ****         for (int i = 0; i < 1000; i++) {
 585:test/Test8.cpp ****             for (int j = 0; j < 1000; j++) {}
 586:test/Test8.cpp ****             thread_dispatch();
 587:test/Test8.cpp ****         }
 588:test/Test8.cpp ****         printString("Pozivam producer metod\n");
 589:test/Test8.cpp ****         Thread::producer(id);
 590:test/Test8.cpp **** 
 591:test/Test8.cpp ****         printString("Producer finished\n");
 592:test/Test8.cpp ****         thread_dispatch();
 593:test/Test8.cpp ****     }
GAS LISTING /tmp/ccCnP6rB.s 			page 18


 594:test/Test8.cpp **** };
 595:test/Test8.cpp **** 
 596:test/Test8.cpp **** class B7:public Thread {
 597:test/Test8.cpp **** 
 598:test/Test8.cpp ****     int id;
 599:test/Test8.cpp **** public:
 600:test/Test8.cpp ****     B7() : Thread(), id(x++) {
 601:test/Test8.cpp ****         printString("Consumer kreiran\n");
 602:test/Test8.cpp ****     }
 603:test/Test8.cpp **** 
 604:test/Test8.cpp **** protected:
 605:test/Test8.cpp ****     void run() override{
 606:test/Test8.cpp **** //    }
 607:test/Test8.cpp ****         printString("Consumer run wrapper\n");
 608:test/Test8.cpp ****         for (int i = 0;i < 1000; i++) {
 609:test/Test8.cpp ****             for (int j = 0; j < 1000; j++) {}
 610:test/Test8.cpp ****             thread_dispatch();
 611:test/Test8.cpp ****         }
 612:test/Test8.cpp ****         printString("Pozivam consumer metod\n");
 613:test/Test8.cpp ****         Thread::consumer(id);
 614:test/Test8.cpp **** 
 615:test/Test8.cpp ****         printString("Consumer finished\n");
 616:test/Test8.cpp **** 
 617:test/Test8.cpp ****         thread_dispatch();
 618:test/Test8.cpp ****     }
 619:test/Test8.cpp **** };
 620:test/Test8.cpp **** 
 621:test/Test8.cpp **** void testAtomicBroadcast(){
 622:test/Test8.cpp ****     Thread* array[9];
 623:test/Test8.cpp ****     array[0] = new A7();
 624:test/Test8.cpp ****     //array[1] = new A7();
 625:test/Test8.cpp **** 
 626:test/Test8.cpp ****     x=0;
 627:test/Test8.cpp ****     for(int i=1;i<9;i++){
 628:test/Test8.cpp ****         array[i] = new B7();
 629:test/Test8.cpp ****     }
 630:test/Test8.cpp ****     for(auto& nit:array){
 631:test/Test8.cpp ****         nit->start();
 632:test/Test8.cpp ****     }
 633:test/Test8.cpp **** 
 634:test/Test8.cpp ****     for(auto& nit:array){
 635:test/Test8.cpp ****         nit->join();
 636:test/Test8.cpp ****     }
 637:test/Test8.cpp **** 
 638:test/Test8.cpp ****     for(auto& nit:array){
 639:test/Test8.cpp ****         delete nit;
 640:test/Test8.cpp ****     }
 641:test/Test8.cpp ****     printString("test 8 - atomic broadcast uspesno zavrsen\n");
 642:test/Test8.cpp **** }
 643:test/Test8.cpp **** 
 644:test/Test8.cpp **** static int BR=1;
 645:test/Test8.cpp **** static int TH=15;
 646:test/Test8.cpp **** class A8:public Thread{
 647:test/Test8.cpp ****     int id;
 648:test/Test8.cpp ****     int type;
 649:test/Test8.cpp ****     //0-oxygen
 650:test/Test8.cpp ****     //1-hidrogen
GAS LISTING /tmp/ccCnP6rB.s 			page 19


 651:test/Test8.cpp **** public:
 652:test/Test8.cpp ****     A8(int t):Thread(),id(BR++),type(t){
 653:test/Test8.cpp ****         printString("Nit kreirana - id: ");
 654:test/Test8.cpp ****         printInt(id);
 655:test/Test8.cpp ****         printString("\n");
 656:test/Test8.cpp ****     }
 657:test/Test8.cpp **** protected:
 658:test/Test8.cpp ****     void run() override;
 659:test/Test8.cpp **** };
 660:test/Test8.cpp **** 
 661:test/Test8.cpp **** void A8::run() {
 662:test/Test8.cpp ****     for(int m=0;m<3;m++){
 663:test/Test8.cpp ****         printString("Nit, pocetak wrappera- id: ");
 664:test/Test8.cpp ****         printInt(id);
 665:test/Test8.cpp ****         printString("\n");
 666:test/Test8.cpp ****         printString("Iteracija: ");
 667:test/Test8.cpp ****         printInt(m);
 668:test/Test8.cpp ****         printString("\n");
 669:test/Test8.cpp ****         for(int i=0;i<1000;i++){
 670:test/Test8.cpp ****             for(int j=0;j<1000;j++){}
 671:test/Test8.cpp ****             thread_dispatch();
 672:test/Test8.cpp ****         }
 673:test/Test8.cpp ****         printString("Nit - id: ");
 674:test/Test8.cpp ****         printInt(id);
 675:test/Test8.cpp ****         printString("\n");
 676:test/Test8.cpp ****         printString("Iteracija: ");
 677:test/Test8.cpp ****         printInt(m);
 678:test/Test8.cpp ****         printString("\n");
 679:test/Test8.cpp ****         if(type){
 680:test/Test8.cpp ****             H(id);
 681:test/Test8.cpp ****         }else if(type==0){
 682:test/Test8.cpp ****             O(id);
 683:test/Test8.cpp ****         }
 684:test/Test8.cpp ****         thread_dispatch();
 685:test/Test8.cpp ****         printString("Jedna itercija gotova\n");
 686:test/Test8.cpp ****     }
 687:test/Test8.cpp **** 
 688:test/Test8.cpp **** }
 689:test/Test8.cpp **** void testH2O(){
 690:test/Test8.cpp ****     A8* niz[TH];
 691:test/Test8.cpp ****     for(int i=0;i<TH;i++){
 692:test/Test8.cpp ****         if(i%3==0){
 693:test/Test8.cpp ****             niz[i]=new A8(0);
 694:test/Test8.cpp ****         }else{
 695:test/Test8.cpp ****             niz[i]=new A8(1);
 696:test/Test8.cpp ****         }
 697:test/Test8.cpp ****     }
 698:test/Test8.cpp ****     for(auto nit:niz){
 699:test/Test8.cpp ****         nit->start();
 700:test/Test8.cpp ****     }
 701:test/Test8.cpp **** 
 702:test/Test8.cpp ****     for(auto nit:niz){
 703:test/Test8.cpp ****         nit->join();
 704:test/Test8.cpp ****     }
 705:test/Test8.cpp ****     for(auto nit:niz){
 706:test/Test8.cpp ****         delete nit;
 707:test/Test8.cpp ****     }
GAS LISTING /tmp/ccCnP6rB.s 			page 20


 708:test/Test8.cpp ****     printString("TEST 8 - molekul kiseonika gotov\n");
 709:test/Test8.cpp **** };
 710:test/Test8.cpp **** 
 711:test/Test8.cpp **** static int iden=1;
 712:test/Test8.cpp **** static int XX=49;
 713:test/Test8.cpp **** class A9:public Thread{
 714:test/Test8.cpp ****     int id;
 715:test/Test8.cpp ****     int type;
 716:test/Test8.cpp ****     //0-savage
 717:test/Test8.cpp ****     //1-cook
 718:test/Test8.cpp **** public:
 719:test/Test8.cpp ****     A9(int t):Thread(),id(iden++),type(t){
 720:test/Test8.cpp ****         printString("Nit kreirana - id: ");
 721:test/Test8.cpp ****         printInt(id);
 722:test/Test8.cpp ****         printString("\n");
 723:test/Test8.cpp ****     }
 724:test/Test8.cpp **** protected:
 725:test/Test8.cpp ****     void run() override;
 726:test/Test8.cpp **** };
 727:test/Test8.cpp **** 
 728:test/Test8.cpp **** void A9::run() {
 729:test/Test8.cpp ****     for(int m=0;m<3;m++){
 730:test/Test8.cpp ****         printString("Nit, pocetak wrappera- id: ");
 731:test/Test8.cpp ****         printInt(id);
 732:test/Test8.cpp ****         printString("\n");
 733:test/Test8.cpp ****         printString("Iteracija: ");
 734:test/Test8.cpp ****         printInt(m);
 735:test/Test8.cpp ****         printString("\n");
 736:test/Test8.cpp ****         for(int i=0;i<1000;i++){
 737:test/Test8.cpp ****             for(int j=0;j<1000;j++){}
 738:test/Test8.cpp ****             thread_dispatch();
 739:test/Test8.cpp ****         }
 740:test/Test8.cpp ****         printString("Nit - id: ");
 741:test/Test8.cpp ****         printInt(id);
 742:test/Test8.cpp ****         printString("\n");
 743:test/Test8.cpp ****         printString("Iteracija: ");
 744:test/Test8.cpp ****         printInt(m);
 745:test/Test8.cpp ****         printString("\n");
 746:test/Test8.cpp ****         if(type){
 747:test/Test8.cpp ****             cook();
 748:test/Test8.cpp ****         }else if(type==0){
 749:test/Test8.cpp ****             savage(id);
 750:test/Test8.cpp ****         }
 751:test/Test8.cpp ****         thread_dispatch();
 752:test/Test8.cpp ****         printString("Jedna itercija gotova\n");
 753:test/Test8.cpp ****     }
 754:test/Test8.cpp **** 
 755:test/Test8.cpp **** }
 756:test/Test8.cpp **** 
 757:test/Test8.cpp **** void testDiningSavages(){
 758:test/Test8.cpp ****     A9* niz[XX];
 759:test/Test8.cpp ****     for(int i=0;i<30;i++){
 760:test/Test8.cpp ****         niz[i]=new A9(0);
 761:test/Test8.cpp ****     }
 762:test/Test8.cpp ****     niz[30] = new A9(1);
 763:test/Test8.cpp ****     for(int i=31;i<XX;i++){
 764:test/Test8.cpp ****         niz[i]=new A9(0);
GAS LISTING /tmp/ccCnP6rB.s 			page 21


 765:test/Test8.cpp ****     }
 766:test/Test8.cpp ****     for(auto nit:niz){
 767:test/Test8.cpp ****         nit->start();
 768:test/Test8.cpp ****     }
 769:test/Test8.cpp **** 
 770:test/Test8.cpp ****     for(auto nit:niz){
 771:test/Test8.cpp ****         nit->join();
 772:test/Test8.cpp ****     }
 773:test/Test8.cpp ****     for(auto nit:niz){
 774:test/Test8.cpp ****         delete nit;
 775:test/Test8.cpp ****     }
 776:test/Test8.cpp ****     printString("TEST 8 - DINING SAVAGE gotov\n");
 777:test/Test8.cpp **** };
 778:test/Test8.cpp **** 
 779:test/Test8.cpp **** static int num=1;
 780:test/Test8.cpp **** static int BIR=50;
 781:test/Test8.cpp **** class A10:public Thread{
 782:test/Test8.cpp ****     int id;
 783:test/Test8.cpp ****     int type;
 784:test/Test8.cpp ****     //0-child
 785:test/Test8.cpp ****     //1-parent
 786:test/Test8.cpp **** public:
 787:test/Test8.cpp ****     A10(int t):Thread(),id(num++),type(t){
 788:test/Test8.cpp ****         printString("Nit kreirana - id: ");
 789:test/Test8.cpp ****         printInt(id);
 790:test/Test8.cpp ****         printString("\n");
 791:test/Test8.cpp ****     }
 792:test/Test8.cpp **** protected:
 793:test/Test8.cpp ****     void run() override;
 794:test/Test8.cpp **** };
 795:test/Test8.cpp **** 
 796:test/Test8.cpp **** void A10::run() {
 797:test/Test8.cpp ****     for(int m=0;m<3;m++){
 798:test/Test8.cpp ****         printString("Nit, pocetak wrappera- id: ");
 799:test/Test8.cpp ****         printInt(id);
 800:test/Test8.cpp ****         printString("\n");
 801:test/Test8.cpp ****         printString("Iteracija: ");
 802:test/Test8.cpp ****         printInt(m);
 803:test/Test8.cpp ****         printString("\n");
 804:test/Test8.cpp ****         for(int i=0;i<1000;i++){
 805:test/Test8.cpp ****             for(int j=0;j<1000;j++){}
 806:test/Test8.cpp ****             thread_dispatch();
 807:test/Test8.cpp ****         }
 808:test/Test8.cpp ****         printString("Nit - id: ");
 809:test/Test8.cpp ****         printInt(id);
 810:test/Test8.cpp ****         printString("\n");
 811:test/Test8.cpp ****         printString("Iteracija: ");
 812:test/Test8.cpp ****         printInt(m);
 813:test/Test8.cpp ****         printString("\n");
 814:test/Test8.cpp ****         if(type){
 815:test/Test8.cpp ****             birdParent(id);
 816:test/Test8.cpp ****         }else if(type==0){
 817:test/Test8.cpp ****             birdChild(id);
 818:test/Test8.cpp ****         }
 819:test/Test8.cpp ****         //thread_dispatch();
 820:test/Test8.cpp ****         printString("Jedna itercija gotova\n");
 821:test/Test8.cpp ****     }
GAS LISTING /tmp/ccCnP6rB.s 			page 22


 822:test/Test8.cpp **** 
 823:test/Test8.cpp **** }
 824:test/Test8.cpp **** 
 825:test/Test8.cpp **** void testHungryBirds(){
 826:test/Test8.cpp ****     A10* niz[BIR];
 827:test/Test8.cpp ****     for(int i=0;i<BIR;i++){
 828:test/Test8.cpp ****         switch (i) {
 829:test/Test8.cpp ****             case 0:{
 830:test/Test8.cpp ****                 niz[0]=new A10(0);
 831:test/Test8.cpp ****                 break;
 832:test/Test8.cpp ****             }
 833:test/Test8.cpp ****             case 1:{
 834:test/Test8.cpp ****                 niz[1] =new A10(1);
 835:test/Test8.cpp ****                 break;
 836:test/Test8.cpp ****             }
 837:test/Test8.cpp ****             case 31:{
 838:test/Test8.cpp ****                 niz[31] = new A10(1);
 839:test/Test8.cpp ****                 break;
 840:test/Test8.cpp ****             }
 841:test/Test8.cpp ****             default:{
 842:test/Test8.cpp ****                 niz[i] = new A10(0);
 843:test/Test8.cpp ****                 break;
 844:test/Test8.cpp ****             }
 845:test/Test8.cpp **** 
 846:test/Test8.cpp ****         }
 847:test/Test8.cpp ****     }
 848:test/Test8.cpp **** 
 849:test/Test8.cpp ****     for(auto nit:niz){
 850:test/Test8.cpp ****         nit->start();
 851:test/Test8.cpp ****     }
 852:test/Test8.cpp **** 
 853:test/Test8.cpp ****     for(auto nit:niz){
 854:test/Test8.cpp ****         nit->join();
 855:test/Test8.cpp ****     }
 856:test/Test8.cpp ****     for(auto nit:niz){
 857:test/Test8.cpp ****         delete nit;
 858:test/Test8.cpp ****     }
 859:test/Test8.cpp ****     printString("TEST 8 - HUNGRY BIRDS - gotov\n");
 860:test/Test8.cpp **** }
 861:test/Test8.cpp **** 
 862:test/Test8.cpp **** static int number=1;
 863:test/Test8.cpp **** static int animals=50;
 864:test/Test8.cpp **** class A11:public Thread{
 865:test/Test8.cpp ****     int id;
 866:test/Test8.cpp ****     int type;
 867:test/Test8.cpp ****     //0-pcela
 868:test/Test8.cpp ****     //1-medved
 869:test/Test8.cpp **** public:
 870:test/Test8.cpp ****     A11(int t):Thread(),id(number++),type(t){
 871:test/Test8.cpp ****         printString("Nit kreirana - id: ");
 872:test/Test8.cpp ****         printInt(id);
 873:test/Test8.cpp ****         printString("\n");
 874:test/Test8.cpp ****     }
 875:test/Test8.cpp **** protected:
 876:test/Test8.cpp ****     void run() override;
 877:test/Test8.cpp **** };
 878:test/Test8.cpp **** 
GAS LISTING /tmp/ccCnP6rB.s 			page 23


 879:test/Test8.cpp **** void A11::run() {
 880:test/Test8.cpp ****     for(int m=0;m<3;m++){
 881:test/Test8.cpp ****         printString("Nit, pocetak wrappera- id: ");
 882:test/Test8.cpp ****         printInt(id);
 883:test/Test8.cpp ****         printString("\n");
 884:test/Test8.cpp ****         printString("Iteracija: ");
 885:test/Test8.cpp ****         printInt(m);
 886:test/Test8.cpp ****         printString("\n");
 887:test/Test8.cpp ****         for(int i=0;i<1000;i++){
 888:test/Test8.cpp ****             for(int j=0;j<1000;j++){}
 889:test/Test8.cpp ****             thread_dispatch();
 890:test/Test8.cpp ****         }
 891:test/Test8.cpp ****         printString("Nit - id: ");
 892:test/Test8.cpp ****         printInt(id);
 893:test/Test8.cpp ****         printString("\n");
 894:test/Test8.cpp ****         printString("Iteracija: ");
 895:test/Test8.cpp ****         printInt(m);
 896:test/Test8.cpp ****         printString("\n");
 897:test/Test8.cpp ****         if(type){
 898:test/Test8.cpp ****             meda();
 899:test/Test8.cpp ****         }else if(type==0){
 900:test/Test8.cpp ****             pcela(id);
 901:test/Test8.cpp ****         }
 902:test/Test8.cpp ****         //thread_dispatch();
 903:test/Test8.cpp ****         printString("Jedna itercija gotova\n");
 904:test/Test8.cpp ****     }
 905:test/Test8.cpp **** 
 906:test/Test8.cpp **** }
 907:test/Test8.cpp **** 
 908:test/Test8.cpp **** 
 909:test/Test8.cpp **** 
 910:test/Test8.cpp **** 
 911:test/Test8.cpp **** void testBeeBear() {
 912:test/Test8.cpp ****     A11* niz[animals];
 913:test/Test8.cpp ****     for(int i=0;i<animals;i++){
 914:test/Test8.cpp ****         switch (i) {
 915:test/Test8.cpp **** 
 916:test/Test8.cpp ****             case 5:{
 917:test/Test8.cpp ****                 niz[5] =new A11(1);
 918:test/Test8.cpp ****                 break;
 919:test/Test8.cpp ****             }
 920:test/Test8.cpp **** 
 921:test/Test8.cpp ****             default:{
 922:test/Test8.cpp ****                 niz[i] = new A11(0);
 923:test/Test8.cpp ****                 break;
 924:test/Test8.cpp ****             }
 925:test/Test8.cpp **** 
 926:test/Test8.cpp ****         }
 927:test/Test8.cpp ****     }
 928:test/Test8.cpp **** 
 929:test/Test8.cpp ****     for(auto nit:niz){
 930:test/Test8.cpp ****         nit->start();
 931:test/Test8.cpp ****     }
 932:test/Test8.cpp **** 
 933:test/Test8.cpp ****     for(auto nit:niz){
 934:test/Test8.cpp ****         nit->join();
 935:test/Test8.cpp ****     }
GAS LISTING /tmp/ccCnP6rB.s 			page 24


 936:test/Test8.cpp ****     for(auto nit:niz){
 937:test/Test8.cpp ****         delete nit;
 938:test/Test8.cpp ****     }
 939:test/Test8.cpp ****     printString("TEST 8 - HUNGRY BIRDS - gotov\n");
 940:test/Test8.cpp **** }
 941:test/Test8.cpp **** class A12:public Thread{
 942:test/Test8.cpp **** public:
 943:test/Test8.cpp **** 
 944:test/Test8.cpp ****     A12():Thread(){
 945:test/Test8.cpp **** 
 946:test/Test8.cpp ****     }
 947:test/Test8.cpp **** protected:
 948:test/Test8.cpp ****     void run() override;
 949:test/Test8.cpp **** };
 950:test/Test8.cpp **** 
 951:test/Test8.cpp **** class B12:public Thread{
 952:test/Test8.cpp **** public:
 953:test/Test8.cpp **** 
 954:test/Test8.cpp ****     B12():Thread(){
 955:test/Test8.cpp **** 
 956:test/Test8.cpp ****     }
 957:test/Test8.cpp **** protected:
 958:test/Test8.cpp ****     virtual void run();
 959:test/Test8.cpp **** };
 960:test/Test8.cpp **** Semaphore* sem2;
 961:test/Test8.cpp **** Semaphore* sem3;
 962:test/Test8.cpp **** void A12::run() {
 963:test/Test8.cpp ****     printString("Nit A obrada...\n");
 964:test/Test8.cpp ****     for(int i=0;i<1000;i++){
 965:test/Test8.cpp ****         for(int j=0;j<1000;j++){}
 966:test/Test8.cpp ****         thread_dispatch();
 967:test/Test8.cpp ****     };
 968:test/Test8.cpp ****     printString("Nit A hoce 10 zetona...\n");
 969:test/Test8.cpp ****     sem2->waitN(10);
 970:test/Test8.cpp ****     printString("Nit uzela 10 zetona \n");
 971:test/Test8.cpp **** 
 972:test/Test8.cpp **** 
 973:test/Test8.cpp **** 
 974:test/Test8.cpp **** 
 975:test/Test8.cpp ****     printString("A: zavrsila\n");
 976:test/Test8.cpp **** 
 977:test/Test8.cpp **** }
 978:test/Test8.cpp **** 
 979:test/Test8.cpp **** void B12::run() {
 980:test/Test8.cpp **** 
 981:test/Test8.cpp ****     for(int i =0;i<5;i++){
 982:test/Test8.cpp ****         sem2->signalN();
 983:test/Test8.cpp ****         printString("Nit B signalizira semafor 2\n");
 984:test/Test8.cpp **** 
 985:test/Test8.cpp ****     }
 986:test/Test8.cpp **** 
 987:test/Test8.cpp ****     for(int i=0;i<1000;i++){
 988:test/Test8.cpp ****         for(int j=0;j<1000;j++){}
 989:test/Test8.cpp ****         thread_dispatch();
 990:test/Test8.cpp ****     };
 991:test/Test8.cpp ****     printString("Nit B hoce 5 zetona\n");
 992:test/Test8.cpp ****     sem3->waitN(5);
GAS LISTING /tmp/ccCnP6rB.s 			page 25


 993:test/Test8.cpp ****     printString("Nit B uzela 5 zetona.\n");
 994:test/Test8.cpp **** 
 995:test/Test8.cpp **** 
 996:test/Test8.cpp ****     printString("B: Zavrsila!\n");
 997:test/Test8.cpp **** 
 998:test/Test8.cpp **** }
 999:test/Test8.cpp **** 
1000:test/Test8.cpp **** 
1001:test/Test8.cpp **** void testSemaforSaZetonima() {
1002:test/Test8.cpp ****     sem2 = new Semaphore(5);
1003:test/Test8.cpp ****     sem3 = new Semaphore(5);
1004:test/Test8.cpp ****     A12* a = new A12();
1005:test/Test8.cpp ****     B12* b = new B12();
1006:test/Test8.cpp **** 
1007:test/Test8.cpp **** 
1008:test/Test8.cpp ****     a->start();
1009:test/Test8.cpp ****     b->start();
1010:test/Test8.cpp **** 
1011:test/Test8.cpp **** 
1012:test/Test8.cpp ****     a->join();
1013:test/Test8.cpp ****     b->join();
1014:test/Test8.cpp **** 
1015:test/Test8.cpp **** //    delete sem2;
1016:test/Test8.cpp **** //    delete sem3;
1017:test/Test8.cpp ****     delete a;
1018:test/Test8.cpp ****     delete b;
1019:test/Test8.cpp **** };
1020:test/Test8.cpp **** 
1021:test/Test8.cpp **** class A13:public Thread {
1022:test/Test8.cpp **** private:
1023:test/Test8.cpp **** 
1024:test/Test8.cpp **** public:
1025:test/Test8.cpp ****     Thread* toPing;
1026:test/Test8.cpp ****     void setToPing(Thread* t1){
1027:test/Test8.cpp ****         toPing=t1;
1028:test/Test8.cpp ****     }
1029:test/Test8.cpp ****     A13() : Thread() {};
1030:test/Test8.cpp **** protected:
1031:test/Test8.cpp ****     virtual void run();
1032:test/Test8.cpp **** };
1033:test/Test8.cpp **** 
1034:test/Test8.cpp **** void A13::run(){
1035:test/Test8.cpp **** //    int* test = new int[600];
1036:test/Test8.cpp **** //    test[0]=1;
1037:test/Test8.cpp ****     for(int i=0;i<10;i++){
1038:test/Test8.cpp ****         for(uint64 j=0;j<30000;j++){
1039:test/Test8.cpp ****             for(int k=0;k<1000;k++){}
1040:test/Test8.cpp ****             thread_dispatch();
1041:test/Test8.cpp ****         }
1042:test/Test8.cpp ****         printString("A: ");
1043:test/Test8.cpp ****         printInt(i);
1044:test/Test8.cpp ****         printString("\n");
1045:test/Test8.cpp ****         if(i==7){
1046:test/Test8.cpp ****             printString("A: Pinging B...\n");
1047:test/Test8.cpp ****             toPing->pingThread();
1048:test/Test8.cpp ****         }
1049:test/Test8.cpp ****         printString("\n");
GAS LISTING /tmp/ccCnP6rB.s 			page 26


1050:test/Test8.cpp ****         thread_dispatch();
1051:test/Test8.cpp ****     }
1052:test/Test8.cpp **** }
1053:test/Test8.cpp **** 
1054:test/Test8.cpp **** 
1055:test/Test8.cpp **** class B13:public Thread {
1056:test/Test8.cpp **** private:
1057:test/Test8.cpp **** 
1058:test/Test8.cpp **** public:
1059:test/Test8.cpp ****     B13() : Thread() {};
1060:test/Test8.cpp **** protected:
1061:test/Test8.cpp ****     virtual void run();
1062:test/Test8.cpp **** };
1063:test/Test8.cpp **** 
1064:test/Test8.cpp **** void B13::run(){
 308              		.loc 1 1064 16 is_stmt 1
 309              		.cfi_startproc
 310              	.LVL35:
 311 01ec 130101FE 		addi	sp,sp,-32
 312              		.cfi_def_cfa_offset 32
 313 01f0 233C1100 		sd	ra,24(sp)
 314 01f4 23388100 		sd	s0,16(sp)
 315 01f8 23349100 		sd	s1,8(sp)
 316 01fc 23302101 		sd	s2,0(sp)
 317              		.cfi_offset 1, -8
 318              		.cfi_offset 8, -16
 319              		.cfi_offset 9, -24
 320              		.cfi_offset 18, -32
 321 0200 13040102 		addi	s0,sp,32
 322              		.cfi_def_cfa 8, 0
1065:test/Test8.cpp **** 
1066:test/Test8.cpp ****     for(int i=0;i<10;i++){
 323              		.loc 1 1066 5
 324              	.LVL36:
 325              	.LBB110:
 326              		.loc 1 1066 13 is_stmt 0
 327 0204 13090000 		li	s2,0
 328 0208 6F000007 		j	.L21
 329              	.LVL37:
 330              	.L18:
 331              	.LBB111:
 332              	.LBB112:
 333              	.LBB113:
1067:test/Test8.cpp ****         for(uint64 j=0;j<30000;j++){
1068:test/Test8.cpp ****             for(int k=0;k<1000;k++){}
1069:test/Test8.cpp ****             thread_dispatch();
 334              		.loc 1 1069 13 is_stmt 1 discriminator 2
 335              		.loc 1 1069 28 is_stmt 0 discriminator 2
 336 020c 97000000 		call	_Z15thread_dispatchv@plt
 336      E7800000 
 337              	.LVL38:
 338              	.LBE113:
1067:test/Test8.cpp ****         for(uint64 j=0;j<30000;j++){
 339              		.loc 1 1067 9 is_stmt 1 discriminator 2
 340 0214 93841400 		addi	s1,s1,1
 341              	.LVL39:
 342              	.L20:
GAS LISTING /tmp/ccCnP6rB.s 			page 27


1067:test/Test8.cpp ****         for(uint64 j=0;j<30000;j++){
 343              		.loc 1 1067 25 discriminator 1
 344 0218 B7770000 		li	a5,28672
 345 021c 9387F752 		addi	a5,a5,1327
 346 0220 63EC9700 		bgtu	s1,a5,.L17
 347              	.LBB115:
 348              	.LBB114:
1068:test/Test8.cpp ****             thread_dispatch();
 349              		.loc 1 1068 21 is_stmt 0
 350 0224 93070000 		li	a5,0
 351              	.L19:
 352              	.LVL40:
1068:test/Test8.cpp ****             thread_dispatch();
 353              		.loc 1 1068 26 is_stmt 1 discriminator 3
 354 0228 1307703E 		li	a4,999
 355 022c E340F7FE 		bgt	a5,a4,.L18
1068:test/Test8.cpp ****             thread_dispatch();
 356              		.loc 1 1068 13 discriminator 2
 357 0230 9B871700 		addiw	a5,a5,1
 358              	.LVL41:
 359 0234 6FF05FFF 		j	.L19
 360              	.L17:
 361              	.LBE114:
 362              	.LBE115:
 363              	.LBE112:
1070:test/Test8.cpp ****         }
1071:test/Test8.cpp ****         printString("B: ");
 364              		.loc 1 1071 9 discriminator 2
 365              		.loc 1 1071 20 is_stmt 0 discriminator 2
 366 0238 17050000 		lla	a0,.LC8
 366      13050500 
 367 0240 97000000 		call	_Z11printStringPKc@plt
 367      E7800000 
 368              	.LVL42:
1072:test/Test8.cpp ****         printInt(i);
 369              		.loc 1 1072 9 is_stmt 1 discriminator 2
 370              		.loc 1 1072 17 is_stmt 0 discriminator 2
 371 0248 13060000 		li	a2,0
 372 024c 9305A000 		li	a1,10
 373 0250 13050900 		mv	a0,s2
 374 0254 97000000 		call	_Z8printIntiii@plt
 374      E7800000 
 375              	.LVL43:
1073:test/Test8.cpp ****         printString("\n");
 376              		.loc 1 1073 9 is_stmt 1 discriminator 2
 377              		.loc 1 1073 20 is_stmt 0 discriminator 2
 378 025c 17050000 		lla	a0,.LC1
 378      13050500 
 379 0264 97000000 		call	_Z11printStringPKc@plt
 379      E7800000 
 380              	.LVL44:
1074:test/Test8.cpp ****         thread_dispatch();
 381              		.loc 1 1074 9 is_stmt 1 discriminator 2
 382              		.loc 1 1074 24 is_stmt 0 discriminator 2
 383 026c 97000000 		call	_Z15thread_dispatchv@plt
 383      E7800000 
 384              	.LVL45:
GAS LISTING /tmp/ccCnP6rB.s 			page 28


 385              	.LBE111:
1066:test/Test8.cpp ****         for(uint64 j=0;j<30000;j++){
 386              		.loc 1 1066 5 is_stmt 1 discriminator 2
 387 0274 1B091900 		addiw	s2,s2,1
 388              	.LVL46:
 389              	.L21:
1066:test/Test8.cpp ****         for(uint64 j=0;j<30000;j++){
 390              		.loc 1 1066 18 discriminator 1
 391 0278 93079000 		li	a5,9
 392 027c 63C62701 		bgt	s2,a5,.L15
 393              	.LBB117:
 394              	.LBB116:
1067:test/Test8.cpp ****             for(int k=0;k<1000;k++){}
 395              		.loc 1 1067 20 is_stmt 0
 396 0280 93040000 		li	s1,0
 397 0284 6FF05FF9 		j	.L20
 398              	.L15:
 399              	.LBE116:
 400              	.LBE117:
 401              	.LBE110:
1075:test/Test8.cpp ****     }
1076:test/Test8.cpp **** }
 402              		.loc 1 1076 1
 403 0288 83308101 		ld	ra,24(sp)
 404              		.cfi_restore 1
 405 028c 03340101 		ld	s0,16(sp)
 406              		.cfi_restore 8
 407              		.cfi_def_cfa 2, 32
 408 0290 83348100 		ld	s1,8(sp)
 409              		.cfi_restore 9
 410 0294 03390100 		ld	s2,0(sp)
 411              		.cfi_restore 18
 412              	.LVL47:
 413 0298 13010102 		addi	sp,sp,32
 414              		.cfi_def_cfa_offset 0
 415 029c 67800000 		jr	ra
 416              		.cfi_endproc
 417              	.LFE100:
 419              		.section	.rodata.str1.8
 420 0074 00000000 		.align	3
 421              	.LC9:
 422 0078 4E69742C 		.string	"Nit, pocetak wrappera- id: "
 422      20706F63 
 422      6574616B 
 422      20777261 
 422      70706572 
 423 0094 00000000 		.align	3
 424              	.LC10:
 425 0098 49746572 		.string	"Iteracija: "
 425      6163696A 
 425      613A2000 
 426 00a4 00000000 		.align	3
 427              	.LC11:
 428 00a8 4E697420 		.string	"Nit - id: "
 428      2D206964 
 428      3A2000
 429 00b3 00000000 		.align	3
GAS LISTING /tmp/ccCnP6rB.s 			page 29


 429      00
 430              	.LC12:
 431 00b8 4A65646E 		.string	"Jedna itercija gotova\n"
 431      61206974 
 431      65726369 
 431      6A612067 
 431      6F746F76 
 432              		.text
 433              		.align	2
 434              		.globl	_ZN2A13runEv
 436              	_ZN2A13runEv:
 437              	.LFB8:
  26:test/Test8.cpp ****     for(int m=0;m<3;m++){
 438              		.loc 1 26 16 is_stmt 1
 439              		.cfi_startproc
 440              	.LVL48:
 441 02a0 130101FD 		addi	sp,sp,-48
 442              		.cfi_def_cfa_offset 48
 443 02a4 23341102 		sd	ra,40(sp)
 444 02a8 23308102 		sd	s0,32(sp)
 445 02ac 233C9100 		sd	s1,24(sp)
 446 02b0 23382101 		sd	s2,16(sp)
 447 02b4 23343101 		sd	s3,8(sp)
 448              		.cfi_offset 1, -8
 449              		.cfi_offset 8, -16
 450              		.cfi_offset 9, -24
 451              		.cfi_offset 18, -32
 452              		.cfi_offset 19, -40
 453 02b8 13040103 		addi	s0,sp,48
 454              		.cfi_def_cfa 8, 0
 455 02bc 13090500 		mv	s2,a0
  27:test/Test8.cpp ****         printString("Nit, pocetak wrappera- id: ");
 456              		.loc 1 27 5
 457              	.LVL49:
 458              	.LBB118:
  27:test/Test8.cpp ****         printString("Nit, pocetak wrappera- id: ");
 459              		.loc 1 27 13 is_stmt 0
 460 02c0 93090000 		li	s3,0
 461 02c4 6F00800C 		j	.L31
 462              	.LVL50:
 463              	.L26:
 464              	.LBB119:
 465              	.LBB120:
 466              	.LBB121:
  36:test/Test8.cpp ****         }
 467              		.loc 1 36 13 is_stmt 1 discriminator 2
  36:test/Test8.cpp ****         }
 468              		.loc 1 36 28 is_stmt 0 discriminator 2
 469 02c8 97000000 		call	_Z15thread_dispatchv@plt
 469      E7800000 
 470              	.LVL51:
 471              	.LBE121:
  34:test/Test8.cpp ****             for(int j=0;j<1000;j++){}
 472              		.loc 1 34 9 is_stmt 1 discriminator 2
 473 02d0 9B841400 		addiw	s1,s1,1
 474              	.LVL52:
 475              	.L28:
GAS LISTING /tmp/ccCnP6rB.s 			page 30


  34:test/Test8.cpp ****             for(int j=0;j<1000;j++){}
 476              		.loc 1 34 22 discriminator 1
 477 02d4 9307703E 		li	a5,999
 478 02d8 63CC9700 		bgt	s1,a5,.L25
 479              	.LBB123:
 480              	.LBB122:
  35:test/Test8.cpp ****             thread_dispatch();
 481              		.loc 1 35 21 is_stmt 0
 482 02dc 93070000 		li	a5,0
 483              	.L27:
 484              	.LVL53:
  35:test/Test8.cpp ****             thread_dispatch();
 485              		.loc 1 35 26 is_stmt 1 discriminator 3
 486 02e0 1307703E 		li	a4,999
 487 02e4 E342F7FE 		bgt	a5,a4,.L26
  35:test/Test8.cpp ****             thread_dispatch();
 488              		.loc 1 35 13 discriminator 2
 489 02e8 9B871700 		addiw	a5,a5,1
 490              	.LVL54:
 491 02ec 6FF05FFF 		j	.L27
 492              	.L25:
 493              	.LBE122:
 494              	.LBE123:
 495              	.LBE120:
  38:test/Test8.cpp ****         printInt(id);
 496              		.loc 1 38 9
  38:test/Test8.cpp ****         printInt(id);
 497              		.loc 1 38 20 is_stmt 0
 498 02f0 17050000 		lla	a0,.LC11
 498      13050500 
 499 02f8 97000000 		call	_Z11printStringPKc@plt
 499      E7800000 
 500              	.LVL55:
  39:test/Test8.cpp ****         printString("\n");
 501              		.loc 1 39 9 is_stmt 1
  39:test/Test8.cpp ****         printString("\n");
 502              		.loc 1 39 17 is_stmt 0
 503 0300 13060000 		li	a2,0
 504 0304 9305A000 		li	a1,10
 505 0308 03250902 		lw	a0,32(s2)
 506 030c 97000000 		call	_Z8printIntiii@plt
 506      E7800000 
 507              	.LVL56:
  40:test/Test8.cpp ****         printString("Iteracija: ");
 508              		.loc 1 40 9 is_stmt 1
  40:test/Test8.cpp ****         printString("Iteracija: ");
 509              		.loc 1 40 20 is_stmt 0
 510 0314 17050000 		lla	a0,.LC1
 510      13050500 
 511 031c 97000000 		call	_Z11printStringPKc@plt
 511      E7800000 
 512              	.LVL57:
  41:test/Test8.cpp ****         printInt(m);
 513              		.loc 1 41 9 is_stmt 1
  41:test/Test8.cpp ****         printInt(m);
 514              		.loc 1 41 20 is_stmt 0
 515 0324 17050000 		lla	a0,.LC10
GAS LISTING /tmp/ccCnP6rB.s 			page 31


 515      13050500 
 516 032c 97000000 		call	_Z11printStringPKc@plt
 516      E7800000 
 517              	.LVL58:
  42:test/Test8.cpp ****         printString("\n");
 518              		.loc 1 42 9 is_stmt 1
  42:test/Test8.cpp ****         printString("\n");
 519              		.loc 1 42 17 is_stmt 0
 520 0334 13060000 		li	a2,0
 521 0338 9305A000 		li	a1,10
 522 033c 13850900 		mv	a0,s3
 523 0340 97000000 		call	_Z8printIntiii@plt
 523      E7800000 
 524              	.LVL59:
  43:test/Test8.cpp ****         if(type){
 525              		.loc 1 43 9 is_stmt 1
  43:test/Test8.cpp ****         if(type){
 526              		.loc 1 43 20 is_stmt 0
 527 0348 17050000 		lla	a0,.LC1
 527      13050500 
 528 0350 97000000 		call	_Z11printStringPKc@plt
 528      E7800000 
 529              	.LVL60:
  44:test/Test8.cpp ****             woman(id);
 530              		.loc 1 44 9 is_stmt 1
  44:test/Test8.cpp ****             woman(id);
 531              		.loc 1 44 12 is_stmt 0
 532 0358 83274902 		lw	a5,36(s2)
  44:test/Test8.cpp ****             woman(id);
 533              		.loc 1 44 9
 534 035c 6384070A 		beqz	a5,.L29
  45:test/Test8.cpp ****         }else if(type==0){
 535              		.loc 1 45 13 is_stmt 1
  45:test/Test8.cpp ****         }else if(type==0){
 536              		.loc 1 45 18 is_stmt 0
 537 0360 83250902 		lw	a1,32(s2)
 538 0364 13050900 		mv	a0,s2
 539 0368 97000000 		call	_ZN6Thread5womanEj@plt
 539      E7800000 
 540              	.LVL61:
 541              	.L30:
  49:test/Test8.cpp ****         printString("Jedna itercija gotova\n");
 542              		.loc 1 49 9 is_stmt 1 discriminator 2
  49:test/Test8.cpp ****         printString("Jedna itercija gotova\n");
 543              		.loc 1 49 24 is_stmt 0 discriminator 2
 544 0370 97000000 		call	_Z15thread_dispatchv@plt
 544      E7800000 
 545              	.LVL62:
  50:test/Test8.cpp ****     }
 546              		.loc 1 50 9 is_stmt 1 discriminator 2
  50:test/Test8.cpp ****     }
 547              		.loc 1 50 20 is_stmt 0 discriminator 2
 548 0378 17050000 		lla	a0,.LC12
 548      13050500 
 549 0380 97000000 		call	_Z11printStringPKc@plt
 549      E7800000 
 550              	.LVL63:
GAS LISTING /tmp/ccCnP6rB.s 			page 32


 551              	.LBE119:
  27:test/Test8.cpp ****         printString("Nit, pocetak wrappera- id: ");
 552              		.loc 1 27 5 is_stmt 1 discriminator 2
 553 0388 9B891900 		addiw	s3,s3,1
 554              	.LVL64:
 555              	.L31:
  27:test/Test8.cpp ****         printString("Nit, pocetak wrappera- id: ");
 556              		.loc 1 27 18 discriminator 1
 557 038c 93072000 		li	a5,2
 558 0390 63C43709 		bgt	s3,a5,.L23
 559              	.LBB125:
  28:test/Test8.cpp ****         printInt(id);
 560              		.loc 1 28 9
  28:test/Test8.cpp ****         printInt(id);
 561              		.loc 1 28 20 is_stmt 0
 562 0394 17050000 		lla	a0,.LC9
 562      13050500 
 563 039c 97000000 		call	_Z11printStringPKc@plt
 563      E7800000 
 564              	.LVL65:
  29:test/Test8.cpp ****         printString("\n");
 565              		.loc 1 29 9 is_stmt 1
  29:test/Test8.cpp ****         printString("\n");
 566              		.loc 1 29 17 is_stmt 0
 567 03a4 13060000 		li	a2,0
 568 03a8 9305A000 		li	a1,10
 569 03ac 03250902 		lw	a0,32(s2)
 570 03b0 97000000 		call	_Z8printIntiii@plt
 570      E7800000 
 571              	.LVL66:
  30:test/Test8.cpp ****         printString("Iteracija: ");
 572              		.loc 1 30 9 is_stmt 1
  30:test/Test8.cpp ****         printString("Iteracija: ");
 573              		.loc 1 30 20 is_stmt 0
 574 03b8 17050000 		lla	a0,.LC1
 574      13050500 
 575 03c0 97000000 		call	_Z11printStringPKc@plt
 575      E7800000 
 576              	.LVL67:
  31:test/Test8.cpp ****         printInt(m);
 577              		.loc 1 31 9 is_stmt 1
  31:test/Test8.cpp ****         printInt(m);
 578              		.loc 1 31 20 is_stmt 0
 579 03c8 17050000 		lla	a0,.LC10
 579      13050500 
 580 03d0 97000000 		call	_Z11printStringPKc@plt
 580      E7800000 
 581              	.LVL68:
  32:test/Test8.cpp ****         printString("\n");
 582              		.loc 1 32 9 is_stmt 1
  32:test/Test8.cpp ****         printString("\n");
 583              		.loc 1 32 17 is_stmt 0
 584 03d8 13060000 		li	a2,0
 585 03dc 9305A000 		li	a1,10
 586 03e0 13850900 		mv	a0,s3
 587 03e4 97000000 		call	_Z8printIntiii@plt
 587      E7800000 
GAS LISTING /tmp/ccCnP6rB.s 			page 33


 588              	.LVL69:
  33:test/Test8.cpp ****         for(int i=0;i<1000;i++){
 589              		.loc 1 33 9 is_stmt 1
  33:test/Test8.cpp ****         for(int i=0;i<1000;i++){
 590              		.loc 1 33 20 is_stmt 0
 591 03ec 17050000 		lla	a0,.LC1
 591      13050500 
 592 03f4 97000000 		call	_Z11printStringPKc@plt
 592      E7800000 
 593              	.LVL70:
  34:test/Test8.cpp ****             for(int j=0;j<1000;j++){}
 594              		.loc 1 34 9 is_stmt 1
 595              	.LBB124:
  34:test/Test8.cpp ****             for(int j=0;j<1000;j++){}
 596              		.loc 1 34 17 is_stmt 0
 597 03fc 93040000 		li	s1,0
 598 0400 6FF05FED 		j	.L28
 599              	.LVL71:
 600              	.L29:
 601              	.LBE124:
  46:test/Test8.cpp ****             man(id);
 602              		.loc 1 46 15 is_stmt 1
  47:test/Test8.cpp ****         }
 603              		.loc 1 47 13
  47:test/Test8.cpp ****         }
 604              		.loc 1 47 16 is_stmt 0
 605 0404 83250902 		lw	a1,32(s2)
 606 0408 13050900 		mv	a0,s2
 607 040c 97000000 		call	_ZN6Thread3manEj@plt
 607      E7800000 
 608              	.LVL72:
 609 0414 6FF0DFF5 		j	.L30
 610              	.LVL73:
 611              	.L23:
 612              	.LBE125:
 613              	.LBE118:
  53:test/Test8.cpp **** void test8(){
 614              		.loc 1 53 1
 615 0418 83308102 		ld	ra,40(sp)
 616              		.cfi_restore 1
 617 041c 03340102 		ld	s0,32(sp)
 618              		.cfi_restore 8
 619              		.cfi_def_cfa 2, 48
 620 0420 83348101 		ld	s1,24(sp)
 621              		.cfi_restore 9
 622 0424 03390101 		ld	s2,16(sp)
 623              		.cfi_restore 18
 624              	.LVL74:
 625 0428 83398100 		ld	s3,8(sp)
 626              		.cfi_restore 19
 627              	.LVL75:
 628 042c 13010103 		addi	sp,sp,48
 629              		.cfi_def_cfa_offset 0
 630 0430 67800000 		jr	ra
 631              		.cfi_endproc
 632              	.LFE8:
 634              		.section	.text._ZN2A7D2Ev,"axG",@progbits,_ZN2A7D5Ev,comdat
GAS LISTING /tmp/ccCnP6rB.s 			page 34


 635              		.align	2
 636              		.weak	_ZN2A7D2Ev
 638              	_ZN2A7D2Ev:
 639              	.LFB156:
 574:test/Test8.cpp ****     int id;
 640              		.loc 1 574 7 is_stmt 1
 641              		.cfi_startproc
 642              	.LVL76:
 643 0000 130101FF 		addi	sp,sp,-16
 644              		.cfi_def_cfa_offset 16
 645 0004 23341100 		sd	ra,8(sp)
 646 0008 23308100 		sd	s0,0(sp)
 647              		.cfi_offset 1, -8
 648              		.cfi_offset 8, -16
 649 000c 13040101 		addi	s0,sp,16
 650              		.cfi_def_cfa 8, 0
 651              	.LBB126:
 574:test/Test8.cpp ****     int id;
 652              		.loc 1 574 7 is_stmt 0
 653 0010 97070000 		lla	a5,_ZTV2A7+16
 653      93870700 
 654 0018 2330F500 		sd	a5,0(a0)
 655 001c 97000000 		call	_ZN6ThreadD2Ev@plt
 655      E7800000 
 656              	.LVL77:
 657              	.LBE126:
 658 0024 83308100 		ld	ra,8(sp)
 659              		.cfi_restore 1
 660 0028 03340100 		ld	s0,0(sp)
 661              		.cfi_restore 8
 662              		.cfi_def_cfa 2, 16
 663 002c 13010101 		addi	sp,sp,16
 664              		.cfi_def_cfa_offset 0
 665 0030 67800000 		jr	ra
 666              		.cfi_endproc
 667              	.LFE156:
 669              		.weak	_ZN2A7D1Ev
 670              		.set	_ZN2A7D1Ev,_ZN2A7D2Ev
 671              		.section	.text._ZN2A7D0Ev,"axG",@progbits,_ZN2A7D5Ev,comdat
 672              		.align	2
 673              		.weak	_ZN2A7D0Ev
 675              	_ZN2A7D0Ev:
 676              	.LFB158:
 574:test/Test8.cpp ****     int id;
 677              		.loc 1 574 7 is_stmt 1
 678              		.cfi_startproc
 679              	.LVL78:
 680 0000 130101FE 		addi	sp,sp,-32
 681              		.cfi_def_cfa_offset 32
 682 0004 233C1100 		sd	ra,24(sp)
 683 0008 23388100 		sd	s0,16(sp)
 684 000c 23349100 		sd	s1,8(sp)
 685              		.cfi_offset 1, -8
 686              		.cfi_offset 8, -16
 687              		.cfi_offset 9, -24
 688 0010 13040102 		addi	s0,sp,32
 689              		.cfi_def_cfa 8, 0
GAS LISTING /tmp/ccCnP6rB.s 			page 35


 690 0014 93040500 		mv	s1,a0
 691              	.LVL79:
 692              	.LBB127:
 693              	.LBB128:
 574:test/Test8.cpp ****     int id;
 694              		.loc 1 574 7 is_stmt 0
 695 0018 97070000 		lla	a5,_ZTV2A7+16
 695      93870700 
 696 0020 2330F500 		sd	a5,0(a0)
 697 0024 97000000 		call	_ZN6ThreadD2Ev@plt
 697      E7800000 
 698              	.LVL80:
 699              	.LBE128:
 700              	.LBE127:
 701 002c 13850400 		mv	a0,s1
 702 0030 97000000 		call	_ZdlPv@plt
 702      E7800000 
 703              	.LVL81:
 704 0038 83308101 		ld	ra,24(sp)
 705              		.cfi_restore 1
 706 003c 03340101 		ld	s0,16(sp)
 707              		.cfi_restore 8
 708              		.cfi_def_cfa 2, 32
 709 0040 83348100 		ld	s1,8(sp)
 710              		.cfi_restore 9
 711              	.LVL82:
 712 0044 13010102 		addi	sp,sp,32
 713              		.cfi_def_cfa_offset 0
 714 0048 67800000 		jr	ra
 715              		.cfi_endproc
 716              	.LFE158:
 718              		.section	.text._ZN2B7D2Ev,"axG",@progbits,_ZN2B7D5Ev,comdat
 719              		.align	2
 720              		.weak	_ZN2B7D2Ev
 722              	_ZN2B7D2Ev:
 723              	.LFB152:
 596:test/Test8.cpp **** 
 724              		.loc 1 596 7 is_stmt 1
 725              		.cfi_startproc
 726              	.LVL83:
 727 0000 130101FF 		addi	sp,sp,-16
 728              		.cfi_def_cfa_offset 16
 729 0004 23341100 		sd	ra,8(sp)
 730 0008 23308100 		sd	s0,0(sp)
 731              		.cfi_offset 1, -8
 732              		.cfi_offset 8, -16
 733 000c 13040101 		addi	s0,sp,16
 734              		.cfi_def_cfa 8, 0
 735              	.LBB129:
 596:test/Test8.cpp **** 
 736              		.loc 1 596 7 is_stmt 0
 737 0010 97070000 		lla	a5,_ZTV2B7+16
 737      93870700 
 738 0018 2330F500 		sd	a5,0(a0)
 739 001c 97000000 		call	_ZN6ThreadD2Ev@plt
 739      E7800000 
 740              	.LVL84:
GAS LISTING /tmp/ccCnP6rB.s 			page 36


 741              	.LBE129:
 742 0024 83308100 		ld	ra,8(sp)
 743              		.cfi_restore 1
 744 0028 03340100 		ld	s0,0(sp)
 745              		.cfi_restore 8
 746              		.cfi_def_cfa 2, 16
 747 002c 13010101 		addi	sp,sp,16
 748              		.cfi_def_cfa_offset 0
 749 0030 67800000 		jr	ra
 750              		.cfi_endproc
 751              	.LFE152:
 753              		.weak	_ZN2B7D1Ev
 754              		.set	_ZN2B7D1Ev,_ZN2B7D2Ev
 755              		.section	.text._ZN2B7D0Ev,"axG",@progbits,_ZN2B7D5Ev,comdat
 756              		.align	2
 757              		.weak	_ZN2B7D0Ev
 759              	_ZN2B7D0Ev:
 760              	.LFB154:
 596:test/Test8.cpp **** 
 761              		.loc 1 596 7 is_stmt 1
 762              		.cfi_startproc
 763              	.LVL85:
 764 0000 130101FE 		addi	sp,sp,-32
 765              		.cfi_def_cfa_offset 32
 766 0004 233C1100 		sd	ra,24(sp)
 767 0008 23388100 		sd	s0,16(sp)
 768 000c 23349100 		sd	s1,8(sp)
 769              		.cfi_offset 1, -8
 770              		.cfi_offset 8, -16
 771              		.cfi_offset 9, -24
 772 0010 13040102 		addi	s0,sp,32
 773              		.cfi_def_cfa 8, 0
 774 0014 93040500 		mv	s1,a0
 775              	.LVL86:
 776              	.LBB130:
 777              	.LBB131:
 596:test/Test8.cpp **** 
 778              		.loc 1 596 7 is_stmt 0
 779 0018 97070000 		lla	a5,_ZTV2B7+16
 779      93870700 
 780 0020 2330F500 		sd	a5,0(a0)
 781 0024 97000000 		call	_ZN6ThreadD2Ev@plt
 781      E7800000 
 782              	.LVL87:
 783              	.LBE131:
 784              	.LBE130:
 785 002c 13850400 		mv	a0,s1
 786 0030 97000000 		call	_ZdlPv@plt
 786      E7800000 
 787              	.LVL88:
 788 0038 83308101 		ld	ra,24(sp)
 789              		.cfi_restore 1
 790 003c 03340101 		ld	s0,16(sp)
 791              		.cfi_restore 8
 792              		.cfi_def_cfa 2, 32
 793 0040 83348100 		ld	s1,8(sp)
 794              		.cfi_restore 9
GAS LISTING /tmp/ccCnP6rB.s 			page 37


 795              	.LVL89:
 796 0044 13010102 		addi	sp,sp,32
 797              		.cfi_def_cfa_offset 0
 798 0048 67800000 		jr	ra
 799              		.cfi_endproc
 800              	.LFE154:
 802              		.section	.text._ZN11testTRYWaitD2Ev,"axG",@progbits,_ZN11testTRYWaitD5Ev,comdat
 803              		.align	2
 804              		.weak	_ZN11testTRYWaitD2Ev
 806              	_ZN11testTRYWaitD2Ev:
 807              	.LFB112:
1077:test/Test8.cpp **** 
1078:test/Test8.cpp **** class C13:public Thread {
1079:test/Test8.cpp **** private:
1080:test/Test8.cpp **** 
1081:test/Test8.cpp **** public:
1082:test/Test8.cpp ****     Thread* toPing;
1083:test/Test8.cpp ****     C13(void* t) : Thread() {toPing = (Thread*)t;};
1084:test/Test8.cpp **** 
1085:test/Test8.cpp **** protected:
1086:test/Test8.cpp ****     virtual void run();
1087:test/Test8.cpp **** };
1088:test/Test8.cpp **** 
1089:test/Test8.cpp **** void C13::run(){
1090:test/Test8.cpp **** //    int* test = new int[600];
1091:test/Test8.cpp **** //    test[0]=1;
1092:test/Test8.cpp ****     for(int i=0;i<10;i++){
1093:test/Test8.cpp ****         for(uint64 j=0;j<30000;j++){
1094:test/Test8.cpp ****             for(int k=0;k<1000;k++){}
1095:test/Test8.cpp ****             thread_dispatch();
1096:test/Test8.cpp ****         }
1097:test/Test8.cpp ****         printString("C: ");
1098:test/Test8.cpp ****         printInt(i);
1099:test/Test8.cpp ****         printString("\n");
1100:test/Test8.cpp ****         if(i==5){
1101:test/Test8.cpp ****             printString("C: Pinging A...\n");
1102:test/Test8.cpp ****             toPing->pingThread();
1103:test/Test8.cpp ****         }
1104:test/Test8.cpp ****         thread_dispatch();
1105:test/Test8.cpp ****     }
1106:test/Test8.cpp **** }
1107:test/Test8.cpp **** 
1108:test/Test8.cpp **** 
1109:test/Test8.cpp **** void testPing(){
1110:test/Test8.cpp ****     //Thread *threads[3];
1111:test/Test8.cpp **** 
1112:test/Test8.cpp **** 
1113:test/Test8.cpp ****     A13* a1=new A13();
1114:test/Test8.cpp ****     printString("A kreiran\n");
1115:test/Test8.cpp ****     B13* b1=new B13();
1116:test/Test8.cpp ****     printString("B kreiran\n");
1117:test/Test8.cpp ****     C13* c1 =new C13(a1);
1118:test/Test8.cpp **** 
1119:test/Test8.cpp ****     a1->setToPing(c1);
1120:test/Test8.cpp **** 
1121:test/Test8.cpp ****     printString("C krieran\n");
1122:test/Test8.cpp **** 
GAS LISTING /tmp/ccCnP6rB.s 			page 38


1123:test/Test8.cpp ****     a1->start();
1124:test/Test8.cpp ****     b1->start();
1125:test/Test8.cpp ****     c1->start();
1126:test/Test8.cpp **** 
1127:test/Test8.cpp ****     //a1->join();
1128:test/Test8.cpp ****     b1->join();
1129:test/Test8.cpp ****     c1->join();
1130:test/Test8.cpp **** 
1131:test/Test8.cpp ****     delete a1;
1132:test/Test8.cpp ****     delete c1;
1133:test/Test8.cpp ****     delete b1;
1134:test/Test8.cpp **** 
1135:test/Test8.cpp ****     printString("TEST 8 - PING thread uspesno gotov\n");
1136:test/Test8.cpp **** 
1137:test/Test8.cpp **** }
1138:test/Test8.cpp **** 
1139:test/Test8.cpp **** static Semaphore* s;
1140:test/Test8.cpp **** static Semaphore* waitNiti;
1141:test/Test8.cpp **** class testTRYWait: public Thread{
 808              		.loc 1 1141 7 is_stmt 1
 809              		.cfi_startproc
 810              	.LVL90:
 811 0000 130101FF 		addi	sp,sp,-16
 812              		.cfi_def_cfa_offset 16
 813 0004 23341100 		sd	ra,8(sp)
 814 0008 23308100 		sd	s0,0(sp)
 815              		.cfi_offset 1, -8
 816              		.cfi_offset 8, -16
 817 000c 13040101 		addi	s0,sp,16
 818              		.cfi_def_cfa 8, 0
 819              	.LBB132:
 820              		.loc 1 1141 7 is_stmt 0
 821 0010 97070000 		lla	a5,_ZTV11testTRYWait+16
 821      93870700 
 822 0018 2330F500 		sd	a5,0(a0)
 823 001c 97000000 		call	_ZN6ThreadD2Ev@plt
 823      E7800000 
 824              	.LVL91:
 825              	.LBE132:
 826 0024 83308100 		ld	ra,8(sp)
 827              		.cfi_restore 1
 828 0028 03340100 		ld	s0,0(sp)
 829              		.cfi_restore 8
 830              		.cfi_def_cfa 2, 16
 831 002c 13010101 		addi	sp,sp,16
 832              		.cfi_def_cfa_offset 0
 833 0030 67800000 		jr	ra
 834              		.cfi_endproc
 835              	.LFE112:
 837              		.weak	_ZN11testTRYWaitD1Ev
 838              		.set	_ZN11testTRYWaitD1Ev,_ZN11testTRYWaitD2Ev
 839              		.section	.text._ZN11testTRYWaitD0Ev,"axG",@progbits,_ZN11testTRYWaitD5Ev,comdat
 840              		.align	2
 841              		.weak	_ZN11testTRYWaitD0Ev
 843              	_ZN11testTRYWaitD0Ev:
 844              	.LFB114:
 845              		.loc 1 1141 7 is_stmt 1
GAS LISTING /tmp/ccCnP6rB.s 			page 39


 846              		.cfi_startproc
 847              	.LVL92:
 848 0000 130101FE 		addi	sp,sp,-32
 849              		.cfi_def_cfa_offset 32
 850 0004 233C1100 		sd	ra,24(sp)
 851 0008 23388100 		sd	s0,16(sp)
 852 000c 23349100 		sd	s1,8(sp)
 853              		.cfi_offset 1, -8
 854              		.cfi_offset 8, -16
 855              		.cfi_offset 9, -24
 856 0010 13040102 		addi	s0,sp,32
 857              		.cfi_def_cfa 8, 0
 858 0014 93040500 		mv	s1,a0
 859              	.LVL93:
 860              	.LBB133:
 861              	.LBB134:
 862              		.loc 1 1141 7 is_stmt 0
 863 0018 97070000 		lla	a5,_ZTV11testTRYWait+16
 863      93870700 
 864 0020 2330F500 		sd	a5,0(a0)
 865 0024 97000000 		call	_ZN6ThreadD2Ev@plt
 865      E7800000 
 866              	.LVL94:
 867              	.LBE134:
 868              	.LBE133:
 869 002c 13850400 		mv	a0,s1
 870 0030 97000000 		call	_ZdlPv@plt
 870      E7800000 
 871              	.LVL95:
 872 0038 83308101 		ld	ra,24(sp)
 873              		.cfi_restore 1
 874 003c 03340101 		ld	s0,16(sp)
 875              		.cfi_restore 8
 876              		.cfi_def_cfa 2, 32
 877 0040 83348100 		ld	s1,8(sp)
 878              		.cfi_restore 9
 879              	.LVL96:
 880 0044 13010102 		addi	sp,sp,32
 881              		.cfi_def_cfa_offset 0
 882 0048 67800000 		jr	ra
 883              		.cfi_endproc
 884              	.LFE114:
 886              		.section	.text._ZN3C13D2Ev,"axG",@progbits,_ZN3C13D5Ev,comdat
 887              		.align	2
 888              		.weak	_ZN3C13D2Ev
 890              	_ZN3C13D2Ev:
 891              	.LFB116:
1078:test/Test8.cpp **** private:
 892              		.loc 1 1078 7 is_stmt 1
 893              		.cfi_startproc
 894              	.LVL97:
 895 0000 130101FF 		addi	sp,sp,-16
 896              		.cfi_def_cfa_offset 16
 897 0004 23341100 		sd	ra,8(sp)
 898 0008 23308100 		sd	s0,0(sp)
 899              		.cfi_offset 1, -8
 900              		.cfi_offset 8, -16
GAS LISTING /tmp/ccCnP6rB.s 			page 40


 901 000c 13040101 		addi	s0,sp,16
 902              		.cfi_def_cfa 8, 0
 903              	.LBB135:
1078:test/Test8.cpp **** private:
 904              		.loc 1 1078 7 is_stmt 0
 905 0010 97070000 		lla	a5,_ZTV3C13+16
 905      93870700 
 906 0018 2330F500 		sd	a5,0(a0)
 907 001c 97000000 		call	_ZN6ThreadD2Ev@plt
 907      E7800000 
 908              	.LVL98:
 909              	.LBE135:
 910 0024 83308100 		ld	ra,8(sp)
 911              		.cfi_restore 1
 912 0028 03340100 		ld	s0,0(sp)
 913              		.cfi_restore 8
 914              		.cfi_def_cfa 2, 16
 915 002c 13010101 		addi	sp,sp,16
 916              		.cfi_def_cfa_offset 0
 917 0030 67800000 		jr	ra
 918              		.cfi_endproc
 919              	.LFE116:
 921              		.weak	_ZN3C13D1Ev
 922              		.set	_ZN3C13D1Ev,_ZN3C13D2Ev
 923              		.section	.text._ZN3C13D0Ev,"axG",@progbits,_ZN3C13D5Ev,comdat
 924              		.align	2
 925              		.weak	_ZN3C13D0Ev
 927              	_ZN3C13D0Ev:
 928              	.LFB118:
1078:test/Test8.cpp **** private:
 929              		.loc 1 1078 7 is_stmt 1
 930              		.cfi_startproc
 931              	.LVL99:
 932 0000 130101FE 		addi	sp,sp,-32
 933              		.cfi_def_cfa_offset 32
 934 0004 233C1100 		sd	ra,24(sp)
 935 0008 23388100 		sd	s0,16(sp)
 936 000c 23349100 		sd	s1,8(sp)
 937              		.cfi_offset 1, -8
 938              		.cfi_offset 8, -16
 939              		.cfi_offset 9, -24
 940 0010 13040102 		addi	s0,sp,32
 941              		.cfi_def_cfa 8, 0
 942 0014 93040500 		mv	s1,a0
 943              	.LVL100:
 944              	.LBB136:
 945              	.LBB137:
1078:test/Test8.cpp **** private:
 946              		.loc 1 1078 7 is_stmt 0
 947 0018 97070000 		lla	a5,_ZTV3C13+16
 947      93870700 
 948 0020 2330F500 		sd	a5,0(a0)
 949 0024 97000000 		call	_ZN6ThreadD2Ev@plt
 949      E7800000 
 950              	.LVL101:
 951              	.LBE137:
 952              	.LBE136:
GAS LISTING /tmp/ccCnP6rB.s 			page 41


 953 002c 13850400 		mv	a0,s1
 954 0030 97000000 		call	_ZdlPv@plt
 954      E7800000 
 955              	.LVL102:
 956 0038 83308101 		ld	ra,24(sp)
 957              		.cfi_restore 1
 958 003c 03340101 		ld	s0,16(sp)
 959              		.cfi_restore 8
 960              		.cfi_def_cfa 2, 32
 961 0040 83348100 		ld	s1,8(sp)
 962              		.cfi_restore 9
 963              	.LVL103:
 964 0044 13010102 		addi	sp,sp,32
 965              		.cfi_def_cfa_offset 0
 966 0048 67800000 		jr	ra
 967              		.cfi_endproc
 968              	.LFE118:
 970              		.section	.text._ZN3B13D2Ev,"axG",@progbits,_ZN3B13D5Ev,comdat
 971              		.align	2
 972              		.weak	_ZN3B13D2Ev
 974              	_ZN3B13D2Ev:
 975              	.LFB120:
1055:test/Test8.cpp **** private:
 976              		.loc 1 1055 7 is_stmt 1
 977              		.cfi_startproc
 978              	.LVL104:
 979 0000 130101FF 		addi	sp,sp,-16
 980              		.cfi_def_cfa_offset 16
 981 0004 23341100 		sd	ra,8(sp)
 982 0008 23308100 		sd	s0,0(sp)
 983              		.cfi_offset 1, -8
 984              		.cfi_offset 8, -16
 985 000c 13040101 		addi	s0,sp,16
 986              		.cfi_def_cfa 8, 0
 987              	.LBB138:
1055:test/Test8.cpp **** private:
 988              		.loc 1 1055 7 is_stmt 0
 989 0010 97070000 		lla	a5,_ZTV3B13+16
 989      93870700 
 990 0018 2330F500 		sd	a5,0(a0)
 991 001c 97000000 		call	_ZN6ThreadD2Ev@plt
 991      E7800000 
 992              	.LVL105:
 993              	.LBE138:
 994 0024 83308100 		ld	ra,8(sp)
 995              		.cfi_restore 1
 996 0028 03340100 		ld	s0,0(sp)
 997              		.cfi_restore 8
 998              		.cfi_def_cfa 2, 16
 999 002c 13010101 		addi	sp,sp,16
 1000              		.cfi_def_cfa_offset 0
 1001 0030 67800000 		jr	ra
 1002              		.cfi_endproc
 1003              	.LFE120:
 1005              		.weak	_ZN3B13D1Ev
 1006              		.set	_ZN3B13D1Ev,_ZN3B13D2Ev
 1007              		.section	.text._ZN3B13D0Ev,"axG",@progbits,_ZN3B13D5Ev,comdat
GAS LISTING /tmp/ccCnP6rB.s 			page 42


 1008              		.align	2
 1009              		.weak	_ZN3B13D0Ev
 1011              	_ZN3B13D0Ev:
 1012              	.LFB122:
1055:test/Test8.cpp **** private:
 1013              		.loc 1 1055 7 is_stmt 1
 1014              		.cfi_startproc
 1015              	.LVL106:
 1016 0000 130101FE 		addi	sp,sp,-32
 1017              		.cfi_def_cfa_offset 32
 1018 0004 233C1100 		sd	ra,24(sp)
 1019 0008 23388100 		sd	s0,16(sp)
 1020 000c 23349100 		sd	s1,8(sp)
 1021              		.cfi_offset 1, -8
 1022              		.cfi_offset 8, -16
 1023              		.cfi_offset 9, -24
 1024 0010 13040102 		addi	s0,sp,32
 1025              		.cfi_def_cfa 8, 0
 1026 0014 93040500 		mv	s1,a0
 1027              	.LVL107:
 1028              	.LBB139:
 1029              	.LBB140:
1055:test/Test8.cpp **** private:
 1030              		.loc 1 1055 7 is_stmt 0
 1031 0018 97070000 		lla	a5,_ZTV3B13+16
 1031      93870700 
 1032 0020 2330F500 		sd	a5,0(a0)
 1033 0024 97000000 		call	_ZN6ThreadD2Ev@plt
 1033      E7800000 
 1034              	.LVL108:
 1035              	.LBE140:
 1036              	.LBE139:
 1037 002c 13850400 		mv	a0,s1
 1038 0030 97000000 		call	_ZdlPv@plt
 1038      E7800000 
 1039              	.LVL109:
 1040 0038 83308101 		ld	ra,24(sp)
 1041              		.cfi_restore 1
 1042 003c 03340101 		ld	s0,16(sp)
 1043              		.cfi_restore 8
 1044              		.cfi_def_cfa 2, 32
 1045 0040 83348100 		ld	s1,8(sp)
 1046              		.cfi_restore 9
 1047              	.LVL110:
 1048 0044 13010102 		addi	sp,sp,32
 1049              		.cfi_def_cfa_offset 0
 1050 0048 67800000 		jr	ra
 1051              		.cfi_endproc
 1052              	.LFE122:
 1054              		.section	.text._ZN3A13D2Ev,"axG",@progbits,_ZN3A13D5Ev,comdat
 1055              		.align	2
 1056              		.weak	_ZN3A13D2Ev
 1058              	_ZN3A13D2Ev:
 1059              	.LFB124:
1021:test/Test8.cpp **** private:
 1060              		.loc 1 1021 7 is_stmt 1
 1061              		.cfi_startproc
GAS LISTING /tmp/ccCnP6rB.s 			page 43


 1062              	.LVL111:
 1063 0000 130101FF 		addi	sp,sp,-16
 1064              		.cfi_def_cfa_offset 16
 1065 0004 23341100 		sd	ra,8(sp)
 1066 0008 23308100 		sd	s0,0(sp)
 1067              		.cfi_offset 1, -8
 1068              		.cfi_offset 8, -16
 1069 000c 13040101 		addi	s0,sp,16
 1070              		.cfi_def_cfa 8, 0
 1071              	.LBB141:
1021:test/Test8.cpp **** private:
 1072              		.loc 1 1021 7 is_stmt 0
 1073 0010 97070000 		lla	a5,_ZTV3A13+16
 1073      93870700 
 1074 0018 2330F500 		sd	a5,0(a0)
 1075 001c 97000000 		call	_ZN6ThreadD2Ev@plt
 1075      E7800000 
 1076              	.LVL112:
 1077              	.LBE141:
 1078 0024 83308100 		ld	ra,8(sp)
 1079              		.cfi_restore 1
 1080 0028 03340100 		ld	s0,0(sp)
 1081              		.cfi_restore 8
 1082              		.cfi_def_cfa 2, 16
 1083 002c 13010101 		addi	sp,sp,16
 1084              		.cfi_def_cfa_offset 0
 1085 0030 67800000 		jr	ra
 1086              		.cfi_endproc
 1087              	.LFE124:
 1089              		.weak	_ZN3A13D1Ev
 1090              		.set	_ZN3A13D1Ev,_ZN3A13D2Ev
 1091              		.section	.text._ZN3A13D0Ev,"axG",@progbits,_ZN3A13D5Ev,comdat
 1092              		.align	2
 1093              		.weak	_ZN3A13D0Ev
 1095              	_ZN3A13D0Ev:
 1096              	.LFB126:
1021:test/Test8.cpp **** private:
 1097              		.loc 1 1021 7 is_stmt 1
 1098              		.cfi_startproc
 1099              	.LVL113:
 1100 0000 130101FE 		addi	sp,sp,-32
 1101              		.cfi_def_cfa_offset 32
 1102 0004 233C1100 		sd	ra,24(sp)
 1103 0008 23388100 		sd	s0,16(sp)
 1104 000c 23349100 		sd	s1,8(sp)
 1105              		.cfi_offset 1, -8
 1106              		.cfi_offset 8, -16
 1107              		.cfi_offset 9, -24
 1108 0010 13040102 		addi	s0,sp,32
 1109              		.cfi_def_cfa 8, 0
 1110 0014 93040500 		mv	s1,a0
 1111              	.LVL114:
 1112              	.LBB142:
 1113              	.LBB143:
1021:test/Test8.cpp **** private:
 1114              		.loc 1 1021 7 is_stmt 0
 1115 0018 97070000 		lla	a5,_ZTV3A13+16
GAS LISTING /tmp/ccCnP6rB.s 			page 44


 1115      93870700 
 1116 0020 2330F500 		sd	a5,0(a0)
 1117 0024 97000000 		call	_ZN6ThreadD2Ev@plt
 1117      E7800000 
 1118              	.LVL115:
 1119              	.LBE143:
 1120              	.LBE142:
 1121 002c 13850400 		mv	a0,s1
 1122 0030 97000000 		call	_ZdlPv@plt
 1122      E7800000 
 1123              	.LVL116:
 1124 0038 83308101 		ld	ra,24(sp)
 1125              		.cfi_restore 1
 1126 003c 03340101 		ld	s0,16(sp)
 1127              		.cfi_restore 8
 1128              		.cfi_def_cfa 2, 32
 1129 0040 83348100 		ld	s1,8(sp)
 1130              		.cfi_restore 9
 1131              	.LVL117:
 1132 0044 13010102 		addi	sp,sp,32
 1133              		.cfi_def_cfa_offset 0
 1134 0048 67800000 		jr	ra
 1135              		.cfi_endproc
 1136              	.LFE126:
 1138              		.section	.text._ZN3B12D2Ev,"axG",@progbits,_ZN3B12D5Ev,comdat
 1139              		.align	2
 1140              		.weak	_ZN3B12D2Ev
 1142              	_ZN3B12D2Ev:
 1143              	.LFB128:
 951:test/Test8.cpp **** public:
 1144              		.loc 1 951 7 is_stmt 1
 1145              		.cfi_startproc
 1146              	.LVL118:
 1147 0000 130101FF 		addi	sp,sp,-16
 1148              		.cfi_def_cfa_offset 16
 1149 0004 23341100 		sd	ra,8(sp)
 1150 0008 23308100 		sd	s0,0(sp)
 1151              		.cfi_offset 1, -8
 1152              		.cfi_offset 8, -16
 1153 000c 13040101 		addi	s0,sp,16
 1154              		.cfi_def_cfa 8, 0
 1155              	.LBB144:
 951:test/Test8.cpp **** public:
 1156              		.loc 1 951 7 is_stmt 0
 1157 0010 97070000 		lla	a5,_ZTV3B12+16
 1157      93870700 
 1158 0018 2330F500 		sd	a5,0(a0)
 1159 001c 97000000 		call	_ZN6ThreadD2Ev@plt
 1159      E7800000 
 1160              	.LVL119:
 1161              	.LBE144:
 1162 0024 83308100 		ld	ra,8(sp)
 1163              		.cfi_restore 1
 1164 0028 03340100 		ld	s0,0(sp)
 1165              		.cfi_restore 8
 1166              		.cfi_def_cfa 2, 16
 1167 002c 13010101 		addi	sp,sp,16
GAS LISTING /tmp/ccCnP6rB.s 			page 45


 1168              		.cfi_def_cfa_offset 0
 1169 0030 67800000 		jr	ra
 1170              		.cfi_endproc
 1171              	.LFE128:
 1173              		.weak	_ZN3B12D1Ev
 1174              		.set	_ZN3B12D1Ev,_ZN3B12D2Ev
 1175              		.section	.text._ZN3B12D0Ev,"axG",@progbits,_ZN3B12D5Ev,comdat
 1176              		.align	2
 1177              		.weak	_ZN3B12D0Ev
 1179              	_ZN3B12D0Ev:
 1180              	.LFB130:
 951:test/Test8.cpp **** public:
 1181              		.loc 1 951 7 is_stmt 1
 1182              		.cfi_startproc
 1183              	.LVL120:
 1184 0000 130101FE 		addi	sp,sp,-32
 1185              		.cfi_def_cfa_offset 32
 1186 0004 233C1100 		sd	ra,24(sp)
 1187 0008 23388100 		sd	s0,16(sp)
 1188 000c 23349100 		sd	s1,8(sp)
 1189              		.cfi_offset 1, -8
 1190              		.cfi_offset 8, -16
 1191              		.cfi_offset 9, -24
 1192 0010 13040102 		addi	s0,sp,32
 1193              		.cfi_def_cfa 8, 0
 1194 0014 93040500 		mv	s1,a0
 1195              	.LVL121:
 1196              	.LBB145:
 1197              	.LBB146:
 951:test/Test8.cpp **** public:
 1198              		.loc 1 951 7 is_stmt 0
 1199 0018 97070000 		lla	a5,_ZTV3B12+16
 1199      93870700 
 1200 0020 2330F500 		sd	a5,0(a0)
 1201 0024 97000000 		call	_ZN6ThreadD2Ev@plt
 1201      E7800000 
 1202              	.LVL122:
 1203              	.LBE146:
 1204              	.LBE145:
 1205 002c 13850400 		mv	a0,s1
 1206 0030 97000000 		call	_ZdlPv@plt
 1206      E7800000 
 1207              	.LVL123:
 1208 0038 83308101 		ld	ra,24(sp)
 1209              		.cfi_restore 1
 1210 003c 03340101 		ld	s0,16(sp)
 1211              		.cfi_restore 8
 1212              		.cfi_def_cfa 2, 32
 1213 0040 83348100 		ld	s1,8(sp)
 1214              		.cfi_restore 9
 1215              	.LVL124:
 1216 0044 13010102 		addi	sp,sp,32
 1217              		.cfi_def_cfa_offset 0
 1218 0048 67800000 		jr	ra
 1219              		.cfi_endproc
 1220              	.LFE130:
 1222              		.section	.text._ZN3A12D2Ev,"axG",@progbits,_ZN3A12D5Ev,comdat
GAS LISTING /tmp/ccCnP6rB.s 			page 46


 1223              		.align	2
 1224              		.weak	_ZN3A12D2Ev
 1226              	_ZN3A12D2Ev:
 1227              	.LFB132:
 941:test/Test8.cpp **** public:
 1228              		.loc 1 941 7 is_stmt 1
 1229              		.cfi_startproc
 1230              	.LVL125:
 1231 0000 130101FF 		addi	sp,sp,-16
 1232              		.cfi_def_cfa_offset 16
 1233 0004 23341100 		sd	ra,8(sp)
 1234 0008 23308100 		sd	s0,0(sp)
 1235              		.cfi_offset 1, -8
 1236              		.cfi_offset 8, -16
 1237 000c 13040101 		addi	s0,sp,16
 1238              		.cfi_def_cfa 8, 0
 1239              	.LBB147:
 941:test/Test8.cpp **** public:
 1240              		.loc 1 941 7 is_stmt 0
 1241 0010 97070000 		lla	a5,_ZTV3A12+16
 1241      93870700 
 1242 0018 2330F500 		sd	a5,0(a0)
 1243 001c 97000000 		call	_ZN6ThreadD2Ev@plt
 1243      E7800000 
 1244              	.LVL126:
 1245              	.LBE147:
 1246 0024 83308100 		ld	ra,8(sp)
 1247              		.cfi_restore 1
 1248 0028 03340100 		ld	s0,0(sp)
 1249              		.cfi_restore 8
 1250              		.cfi_def_cfa 2, 16
 1251 002c 13010101 		addi	sp,sp,16
 1252              		.cfi_def_cfa_offset 0
 1253 0030 67800000 		jr	ra
 1254              		.cfi_endproc
 1255              	.LFE132:
 1257              		.weak	_ZN3A12D1Ev
 1258              		.set	_ZN3A12D1Ev,_ZN3A12D2Ev
 1259              		.section	.text._ZN3A12D0Ev,"axG",@progbits,_ZN3A12D5Ev,comdat
 1260              		.align	2
 1261              		.weak	_ZN3A12D0Ev
 1263              	_ZN3A12D0Ev:
 1264              	.LFB134:
 941:test/Test8.cpp **** public:
 1265              		.loc 1 941 7 is_stmt 1
 1266              		.cfi_startproc
 1267              	.LVL127:
 1268 0000 130101FE 		addi	sp,sp,-32
 1269              		.cfi_def_cfa_offset 32
 1270 0004 233C1100 		sd	ra,24(sp)
 1271 0008 23388100 		sd	s0,16(sp)
 1272 000c 23349100 		sd	s1,8(sp)
 1273              		.cfi_offset 1, -8
 1274              		.cfi_offset 8, -16
 1275              		.cfi_offset 9, -24
 1276 0010 13040102 		addi	s0,sp,32
 1277              		.cfi_def_cfa 8, 0
GAS LISTING /tmp/ccCnP6rB.s 			page 47


 1278 0014 93040500 		mv	s1,a0
 1279              	.LVL128:
 1280              	.LBB148:
 1281              	.LBB149:
 941:test/Test8.cpp **** public:
 1282              		.loc 1 941 7 is_stmt 0
 1283 0018 97070000 		lla	a5,_ZTV3A12+16
 1283      93870700 
 1284 0020 2330F500 		sd	a5,0(a0)
 1285 0024 97000000 		call	_ZN6ThreadD2Ev@plt
 1285      E7800000 
 1286              	.LVL129:
 1287              	.LBE149:
 1288              	.LBE148:
 1289 002c 13850400 		mv	a0,s1
 1290 0030 97000000 		call	_ZdlPv@plt
 1290      E7800000 
 1291              	.LVL130:
 1292 0038 83308101 		ld	ra,24(sp)
 1293              		.cfi_restore 1
 1294 003c 03340101 		ld	s0,16(sp)
 1295              		.cfi_restore 8
 1296              		.cfi_def_cfa 2, 32
 1297 0040 83348100 		ld	s1,8(sp)
 1298              		.cfi_restore 9
 1299              	.LVL131:
 1300 0044 13010102 		addi	sp,sp,32
 1301              		.cfi_def_cfa_offset 0
 1302 0048 67800000 		jr	ra
 1303              		.cfi_endproc
 1304              	.LFE134:
 1306              		.section	.text._ZN3A11D2Ev,"axG",@progbits,_ZN3A11D5Ev,comdat
 1307              		.align	2
 1308              		.weak	_ZN3A11D2Ev
 1310              	_ZN3A11D2Ev:
 1311              	.LFB136:
 864:test/Test8.cpp ****     int id;
 1312              		.loc 1 864 7 is_stmt 1
 1313              		.cfi_startproc
 1314              	.LVL132:
 1315 0000 130101FF 		addi	sp,sp,-16
 1316              		.cfi_def_cfa_offset 16
 1317 0004 23341100 		sd	ra,8(sp)
 1318 0008 23308100 		sd	s0,0(sp)
 1319              		.cfi_offset 1, -8
 1320              		.cfi_offset 8, -16
 1321 000c 13040101 		addi	s0,sp,16
 1322              		.cfi_def_cfa 8, 0
 1323              	.LBB150:
 864:test/Test8.cpp ****     int id;
 1324              		.loc 1 864 7 is_stmt 0
 1325 0010 97070000 		lla	a5,_ZTV3A11+16
 1325      93870700 
 1326 0018 2330F500 		sd	a5,0(a0)
 1327 001c 97000000 		call	_ZN6ThreadD2Ev@plt
 1327      E7800000 
 1328              	.LVL133:
GAS LISTING /tmp/ccCnP6rB.s 			page 48


 1329              	.LBE150:
 1330 0024 83308100 		ld	ra,8(sp)
 1331              		.cfi_restore 1
 1332 0028 03340100 		ld	s0,0(sp)
 1333              		.cfi_restore 8
 1334              		.cfi_def_cfa 2, 16
 1335 002c 13010101 		addi	sp,sp,16
 1336              		.cfi_def_cfa_offset 0
 1337 0030 67800000 		jr	ra
 1338              		.cfi_endproc
 1339              	.LFE136:
 1341              		.weak	_ZN3A11D1Ev
 1342              		.set	_ZN3A11D1Ev,_ZN3A11D2Ev
 1343              		.section	.text._ZN3A11D0Ev,"axG",@progbits,_ZN3A11D5Ev,comdat
 1344              		.align	2
 1345              		.weak	_ZN3A11D0Ev
 1347              	_ZN3A11D0Ev:
 1348              	.LFB138:
 864:test/Test8.cpp ****     int id;
 1349              		.loc 1 864 7 is_stmt 1
 1350              		.cfi_startproc
 1351              	.LVL134:
 1352 0000 130101FE 		addi	sp,sp,-32
 1353              		.cfi_def_cfa_offset 32
 1354 0004 233C1100 		sd	ra,24(sp)
 1355 0008 23388100 		sd	s0,16(sp)
 1356 000c 23349100 		sd	s1,8(sp)
 1357              		.cfi_offset 1, -8
 1358              		.cfi_offset 8, -16
 1359              		.cfi_offset 9, -24
 1360 0010 13040102 		addi	s0,sp,32
 1361              		.cfi_def_cfa 8, 0
 1362 0014 93040500 		mv	s1,a0
 1363              	.LVL135:
 1364              	.LBB151:
 1365              	.LBB152:
 864:test/Test8.cpp ****     int id;
 1366              		.loc 1 864 7 is_stmt 0
 1367 0018 97070000 		lla	a5,_ZTV3A11+16
 1367      93870700 
 1368 0020 2330F500 		sd	a5,0(a0)
 1369 0024 97000000 		call	_ZN6ThreadD2Ev@plt
 1369      E7800000 
 1370              	.LVL136:
 1371              	.LBE152:
 1372              	.LBE151:
 1373 002c 13850400 		mv	a0,s1
 1374 0030 97000000 		call	_ZdlPv@plt
 1374      E7800000 
 1375              	.LVL137:
 1376 0038 83308101 		ld	ra,24(sp)
 1377              		.cfi_restore 1
 1378 003c 03340101 		ld	s0,16(sp)
 1379              		.cfi_restore 8
 1380              		.cfi_def_cfa 2, 32
 1381 0040 83348100 		ld	s1,8(sp)
 1382              		.cfi_restore 9
GAS LISTING /tmp/ccCnP6rB.s 			page 49


 1383              	.LVL138:
 1384 0044 13010102 		addi	sp,sp,32
 1385              		.cfi_def_cfa_offset 0
 1386 0048 67800000 		jr	ra
 1387              		.cfi_endproc
 1388              	.LFE138:
 1390              		.section	.text._ZN3A10D2Ev,"axG",@progbits,_ZN3A10D5Ev,comdat
 1391              		.align	2
 1392              		.weak	_ZN3A10D2Ev
 1394              	_ZN3A10D2Ev:
 1395              	.LFB140:
 781:test/Test8.cpp ****     int id;
 1396              		.loc 1 781 7 is_stmt 1
 1397              		.cfi_startproc
 1398              	.LVL139:
 1399 0000 130101FF 		addi	sp,sp,-16
 1400              		.cfi_def_cfa_offset 16
 1401 0004 23341100 		sd	ra,8(sp)
 1402 0008 23308100 		sd	s0,0(sp)
 1403              		.cfi_offset 1, -8
 1404              		.cfi_offset 8, -16
 1405 000c 13040101 		addi	s0,sp,16
 1406              		.cfi_def_cfa 8, 0
 1407              	.LBB153:
 781:test/Test8.cpp ****     int id;
 1408              		.loc 1 781 7 is_stmt 0
 1409 0010 97070000 		lla	a5,_ZTV3A10+16
 1409      93870700 
 1410 0018 2330F500 		sd	a5,0(a0)
 1411 001c 97000000 		call	_ZN6ThreadD2Ev@plt
 1411      E7800000 
 1412              	.LVL140:
 1413              	.LBE153:
 1414 0024 83308100 		ld	ra,8(sp)
 1415              		.cfi_restore 1
 1416 0028 03340100 		ld	s0,0(sp)
 1417              		.cfi_restore 8
 1418              		.cfi_def_cfa 2, 16
 1419 002c 13010101 		addi	sp,sp,16
 1420              		.cfi_def_cfa_offset 0
 1421 0030 67800000 		jr	ra
 1422              		.cfi_endproc
 1423              	.LFE140:
 1425              		.weak	_ZN3A10D1Ev
 1426              		.set	_ZN3A10D1Ev,_ZN3A10D2Ev
 1427              		.section	.text._ZN3A10D0Ev,"axG",@progbits,_ZN3A10D5Ev,comdat
 1428              		.align	2
 1429              		.weak	_ZN3A10D0Ev
 1431              	_ZN3A10D0Ev:
 1432              	.LFB142:
 781:test/Test8.cpp ****     int id;
 1433              		.loc 1 781 7 is_stmt 1
 1434              		.cfi_startproc
 1435              	.LVL141:
 1436 0000 130101FE 		addi	sp,sp,-32
 1437              		.cfi_def_cfa_offset 32
 1438 0004 233C1100 		sd	ra,24(sp)
GAS LISTING /tmp/ccCnP6rB.s 			page 50


 1439 0008 23388100 		sd	s0,16(sp)
 1440 000c 23349100 		sd	s1,8(sp)
 1441              		.cfi_offset 1, -8
 1442              		.cfi_offset 8, -16
 1443              		.cfi_offset 9, -24
 1444 0010 13040102 		addi	s0,sp,32
 1445              		.cfi_def_cfa 8, 0
 1446 0014 93040500 		mv	s1,a0
 1447              	.LVL142:
 1448              	.LBB154:
 1449              	.LBB155:
 781:test/Test8.cpp ****     int id;
 1450              		.loc 1 781 7 is_stmt 0
 1451 0018 97070000 		lla	a5,_ZTV3A10+16
 1451      93870700 
 1452 0020 2330F500 		sd	a5,0(a0)
 1453 0024 97000000 		call	_ZN6ThreadD2Ev@plt
 1453      E7800000 
 1454              	.LVL143:
 1455              	.LBE155:
 1456              	.LBE154:
 1457 002c 13850400 		mv	a0,s1
 1458 0030 97000000 		call	_ZdlPv@plt
 1458      E7800000 
 1459              	.LVL144:
 1460 0038 83308101 		ld	ra,24(sp)
 1461              		.cfi_restore 1
 1462 003c 03340101 		ld	s0,16(sp)
 1463              		.cfi_restore 8
 1464              		.cfi_def_cfa 2, 32
 1465 0040 83348100 		ld	s1,8(sp)
 1466              		.cfi_restore 9
 1467              	.LVL145:
 1468 0044 13010102 		addi	sp,sp,32
 1469              		.cfi_def_cfa_offset 0
 1470 0048 67800000 		jr	ra
 1471              		.cfi_endproc
 1472              	.LFE142:
 1474              		.section	.text._ZN2A9D2Ev,"axG",@progbits,_ZN2A9D5Ev,comdat
 1475              		.align	2
 1476              		.weak	_ZN2A9D2Ev
 1478              	_ZN2A9D2Ev:
 1479              	.LFB144:
 713:test/Test8.cpp ****     int id;
 1480              		.loc 1 713 7 is_stmt 1
 1481              		.cfi_startproc
 1482              	.LVL146:
 1483 0000 130101FF 		addi	sp,sp,-16
 1484              		.cfi_def_cfa_offset 16
 1485 0004 23341100 		sd	ra,8(sp)
 1486 0008 23308100 		sd	s0,0(sp)
 1487              		.cfi_offset 1, -8
 1488              		.cfi_offset 8, -16
 1489 000c 13040101 		addi	s0,sp,16
 1490              		.cfi_def_cfa 8, 0
 1491              	.LBB156:
 713:test/Test8.cpp ****     int id;
GAS LISTING /tmp/ccCnP6rB.s 			page 51


 1492              		.loc 1 713 7 is_stmt 0
 1493 0010 97070000 		lla	a5,_ZTV2A9+16
 1493      93870700 
 1494 0018 2330F500 		sd	a5,0(a0)
 1495 001c 97000000 		call	_ZN6ThreadD2Ev@plt
 1495      E7800000 
 1496              	.LVL147:
 1497              	.LBE156:
 1498 0024 83308100 		ld	ra,8(sp)
 1499              		.cfi_restore 1
 1500 0028 03340100 		ld	s0,0(sp)
 1501              		.cfi_restore 8
 1502              		.cfi_def_cfa 2, 16
 1503 002c 13010101 		addi	sp,sp,16
 1504              		.cfi_def_cfa_offset 0
 1505 0030 67800000 		jr	ra
 1506              		.cfi_endproc
 1507              	.LFE144:
 1509              		.weak	_ZN2A9D1Ev
 1510              		.set	_ZN2A9D1Ev,_ZN2A9D2Ev
 1511              		.section	.text._ZN2A9D0Ev,"axG",@progbits,_ZN2A9D5Ev,comdat
 1512              		.align	2
 1513              		.weak	_ZN2A9D0Ev
 1515              	_ZN2A9D0Ev:
 1516              	.LFB146:
 713:test/Test8.cpp ****     int id;
 1517              		.loc 1 713 7 is_stmt 1
 1518              		.cfi_startproc
 1519              	.LVL148:
 1520 0000 130101FE 		addi	sp,sp,-32
 1521              		.cfi_def_cfa_offset 32
 1522 0004 233C1100 		sd	ra,24(sp)
 1523 0008 23388100 		sd	s0,16(sp)
 1524 000c 23349100 		sd	s1,8(sp)
 1525              		.cfi_offset 1, -8
 1526              		.cfi_offset 8, -16
 1527              		.cfi_offset 9, -24
 1528 0010 13040102 		addi	s0,sp,32
 1529              		.cfi_def_cfa 8, 0
 1530 0014 93040500 		mv	s1,a0
 1531              	.LVL149:
 1532              	.LBB157:
 1533              	.LBB158:
 713:test/Test8.cpp ****     int id;
 1534              		.loc 1 713 7 is_stmt 0
 1535 0018 97070000 		lla	a5,_ZTV2A9+16
 1535      93870700 
 1536 0020 2330F500 		sd	a5,0(a0)
 1537 0024 97000000 		call	_ZN6ThreadD2Ev@plt
 1537      E7800000 
 1538              	.LVL150:
 1539              	.LBE158:
 1540              	.LBE157:
 1541 002c 13850400 		mv	a0,s1
 1542 0030 97000000 		call	_ZdlPv@plt
 1542      E7800000 
 1543              	.LVL151:
GAS LISTING /tmp/ccCnP6rB.s 			page 52


 1544 0038 83308101 		ld	ra,24(sp)
 1545              		.cfi_restore 1
 1546 003c 03340101 		ld	s0,16(sp)
 1547              		.cfi_restore 8
 1548              		.cfi_def_cfa 2, 32
 1549 0040 83348100 		ld	s1,8(sp)
 1550              		.cfi_restore 9
 1551              	.LVL152:
 1552 0044 13010102 		addi	sp,sp,32
 1553              		.cfi_def_cfa_offset 0
 1554 0048 67800000 		jr	ra
 1555              		.cfi_endproc
 1556              	.LFE146:
 1558              		.section	.text._ZN2A8D2Ev,"axG",@progbits,_ZN2A8D5Ev,comdat
 1559              		.align	2
 1560              		.weak	_ZN2A8D2Ev
 1562              	_ZN2A8D2Ev:
 1563              	.LFB148:
 646:test/Test8.cpp ****     int id;
 1564              		.loc 1 646 7 is_stmt 1
 1565              		.cfi_startproc
 1566              	.LVL153:
 1567 0000 130101FF 		addi	sp,sp,-16
 1568              		.cfi_def_cfa_offset 16
 1569 0004 23341100 		sd	ra,8(sp)
 1570 0008 23308100 		sd	s0,0(sp)
 1571              		.cfi_offset 1, -8
 1572              		.cfi_offset 8, -16
 1573 000c 13040101 		addi	s0,sp,16
 1574              		.cfi_def_cfa 8, 0
 1575              	.LBB159:
 646:test/Test8.cpp ****     int id;
 1576              		.loc 1 646 7 is_stmt 0
 1577 0010 97070000 		lla	a5,_ZTV2A8+16
 1577      93870700 
 1578 0018 2330F500 		sd	a5,0(a0)
 1579 001c 97000000 		call	_ZN6ThreadD2Ev@plt
 1579      E7800000 
 1580              	.LVL154:
 1581              	.LBE159:
 1582 0024 83308100 		ld	ra,8(sp)
 1583              		.cfi_restore 1
 1584 0028 03340100 		ld	s0,0(sp)
 1585              		.cfi_restore 8
 1586              		.cfi_def_cfa 2, 16
 1587 002c 13010101 		addi	sp,sp,16
 1588              		.cfi_def_cfa_offset 0
 1589 0030 67800000 		jr	ra
 1590              		.cfi_endproc
 1591              	.LFE148:
 1593              		.weak	_ZN2A8D1Ev
 1594              		.set	_ZN2A8D1Ev,_ZN2A8D2Ev
 1595              		.section	.text._ZN2A8D0Ev,"axG",@progbits,_ZN2A8D5Ev,comdat
 1596              		.align	2
 1597              		.weak	_ZN2A8D0Ev
 1599              	_ZN2A8D0Ev:
 1600              	.LFB150:
GAS LISTING /tmp/ccCnP6rB.s 			page 53


 646:test/Test8.cpp ****     int id;
 1601              		.loc 1 646 7 is_stmt 1
 1602              		.cfi_startproc
 1603              	.LVL155:
 1604 0000 130101FE 		addi	sp,sp,-32
 1605              		.cfi_def_cfa_offset 32
 1606 0004 233C1100 		sd	ra,24(sp)
 1607 0008 23388100 		sd	s0,16(sp)
 1608 000c 23349100 		sd	s1,8(sp)
 1609              		.cfi_offset 1, -8
 1610              		.cfi_offset 8, -16
 1611              		.cfi_offset 9, -24
 1612 0010 13040102 		addi	s0,sp,32
 1613              		.cfi_def_cfa 8, 0
 1614 0014 93040500 		mv	s1,a0
 1615              	.LVL156:
 1616              	.LBB160:
 1617              	.LBB161:
 646:test/Test8.cpp ****     int id;
 1618              		.loc 1 646 7 is_stmt 0
 1619 0018 97070000 		lla	a5,_ZTV2A8+16
 1619      93870700 
 1620 0020 2330F500 		sd	a5,0(a0)
 1621 0024 97000000 		call	_ZN6ThreadD2Ev@plt
 1621      E7800000 
 1622              	.LVL157:
 1623              	.LBE161:
 1624              	.LBE160:
 1625 002c 13850400 		mv	a0,s1
 1626 0030 97000000 		call	_ZdlPv@plt
 1626      E7800000 
 1627              	.LVL158:
 1628 0038 83308101 		ld	ra,24(sp)
 1629              		.cfi_restore 1
 1630 003c 03340101 		ld	s0,16(sp)
 1631              		.cfi_restore 8
 1632              		.cfi_def_cfa 2, 32
 1633 0040 83348100 		ld	s1,8(sp)
 1634              		.cfi_restore 9
 1635              	.LVL159:
 1636 0044 13010102 		addi	sp,sp,32
 1637              		.cfi_def_cfa_offset 0
 1638 0048 67800000 		jr	ra
 1639              		.cfi_endproc
 1640              	.LFE150:
 1642              		.section	.text._ZN2A5D2Ev,"axG",@progbits,_ZN2A5D5Ev,comdat
 1643              		.align	2
 1644              		.weak	_ZN2A5D2Ev
 1646              	_ZN2A5D2Ev:
 1647              	.LFB160:
 512:test/Test8.cpp ****     int id;
 1648              		.loc 1 512 7 is_stmt 1
 1649              		.cfi_startproc
 1650              	.LVL160:
 1651 0000 130101FF 		addi	sp,sp,-16
 1652              		.cfi_def_cfa_offset 16
 1653 0004 23341100 		sd	ra,8(sp)
GAS LISTING /tmp/ccCnP6rB.s 			page 54


 1654 0008 23308100 		sd	s0,0(sp)
 1655              		.cfi_offset 1, -8
 1656              		.cfi_offset 8, -16
 1657 000c 13040101 		addi	s0,sp,16
 1658              		.cfi_def_cfa 8, 0
 1659              	.LBB162:
 512:test/Test8.cpp ****     int id;
 1660              		.loc 1 512 7 is_stmt 0
 1661 0010 97070000 		lla	a5,_ZTV2A5+16
 1661      93870700 
 1662 0018 2330F500 		sd	a5,0(a0)
 1663 001c 97000000 		call	_ZN6ThreadD2Ev@plt
 1663      E7800000 
 1664              	.LVL161:
 1665              	.LBE162:
 1666 0024 83308100 		ld	ra,8(sp)
 1667              		.cfi_restore 1
 1668 0028 03340100 		ld	s0,0(sp)
 1669              		.cfi_restore 8
 1670              		.cfi_def_cfa 2, 16
 1671 002c 13010101 		addi	sp,sp,16
 1672              		.cfi_def_cfa_offset 0
 1673 0030 67800000 		jr	ra
 1674              		.cfi_endproc
 1675              	.LFE160:
 1677              		.weak	_ZN2A5D1Ev
 1678              		.set	_ZN2A5D1Ev,_ZN2A5D2Ev
 1679              		.section	.text._ZN2A5D0Ev,"axG",@progbits,_ZN2A5D5Ev,comdat
 1680              		.align	2
 1681              		.weak	_ZN2A5D0Ev
 1683              	_ZN2A5D0Ev:
 1684              	.LFB162:
 512:test/Test8.cpp ****     int id;
 1685              		.loc 1 512 7 is_stmt 1
 1686              		.cfi_startproc
 1687              	.LVL162:
 1688 0000 130101FE 		addi	sp,sp,-32
 1689              		.cfi_def_cfa_offset 32
 1690 0004 233C1100 		sd	ra,24(sp)
 1691 0008 23388100 		sd	s0,16(sp)
 1692 000c 23349100 		sd	s1,8(sp)
 1693              		.cfi_offset 1, -8
 1694              		.cfi_offset 8, -16
 1695              		.cfi_offset 9, -24
 1696 0010 13040102 		addi	s0,sp,32
 1697              		.cfi_def_cfa 8, 0
 1698 0014 93040500 		mv	s1,a0
 1699              	.LVL163:
 1700              	.LBB163:
 1701              	.LBB164:
 512:test/Test8.cpp ****     int id;
 1702              		.loc 1 512 7 is_stmt 0
 1703 0018 97070000 		lla	a5,_ZTV2A5+16
 1703      93870700 
 1704 0020 2330F500 		sd	a5,0(a0)
 1705 0024 97000000 		call	_ZN6ThreadD2Ev@plt
 1705      E7800000 
GAS LISTING /tmp/ccCnP6rB.s 			page 55


 1706              	.LVL164:
 1707              	.LBE164:
 1708              	.LBE163:
 1709 002c 13850400 		mv	a0,s1
 1710 0030 97000000 		call	_ZdlPv@plt
 1710      E7800000 
 1711              	.LVL165:
 1712 0038 83308101 		ld	ra,24(sp)
 1713              		.cfi_restore 1
 1714 003c 03340101 		ld	s0,16(sp)
 1715              		.cfi_restore 8
 1716              		.cfi_def_cfa 2, 32
 1717 0040 83348100 		ld	s1,8(sp)
 1718              		.cfi_restore 9
 1719              	.LVL166:
 1720 0044 13010102 		addi	sp,sp,32
 1721              		.cfi_def_cfa_offset 0
 1722 0048 67800000 		jr	ra
 1723              		.cfi_endproc
 1724              	.LFE162:
 1726              		.section	.text._ZN2C4D2Ev,"axG",@progbits,_ZN2C4D5Ev,comdat
 1727              		.align	2
 1728              		.weak	_ZN2C4D2Ev
 1730              	_ZN2C4D2Ev:
 1731              	.LFB164:
 427:test/Test8.cpp ****     int id;
 1732              		.loc 1 427 7 is_stmt 1
 1733              		.cfi_startproc
 1734              	.LVL167:
 1735 0000 130101FF 		addi	sp,sp,-16
 1736              		.cfi_def_cfa_offset 16
 1737 0004 23341100 		sd	ra,8(sp)
 1738 0008 23308100 		sd	s0,0(sp)
 1739              		.cfi_offset 1, -8
 1740              		.cfi_offset 8, -16
 1741 000c 13040101 		addi	s0,sp,16
 1742              		.cfi_def_cfa 8, 0
 1743              	.LBB165:
 427:test/Test8.cpp ****     int id;
 1744              		.loc 1 427 7 is_stmt 0
 1745 0010 97070000 		lla	a5,_ZTV2C4+16
 1745      93870700 
 1746 0018 2330F500 		sd	a5,0(a0)
 1747 001c 97000000 		call	_ZN6ThreadD2Ev@plt
 1747      E7800000 
 1748              	.LVL168:
 1749              	.LBE165:
 1750 0024 83308100 		ld	ra,8(sp)
 1751              		.cfi_restore 1
 1752 0028 03340100 		ld	s0,0(sp)
 1753              		.cfi_restore 8
 1754              		.cfi_def_cfa 2, 16
 1755 002c 13010101 		addi	sp,sp,16
 1756              		.cfi_def_cfa_offset 0
 1757 0030 67800000 		jr	ra
 1758              		.cfi_endproc
 1759              	.LFE164:
GAS LISTING /tmp/ccCnP6rB.s 			page 56


 1761              		.weak	_ZN2C4D1Ev
 1762              		.set	_ZN2C4D1Ev,_ZN2C4D2Ev
 1763              		.section	.text._ZN2C4D0Ev,"axG",@progbits,_ZN2C4D5Ev,comdat
 1764              		.align	2
 1765              		.weak	_ZN2C4D0Ev
 1767              	_ZN2C4D0Ev:
 1768              	.LFB166:
 427:test/Test8.cpp ****     int id;
 1769              		.loc 1 427 7 is_stmt 1
 1770              		.cfi_startproc
 1771              	.LVL169:
 1772 0000 130101FE 		addi	sp,sp,-32
 1773              		.cfi_def_cfa_offset 32
 1774 0004 233C1100 		sd	ra,24(sp)
 1775 0008 23388100 		sd	s0,16(sp)
 1776 000c 23349100 		sd	s1,8(sp)
 1777              		.cfi_offset 1, -8
 1778              		.cfi_offset 8, -16
 1779              		.cfi_offset 9, -24
 1780 0010 13040102 		addi	s0,sp,32
 1781              		.cfi_def_cfa 8, 0
 1782 0014 93040500 		mv	s1,a0
 1783              	.LVL170:
 1784              	.LBB166:
 1785              	.LBB167:
 427:test/Test8.cpp ****     int id;
 1786              		.loc 1 427 7 is_stmt 0
 1787 0018 97070000 		lla	a5,_ZTV2C4+16
 1787      93870700 
 1788 0020 2330F500 		sd	a5,0(a0)
 1789 0024 97000000 		call	_ZN6ThreadD2Ev@plt
 1789      E7800000 
 1790              	.LVL171:
 1791              	.LBE167:
 1792              	.LBE166:
 1793 002c 13850400 		mv	a0,s1
 1794 0030 97000000 		call	_ZdlPv@plt
 1794      E7800000 
 1795              	.LVL172:
 1796 0038 83308101 		ld	ra,24(sp)
 1797              		.cfi_restore 1
 1798 003c 03340101 		ld	s0,16(sp)
 1799              		.cfi_restore 8
 1800              		.cfi_def_cfa 2, 32
 1801 0040 83348100 		ld	s1,8(sp)
 1802              		.cfi_restore 9
 1803              	.LVL173:
 1804 0044 13010102 		addi	sp,sp,32
 1805              		.cfi_def_cfa_offset 0
 1806 0048 67800000 		jr	ra
 1807              		.cfi_endproc
 1808              	.LFE166:
 1810              		.section	.text._ZN2B4D2Ev,"axG",@progbits,_ZN2B4D5Ev,comdat
 1811              		.align	2
 1812              		.weak	_ZN2B4D2Ev
 1814              	_ZN2B4D2Ev:
 1815              	.LFB168:
GAS LISTING /tmp/ccCnP6rB.s 			page 57


 414:test/Test8.cpp ****     int id;
 1816              		.loc 1 414 7 is_stmt 1
 1817              		.cfi_startproc
 1818              	.LVL174:
 1819 0000 130101FF 		addi	sp,sp,-16
 1820              		.cfi_def_cfa_offset 16
 1821 0004 23341100 		sd	ra,8(sp)
 1822 0008 23308100 		sd	s0,0(sp)
 1823              		.cfi_offset 1, -8
 1824              		.cfi_offset 8, -16
 1825 000c 13040101 		addi	s0,sp,16
 1826              		.cfi_def_cfa 8, 0
 1827              	.LBB168:
 414:test/Test8.cpp ****     int id;
 1828              		.loc 1 414 7 is_stmt 0
 1829 0010 97070000 		lla	a5,_ZTV2B4+16
 1829      93870700 
 1830 0018 2330F500 		sd	a5,0(a0)
 1831 001c 97000000 		call	_ZN6ThreadD2Ev@plt
 1831      E7800000 
 1832              	.LVL175:
 1833              	.LBE168:
 1834 0024 83308100 		ld	ra,8(sp)
 1835              		.cfi_restore 1
 1836 0028 03340100 		ld	s0,0(sp)
 1837              		.cfi_restore 8
 1838              		.cfi_def_cfa 2, 16
 1839 002c 13010101 		addi	sp,sp,16
 1840              		.cfi_def_cfa_offset 0
 1841 0030 67800000 		jr	ra
 1842              		.cfi_endproc
 1843              	.LFE168:
 1845              		.weak	_ZN2B4D1Ev
 1846              		.set	_ZN2B4D1Ev,_ZN2B4D2Ev
 1847              		.section	.text._ZN2B4D0Ev,"axG",@progbits,_ZN2B4D5Ev,comdat
 1848              		.align	2
 1849              		.weak	_ZN2B4D0Ev
 1851              	_ZN2B4D0Ev:
 1852              	.LFB170:
 414:test/Test8.cpp ****     int id;
 1853              		.loc 1 414 7 is_stmt 1
 1854              		.cfi_startproc
 1855              	.LVL176:
 1856 0000 130101FE 		addi	sp,sp,-32
 1857              		.cfi_def_cfa_offset 32
 1858 0004 233C1100 		sd	ra,24(sp)
 1859 0008 23388100 		sd	s0,16(sp)
 1860 000c 23349100 		sd	s1,8(sp)
 1861              		.cfi_offset 1, -8
 1862              		.cfi_offset 8, -16
 1863              		.cfi_offset 9, -24
 1864 0010 13040102 		addi	s0,sp,32
 1865              		.cfi_def_cfa 8, 0
 1866 0014 93040500 		mv	s1,a0
 1867              	.LVL177:
 1868              	.LBB169:
 1869              	.LBB170:
GAS LISTING /tmp/ccCnP6rB.s 			page 58


 414:test/Test8.cpp ****     int id;
 1870              		.loc 1 414 7 is_stmt 0
 1871 0018 97070000 		lla	a5,_ZTV2B4+16
 1871      93870700 
 1872 0020 2330F500 		sd	a5,0(a0)
 1873 0024 97000000 		call	_ZN6ThreadD2Ev@plt
 1873      E7800000 
 1874              	.LVL178:
 1875              	.LBE170:
 1876              	.LBE169:
 1877 002c 13850400 		mv	a0,s1
 1878 0030 97000000 		call	_ZdlPv@plt
 1878      E7800000 
 1879              	.LVL179:
 1880 0038 83308101 		ld	ra,24(sp)
 1881              		.cfi_restore 1
 1882 003c 03340101 		ld	s0,16(sp)
 1883              		.cfi_restore 8
 1884              		.cfi_def_cfa 2, 32
 1885 0040 83348100 		ld	s1,8(sp)
 1886              		.cfi_restore 9
 1887              	.LVL180:
 1888 0044 13010102 		addi	sp,sp,32
 1889              		.cfi_def_cfa_offset 0
 1890 0048 67800000 		jr	ra
 1891              		.cfi_endproc
 1892              	.LFE170:
 1894              		.section	.text._ZN2A4D2Ev,"axG",@progbits,_ZN2A4D5Ev,comdat
 1895              		.align	2
 1896              		.weak	_ZN2A4D2Ev
 1898              	_ZN2A4D2Ev:
 1899              	.LFB172:
 400:test/Test8.cpp ****     int id;
 1900              		.loc 1 400 7 is_stmt 1
 1901              		.cfi_startproc
 1902              	.LVL181:
 1903 0000 130101FF 		addi	sp,sp,-16
 1904              		.cfi_def_cfa_offset 16
 1905 0004 23341100 		sd	ra,8(sp)
 1906 0008 23308100 		sd	s0,0(sp)
 1907              		.cfi_offset 1, -8
 1908              		.cfi_offset 8, -16
 1909 000c 13040101 		addi	s0,sp,16
 1910              		.cfi_def_cfa 8, 0
 1911              	.LBB171:
 400:test/Test8.cpp ****     int id;
 1912              		.loc 1 400 7 is_stmt 0
 1913 0010 97070000 		lla	a5,_ZTV2A4+16
 1913      93870700 
 1914 0018 2330F500 		sd	a5,0(a0)
 1915 001c 97000000 		call	_ZN6ThreadD2Ev@plt
 1915      E7800000 
 1916              	.LVL182:
 1917              	.LBE171:
 1918 0024 83308100 		ld	ra,8(sp)
 1919              		.cfi_restore 1
 1920 0028 03340100 		ld	s0,0(sp)
GAS LISTING /tmp/ccCnP6rB.s 			page 59


 1921              		.cfi_restore 8
 1922              		.cfi_def_cfa 2, 16
 1923 002c 13010101 		addi	sp,sp,16
 1924              		.cfi_def_cfa_offset 0
 1925 0030 67800000 		jr	ra
 1926              		.cfi_endproc
 1927              	.LFE172:
 1929              		.weak	_ZN2A4D1Ev
 1930              		.set	_ZN2A4D1Ev,_ZN2A4D2Ev
 1931              		.section	.text._ZN2A4D0Ev,"axG",@progbits,_ZN2A4D5Ev,comdat
 1932              		.align	2
 1933              		.weak	_ZN2A4D0Ev
 1935              	_ZN2A4D0Ev:
 1936              	.LFB174:
 400:test/Test8.cpp ****     int id;
 1937              		.loc 1 400 7 is_stmt 1
 1938              		.cfi_startproc
 1939              	.LVL183:
 1940 0000 130101FE 		addi	sp,sp,-32
 1941              		.cfi_def_cfa_offset 32
 1942 0004 233C1100 		sd	ra,24(sp)
 1943 0008 23388100 		sd	s0,16(sp)
 1944 000c 23349100 		sd	s1,8(sp)
 1945              		.cfi_offset 1, -8
 1946              		.cfi_offset 8, -16
 1947              		.cfi_offset 9, -24
 1948 0010 13040102 		addi	s0,sp,32
 1949              		.cfi_def_cfa 8, 0
 1950 0014 93040500 		mv	s1,a0
 1951              	.LVL184:
 1952              	.LBB172:
 1953              	.LBB173:
 400:test/Test8.cpp ****     int id;
 1954              		.loc 1 400 7 is_stmt 0
 1955 0018 97070000 		lla	a5,_ZTV2A4+16
 1955      93870700 
 1956 0020 2330F500 		sd	a5,0(a0)
 1957 0024 97000000 		call	_ZN6ThreadD2Ev@plt
 1957      E7800000 
 1958              	.LVL185:
 1959              	.LBE173:
 1960              	.LBE172:
 1961 002c 13850400 		mv	a0,s1
 1962 0030 97000000 		call	_ZdlPv@plt
 1962      E7800000 
 1963              	.LVL186:
 1964 0038 83308101 		ld	ra,24(sp)
 1965              		.cfi_restore 1
 1966 003c 03340101 		ld	s0,16(sp)
 1967              		.cfi_restore 8
 1968              		.cfi_def_cfa 2, 32
 1969 0040 83348100 		ld	s1,8(sp)
 1970              		.cfi_restore 9
 1971              	.LVL187:
 1972 0044 13010102 		addi	sp,sp,32
 1973              		.cfi_def_cfa_offset 0
 1974 0048 67800000 		jr	ra
GAS LISTING /tmp/ccCnP6rB.s 			page 60


 1975              		.cfi_endproc
 1976              	.LFE174:
 1978              		.section	.text._ZN2C3D2Ev,"axG",@progbits,_ZN2C3D5Ev,comdat
 1979              		.align	2
 1980              		.weak	_ZN2C3D2Ev
 1982              	_ZN2C3D2Ev:
 1983              	.LFB176:
 316:test/Test8.cpp ****     int id;
 1984              		.loc 1 316 7 is_stmt 1
 1985              		.cfi_startproc
 1986              	.LVL188:
 1987 0000 130101FF 		addi	sp,sp,-16
 1988              		.cfi_def_cfa_offset 16
 1989 0004 23341100 		sd	ra,8(sp)
 1990 0008 23308100 		sd	s0,0(sp)
 1991              		.cfi_offset 1, -8
 1992              		.cfi_offset 8, -16
 1993 000c 13040101 		addi	s0,sp,16
 1994              		.cfi_def_cfa 8, 0
 1995              	.LBB174:
 316:test/Test8.cpp ****     int id;
 1996              		.loc 1 316 7 is_stmt 0
 1997 0010 97070000 		lla	a5,_ZTV2C3+16
 1997      93870700 
 1998 0018 2330F500 		sd	a5,0(a0)
 1999 001c 97000000 		call	_ZN6ThreadD2Ev@plt
 1999      E7800000 
 2000              	.LVL189:
 2001              	.LBE174:
 2002 0024 83308100 		ld	ra,8(sp)
 2003              		.cfi_restore 1
 2004 0028 03340100 		ld	s0,0(sp)
 2005              		.cfi_restore 8
 2006              		.cfi_def_cfa 2, 16
 2007 002c 13010101 		addi	sp,sp,16
 2008              		.cfi_def_cfa_offset 0
 2009 0030 67800000 		jr	ra
 2010              		.cfi_endproc
 2011              	.LFE176:
 2013              		.weak	_ZN2C3D1Ev
 2014              		.set	_ZN2C3D1Ev,_ZN2C3D2Ev
 2015              		.section	.text._ZN2C3D0Ev,"axG",@progbits,_ZN2C3D5Ev,comdat
 2016              		.align	2
 2017              		.weak	_ZN2C3D0Ev
 2019              	_ZN2C3D0Ev:
 2020              	.LFB178:
 316:test/Test8.cpp ****     int id;
 2021              		.loc 1 316 7 is_stmt 1
 2022              		.cfi_startproc
 2023              	.LVL190:
 2024 0000 130101FE 		addi	sp,sp,-32
 2025              		.cfi_def_cfa_offset 32
 2026 0004 233C1100 		sd	ra,24(sp)
 2027 0008 23388100 		sd	s0,16(sp)
 2028 000c 23349100 		sd	s1,8(sp)
 2029              		.cfi_offset 1, -8
 2030              		.cfi_offset 8, -16
GAS LISTING /tmp/ccCnP6rB.s 			page 61


 2031              		.cfi_offset 9, -24
 2032 0010 13040102 		addi	s0,sp,32
 2033              		.cfi_def_cfa 8, 0
 2034 0014 93040500 		mv	s1,a0
 2035              	.LVL191:
 2036              	.LBB175:
 2037              	.LBB176:
 316:test/Test8.cpp ****     int id;
 2038              		.loc 1 316 7 is_stmt 0
 2039 0018 97070000 		lla	a5,_ZTV2C3+16
 2039      93870700 
 2040 0020 2330F500 		sd	a5,0(a0)
 2041 0024 97000000 		call	_ZN6ThreadD2Ev@plt
 2041      E7800000 
 2042              	.LVL192:
 2043              	.LBE176:
 2044              	.LBE175:
 2045 002c 13850400 		mv	a0,s1
 2046 0030 97000000 		call	_ZdlPv@plt
 2046      E7800000 
 2047              	.LVL193:
 2048 0038 83308101 		ld	ra,24(sp)
 2049              		.cfi_restore 1
 2050 003c 03340101 		ld	s0,16(sp)
 2051              		.cfi_restore 8
 2052              		.cfi_def_cfa 2, 32
 2053 0040 83348100 		ld	s1,8(sp)
 2054              		.cfi_restore 9
 2055              	.LVL194:
 2056 0044 13010102 		addi	sp,sp,32
 2057              		.cfi_def_cfa_offset 0
 2058 0048 67800000 		jr	ra
 2059              		.cfi_endproc
 2060              	.LFE178:
 2062              		.section	.text._ZN2B3D2Ev,"axG",@progbits,_ZN2B3D5Ev,comdat
 2063              		.align	2
 2064              		.weak	_ZN2B3D2Ev
 2066              	_ZN2B3D2Ev:
 2067              	.LFB180:
 261:test/Test8.cpp ****     int id;
 2068              		.loc 1 261 7 is_stmt 1
 2069              		.cfi_startproc
 2070              	.LVL195:
 2071 0000 130101FF 		addi	sp,sp,-16
 2072              		.cfi_def_cfa_offset 16
 2073 0004 23341100 		sd	ra,8(sp)
 2074 0008 23308100 		sd	s0,0(sp)
 2075              		.cfi_offset 1, -8
 2076              		.cfi_offset 8, -16
 2077 000c 13040101 		addi	s0,sp,16
 2078              		.cfi_def_cfa 8, 0
 2079              	.LBB177:
 261:test/Test8.cpp ****     int id;
 2080              		.loc 1 261 7 is_stmt 0
 2081 0010 97070000 		lla	a5,_ZTV2B3+16
 2081      93870700 
 2082 0018 2330F500 		sd	a5,0(a0)
GAS LISTING /tmp/ccCnP6rB.s 			page 62


 2083 001c 97000000 		call	_ZN6ThreadD2Ev@plt
 2083      E7800000 
 2084              	.LVL196:
 2085              	.LBE177:
 2086 0024 83308100 		ld	ra,8(sp)
 2087              		.cfi_restore 1
 2088 0028 03340100 		ld	s0,0(sp)
 2089              		.cfi_restore 8
 2090              		.cfi_def_cfa 2, 16
 2091 002c 13010101 		addi	sp,sp,16
 2092              		.cfi_def_cfa_offset 0
 2093 0030 67800000 		jr	ra
 2094              		.cfi_endproc
 2095              	.LFE180:
 2097              		.weak	_ZN2B3D1Ev
 2098              		.set	_ZN2B3D1Ev,_ZN2B3D2Ev
 2099              		.section	.text._ZN2B3D0Ev,"axG",@progbits,_ZN2B3D5Ev,comdat
 2100              		.align	2
 2101              		.weak	_ZN2B3D0Ev
 2103              	_ZN2B3D0Ev:
 2104              	.LFB182:
 261:test/Test8.cpp ****     int id;
 2105              		.loc 1 261 7 is_stmt 1
 2106              		.cfi_startproc
 2107              	.LVL197:
 2108 0000 130101FE 		addi	sp,sp,-32
 2109              		.cfi_def_cfa_offset 32
 2110 0004 233C1100 		sd	ra,24(sp)
 2111 0008 23388100 		sd	s0,16(sp)
 2112 000c 23349100 		sd	s1,8(sp)
 2113              		.cfi_offset 1, -8
 2114              		.cfi_offset 8, -16
 2115              		.cfi_offset 9, -24
 2116 0010 13040102 		addi	s0,sp,32
 2117              		.cfi_def_cfa 8, 0
 2118 0014 93040500 		mv	s1,a0
 2119              	.LVL198:
 2120              	.LBB178:
 2121              	.LBB179:
 261:test/Test8.cpp ****     int id;
 2122              		.loc 1 261 7 is_stmt 0
 2123 0018 97070000 		lla	a5,_ZTV2B3+16
 2123      93870700 
 2124 0020 2330F500 		sd	a5,0(a0)
 2125 0024 97000000 		call	_ZN6ThreadD2Ev@plt
 2125      E7800000 
 2126              	.LVL199:
 2127              	.LBE179:
 2128              	.LBE178:
 2129 002c 13850400 		mv	a0,s1
 2130 0030 97000000 		call	_ZdlPv@plt
 2130      E7800000 
 2131              	.LVL200:
 2132 0038 83308101 		ld	ra,24(sp)
 2133              		.cfi_restore 1
 2134 003c 03340101 		ld	s0,16(sp)
 2135              		.cfi_restore 8
GAS LISTING /tmp/ccCnP6rB.s 			page 63


 2136              		.cfi_def_cfa 2, 32
 2137 0040 83348100 		ld	s1,8(sp)
 2138              		.cfi_restore 9
 2139              	.LVL201:
 2140 0044 13010102 		addi	sp,sp,32
 2141              		.cfi_def_cfa_offset 0
 2142 0048 67800000 		jr	ra
 2143              		.cfi_endproc
 2144              	.LFE182:
 2146              		.section	.text._ZN2A3D2Ev,"axG",@progbits,_ZN2A3D5Ev,comdat
 2147              		.align	2
 2148              		.weak	_ZN2A3D2Ev
 2150              	_ZN2A3D2Ev:
 2151              	.LFB184:
 204:test/Test8.cpp ****     int id;
 2152              		.loc 1 204 7 is_stmt 1
 2153              		.cfi_startproc
 2154              	.LVL202:
 2155 0000 130101FF 		addi	sp,sp,-16
 2156              		.cfi_def_cfa_offset 16
 2157 0004 23341100 		sd	ra,8(sp)
 2158 0008 23308100 		sd	s0,0(sp)
 2159              		.cfi_offset 1, -8
 2160              		.cfi_offset 8, -16
 2161 000c 13040101 		addi	s0,sp,16
 2162              		.cfi_def_cfa 8, 0
 2163              	.LBB180:
 204:test/Test8.cpp ****     int id;
 2164              		.loc 1 204 7 is_stmt 0
 2165 0010 97070000 		lla	a5,_ZTV2A3+16
 2165      93870700 
 2166 0018 2330F500 		sd	a5,0(a0)
 2167 001c 97000000 		call	_ZN6ThreadD2Ev@plt
 2167      E7800000 
 2168              	.LVL203:
 2169              	.LBE180:
 2170 0024 83308100 		ld	ra,8(sp)
 2171              		.cfi_restore 1
 2172 0028 03340100 		ld	s0,0(sp)
 2173              		.cfi_restore 8
 2174              		.cfi_def_cfa 2, 16
 2175 002c 13010101 		addi	sp,sp,16
 2176              		.cfi_def_cfa_offset 0
 2177 0030 67800000 		jr	ra
 2178              		.cfi_endproc
 2179              	.LFE184:
 2181              		.weak	_ZN2A3D1Ev
 2182              		.set	_ZN2A3D1Ev,_ZN2A3D2Ev
 2183              		.section	.text._ZN2A3D0Ev,"axG",@progbits,_ZN2A3D5Ev,comdat
 2184              		.align	2
 2185              		.weak	_ZN2A3D0Ev
 2187              	_ZN2A3D0Ev:
 2188              	.LFB186:
 204:test/Test8.cpp ****     int id;
 2189              		.loc 1 204 7 is_stmt 1
 2190              		.cfi_startproc
 2191              	.LVL204:
GAS LISTING /tmp/ccCnP6rB.s 			page 64


 2192 0000 130101FE 		addi	sp,sp,-32
 2193              		.cfi_def_cfa_offset 32
 2194 0004 233C1100 		sd	ra,24(sp)
 2195 0008 23388100 		sd	s0,16(sp)
 2196 000c 23349100 		sd	s1,8(sp)
 2197              		.cfi_offset 1, -8
 2198              		.cfi_offset 8, -16
 2199              		.cfi_offset 9, -24
 2200 0010 13040102 		addi	s0,sp,32
 2201              		.cfi_def_cfa 8, 0
 2202 0014 93040500 		mv	s1,a0
 2203              	.LVL205:
 2204              	.LBB181:
 2205              	.LBB182:
 204:test/Test8.cpp ****     int id;
 2206              		.loc 1 204 7 is_stmt 0
 2207 0018 97070000 		lla	a5,_ZTV2A3+16
 2207      93870700 
 2208 0020 2330F500 		sd	a5,0(a0)
 2209 0024 97000000 		call	_ZN6ThreadD2Ev@plt
 2209      E7800000 
 2210              	.LVL206:
 2211              	.LBE182:
 2212              	.LBE181:
 2213 002c 13850400 		mv	a0,s1
 2214 0030 97000000 		call	_ZdlPv@plt
 2214      E7800000 
 2215              	.LVL207:
 2216 0038 83308101 		ld	ra,24(sp)
 2217              		.cfi_restore 1
 2218 003c 03340101 		ld	s0,16(sp)
 2219              		.cfi_restore 8
 2220              		.cfi_def_cfa 2, 32
 2221 0040 83348100 		ld	s1,8(sp)
 2222              		.cfi_restore 9
 2223              	.LVL208:
 2224 0044 13010102 		addi	sp,sp,32
 2225              		.cfi_def_cfa_offset 0
 2226 0048 67800000 		jr	ra
 2227              		.cfi_endproc
 2228              	.LFE186:
 2230              		.section	.text._ZN2A6D2Ev,"axG",@progbits,_ZN2A6D5Ev,comdat
 2231              		.align	2
 2232              		.weak	_ZN2A6D2Ev
 2234              	_ZN2A6D2Ev:
 2235              	.LFB188:
 140:test/Test8.cpp ****     int id;
 2236              		.loc 1 140 7 is_stmt 1
 2237              		.cfi_startproc
 2238              	.LVL209:
 2239 0000 130101FF 		addi	sp,sp,-16
 2240              		.cfi_def_cfa_offset 16
 2241 0004 23341100 		sd	ra,8(sp)
 2242 0008 23308100 		sd	s0,0(sp)
 2243              		.cfi_offset 1, -8
 2244              		.cfi_offset 8, -16
 2245 000c 13040101 		addi	s0,sp,16
GAS LISTING /tmp/ccCnP6rB.s 			page 65


 2246              		.cfi_def_cfa 8, 0
 2247              	.LBB183:
 140:test/Test8.cpp ****     int id;
 2248              		.loc 1 140 7 is_stmt 0
 2249 0010 97070000 		lla	a5,_ZTV2A6+16
 2249      93870700 
 2250 0018 2330F500 		sd	a5,0(a0)
 2251 001c 97000000 		call	_ZN6ThreadD2Ev@plt
 2251      E7800000 
 2252              	.LVL210:
 2253              	.LBE183:
 2254 0024 83308100 		ld	ra,8(sp)
 2255              		.cfi_restore 1
 2256 0028 03340100 		ld	s0,0(sp)
 2257              		.cfi_restore 8
 2258              		.cfi_def_cfa 2, 16
 2259 002c 13010101 		addi	sp,sp,16
 2260              		.cfi_def_cfa_offset 0
 2261 0030 67800000 		jr	ra
 2262              		.cfi_endproc
 2263              	.LFE188:
 2265              		.weak	_ZN2A6D1Ev
 2266              		.set	_ZN2A6D1Ev,_ZN2A6D2Ev
 2267              		.section	.text._ZN2A6D0Ev,"axG",@progbits,_ZN2A6D5Ev,comdat
 2268              		.align	2
 2269              		.weak	_ZN2A6D0Ev
 2271              	_ZN2A6D0Ev:
 2272              	.LFB190:
 140:test/Test8.cpp ****     int id;
 2273              		.loc 1 140 7 is_stmt 1
 2274              		.cfi_startproc
 2275              	.LVL211:
 2276 0000 130101FE 		addi	sp,sp,-32
 2277              		.cfi_def_cfa_offset 32
 2278 0004 233C1100 		sd	ra,24(sp)
 2279 0008 23388100 		sd	s0,16(sp)
 2280 000c 23349100 		sd	s1,8(sp)
 2281              		.cfi_offset 1, -8
 2282              		.cfi_offset 8, -16
 2283              		.cfi_offset 9, -24
 2284 0010 13040102 		addi	s0,sp,32
 2285              		.cfi_def_cfa 8, 0
 2286 0014 93040500 		mv	s1,a0
 2287              	.LVL212:
 2288              	.LBB184:
 2289              	.LBB185:
 140:test/Test8.cpp ****     int id;
 2290              		.loc 1 140 7 is_stmt 0
 2291 0018 97070000 		lla	a5,_ZTV2A6+16
 2291      93870700 
 2292 0020 2330F500 		sd	a5,0(a0)
 2293 0024 97000000 		call	_ZN6ThreadD2Ev@plt
 2293      E7800000 
 2294              	.LVL213:
 2295              	.LBE185:
 2296              	.LBE184:
 2297 002c 13850400 		mv	a0,s1
GAS LISTING /tmp/ccCnP6rB.s 			page 66


 2298 0030 97000000 		call	_ZdlPv@plt
 2298      E7800000 
 2299              	.LVL214:
 2300 0038 83308101 		ld	ra,24(sp)
 2301              		.cfi_restore 1
 2302 003c 03340101 		ld	s0,16(sp)
 2303              		.cfi_restore 8
 2304              		.cfi_def_cfa 2, 32
 2305 0040 83348100 		ld	s1,8(sp)
 2306              		.cfi_restore 9
 2307              	.LVL215:
 2308 0044 13010102 		addi	sp,sp,32
 2309              		.cfi_def_cfa_offset 0
 2310 0048 67800000 		jr	ra
 2311              		.cfi_endproc
 2312              	.LFE190:
 2314              		.section	.text._ZN2A2D2Ev,"axG",@progbits,_ZN2A2D5Ev,comdat
 2315              		.align	2
 2316              		.weak	_ZN2A2D2Ev
 2318              	_ZN2A2D2Ev:
 2319              	.LFB192:
  80:test/Test8.cpp ****     int id;
 2320              		.loc 1 80 7 is_stmt 1
 2321              		.cfi_startproc
 2322              	.LVL216:
 2323 0000 130101FF 		addi	sp,sp,-16
 2324              		.cfi_def_cfa_offset 16
 2325 0004 23341100 		sd	ra,8(sp)
 2326 0008 23308100 		sd	s0,0(sp)
 2327              		.cfi_offset 1, -8
 2328              		.cfi_offset 8, -16
 2329 000c 13040101 		addi	s0,sp,16
 2330              		.cfi_def_cfa 8, 0
 2331              	.LBB186:
  80:test/Test8.cpp ****     int id;
 2332              		.loc 1 80 7 is_stmt 0
 2333 0010 97070000 		lla	a5,_ZTV2A2+16
 2333      93870700 
 2334 0018 2330F500 		sd	a5,0(a0)
 2335 001c 97000000 		call	_ZN6ThreadD2Ev@plt
 2335      E7800000 
 2336              	.LVL217:
 2337              	.LBE186:
 2338 0024 83308100 		ld	ra,8(sp)
 2339              		.cfi_restore 1
 2340 0028 03340100 		ld	s0,0(sp)
 2341              		.cfi_restore 8
 2342              		.cfi_def_cfa 2, 16
 2343 002c 13010101 		addi	sp,sp,16
 2344              		.cfi_def_cfa_offset 0
 2345 0030 67800000 		jr	ra
 2346              		.cfi_endproc
 2347              	.LFE192:
 2349              		.weak	_ZN2A2D1Ev
 2350              		.set	_ZN2A2D1Ev,_ZN2A2D2Ev
 2351              		.section	.text._ZN2A2D0Ev,"axG",@progbits,_ZN2A2D5Ev,comdat
 2352              		.align	2
GAS LISTING /tmp/ccCnP6rB.s 			page 67


 2353              		.weak	_ZN2A2D0Ev
 2355              	_ZN2A2D0Ev:
 2356              	.LFB194:
  80:test/Test8.cpp ****     int id;
 2357              		.loc 1 80 7 is_stmt 1
 2358              		.cfi_startproc
 2359              	.LVL218:
 2360 0000 130101FE 		addi	sp,sp,-32
 2361              		.cfi_def_cfa_offset 32
 2362 0004 233C1100 		sd	ra,24(sp)
 2363 0008 23388100 		sd	s0,16(sp)
 2364 000c 23349100 		sd	s1,8(sp)
 2365              		.cfi_offset 1, -8
 2366              		.cfi_offset 8, -16
 2367              		.cfi_offset 9, -24
 2368 0010 13040102 		addi	s0,sp,32
 2369              		.cfi_def_cfa 8, 0
 2370 0014 93040500 		mv	s1,a0
 2371              	.LVL219:
 2372              	.LBB187:
 2373              	.LBB188:
  80:test/Test8.cpp ****     int id;
 2374              		.loc 1 80 7 is_stmt 0
 2375 0018 97070000 		lla	a5,_ZTV2A2+16
 2375      93870700 
 2376 0020 2330F500 		sd	a5,0(a0)
 2377 0024 97000000 		call	_ZN6ThreadD2Ev@plt
 2377      E7800000 
 2378              	.LVL220:
 2379              	.LBE188:
 2380              	.LBE187:
 2381 002c 13850400 		mv	a0,s1
 2382 0030 97000000 		call	_ZdlPv@plt
 2382      E7800000 
 2383              	.LVL221:
 2384 0038 83308101 		ld	ra,24(sp)
 2385              		.cfi_restore 1
 2386 003c 03340101 		ld	s0,16(sp)
 2387              		.cfi_restore 8
 2388              		.cfi_def_cfa 2, 32
 2389 0040 83348100 		ld	s1,8(sp)
 2390              		.cfi_restore 9
 2391              	.LVL222:
 2392 0044 13010102 		addi	sp,sp,32
 2393              		.cfi_def_cfa_offset 0
 2394 0048 67800000 		jr	ra
 2395              		.cfi_endproc
 2396              	.LFE194:
 2398              		.section	.text._ZN2A1D2Ev,"axG",@progbits,_ZN2A1D5Ev,comdat
 2399              		.align	2
 2400              		.weak	_ZN2A1D2Ev
 2402              	_ZN2A1D2Ev:
 2403              	.LFB196:
  11:test/Test8.cpp ****     int id;
 2404              		.loc 1 11 7 is_stmt 1
 2405              		.cfi_startproc
 2406              	.LVL223:
GAS LISTING /tmp/ccCnP6rB.s 			page 68


 2407 0000 130101FF 		addi	sp,sp,-16
 2408              		.cfi_def_cfa_offset 16
 2409 0004 23341100 		sd	ra,8(sp)
 2410 0008 23308100 		sd	s0,0(sp)
 2411              		.cfi_offset 1, -8
 2412              		.cfi_offset 8, -16
 2413 000c 13040101 		addi	s0,sp,16
 2414              		.cfi_def_cfa 8, 0
 2415              	.LBB189:
  11:test/Test8.cpp ****     int id;
 2416              		.loc 1 11 7 is_stmt 0
 2417 0010 97070000 		lla	a5,_ZTV2A1+16
 2417      93870700 
 2418 0018 2330F500 		sd	a5,0(a0)
 2419 001c 97000000 		call	_ZN6ThreadD2Ev@plt
 2419      E7800000 
 2420              	.LVL224:
 2421              	.LBE189:
 2422 0024 83308100 		ld	ra,8(sp)
 2423              		.cfi_restore 1
 2424 0028 03340100 		ld	s0,0(sp)
 2425              		.cfi_restore 8
 2426              		.cfi_def_cfa 2, 16
 2427 002c 13010101 		addi	sp,sp,16
 2428              		.cfi_def_cfa_offset 0
 2429 0030 67800000 		jr	ra
 2430              		.cfi_endproc
 2431              	.LFE196:
 2433              		.weak	_ZN2A1D1Ev
 2434              		.set	_ZN2A1D1Ev,_ZN2A1D2Ev
 2435              		.section	.text._ZN2A1D0Ev,"axG",@progbits,_ZN2A1D5Ev,comdat
 2436              		.align	2
 2437              		.weak	_ZN2A1D0Ev
 2439              	_ZN2A1D0Ev:
 2440              	.LFB198:
  11:test/Test8.cpp ****     int id;
 2441              		.loc 1 11 7 is_stmt 1
 2442              		.cfi_startproc
 2443              	.LVL225:
 2444 0000 130101FE 		addi	sp,sp,-32
 2445              		.cfi_def_cfa_offset 32
 2446 0004 233C1100 		sd	ra,24(sp)
 2447 0008 23388100 		sd	s0,16(sp)
 2448 000c 23349100 		sd	s1,8(sp)
 2449              		.cfi_offset 1, -8
 2450              		.cfi_offset 8, -16
 2451              		.cfi_offset 9, -24
 2452 0010 13040102 		addi	s0,sp,32
 2453              		.cfi_def_cfa 8, 0
 2454 0014 93040500 		mv	s1,a0
 2455              	.LVL226:
 2456              	.LBB190:
 2457              	.LBB191:
  11:test/Test8.cpp ****     int id;
 2458              		.loc 1 11 7 is_stmt 0
 2459 0018 97070000 		lla	a5,_ZTV2A1+16
 2459      93870700 
GAS LISTING /tmp/ccCnP6rB.s 			page 69


 2460 0020 2330F500 		sd	a5,0(a0)
 2461 0024 97000000 		call	_ZN6ThreadD2Ev@plt
 2461      E7800000 
 2462              	.LVL227:
 2463              	.LBE191:
 2464              	.LBE190:
 2465 002c 13850400 		mv	a0,s1
 2466 0030 97000000 		call	_ZdlPv@plt
 2466      E7800000 
 2467              	.LVL228:
 2468 0038 83308101 		ld	ra,24(sp)
 2469              		.cfi_restore 1
 2470 003c 03340101 		ld	s0,16(sp)
 2471              		.cfi_restore 8
 2472              		.cfi_def_cfa 2, 32
 2473 0040 83348100 		ld	s1,8(sp)
 2474              		.cfi_restore 9
 2475              	.LVL229:
 2476 0044 13010102 		addi	sp,sp,32
 2477              		.cfi_def_cfa_offset 0
 2478 0048 67800000 		jr	ra
 2479              		.cfi_endproc
 2480              	.LFE198:
 2482              		.section	.rodata.str1.8
 2483 00cf 00       		.align	3
 2484              	.LC13:
 2485 00d0 506F6365 		.string	"Pocetak wrappera - nit id: "
 2485      74616B20 
 2485      77726170 
 2485      70657261 
 2485      202D206E 
 2486 00ec 00000000 		.align	3
 2487              	.LC14:
 2488 00f0 20692069 		.string	" i iteracija "
 2488      74657261 
 2488      63696A61 
 2488      2000
 2489 00fe 0000     		.align	3
 2490              	.LC15:
 2491 0100 2E204F62 		.string	". Obrada...\n"
 2491      72616461 
 2491      2E2E2E0A 
 2491      00
 2492 010d 000000   		.align	3
 2493              	.LC16:
 2494 0110 4E697420 		.string	"Nit id: "
 2494      69643A20 
 2494      00
 2495 0119 00000000 		.align	3
 2495      000000
 2496              	.LC17:
 2497 0120 20706F7A 		.string	" poziva barijeru, iteracija: "
 2497      69766120 
 2497      62617269 
 2497      6A657275 
 2497      2C206974 
 2498 013e 0000     		.align	3
GAS LISTING /tmp/ccCnP6rB.s 			page 70


 2499              	.LC18:
 2500 0140 2070726F 		.string	" prosla barijeru, iteracija: "
 2500      736C6120 
 2500      62617269 
 2500      6A657275 
 2500      2C206974 
 2501 015e 0000     		.align	3
 2502              	.LC19:
 2503 0160 476F746F 		.string	"Gotove sve tri iteracije\n"
 2503      76652073 
 2503      76652074 
 2503      72692069 
 2503      74657261 
 2504              		.text
 2505              		.align	2
 2506              		.globl	_ZN2A23runEv
 2508              	_ZN2A23runEv:
 2509              	.LFB13:
  90:test/Test8.cpp ****     for(int m=0;m<3;m++){
 2510              		.loc 1 90 15 is_stmt 1
 2511              		.cfi_startproc
 2512              	.LVL230:
 2513 0434 130101FD 		addi	sp,sp,-48
 2514              		.cfi_def_cfa_offset 48
 2515 0438 23341102 		sd	ra,40(sp)
 2516 043c 23308102 		sd	s0,32(sp)
 2517 0440 233C9100 		sd	s1,24(sp)
 2518 0444 23382101 		sd	s2,16(sp)
 2519 0448 23343101 		sd	s3,8(sp)
 2520              		.cfi_offset 1, -8
 2521              		.cfi_offset 8, -16
 2522              		.cfi_offset 9, -24
 2523              		.cfi_offset 18, -32
 2524              		.cfi_offset 19, -40
 2525 044c 13040103 		addi	s0,sp,48
 2526              		.cfi_def_cfa 8, 0
 2527 0450 13090500 		mv	s2,a0
  91:test/Test8.cpp ****         printString("Pocetak wrappera - nit id: ");
 2528              		.loc 1 91 5
 2529              	.LVL231:
 2530              	.LBB192:
  91:test/Test8.cpp ****         printString("Pocetak wrappera - nit id: ");
 2531              		.loc 1 91 13 is_stmt 0
 2532 0454 93090000 		li	s3,0
 2533 0458 6F00000F 		j	.L127
 2534              	.LVL232:
 2535              	.L124:
 2536              	.LBB193:
 2537              	.LBB194:
 2538              	.LBB195:
 101:test/Test8.cpp ****         }
 2539              		.loc 1 101 13 is_stmt 1 discriminator 2
 101:test/Test8.cpp ****         }
 2540              		.loc 1 101 28 is_stmt 0 discriminator 2
 2541 045c 97000000 		call	_Z15thread_dispatchv@plt
 2541      E7800000 
 2542              	.LVL233:
GAS LISTING /tmp/ccCnP6rB.s 			page 71


 2543              	.LBE195:
  97:test/Test8.cpp ****             for(int j=0;j<10000;j++){
 2544              		.loc 1 97 9 is_stmt 1 discriminator 2
 2545 0464 9B841400 		addiw	s1,s1,1
 2546              	.LVL234:
 2547              	.L126:
  97:test/Test8.cpp ****             for(int j=0;j<10000;j++){
 2548              		.loc 1 97 22 discriminator 1
 2549 0468 9307703E 		li	a5,999
 2550 046c 63CE9700 		bgt	s1,a5,.L123
 2551              	.LBB197:
 2552              	.LBB196:
  98:test/Test8.cpp **** 
 2553              		.loc 1 98 21 is_stmt 0
 2554 0470 13070000 		li	a4,0
 2555              	.L125:
 2556              	.LVL235:
  98:test/Test8.cpp **** 
 2557              		.loc 1 98 26 is_stmt 1 discriminator 3
 2558 0474 B7270000 		li	a5,8192
 2559 0478 9387F770 		addi	a5,a5,1807
 2560 047c E3C0E7FE 		bgt	a4,a5,.L124
  98:test/Test8.cpp **** 
 2561              		.loc 1 98 13 discriminator 2
 2562 0480 1B071700 		addiw	a4,a4,1
 2563              	.LVL236:
 2564 0484 6FF01FFF 		j	.L125
 2565              	.L123:
 2566              	.LBE196:
 2567              	.LBE197:
 2568              	.LBE194:
 103:test/Test8.cpp ****         printInt(id);
 2569              		.loc 1 103 9 discriminator 2
 103:test/Test8.cpp ****         printInt(id);
 2570              		.loc 1 103 20 is_stmt 0 discriminator 2
 2571 0488 17050000 		lla	a0,.LC16
 2571      13050500 
 2572 0490 97000000 		call	_Z11printStringPKc@plt
 2572      E7800000 
 2573              	.LVL237:
 104:test/Test8.cpp ****         printString(" poziva barijeru, iteracija: ");
 2574              		.loc 1 104 9 is_stmt 1 discriminator 2
 104:test/Test8.cpp ****         printString(" poziva barijeru, iteracija: ");
 2575              		.loc 1 104 17 is_stmt 0 discriminator 2
 2576 0498 13060000 		li	a2,0
 2577 049c 9305A000 		li	a1,10
 2578 04a0 03250902 		lw	a0,32(s2)
 2579 04a4 97000000 		call	_Z8printIntiii@plt
 2579      E7800000 
 2580              	.LVL238:
 105:test/Test8.cpp ****         printInt(m);
 2581              		.loc 1 105 9 is_stmt 1 discriminator 2
 105:test/Test8.cpp ****         printInt(m);
 2582              		.loc 1 105 20 is_stmt 0 discriminator 2
 2583 04ac 17050000 		lla	a0,.LC17
 2583      13050500 
 2584 04b4 97000000 		call	_Z11printStringPKc@plt
GAS LISTING /tmp/ccCnP6rB.s 			page 72


 2584      E7800000 
 2585              	.LVL239:
 106:test/Test8.cpp ****         printString("\n");
 2586              		.loc 1 106 9 is_stmt 1 discriminator 2
 106:test/Test8.cpp ****         printString("\n");
 2587              		.loc 1 106 17 is_stmt 0 discriminator 2
 2588 04bc 13060000 		li	a2,0
 2589 04c0 9305A000 		li	a1,10
 2590 04c4 13850900 		mv	a0,s3
 2591 04c8 97000000 		call	_Z8printIntiii@plt
 2591      E7800000 
 2592              	.LVL240:
 107:test/Test8.cpp ****         barrier();
 2593              		.loc 1 107 9 is_stmt 1 discriminator 2
 107:test/Test8.cpp ****         barrier();
 2594              		.loc 1 107 20 is_stmt 0 discriminator 2
 2595 04d0 17050000 		lla	a0,.LC1
 2595      13050500 
 2596 04d8 97000000 		call	_Z11printStringPKc@plt
 2596      E7800000 
 2597              	.LVL241:
 108:test/Test8.cpp ****         printString("Nit id: ");
 2598              		.loc 1 108 9 is_stmt 1 discriminator 2
 108:test/Test8.cpp ****         printString("Nit id: ");
 2599              		.loc 1 108 16 is_stmt 0 discriminator 2
 2600 04e0 13050900 		mv	a0,s2
 2601 04e4 97000000 		call	_ZN6Thread7barrierEv@plt
 2601      E7800000 
 2602              	.LVL242:
 109:test/Test8.cpp ****         printInt(id);
 2603              		.loc 1 109 9 is_stmt 1 discriminator 2
 109:test/Test8.cpp ****         printInt(id);
 2604              		.loc 1 109 20 is_stmt 0 discriminator 2
 2605 04ec 17050000 		lla	a0,.LC16
 2605      13050500 
 2606 04f4 97000000 		call	_Z11printStringPKc@plt
 2606      E7800000 
 2607              	.LVL243:
 110:test/Test8.cpp ****         printString(" prosla barijeru, iteracija: ");
 2608              		.loc 1 110 9 is_stmt 1 discriminator 2
 110:test/Test8.cpp ****         printString(" prosla barijeru, iteracija: ");
 2609              		.loc 1 110 17 is_stmt 0 discriminator 2
 2610 04fc 13060000 		li	a2,0
 2611 0500 9305A000 		li	a1,10
 2612 0504 03250902 		lw	a0,32(s2)
 2613 0508 97000000 		call	_Z8printIntiii@plt
 2613      E7800000 
 2614              	.LVL244:
 111:test/Test8.cpp ****         printInt(m);
 2615              		.loc 1 111 9 is_stmt 1 discriminator 2
 111:test/Test8.cpp ****         printInt(m);
 2616              		.loc 1 111 20 is_stmt 0 discriminator 2
 2617 0510 17050000 		lla	a0,.LC18
 2617      13050500 
 2618 0518 97000000 		call	_Z11printStringPKc@plt
 2618      E7800000 
 2619              	.LVL245:
GAS LISTING /tmp/ccCnP6rB.s 			page 73


 112:test/Test8.cpp ****         printString("\n");
 2620              		.loc 1 112 9 is_stmt 1 discriminator 2
 112:test/Test8.cpp ****         printString("\n");
 2621              		.loc 1 112 17 is_stmt 0 discriminator 2
 2622 0520 13060000 		li	a2,0
 2623 0524 9305A000 		li	a1,10
 2624 0528 13850900 		mv	a0,s3
 2625 052c 97000000 		call	_Z8printIntiii@plt
 2625      E7800000 
 2626              	.LVL246:
 113:test/Test8.cpp ****     }
 2627              		.loc 1 113 9 is_stmt 1 discriminator 2
 113:test/Test8.cpp ****     }
 2628              		.loc 1 113 20 is_stmt 0 discriminator 2
 2629 0534 17050000 		lla	a0,.LC1
 2629      13050500 
 2630 053c 97000000 		call	_Z11printStringPKc@plt
 2630      E7800000 
 2631              	.LVL247:
 2632              	.LBE193:
  91:test/Test8.cpp ****         printString("Pocetak wrappera - nit id: ");
 2633              		.loc 1 91 5 is_stmt 1 discriminator 2
 2634 0544 9B891900 		addiw	s3,s3,1
 2635              	.LVL248:
 2636              	.L127:
  91:test/Test8.cpp ****         printString("Pocetak wrappera - nit id: ");
 2637              		.loc 1 91 18 discriminator 1
 2638 0548 93072000 		li	a5,2
 2639 054c 63C23707 		bgt	s3,a5,.L122
 2640              	.LBB199:
  92:test/Test8.cpp ****         printInt(id);
 2641              		.loc 1 92 9
  92:test/Test8.cpp ****         printInt(id);
 2642              		.loc 1 92 20 is_stmt 0
 2643 0550 17050000 		lla	a0,.LC13
 2643      13050500 
 2644 0558 97000000 		call	_Z11printStringPKc@plt
 2644      E7800000 
 2645              	.LVL249:
  93:test/Test8.cpp ****         printString(" i iteracija ");
 2646              		.loc 1 93 9 is_stmt 1
  93:test/Test8.cpp ****         printString(" i iteracija ");
 2647              		.loc 1 93 17 is_stmt 0
 2648 0560 13060000 		li	a2,0
 2649 0564 9305A000 		li	a1,10
 2650 0568 03250902 		lw	a0,32(s2)
 2651 056c 97000000 		call	_Z8printIntiii@plt
 2651      E7800000 
 2652              	.LVL250:
  94:test/Test8.cpp ****         printInt(m);
 2653              		.loc 1 94 9 is_stmt 1
  94:test/Test8.cpp ****         printInt(m);
 2654              		.loc 1 94 20 is_stmt 0
 2655 0574 17050000 		lla	a0,.LC14
 2655      13050500 
 2656 057c 97000000 		call	_Z11printStringPKc@plt
 2656      E7800000 
GAS LISTING /tmp/ccCnP6rB.s 			page 74


 2657              	.LVL251:
  95:test/Test8.cpp ****         printString(". Obrada...\n");
 2658              		.loc 1 95 9 is_stmt 1
  95:test/Test8.cpp ****         printString(". Obrada...\n");
 2659              		.loc 1 95 17 is_stmt 0
 2660 0584 13060000 		li	a2,0
 2661 0588 9305A000 		li	a1,10
 2662 058c 13850900 		mv	a0,s3
 2663 0590 97000000 		call	_Z8printIntiii@plt
 2663      E7800000 
 2664              	.LVL252:
  96:test/Test8.cpp ****         for(int i=0;i<1000;i++){
 2665              		.loc 1 96 9 is_stmt 1
  96:test/Test8.cpp ****         for(int i=0;i<1000;i++){
 2666              		.loc 1 96 20 is_stmt 0
 2667 0598 17050000 		lla	a0,.LC15
 2667      13050500 
 2668 05a0 97000000 		call	_Z11printStringPKc@plt
 2668      E7800000 
 2669              	.LVL253:
  97:test/Test8.cpp ****             for(int j=0;j<10000;j++){
 2670              		.loc 1 97 9 is_stmt 1
 2671              	.LBB198:
  97:test/Test8.cpp ****             for(int j=0;j<10000;j++){
 2672              		.loc 1 97 17 is_stmt 0
 2673 05a8 93040000 		li	s1,0
 2674 05ac 6FF0DFEB 		j	.L126
 2675              	.LVL254:
 2676              	.L122:
 2677              	.LBE198:
 2678              	.LBE199:
 2679              	.LBE192:
 115:test/Test8.cpp ****     printString("Nit id: ");
 2680              		.loc 1 115 5 is_stmt 1
 115:test/Test8.cpp ****     printString("Nit id: ");
 2681              		.loc 1 115 16 is_stmt 0
 2682 05b0 17050000 		lla	a0,.LC19
 2682      13050500 
 2683 05b8 97000000 		call	_Z11printStringPKc@plt
 2683      E7800000 
 2684              	.LVL255:
 116:test/Test8.cpp ****     printInt(id);
 2685              		.loc 1 116 5 is_stmt 1
 116:test/Test8.cpp ****     printInt(id);
 2686              		.loc 1 116 16 is_stmt 0
 2687 05c0 17050000 		lla	a0,.LC16
 2687      13050500 
 2688 05c8 97000000 		call	_Z11printStringPKc@plt
 2688      E7800000 
 2689              	.LVL256:
 117:test/Test8.cpp ****     printString("\n");
 2690              		.loc 1 117 5 is_stmt 1
 117:test/Test8.cpp ****     printString("\n");
 2691              		.loc 1 117 13 is_stmt 0
 2692 05d0 13060000 		li	a2,0
 2693 05d4 9305A000 		li	a1,10
 2694 05d8 03250902 		lw	a0,32(s2)
GAS LISTING /tmp/ccCnP6rB.s 			page 75


 2695 05dc 97000000 		call	_Z8printIntiii@plt
 2695      E7800000 
 2696              	.LVL257:
 118:test/Test8.cpp **** }
 2697              		.loc 1 118 5 is_stmt 1
 118:test/Test8.cpp **** }
 2698              		.loc 1 118 16 is_stmt 0
 2699 05e4 17050000 		lla	a0,.LC1
 2699      13050500 
 2700 05ec 97000000 		call	_Z11printStringPKc@plt
 2700      E7800000 
 2701              	.LVL258:
 119:test/Test8.cpp **** 
 2702              		.loc 1 119 1
 2703 05f4 83308102 		ld	ra,40(sp)
 2704              		.cfi_restore 1
 2705 05f8 03340102 		ld	s0,32(sp)
 2706              		.cfi_restore 8
 2707              		.cfi_def_cfa 2, 48
 2708 05fc 83348101 		ld	s1,24(sp)
 2709              		.cfi_restore 9
 2710 0600 03390101 		ld	s2,16(sp)
 2711              		.cfi_restore 18
 2712              	.LVL259:
 2713 0604 83398100 		ld	s3,8(sp)
 2714              		.cfi_restore 19
 2715              	.LVL260:
 2716 0608 13010103 		addi	sp,sp,48
 2717              		.cfi_def_cfa_offset 0
 2718 060c 67800000 		jr	ra
 2719              		.cfi_endproc
 2720              	.LFE13:
 2722              		.section	.rodata.str1.8
 2723 017a 00000000 		.align	3
 2723      0000
 2724              	.LC20:
 2725 0180 4E697420 		.string	"Nit id - "
 2725      6964202D 
 2725      2000
 2726 018a 00000000 		.align	3
 2726      0000
 2727              	.LC21:
 2728 0190 20692070 		.string	" i pocetak obrade, iteracija: "
 2728      6F636574 
 2728      616B206F 
 2728      62726164 
 2728      652C2069 
 2729 01af 00       		.align	3
 2730              	.LC22:
 2731 01b0 207A6176 		.string	" zavrsila\n"
 2731      7273696C 
 2731      610A00
 2732              		.text
 2733              		.align	2
 2734              		.globl	_ZN2A63runEv
 2736              	_ZN2A63runEv:
 2737              	.LFB18:
GAS LISTING /tmp/ccCnP6rB.s 			page 76


 152:test/Test8.cpp ****     for(int i=0;i<3;i++){
 2738              		.loc 1 152 16 is_stmt 1
 2739              		.cfi_startproc
 2740              	.LVL261:
 2741 0610 130101FD 		addi	sp,sp,-48
 2742              		.cfi_def_cfa_offset 48
 2743 0614 23341102 		sd	ra,40(sp)
 2744 0618 23308102 		sd	s0,32(sp)
 2745 061c 233C9100 		sd	s1,24(sp)
 2746 0620 23382101 		sd	s2,16(sp)
 2747 0624 23343101 		sd	s3,8(sp)
 2748              		.cfi_offset 1, -8
 2749              		.cfi_offset 8, -16
 2750              		.cfi_offset 9, -24
 2751              		.cfi_offset 18, -32
 2752              		.cfi_offset 19, -40
 2753 0628 13040103 		addi	s0,sp,48
 2754              		.cfi_def_cfa 8, 0
 2755 062c 13090500 		mv	s2,a0
 153:test/Test8.cpp **** 
 2756              		.loc 1 153 5
 2757              	.LVL262:
 2758              	.LBB200:
 153:test/Test8.cpp **** 
 2759              		.loc 1 153 13 is_stmt 0
 2760 0630 93090000 		li	s3,0
 2761 0634 6F00C00E 		j	.L135
 2762              	.LVL263:
 2763              	.L132:
 2764              	.LBB201:
 2765              	.LBB202:
 2766              	.LBB203:
 162:test/Test8.cpp ****         }
 2767              		.loc 1 162 13 is_stmt 1 discriminator 2
 162:test/Test8.cpp ****         }
 2768              		.loc 1 162 28 is_stmt 0 discriminator 2
 2769 0638 97000000 		call	_Z15thread_dispatchv@plt
 2769      E7800000 
 2770              	.LVL264:
 2771              	.LBE203:
 160:test/Test8.cpp ****             for(int k=0;k<1000;k++){}
 2772              		.loc 1 160 9 is_stmt 1 discriminator 2
 2773 0640 9B841400 		addiw	s1,s1,1
 2774              	.LVL265:
 2775              	.L134:
 160:test/Test8.cpp ****             for(int k=0;k<1000;k++){}
 2776              		.loc 1 160 22 discriminator 1
 2777 0644 B7270000 		li	a5,8192
 2778 0648 9387F770 		addi	a5,a5,1807
 2779 064c 63CC9700 		bgt	s1,a5,.L131
 2780              	.LBB205:
 2781              	.LBB204:
 161:test/Test8.cpp ****             thread_dispatch();
 2782              		.loc 1 161 21 is_stmt 0
 2783 0650 93070000 		li	a5,0
 2784              	.L133:
 2785              	.LVL266:
GAS LISTING /tmp/ccCnP6rB.s 			page 77


 161:test/Test8.cpp ****             thread_dispatch();
 2786              		.loc 1 161 26 is_stmt 1 discriminator 3
 2787 0654 1307703E 		li	a4,999
 2788 0658 E340F7FE 		bgt	a5,a4,.L132
 161:test/Test8.cpp ****             thread_dispatch();
 2789              		.loc 1 161 13 discriminator 2
 2790 065c 9B871700 		addiw	a5,a5,1
 2791              	.LVL267:
 2792 0660 6FF05FFF 		j	.L133
 2793              	.L131:
 2794              	.LBE204:
 2795              	.LBE205:
 2796              	.LBE202:
 164:test/Test8.cpp ****         printInt(id);
 2797              		.loc 1 164 9 discriminator 2
 164:test/Test8.cpp ****         printInt(id);
 2798              		.loc 1 164 20 is_stmt 0 discriminator 2
 2799 0664 17050000 		lla	a0,.LC20
 2799      13050500 
 2800 066c 97000000 		call	_Z11printStringPKc@plt
 2800      E7800000 
 2801              	.LVL268:
 165:test/Test8.cpp ****         printString(" poziva barijeru, iteracija: ");
 2802              		.loc 1 165 9 is_stmt 1 discriminator 2
 165:test/Test8.cpp ****         printString(" poziva barijeru, iteracija: ");
 2803              		.loc 1 165 17 is_stmt 0 discriminator 2
 2804 0674 13060000 		li	a2,0
 2805 0678 9305A000 		li	a1,10
 2806 067c 03250902 		lw	a0,32(s2)
 2807 0680 97000000 		call	_Z8printIntiii@plt
 2807      E7800000 
 2808              	.LVL269:
 166:test/Test8.cpp ****         printInt(i);
 2809              		.loc 1 166 9 is_stmt 1 discriminator 2
 166:test/Test8.cpp ****         printInt(i);
 2810              		.loc 1 166 20 is_stmt 0 discriminator 2
 2811 0688 17050000 		lla	a0,.LC17
 2811      13050500 
 2812 0690 97000000 		call	_Z11printStringPKc@plt
 2812      E7800000 
 2813              	.LVL270:
 167:test/Test8.cpp ****         printString("\n");
 2814              		.loc 1 167 9 is_stmt 1 discriminator 2
 167:test/Test8.cpp ****         printString("\n");
 2815              		.loc 1 167 17 is_stmt 0 discriminator 2
 2816 0698 13060000 		li	a2,0
 2817 069c 9305A000 		li	a1,10
 2818 06a0 13850900 		mv	a0,s3
 2819 06a4 97000000 		call	_Z8printIntiii@plt
 2819      E7800000 
 2820              	.LVL271:
 168:test/Test8.cpp ****         Thread::barrier_2();
 2821              		.loc 1 168 9 is_stmt 1 discriminator 2
 168:test/Test8.cpp ****         Thread::barrier_2();
 2822              		.loc 1 168 20 is_stmt 0 discriminator 2
 2823 06ac 17050000 		lla	a0,.LC1
 2823      13050500 
GAS LISTING /tmp/ccCnP6rB.s 			page 78


 2824 06b4 97000000 		call	_Z11printStringPKc@plt
 2824      E7800000 
 2825              	.LVL272:
 169:test/Test8.cpp ****         printString("Nit id - ");
 2826              		.loc 1 169 9 is_stmt 1 discriminator 2
 169:test/Test8.cpp ****         printString("Nit id - ");
 2827              		.loc 1 169 26 is_stmt 0 discriminator 2
 2828 06bc 97000000 		call	_ZN6Thread9barrier_2Ev@plt
 2828      E7800000 
 2829              	.LVL273:
 170:test/Test8.cpp ****         printInt(id);
 2830              		.loc 1 170 9 is_stmt 1 discriminator 2
 170:test/Test8.cpp ****         printInt(id);
 2831              		.loc 1 170 20 is_stmt 0 discriminator 2
 2832 06c4 17050000 		lla	a0,.LC20
 2832      13050500 
 2833 06cc 97000000 		call	_Z11printStringPKc@plt
 2833      E7800000 
 2834              	.LVL274:
 171:test/Test8.cpp ****         printString(" prosla barijeru, iteracija: ");
 2835              		.loc 1 171 9 is_stmt 1 discriminator 2
 171:test/Test8.cpp ****         printString(" prosla barijeru, iteracija: ");
 2836              		.loc 1 171 17 is_stmt 0 discriminator 2
 2837 06d4 13060000 		li	a2,0
 2838 06d8 9305A000 		li	a1,10
 2839 06dc 03250902 		lw	a0,32(s2)
 2840 06e0 97000000 		call	_Z8printIntiii@plt
 2840      E7800000 
 2841              	.LVL275:
 172:test/Test8.cpp ****         printInt(i);
 2842              		.loc 1 172 9 is_stmt 1 discriminator 2
 172:test/Test8.cpp ****         printInt(i);
 2843              		.loc 1 172 20 is_stmt 0 discriminator 2
 2844 06e8 17050000 		lla	a0,.LC18
 2844      13050500 
 2845 06f0 97000000 		call	_Z11printStringPKc@plt
 2845      E7800000 
 2846              	.LVL276:
 173:test/Test8.cpp ****         printString("\n");
 2847              		.loc 1 173 9 is_stmt 1 discriminator 2
 173:test/Test8.cpp ****         printString("\n");
 2848              		.loc 1 173 17 is_stmt 0 discriminator 2
 2849 06f8 13060000 		li	a2,0
 2850 06fc 9305A000 		li	a1,10
 2851 0700 13850900 		mv	a0,s3
 2852 0704 97000000 		call	_Z8printIntiii@plt
 2852      E7800000 
 2853              	.LVL277:
 174:test/Test8.cpp **** 
 2854              		.loc 1 174 9 is_stmt 1 discriminator 2
 174:test/Test8.cpp **** 
 2855              		.loc 1 174 20 is_stmt 0 discriminator 2
 2856 070c 17050000 		lla	a0,.LC1
 2856      13050500 
 2857 0714 97000000 		call	_Z11printStringPKc@plt
 2857      E7800000 
 2858              	.LVL278:
GAS LISTING /tmp/ccCnP6rB.s 			page 79


 2859              	.LBE201:
 153:test/Test8.cpp **** 
 2860              		.loc 1 153 5 is_stmt 1 discriminator 2
 2861 071c 9B891900 		addiw	s3,s3,1
 2862              	.LVL279:
 2863              	.L135:
 153:test/Test8.cpp **** 
 2864              		.loc 1 153 18 discriminator 1
 2865 0720 93072000 		li	a5,2
 2866 0724 63C23707 		bgt	s3,a5,.L130
 2867              	.LBB207:
 155:test/Test8.cpp ****         printInt(id);
 2868              		.loc 1 155 9
 155:test/Test8.cpp ****         printInt(id);
 2869              		.loc 1 155 20 is_stmt 0
 2870 0728 17050000 		lla	a0,.LC20
 2870      13050500 
 2871 0730 97000000 		call	_Z11printStringPKc@plt
 2871      E7800000 
 2872              	.LVL280:
 156:test/Test8.cpp ****         printString(" i pocetak obrade, iteracija: ");
 2873              		.loc 1 156 9 is_stmt 1
 156:test/Test8.cpp ****         printString(" i pocetak obrade, iteracija: ");
 2874              		.loc 1 156 17 is_stmt 0
 2875 0738 13060000 		li	a2,0
 2876 073c 9305A000 		li	a1,10
 2877 0740 03250902 		lw	a0,32(s2)
 2878 0744 97000000 		call	_Z8printIntiii@plt
 2878      E7800000 
 2879              	.LVL281:
 157:test/Test8.cpp ****         printInt(i);
 2880              		.loc 1 157 9 is_stmt 1
 157:test/Test8.cpp ****         printInt(i);
 2881              		.loc 1 157 20 is_stmt 0
 2882 074c 17050000 		lla	a0,.LC21
 2882      13050500 
 2883 0754 97000000 		call	_Z11printStringPKc@plt
 2883      E7800000 
 2884              	.LVL282:
 158:test/Test8.cpp ****         printString("\n");
 2885              		.loc 1 158 9 is_stmt 1
 158:test/Test8.cpp ****         printString("\n");
 2886              		.loc 1 158 17 is_stmt 0
 2887 075c 13060000 		li	a2,0
 2888 0760 9305A000 		li	a1,10
 2889 0764 13850900 		mv	a0,s3
 2890 0768 97000000 		call	_Z8printIntiii@plt
 2890      E7800000 
 2891              	.LVL283:
 159:test/Test8.cpp ****         for(int j=0;j<10000;j++){
 2892              		.loc 1 159 9 is_stmt 1
 159:test/Test8.cpp ****         for(int j=0;j<10000;j++){
 2893              		.loc 1 159 20 is_stmt 0
 2894 0770 17050000 		lla	a0,.LC1
 2894      13050500 
 2895 0778 97000000 		call	_Z11printStringPKc@plt
 2895      E7800000 
GAS LISTING /tmp/ccCnP6rB.s 			page 80


 2896              	.LVL284:
 160:test/Test8.cpp ****             for(int k=0;k<1000;k++){}
 2897              		.loc 1 160 9 is_stmt 1
 2898              	.LBB206:
 160:test/Test8.cpp ****             for(int k=0;k<1000;k++){}
 2899              		.loc 1 160 17 is_stmt 0
 2900 0780 93040000 		li	s1,0
 2901 0784 6FF01FEC 		j	.L134
 2902              	.LVL285:
 2903              	.L130:
 2904              	.LBE206:
 2905              	.LBE207:
 2906              	.LBE200:
 177:test/Test8.cpp ****     printInt(id);
 2907              		.loc 1 177 5 is_stmt 1
 177:test/Test8.cpp ****     printInt(id);
 2908              		.loc 1 177 16 is_stmt 0
 2909 0788 17050000 		lla	a0,.LC20
 2909      13050500 
 2910 0790 97000000 		call	_Z11printStringPKc@plt
 2910      E7800000 
 2911              	.LVL286:
 178:test/Test8.cpp ****     printString(" zavrsila\n");
 2912              		.loc 1 178 5 is_stmt 1
 178:test/Test8.cpp ****     printString(" zavrsila\n");
 2913              		.loc 1 178 13 is_stmt 0
 2914 0798 13060000 		li	a2,0
 2915 079c 9305A000 		li	a1,10
 2916 07a0 03250902 		lw	a0,32(s2)
 2917 07a4 97000000 		call	_Z8printIntiii@plt
 2917      E7800000 
 2918              	.LVL287:
 179:test/Test8.cpp **** }
 2919              		.loc 1 179 5 is_stmt 1
 179:test/Test8.cpp **** }
 2920              		.loc 1 179 16 is_stmt 0
 2921 07ac 17050000 		lla	a0,.LC22
 2921      13050500 
 2922 07b4 97000000 		call	_Z11printStringPKc@plt
 2922      E7800000 
 2923              	.LVL288:
 180:test/Test8.cpp **** void testBarijera2(){
 2924              		.loc 1 180 1
 2925 07bc 83308102 		ld	ra,40(sp)
 2926              		.cfi_restore 1
 2927 07c0 03340102 		ld	s0,32(sp)
 2928              		.cfi_restore 8
 2929              		.cfi_def_cfa 2, 48
 2930 07c4 83348101 		ld	s1,24(sp)
 2931              		.cfi_restore 9
 2932 07c8 03390101 		ld	s2,16(sp)
 2933              		.cfi_restore 18
 2934              	.LVL289:
 2935 07cc 83398100 		ld	s3,8(sp)
 2936              		.cfi_restore 19
 2937              	.LVL290:
 2938 07d0 13010103 		addi	sp,sp,48
GAS LISTING /tmp/ccCnP6rB.s 			page 81


 2939              		.cfi_def_cfa_offset 0
 2940 07d4 67800000 		jr	ra
 2941              		.cfi_endproc
 2942              	.LFE18:
 2944              		.section	.rodata.str1.8
 2945 01bb 00000000 		.align	3
 2945      00
 2946              	.LC23:
 2947 01c0 413A2000 		.string	"A: "
 2948 01c4 00000000 		.align	3
 2949              	.LC24:
 2950 01c8 41207361 		.string	"A salje B\n"
 2950      6C6A6520 
 2950      420A00
 2951 01d3 00000000 		.align	3
 2951      00
 2952              	.LC25:
 2953 01d8 423A2070 		.string	"B: poruka od A za B\n"
 2953      6F72756B 
 2953      61206F64 
 2953      2041207A 
 2953      6120420A 
 2954 01ed 000000   		.align	3
 2955              	.LC26:
 2956 01f0 41207361 		.string	"A salje C\n"
 2956      6C6A6520 
 2956      430A00
 2957 01fb 00000000 		.align	3
 2957      00
 2958              	.LC27:
 2959 0200 433A2070 		.string	"C: poruka od A za C\n "
 2959      6F72756B 
 2959      61206F64 
 2959      2041207A 
 2959      6120430A 
 2960 0216 0000     		.align	3
 2961              	.LC28:
 2962 0218 4120706F 		.string	"A poslala sve i sad prima: "
 2962      736C616C 
 2962      61207376 
 2962      65206920 
 2962      73616420 
 2963 0234 00000000 		.align	3
 2964              	.LC29:
 2965 0238 41207376 		.string	"A sve primila: "
 2965      65207072 
 2965      696D696C 
 2965      613A2000 
 2966              		.text
 2967              		.align	2
 2968              		.globl	_ZN2A33runEv
 2970              	_ZN2A33runEv:
 2971              	.LFB24:
 223:test/Test8.cpp ****     for(int m=1;m<6;m++){
 2972              		.loc 1 223 15 is_stmt 1
 2973              		.cfi_startproc
 2974              	.LVL291:
GAS LISTING /tmp/ccCnP6rB.s 			page 82


 2975 07d8 130101FD 		addi	sp,sp,-48
 2976              		.cfi_def_cfa_offset 48
 2977 07dc 23341102 		sd	ra,40(sp)
 2978 07e0 23308102 		sd	s0,32(sp)
 2979 07e4 233C9100 		sd	s1,24(sp)
 2980 07e8 23382101 		sd	s2,16(sp)
 2981 07ec 23343101 		sd	s3,8(sp)
 2982              		.cfi_offset 1, -8
 2983              		.cfi_offset 8, -16
 2984              		.cfi_offset 9, -24
 2985              		.cfi_offset 18, -32
 2986              		.cfi_offset 19, -40
 2987 07f0 13040103 		addi	s0,sp,48
 2988              		.cfi_def_cfa 8, 0
 2989 07f4 93090500 		mv	s3,a0
 224:test/Test8.cpp ****         printString("A: ");
 2990              		.loc 1 224 5
 2991              	.LVL292:
 2992              	.LBB208:
 224:test/Test8.cpp ****         printString("A: ");
 2993              		.loc 1 224 13 is_stmt 0
 2994 07f8 13091000 		li	s2,1
 2995 07fc 6F000014 		j	.L143
 2996              	.LVL293:
 2997              	.L140:
 2998              	.LBB209:
 2999              	.LBB210:
 3000              	.LBB211:
 232:test/Test8.cpp ****         }
 3001              		.loc 1 232 13 is_stmt 1 discriminator 2
 232:test/Test8.cpp ****         }
 3002              		.loc 1 232 28 is_stmt 0 discriminator 2
 3003 0800 97000000 		call	_Z15thread_dispatchv@plt
 3003      E7800000 
 3004              	.LVL294:
 3005              	.LBE211:
 228:test/Test8.cpp ****             for(int j=0;j<10000;j++){
 3006              		.loc 1 228 9 is_stmt 1 discriminator 2
 3007 0808 9B841400 		addiw	s1,s1,1
 3008              	.LVL295:
 3009              	.L142:
 228:test/Test8.cpp ****             for(int j=0;j<10000;j++){
 3010              		.loc 1 228 22 discriminator 1
 3011 080c 9307703E 		li	a5,999
 3012 0810 63CE9700 		bgt	s1,a5,.L139
 3013              	.LBB213:
 3014              	.LBB212:
 229:test/Test8.cpp **** 
 3015              		.loc 1 229 21 is_stmt 0
 3016 0814 13070000 		li	a4,0
 3017              	.L141:
 3018              	.LVL296:
 229:test/Test8.cpp **** 
 3019              		.loc 1 229 26 is_stmt 1 discriminator 3
 3020 0818 B7270000 		li	a5,8192
 3021 081c 9387F770 		addi	a5,a5,1807
 3022 0820 E3C0E7FE 		bgt	a4,a5,.L140
GAS LISTING /tmp/ccCnP6rB.s 			page 83


 229:test/Test8.cpp **** 
 3023              		.loc 1 229 13 discriminator 2
 3024 0824 1B071700 		addiw	a4,a4,1
 3025              	.LVL297:
 3026 0828 6FF01FFF 		j	.L141
 3027              	.L139:
 3028              	.LBE212:
 3029              	.LBE213:
 3030              	.LBE210:
 235:test/Test8.cpp ****         printInt(m);
 3031              		.loc 1 235 9 discriminator 2
 235:test/Test8.cpp ****         printInt(m);
 3032              		.loc 1 235 20 is_stmt 0 discriminator 2
 3033 082c 17050000 		lla	a0,.LC23
 3033      13050500 
 3034 0834 97000000 		call	_Z11printStringPKc@plt
 3034      E7800000 
 3035              	.LVL298:
 236:test/Test8.cpp ****         printString("\n");
 3036              		.loc 1 236 9 is_stmt 1 discriminator 2
 236:test/Test8.cpp ****         printString("\n");
 3037              		.loc 1 236 17 is_stmt 0 discriminator 2
 3038 083c 13060000 		li	a2,0
 3039 0840 9305A000 		li	a1,10
 3040 0844 13050900 		mv	a0,s2
 3041 0848 97000000 		call	_Z8printIntiii@plt
 3041      E7800000 
 3042              	.LVL299:
 237:test/Test8.cpp ****         printString("A salje B\n");
 3043              		.loc 1 237 9 is_stmt 1 discriminator 2
 237:test/Test8.cpp ****         printString("A salje B\n");
 3044              		.loc 1 237 20 is_stmt 0 discriminator 2
 3045 0850 17050000 		lla	a0,.LC1
 3045      13050500 
 3046 0858 97000000 		call	_Z11printStringPKc@plt
 3046      E7800000 
 3047              	.LVL300:
 238:test/Test8.cpp ****         toSend1->send("B: poruka od A za B\n");
 3048              		.loc 1 238 9 is_stmt 1 discriminator 2
 238:test/Test8.cpp ****         toSend1->send("B: poruka od A za B\n");
 3049              		.loc 1 238 20 is_stmt 0 discriminator 2
 3050 0860 17050000 		lla	a0,.LC24
 3050      13050500 
 3051 0868 97000000 		call	_Z11printStringPKc@plt
 3051      E7800000 
 3052              	.LVL301:
 239:test/Test8.cpp ****             printString("A salje C\n");
 3053              		.loc 1 239 9 is_stmt 1 discriminator 2
 239:test/Test8.cpp ****             printString("A salje C\n");
 3054              		.loc 1 239 22 is_stmt 0 discriminator 2
 3055 0870 97050000 		lla	a1,.LC25
 3055      93850500 
 3056 0878 03B58902 		ld	a0,40(s3)
 3057 087c 97000000 		call	_ZN6Thread4sendEPKc@plt
 3057      E7800000 
 3058              	.LVL302:
 240:test/Test8.cpp ****         toSend2->send("C: poruka od A za C\n ");
GAS LISTING /tmp/ccCnP6rB.s 			page 84


 3059              		.loc 1 240 13 is_stmt 1 discriminator 2
 240:test/Test8.cpp ****         toSend2->send("C: poruka od A za C\n ");
 3060              		.loc 1 240 24 is_stmt 0 discriminator 2
 3061 0884 17050000 		lla	a0,.LC26
 3061      13050500 
 3062 088c 97000000 		call	_Z11printStringPKc@plt
 3062      E7800000 
 3063              	.LVL303:
 241:test/Test8.cpp ****         printString("A poslala sve i sad prima: ");
 3064              		.loc 1 241 9 is_stmt 1 discriminator 2
 241:test/Test8.cpp ****         printString("A poslala sve i sad prima: ");
 3065              		.loc 1 241 22 is_stmt 0 discriminator 2
 3066 0894 97050000 		lla	a1,.LC27
 3066      93850500 
 3067 089c 03B50903 		ld	a0,48(s3)
 3068 08a0 97000000 		call	_ZN6Thread4sendEPKc@plt
 3068      E7800000 
 3069              	.LVL304:
 242:test/Test8.cpp ****         printInt(m);
 3070              		.loc 1 242 9 is_stmt 1 discriminator 2
 242:test/Test8.cpp ****         printInt(m);
 3071              		.loc 1 242 20 is_stmt 0 discriminator 2
 3072 08a8 17050000 		lla	a0,.LC28
 3072      13050500 
 3073 08b0 97000000 		call	_Z11printStringPKc@plt
 3073      E7800000 
 3074              	.LVL305:
 243:test/Test8.cpp ****         printString("\n");
 3075              		.loc 1 243 9 is_stmt 1 discriminator 2
 243:test/Test8.cpp ****         printString("\n");
 3076              		.loc 1 243 17 is_stmt 0 discriminator 2
 3077 08b8 13060000 		li	a2,0
 3078 08bc 9305A000 		li	a1,10
 3079 08c0 13050900 		mv	a0,s2
 3080 08c4 97000000 		call	_Z8printIntiii@plt
 3080      E7800000 
 3081              	.LVL306:
 244:test/Test8.cpp **** 
 3082              		.loc 1 244 9 is_stmt 1 discriminator 2
 244:test/Test8.cpp **** 
 3083              		.loc 1 244 20 is_stmt 0 discriminator 2
 3084 08cc 17050000 		lla	a0,.LC1
 3084      13050500 
 3085 08d4 97000000 		call	_Z11printStringPKc@plt
 3085      E7800000 
 3086              	.LVL307:
 249:test/Test8.cpp ****         printString(receive());
 3087              		.loc 1 249 9 is_stmt 1 discriminator 2
 249:test/Test8.cpp ****         printString(receive());
 3088              		.loc 1 249 20 is_stmt 0 discriminator 2
 3089 08dc 13850900 		mv	a0,s3
 3090 08e0 97000000 		call	_ZN6Thread7receiveEv@plt
 3090      E7800000 
 3091              	.LVL308:
 3092 08e8 97000000 		call	_Z11printStringPKc@plt
 3092      E7800000 
 3093              	.LVL309:
GAS LISTING /tmp/ccCnP6rB.s 			page 85


 250:test/Test8.cpp ****         printString("A sve primila: ");
 3094              		.loc 1 250 9 is_stmt 1 discriminator 2
 250:test/Test8.cpp ****         printString("A sve primila: ");
 3095              		.loc 1 250 20 is_stmt 0 discriminator 2
 3096 08f0 13850900 		mv	a0,s3
 3097 08f4 97000000 		call	_ZN6Thread7receiveEv@plt
 3097      E7800000 
 3098              	.LVL310:
 3099 08fc 97000000 		call	_Z11printStringPKc@plt
 3099      E7800000 
 3100              	.LVL311:
 251:test/Test8.cpp ****         printInt(m);
 3101              		.loc 1 251 9 is_stmt 1 discriminator 2
 251:test/Test8.cpp ****         printInt(m);
 3102              		.loc 1 251 20 is_stmt 0 discriminator 2
 3103 0904 17050000 		lla	a0,.LC29
 3103      13050500 
 3104 090c 97000000 		call	_Z11printStringPKc@plt
 3104      E7800000 
 3105              	.LVL312:
 252:test/Test8.cpp ****         printString("\n");
 3106              		.loc 1 252 9 is_stmt 1 discriminator 2
 252:test/Test8.cpp ****         printString("\n");
 3107              		.loc 1 252 17 is_stmt 0 discriminator 2
 3108 0914 13060000 		li	a2,0
 3109 0918 9305A000 		li	a1,10
 3110 091c 13050900 		mv	a0,s2
 3111 0920 97000000 		call	_Z8printIntiii@plt
 3111      E7800000 
 3112              	.LVL313:
 253:test/Test8.cpp ****     }
 3113              		.loc 1 253 9 is_stmt 1 discriminator 2
 253:test/Test8.cpp ****     }
 3114              		.loc 1 253 20 is_stmt 0 discriminator 2
 3115 0928 17050000 		lla	a0,.LC1
 3115      13050500 
 3116 0930 97000000 		call	_Z11printStringPKc@plt
 3116      E7800000 
 3117              	.LVL314:
 3118              	.LBE209:
 224:test/Test8.cpp ****         printString("A: ");
 3119              		.loc 1 224 5 is_stmt 1 discriminator 2
 3120 0938 1B091900 		addiw	s2,s2,1
 3121              	.LVL315:
 3122              	.L143:
 224:test/Test8.cpp ****         printString("A: ");
 3123              		.loc 1 224 18 discriminator 1
 3124 093c 93075000 		li	a5,5
 3125 0940 63C02705 		bgt	s2,a5,.L137
 3126              	.LBB215:
 225:test/Test8.cpp ****         printInt(m);
 3127              		.loc 1 225 9
 225:test/Test8.cpp ****         printInt(m);
 3128              		.loc 1 225 20 is_stmt 0
 3129 0944 17050000 		lla	a0,.LC23
 3129      13050500 
 3130 094c 97000000 		call	_Z11printStringPKc@plt
GAS LISTING /tmp/ccCnP6rB.s 			page 86


 3130      E7800000 
 3131              	.LVL316:
 226:test/Test8.cpp ****         printString("\n");
 3132              		.loc 1 226 9 is_stmt 1
 226:test/Test8.cpp ****         printString("\n");
 3133              		.loc 1 226 17 is_stmt 0
 3134 0954 13060000 		li	a2,0
 3135 0958 9305A000 		li	a1,10
 3136 095c 13050900 		mv	a0,s2
 3137 0960 97000000 		call	_Z8printIntiii@plt
 3137      E7800000 
 3138              	.LVL317:
 227:test/Test8.cpp ****         for(int i=0;i<1000;i++){
 3139              		.loc 1 227 9 is_stmt 1
 227:test/Test8.cpp ****         for(int i=0;i<1000;i++){
 3140              		.loc 1 227 20 is_stmt 0
 3141 0968 17050000 		lla	a0,.LC1
 3141      13050500 
 3142 0970 97000000 		call	_Z11printStringPKc@plt
 3142      E7800000 
 3143              	.LVL318:
 228:test/Test8.cpp ****             for(int j=0;j<10000;j++){
 3144              		.loc 1 228 9 is_stmt 1
 3145              	.LBB214:
 228:test/Test8.cpp ****             for(int j=0;j<10000;j++){
 3146              		.loc 1 228 17 is_stmt 0
 3147 0978 93040000 		li	s1,0
 3148 097c 6FF01FE9 		j	.L142
 3149              	.LVL319:
 3150              	.L137:
 3151              	.LBE214:
 3152              	.LBE215:
 3153              	.LBE208:
 259:test/Test8.cpp **** 
 3154              		.loc 1 259 1
 3155 0980 83308102 		ld	ra,40(sp)
 3156              		.cfi_restore 1
 3157 0984 03340102 		ld	s0,32(sp)
 3158              		.cfi_restore 8
 3159              		.cfi_def_cfa 2, 48
 3160 0988 83348101 		ld	s1,24(sp)
 3161              		.cfi_restore 9
 3162 098c 03390101 		ld	s2,16(sp)
 3163              		.cfi_restore 18
 3164              	.LVL320:
 3165 0990 83398100 		ld	s3,8(sp)
 3166              		.cfi_restore 19
 3167              	.LVL321:
 3168 0994 13010103 		addi	sp,sp,48
 3169              		.cfi_def_cfa_offset 0
 3170 0998 67800000 		jr	ra
 3171              		.cfi_endproc
 3172              	.LFE24:
 3174              		.section	.rodata.str1.8
 3175              		.align	3
 3176              	.LC30:
 3177 0248 42207361 		.string	"B salje niti A\n"
GAS LISTING /tmp/ccCnP6rB.s 			page 87


 3177      6C6A6520 
 3177      6E697469 
 3177      20410A00 
 3178              		.align	3
 3179              	.LC31:
 3180 0258 413A2070 		.string	"A: poruka od B za A\n"
 3180      6F72756B 
 3180      61206F64 
 3180      2042207A 
 3180      6120410A 
 3181 026d 000000   		.align	3
 3182              	.LC32:
 3183 0270 4220706F 		.string	"B poslala i sad prima: "
 3183      736C616C 
 3183      61206920 
 3183      73616420 
 3183      7072696D 
 3184              		.align	3
 3185              	.LC33:
 3186 0288 42207072 		.string	"B primila sve: "
 3186      696D696C 
 3186      61207376 
 3186      653A2000 
 3187              		.text
 3188              		.align	2
 3189              		.globl	_ZN2B33runEv
 3191              	_ZN2B33runEv:
 3192              	.LFB29:
 280:test/Test8.cpp ****     for(int m=1;m<6;m++){
 3193              		.loc 1 280 15 is_stmt 1
 3194              		.cfi_startproc
 3195              	.LVL322:
 3196 099c 130101FD 		addi	sp,sp,-48
 3197              		.cfi_def_cfa_offset 48
 3198 09a0 23341102 		sd	ra,40(sp)
 3199 09a4 23308102 		sd	s0,32(sp)
 3200 09a8 233C9100 		sd	s1,24(sp)
 3201 09ac 23382101 		sd	s2,16(sp)
 3202 09b0 23343101 		sd	s3,8(sp)
 3203              		.cfi_offset 1, -8
 3204              		.cfi_offset 8, -16
 3205              		.cfi_offset 9, -24
 3206              		.cfi_offset 18, -32
 3207              		.cfi_offset 19, -40
 3208 09b4 13040103 		addi	s0,sp,48
 3209              		.cfi_def_cfa 8, 0
 3210 09b8 93090500 		mv	s3,a0
 281:test/Test8.cpp ****         printString("B: ");
 3211              		.loc 1 281 5
 3212              	.LVL323:
 3213              	.LBB216:
 281:test/Test8.cpp ****         printString("B: ");
 3214              		.loc 1 281 13 is_stmt 0
 3215 09bc 13091000 		li	s2,1
 3216 09c0 6F00C011 		j	.L151
 3217              	.LVL324:
 3218              	.L148:
GAS LISTING /tmp/ccCnP6rB.s 			page 88


 3219              	.LBB217:
 3220              	.LBB218:
 3221              	.LBB219:
 289:test/Test8.cpp ****         }
 3222              		.loc 1 289 13 is_stmt 1 discriminator 2
 289:test/Test8.cpp ****         }
 3223              		.loc 1 289 28 is_stmt 0 discriminator 2
 3224 09c4 97000000 		call	_Z15thread_dispatchv@plt
 3224      E7800000 
 3225              	.LVL325:
 3226              	.LBE219:
 285:test/Test8.cpp ****             for(int j=0;j<10000;j++){
 3227              		.loc 1 285 9 is_stmt 1 discriminator 2
 3228 09cc 9B841400 		addiw	s1,s1,1
 3229              	.LVL326:
 3230              	.L150:
 285:test/Test8.cpp ****             for(int j=0;j<10000;j++){
 3231              		.loc 1 285 22 discriminator 1
 3232 09d0 9307703E 		li	a5,999
 3233 09d4 63CE9700 		bgt	s1,a5,.L147
 3234              	.LBB221:
 3235              	.LBB220:
 286:test/Test8.cpp **** 
 3236              		.loc 1 286 21 is_stmt 0
 3237 09d8 13070000 		li	a4,0
 3238              	.L149:
 3239              	.LVL327:
 286:test/Test8.cpp **** 
 3240              		.loc 1 286 26 is_stmt 1 discriminator 3
 3241 09dc B7270000 		li	a5,8192
 3242 09e0 9387F770 		addi	a5,a5,1807
 3243 09e4 E3C0E7FE 		bgt	a4,a5,.L148
 286:test/Test8.cpp **** 
 3244              		.loc 1 286 13 discriminator 2
 3245 09e8 1B071700 		addiw	a4,a4,1
 3246              	.LVL328:
 3247 09ec 6FF01FFF 		j	.L149
 3248              	.L147:
 3249              	.LBE220:
 3250              	.LBE221:
 3251              	.LBE218:
 292:test/Test8.cpp ****         printInt(m);
 3252              		.loc 1 292 9 discriminator 2
 292:test/Test8.cpp ****         printInt(m);
 3253              		.loc 1 292 20 is_stmt 0 discriminator 2
 3254 09f0 17050000 		lla	a0,.LC8
 3254      13050500 
 3255 09f8 97000000 		call	_Z11printStringPKc@plt
 3255      E7800000 
 3256              	.LVL329:
 293:test/Test8.cpp ****         printString("\n");
 3257              		.loc 1 293 9 is_stmt 1 discriminator 2
 293:test/Test8.cpp ****         printString("\n");
 3258              		.loc 1 293 17 is_stmt 0 discriminator 2
 3259 0a00 13060000 		li	a2,0
 3260 0a04 9305A000 		li	a1,10
 3261 0a08 13050900 		mv	a0,s2
GAS LISTING /tmp/ccCnP6rB.s 			page 89


 3262 0a0c 97000000 		call	_Z8printIntiii@plt
 3262      E7800000 
 3263              	.LVL330:
 294:test/Test8.cpp ****         printString("B salje niti A\n");
 3264              		.loc 1 294 9 is_stmt 1 discriminator 2
 294:test/Test8.cpp ****         printString("B salje niti A\n");
 3265              		.loc 1 294 20 is_stmt 0 discriminator 2
 3266 0a14 17050000 		lla	a0,.LC1
 3266      13050500 
 3267 0a1c 97000000 		call	_Z11printStringPKc@plt
 3267      E7800000 
 3268              	.LVL331:
 295:test/Test8.cpp ****         toSend1->send("A: poruka od B za A\n");
 3269              		.loc 1 295 9 is_stmt 1 discriminator 2
 295:test/Test8.cpp ****         toSend1->send("A: poruka od B za A\n");
 3270              		.loc 1 295 20 is_stmt 0 discriminator 2
 3271 0a24 17050000 		lla	a0,.LC30
 3271      13050500 
 3272 0a2c 97000000 		call	_Z11printStringPKc@plt
 3272      E7800000 
 3273              	.LVL332:
 296:test/Test8.cpp ****         printString("B poslala i sad prima: ");
 3274              		.loc 1 296 9 is_stmt 1 discriminator 2
 296:test/Test8.cpp ****         printString("B poslala i sad prima: ");
 3275              		.loc 1 296 22 is_stmt 0 discriminator 2
 3276 0a34 97050000 		lla	a1,.LC31
 3276      93850500 
 3277 0a3c 03B58902 		ld	a0,40(s3)
 3278 0a40 97000000 		call	_ZN6Thread4sendEPKc@plt
 3278      E7800000 
 3279              	.LVL333:
 297:test/Test8.cpp ****         printInt(m);
 3280              		.loc 1 297 9 is_stmt 1 discriminator 2
 297:test/Test8.cpp ****         printInt(m);
 3281              		.loc 1 297 20 is_stmt 0 discriminator 2
 3282 0a48 17050000 		lla	a0,.LC32
 3282      13050500 
 3283 0a50 97000000 		call	_Z11printStringPKc@plt
 3283      E7800000 
 3284              	.LVL334:
 298:test/Test8.cpp ****         printString("\n");
 3285              		.loc 1 298 9 is_stmt 1 discriminator 2
 298:test/Test8.cpp ****         printString("\n");
 3286              		.loc 1 298 17 is_stmt 0 discriminator 2
 3287 0a58 13060000 		li	a2,0
 3288 0a5c 9305A000 		li	a1,10
 3289 0a60 13050900 		mv	a0,s2
 3290 0a64 97000000 		call	_Z8printIntiii@plt
 3290      E7800000 
 3291              	.LVL335:
 299:test/Test8.cpp **** 
 3292              		.loc 1 299 9 is_stmt 1 discriminator 2
 299:test/Test8.cpp **** 
 3293              		.loc 1 299 20 is_stmt 0 discriminator 2
 3294 0a6c 17050000 		lla	a0,.LC1
 3294      13050500 
 3295 0a74 97000000 		call	_Z11printStringPKc@plt
GAS LISTING /tmp/ccCnP6rB.s 			page 90


 3295      E7800000 
 3296              	.LVL336:
 304:test/Test8.cpp ****         printString(receive());
 3297              		.loc 1 304 9 is_stmt 1 discriminator 2
 304:test/Test8.cpp ****         printString(receive());
 3298              		.loc 1 304 20 is_stmt 0 discriminator 2
 3299 0a7c 13850900 		mv	a0,s3
 3300 0a80 97000000 		call	_ZN6Thread7receiveEv@plt
 3300      E7800000 
 3301              	.LVL337:
 3302 0a88 97000000 		call	_Z11printStringPKc@plt
 3302      E7800000 
 3303              	.LVL338:
 305:test/Test8.cpp ****         printString("B primila sve: ");
 3304              		.loc 1 305 9 is_stmt 1 discriminator 2
 305:test/Test8.cpp ****         printString("B primila sve: ");
 3305              		.loc 1 305 20 is_stmt 0 discriminator 2
 3306 0a90 13850900 		mv	a0,s3
 3307 0a94 97000000 		call	_ZN6Thread7receiveEv@plt
 3307      E7800000 
 3308              	.LVL339:
 3309 0a9c 97000000 		call	_Z11printStringPKc@plt
 3309      E7800000 
 3310              	.LVL340:
 306:test/Test8.cpp ****         printInt(m);
 3311              		.loc 1 306 9 is_stmt 1 discriminator 2
 306:test/Test8.cpp ****         printInt(m);
 3312              		.loc 1 306 20 is_stmt 0 discriminator 2
 3313 0aa4 17050000 		lla	a0,.LC33
 3313      13050500 
 3314 0aac 97000000 		call	_Z11printStringPKc@plt
 3314      E7800000 
 3315              	.LVL341:
 307:test/Test8.cpp ****         printString("\n");
 3316              		.loc 1 307 9 is_stmt 1 discriminator 2
 307:test/Test8.cpp ****         printString("\n");
 3317              		.loc 1 307 17 is_stmt 0 discriminator 2
 3318 0ab4 13060000 		li	a2,0
 3319 0ab8 9305A000 		li	a1,10
 3320 0abc 13050900 		mv	a0,s2
 3321 0ac0 97000000 		call	_Z8printIntiii@plt
 3321      E7800000 
 3322              	.LVL342:
 308:test/Test8.cpp ****     }
 3323              		.loc 1 308 9 is_stmt 1 discriminator 2
 308:test/Test8.cpp ****     }
 3324              		.loc 1 308 20 is_stmt 0 discriminator 2
 3325 0ac8 17050000 		lla	a0,.LC1
 3325      13050500 
 3326 0ad0 97000000 		call	_Z11printStringPKc@plt
 3326      E7800000 
 3327              	.LVL343:
 3328              	.LBE217:
 281:test/Test8.cpp ****         printString("B: ");
 3329              		.loc 1 281 5 is_stmt 1 discriminator 2
 3330 0ad8 1B091900 		addiw	s2,s2,1
 3331              	.LVL344:
GAS LISTING /tmp/ccCnP6rB.s 			page 91


 3332              	.L151:
 281:test/Test8.cpp ****         printString("B: ");
 3333              		.loc 1 281 18 discriminator 1
 3334 0adc 93075000 		li	a5,5
 3335 0ae0 63C02705 		bgt	s2,a5,.L145
 3336              	.LBB223:
 282:test/Test8.cpp ****         printInt(m);
 3337              		.loc 1 282 9
 282:test/Test8.cpp ****         printInt(m);
 3338              		.loc 1 282 20 is_stmt 0
 3339 0ae4 17050000 		lla	a0,.LC8
 3339      13050500 
 3340 0aec 97000000 		call	_Z11printStringPKc@plt
 3340      E7800000 
 3341              	.LVL345:
 283:test/Test8.cpp ****         printString("\n");
 3342              		.loc 1 283 9 is_stmt 1
 283:test/Test8.cpp ****         printString("\n");
 3343              		.loc 1 283 17 is_stmt 0
 3344 0af4 13060000 		li	a2,0
 3345 0af8 9305A000 		li	a1,10
 3346 0afc 13050900 		mv	a0,s2
 3347 0b00 97000000 		call	_Z8printIntiii@plt
 3347      E7800000 
 3348              	.LVL346:
 284:test/Test8.cpp ****         for(int i=0;i<1000;i++){
 3349              		.loc 1 284 9 is_stmt 1
 284:test/Test8.cpp ****         for(int i=0;i<1000;i++){
 3350              		.loc 1 284 20 is_stmt 0
 3351 0b08 17050000 		lla	a0,.LC1
 3351      13050500 
 3352 0b10 97000000 		call	_Z11printStringPKc@plt
 3352      E7800000 
 3353              	.LVL347:
 285:test/Test8.cpp ****             for(int j=0;j<10000;j++){
 3354              		.loc 1 285 9 is_stmt 1
 3355              	.LBB222:
 285:test/Test8.cpp ****             for(int j=0;j<10000;j++){
 3356              		.loc 1 285 17 is_stmt 0
 3357 0b18 93040000 		li	s1,0
 3358 0b1c 6FF05FEB 		j	.L150
 3359              	.LVL348:
 3360              	.L145:
 3361              	.LBE222:
 3362              	.LBE223:
 3363              	.LBE216:
 314:test/Test8.cpp **** 
 3364              		.loc 1 314 1
 3365 0b20 83308102 		ld	ra,40(sp)
 3366              		.cfi_restore 1
 3367 0b24 03340102 		ld	s0,32(sp)
 3368              		.cfi_restore 8
 3369              		.cfi_def_cfa 2, 48
 3370 0b28 83348101 		ld	s1,24(sp)
 3371              		.cfi_restore 9
 3372 0b2c 03390101 		ld	s2,16(sp)
 3373              		.cfi_restore 18
GAS LISTING /tmp/ccCnP6rB.s 			page 92


 3374              	.LVL349:
 3375 0b30 83398100 		ld	s3,8(sp)
 3376              		.cfi_restore 19
 3377              	.LVL350:
 3378 0b34 13010103 		addi	sp,sp,48
 3379              		.cfi_def_cfa_offset 0
 3380 0b38 67800000 		jr	ra
 3381              		.cfi_endproc
 3382              	.LFE29:
 3384              		.section	.rodata.str1.8
 3385              		.align	3
 3386              	.LC34:
 3387 0298 433A2000 		.string	"C: "
 3388 029c 00000000 		.align	3
 3389              	.LC35:
 3390 02a0 43207361 		.string	"C salje poruku niti A\n"
 3390      6C6A6520 
 3390      706F7275 
 3390      6B75206E 
 3390      69746920 
 3391 02b7 00       		.align	3
 3392              	.LC36:
 3393 02b8 413A2070 		.string	"A: poruka od C za A\n"
 3393      6F72756B 
 3393      61206F64 
 3393      2043207A 
 3393      6120410A 
 3394 02cd 000000   		.align	3
 3395              	.LC37:
 3396 02d0 43207361 		.string	"C salje8 poruku niti B\n"
 3396      6C6A6538 
 3396      20706F72 
 3396      756B7520 
 3396      6E697469 
 3397              		.align	3
 3398              	.LC38:
 3399 02e8 423A2070 		.string	"B: poruka od C za B\n "
 3399      6F72756B 
 3399      61206F64 
 3399      2043207A 
 3399      6120420A 
 3400 02fe 0000     		.align	3
 3401              	.LC39:
 3402 0300 43207376 		.string	"C sve poruke poslate i sad prima: "
 3402      6520706F 
 3402      72756B65 
 3402      20706F73 
 3402      6C617465 
 3403 0323 00000000 		.align	3
 3403      00
 3404              	.LC40:
 3405 0328 43207072 		.string	"C primila : "
 3405      696D696C 
 3405      61203A20 
 3405      00
 3406              		.text
 3407              		.align	2
GAS LISTING /tmp/ccCnP6rB.s 			page 93


 3408              		.globl	_ZN2C33runEv
 3410              	_ZN2C33runEv:
 3411              	.LFB34:
 335:test/Test8.cpp ****     for(int m=1;m<6;m++){
 3412              		.loc 1 335 15 is_stmt 1
 3413              		.cfi_startproc
 3414              	.LVL351:
 3415 0b3c 130101FD 		addi	sp,sp,-48
 3416              		.cfi_def_cfa_offset 48
 3417 0b40 23341102 		sd	ra,40(sp)
 3418 0b44 23308102 		sd	s0,32(sp)
 3419 0b48 233C9100 		sd	s1,24(sp)
 3420 0b4c 23382101 		sd	s2,16(sp)
 3421 0b50 23343101 		sd	s3,8(sp)
 3422              		.cfi_offset 1, -8
 3423              		.cfi_offset 8, -16
 3424              		.cfi_offset 9, -24
 3425              		.cfi_offset 18, -32
 3426              		.cfi_offset 19, -40
 3427 0b54 13040103 		addi	s0,sp,48
 3428              		.cfi_def_cfa 8, 0
 3429 0b58 93090500 		mv	s3,a0
 336:test/Test8.cpp **** //        printString("Pocetak wrappera C- nit id: ");
 3430              		.loc 1 336 5
 3431              	.LVL352:
 3432              	.LBB224:
 336:test/Test8.cpp **** //        printString("Pocetak wrappera C- nit id: ");
 3433              		.loc 1 336 13 is_stmt 0
 3434 0b5c 13091000 		li	s2,1
 3435 0b60 6F00C012 		j	.L159
 3436              	.LVL353:
 3437              	.L156:
 3438              	.LBB225:
 3439              	.LBB226:
 3440              	.LBB227:
 349:test/Test8.cpp ****         }
 3441              		.loc 1 349 13 is_stmt 1 discriminator 2
 349:test/Test8.cpp ****         }
 3442              		.loc 1 349 28 is_stmt 0 discriminator 2
 3443 0b64 97000000 		call	_Z15thread_dispatchv@plt
 3443      E7800000 
 3444              	.LVL354:
 3445              	.LBE227:
 345:test/Test8.cpp ****             for(int j=0;j<10000;j++){
 3446              		.loc 1 345 9 is_stmt 1 discriminator 2
 3447 0b6c 9B841400 		addiw	s1,s1,1
 3448              	.LVL355:
 3449              	.L158:
 345:test/Test8.cpp ****             for(int j=0;j<10000;j++){
 3450              		.loc 1 345 22 discriminator 1
 3451 0b70 9307703E 		li	a5,999
 3452 0b74 63CE9700 		bgt	s1,a5,.L155
 3453              	.LBB229:
 3454              	.LBB228:
 346:test/Test8.cpp **** 
 3455              		.loc 1 346 21 is_stmt 0
 3456 0b78 13070000 		li	a4,0
GAS LISTING /tmp/ccCnP6rB.s 			page 94


 3457              	.L157:
 3458              	.LVL356:
 346:test/Test8.cpp **** 
 3459              		.loc 1 346 26 is_stmt 1 discriminator 3
 3460 0b7c B7270000 		li	a5,8192
 3461 0b80 9387F770 		addi	a5,a5,1807
 3462 0b84 E3C0E7FE 		bgt	a4,a5,.L156
 346:test/Test8.cpp **** 
 3463              		.loc 1 346 13 discriminator 2
 3464 0b88 1B071700 		addiw	a4,a4,1
 3465              	.LVL357:
 3466 0b8c 6FF01FFF 		j	.L157
 3467              	.L155:
 3468              	.LBE228:
 3469              	.LBE229:
 3470              	.LBE226:
 352:test/Test8.cpp ****         printInt(m);
 3471              		.loc 1 352 9 discriminator 2
 352:test/Test8.cpp ****         printInt(m);
 3472              		.loc 1 352 20 is_stmt 0 discriminator 2
 3473 0b90 17050000 		lla	a0,.LC34
 3473      13050500 
 3474 0b98 97000000 		call	_Z11printStringPKc@plt
 3474      E7800000 
 3475              	.LVL358:
 353:test/Test8.cpp ****         printString("\n");
 3476              		.loc 1 353 9 is_stmt 1 discriminator 2
 353:test/Test8.cpp ****         printString("\n");
 3477              		.loc 1 353 17 is_stmt 0 discriminator 2
 3478 0ba0 13060000 		li	a2,0
 3479 0ba4 9305A000 		li	a1,10
 3480 0ba8 13050900 		mv	a0,s2
 3481 0bac 97000000 		call	_Z8printIntiii@plt
 3481      E7800000 
 3482              	.LVL359:
 354:test/Test8.cpp ****         printString("C salje poruku niti A\n");
 3483              		.loc 1 354 9 is_stmt 1 discriminator 2
 354:test/Test8.cpp ****         printString("C salje poruku niti A\n");
 3484              		.loc 1 354 20 is_stmt 0 discriminator 2
 3485 0bb4 17050000 		lla	a0,.LC1
 3485      13050500 
 3486 0bbc 97000000 		call	_Z11printStringPKc@plt
 3486      E7800000 
 3487              	.LVL360:
 355:test/Test8.cpp ****         toSend1->send("A: poruka od C za A\n");
 3488              		.loc 1 355 9 is_stmt 1 discriminator 2
 355:test/Test8.cpp ****         toSend1->send("A: poruka od C za A\n");
 3489              		.loc 1 355 20 is_stmt 0 discriminator 2
 3490 0bc4 17050000 		lla	a0,.LC35
 3490      13050500 
 3491 0bcc 97000000 		call	_Z11printStringPKc@plt
 3491      E7800000 
 3492              	.LVL361:
 356:test/Test8.cpp ****         printString("C salje8 poruku niti B\n");
 3493              		.loc 1 356 9 is_stmt 1 discriminator 2
 356:test/Test8.cpp ****         printString("C salje8 poruku niti B\n");
 3494              		.loc 1 356 22 is_stmt 0 discriminator 2
GAS LISTING /tmp/ccCnP6rB.s 			page 95


 3495 0bd4 97050000 		lla	a1,.LC36
 3495      93850500 
 3496 0bdc 03B58902 		ld	a0,40(s3)
 3497 0be0 97000000 		call	_ZN6Thread4sendEPKc@plt
 3497      E7800000 
 3498              	.LVL362:
 357:test/Test8.cpp ****         toSend2->send("B: poruka od C za B\n ");
 3499              		.loc 1 357 9 is_stmt 1 discriminator 2
 357:test/Test8.cpp ****         toSend2->send("B: poruka od C za B\n ");
 3500              		.loc 1 357 20 is_stmt 0 discriminator 2
 3501 0be8 17050000 		lla	a0,.LC37
 3501      13050500 
 3502 0bf0 97000000 		call	_Z11printStringPKc@plt
 3502      E7800000 
 3503              	.LVL363:
 358:test/Test8.cpp ****         printString("C sve poruke poslate i sad prima: ");
 3504              		.loc 1 358 9 is_stmt 1 discriminator 2
 358:test/Test8.cpp ****         printString("C sve poruke poslate i sad prima: ");
 3505              		.loc 1 358 22 is_stmt 0 discriminator 2
 3506 0bf8 97050000 		lla	a1,.LC38
 3506      93850500 
 3507 0c00 03B50903 		ld	a0,48(s3)
 3508 0c04 97000000 		call	_ZN6Thread4sendEPKc@plt
 3508      E7800000 
 3509              	.LVL364:
 359:test/Test8.cpp ****         printInt(m);
 3510              		.loc 1 359 9 is_stmt 1 discriminator 2
 359:test/Test8.cpp ****         printInt(m);
 3511              		.loc 1 359 20 is_stmt 0 discriminator 2
 3512 0c0c 17050000 		lla	a0,.LC39
 3512      13050500 
 3513 0c14 97000000 		call	_Z11printStringPKc@plt
 3513      E7800000 
 3514              	.LVL365:
 360:test/Test8.cpp ****         printString("\n");
 3515              		.loc 1 360 9 is_stmt 1 discriminator 2
 360:test/Test8.cpp ****         printString("\n");
 3516              		.loc 1 360 17 is_stmt 0 discriminator 2
 3517 0c1c 13060000 		li	a2,0
 3518 0c20 9305A000 		li	a1,10
 3519 0c24 13050900 		mv	a0,s2
 3520 0c28 97000000 		call	_Z8printIntiii@plt
 3520      E7800000 
 3521              	.LVL366:
 361:test/Test8.cpp ****         printString(receive());
 3522              		.loc 1 361 9 is_stmt 1 discriminator 2
 361:test/Test8.cpp ****         printString(receive());
 3523              		.loc 1 361 20 is_stmt 0 discriminator 2
 3524 0c30 17050000 		lla	a0,.LC1
 3524      13050500 
 3525 0c38 97000000 		call	_Z11printStringPKc@plt
 3525      E7800000 
 3526              	.LVL367:
 362:test/Test8.cpp ****         printString("C primila : ");
 3527              		.loc 1 362 9 is_stmt 1 discriminator 2
 362:test/Test8.cpp ****         printString("C primila : ");
 3528              		.loc 1 362 20 is_stmt 0 discriminator 2
GAS LISTING /tmp/ccCnP6rB.s 			page 96


 3529 0c40 13850900 		mv	a0,s3
 3530 0c44 97000000 		call	_ZN6Thread7receiveEv@plt
 3530      E7800000 
 3531              	.LVL368:
 3532 0c4c 97000000 		call	_Z11printStringPKc@plt
 3532      E7800000 
 3533              	.LVL369:
 363:test/Test8.cpp ****         printInt(m);
 3534              		.loc 1 363 9 is_stmt 1 discriminator 2
 363:test/Test8.cpp ****         printInt(m);
 3535              		.loc 1 363 20 is_stmt 0 discriminator 2
 3536 0c54 17050000 		lla	a0,.LC40
 3536      13050500 
 3537 0c5c 97000000 		call	_Z11printStringPKc@plt
 3537      E7800000 
 3538              	.LVL370:
 364:test/Test8.cpp ****         printString("\n");
 3539              		.loc 1 364 9 is_stmt 1 discriminator 2
 364:test/Test8.cpp ****         printString("\n");
 3540              		.loc 1 364 17 is_stmt 0 discriminator 2
 3541 0c64 13060000 		li	a2,0
 3542 0c68 9305A000 		li	a1,10
 3543 0c6c 13050900 		mv	a0,s2
 3544 0c70 97000000 		call	_Z8printIntiii@plt
 3544      E7800000 
 3545              	.LVL371:
 365:test/Test8.cpp **** 
 3546              		.loc 1 365 9 is_stmt 1 discriminator 2
 365:test/Test8.cpp **** 
 3547              		.loc 1 365 20 is_stmt 0 discriminator 2
 3548 0c78 17050000 		lla	a0,.LC1
 3548      13050500 
 3549 0c80 97000000 		call	_Z11printStringPKc@plt
 3549      E7800000 
 3550              	.LVL372:
 3551              	.LBE225:
 336:test/Test8.cpp **** //        printString("Pocetak wrappera C- nit id: ");
 3552              		.loc 1 336 5 is_stmt 1 discriminator 2
 3553 0c88 1B091900 		addiw	s2,s2,1
 3554              	.LVL373:
 3555              	.L159:
 336:test/Test8.cpp **** //        printString("Pocetak wrappera C- nit id: ");
 3556              		.loc 1 336 18 discriminator 1
 3557 0c8c 93075000 		li	a5,5
 3558 0c90 63C02705 		bgt	s2,a5,.L153
 3559              	.LBB231:
 342:test/Test8.cpp ****         printInt(m);
 3560              		.loc 1 342 9
 342:test/Test8.cpp ****         printInt(m);
 3561              		.loc 1 342 20 is_stmt 0
 3562 0c94 17050000 		lla	a0,.LC34
 3562      13050500 
 3563 0c9c 97000000 		call	_Z11printStringPKc@plt
 3563      E7800000 
 3564              	.LVL374:
 343:test/Test8.cpp ****         printString("\n");
 3565              		.loc 1 343 9 is_stmt 1
GAS LISTING /tmp/ccCnP6rB.s 			page 97


 343:test/Test8.cpp ****         printString("\n");
 3566              		.loc 1 343 17 is_stmt 0
 3567 0ca4 13060000 		li	a2,0
 3568 0ca8 9305A000 		li	a1,10
 3569 0cac 13050900 		mv	a0,s2
 3570 0cb0 97000000 		call	_Z8printIntiii@plt
 3570      E7800000 
 3571              	.LVL375:
 344:test/Test8.cpp ****         for(int i=0;i<1000;i++){
 3572              		.loc 1 344 9 is_stmt 1
 344:test/Test8.cpp ****         for(int i=0;i<1000;i++){
 3573              		.loc 1 344 20 is_stmt 0
 3574 0cb8 17050000 		lla	a0,.LC1
 3574      13050500 
 3575 0cc0 97000000 		call	_Z11printStringPKc@plt
 3575      E7800000 
 3576              	.LVL376:
 345:test/Test8.cpp ****             for(int j=0;j<10000;j++){
 3577              		.loc 1 345 9 is_stmt 1
 3578              	.LBB230:
 345:test/Test8.cpp ****             for(int j=0;j<10000;j++){
 3579              		.loc 1 345 17 is_stmt 0
 3580 0cc8 93040000 		li	s1,0
 3581 0ccc 6FF05FEA 		j	.L158
 3582              	.LVL377:
 3583              	.L153:
 3584              	.LBE230:
 3585              	.LBE231:
 3586              	.LBE224:
 372:test/Test8.cpp **** 
 3587              		.loc 1 372 1
 3588 0cd0 83308102 		ld	ra,40(sp)
 3589              		.cfi_restore 1
 3590 0cd4 03340102 		ld	s0,32(sp)
 3591              		.cfi_restore 8
 3592              		.cfi_def_cfa 2, 48
 3593 0cd8 83348101 		ld	s1,24(sp)
 3594              		.cfi_restore 9
 3595 0cdc 03390101 		ld	s2,16(sp)
 3596              		.cfi_restore 18
 3597              	.LVL378:
 3598 0ce0 83398100 		ld	s3,8(sp)
 3599              		.cfi_restore 19
 3600              	.LVL379:
 3601 0ce4 13010103 		addi	sp,sp,48
 3602              		.cfi_def_cfa_offset 0
 3603 0ce8 67800000 		jr	ra
 3604              		.cfi_endproc
 3605              	.LFE34:
 3607              		.section	.rodata._ZN2A73runEv.str1.8,"aMS",@progbits,1
 3608              		.align	3
 3609              	.LC41:
 3610 0000 50726F64 		.string	"Producer run wrapper\n"
 3610      75636572 
 3610      2072756E 
 3610      20777261 
 3610      70706572 
GAS LISTING /tmp/ccCnP6rB.s 			page 98


 3611 0016 0000     		.align	3
 3612              	.LC42:
 3613 0018 506F7A69 		.string	"Pozivam producer metod\n"
 3613      76616D20 
 3613      70726F64 
 3613      75636572 
 3613      206D6574 
 3614              		.align	3
 3615              	.LC43:
 3616 0030 50726F64 		.string	"Producer finished\n"
 3616      75636572 
 3616      2066696E 
 3616      69736865 
 3616      640A00
 3617              		.section	.text._ZN2A73runEv,"axG",@progbits,_ZN2A73runEv,comdat
 3618              		.align	2
 3619              		.weak	_ZN2A73runEv
 3621              	_ZN2A73runEv:
 3622              	.LFB57:
 581:test/Test8.cpp **** 
 3623              		.loc 1 581 10 is_stmt 1
 3624              		.cfi_startproc
 3625              	.LVL380:
 3626 0000 130101FE 		addi	sp,sp,-32
 3627              		.cfi_def_cfa_offset 32
 3628 0004 233C1100 		sd	ra,24(sp)
 3629 0008 23388100 		sd	s0,16(sp)
 3630 000c 23349100 		sd	s1,8(sp)
 3631 0010 23302101 		sd	s2,0(sp)
 3632              		.cfi_offset 1, -8
 3633              		.cfi_offset 8, -16
 3634              		.cfi_offset 9, -24
 3635              		.cfi_offset 18, -32
 3636 0014 13040102 		addi	s0,sp,32
 3637              		.cfi_def_cfa 8, 0
 3638 0018 13090500 		mv	s2,a0
 583:test/Test8.cpp ****         for (int i = 0; i < 1000; i++) {
 3639              		.loc 1 583 9
 583:test/Test8.cpp ****         for (int i = 0; i < 1000; i++) {
 3640              		.loc 1 583 20 is_stmt 0
 3641 001c 17050000 		lla	a0,.LC41
 3641      13050500 
 3642              	.LVL381:
 3643 0024 97000000 		call	_Z11printStringPKc@plt
 3643      E7800000 
 3644              	.LVL382:
 584:test/Test8.cpp ****             for (int j = 0; j < 1000; j++) {}
 3645              		.loc 1 584 9 is_stmt 1
 3646              	.LBB232:
 584:test/Test8.cpp ****             for (int j = 0; j < 1000; j++) {}
 3647              		.loc 1 584 18 is_stmt 0
 3648 002c 93040000 		li	s1,0
 3649 0030 6F000001 		j	.L165
 3650              	.LVL383:
 3651              	.L163:
 3652              	.LBB233:
 586:test/Test8.cpp ****         }
GAS LISTING /tmp/ccCnP6rB.s 			page 99


 3653              		.loc 1 586 13 is_stmt 1 discriminator 2
 586:test/Test8.cpp ****         }
 3654              		.loc 1 586 28 is_stmt 0 discriminator 2
 3655 0034 97000000 		call	_Z15thread_dispatchv@plt
 3655      E7800000 
 3656              	.LVL384:
 3657              	.LBE233:
 584:test/Test8.cpp ****             for (int j = 0; j < 1000; j++) {}
 3658              		.loc 1 584 9 is_stmt 1 discriminator 2
 3659 003c 9B841400 		addiw	s1,s1,1
 3660              	.LVL385:
 3661              	.L165:
 584:test/Test8.cpp ****             for (int j = 0; j < 1000; j++) {}
 3662              		.loc 1 584 27 discriminator 1
 3663 0040 9307703E 		li	a5,999
 3664 0044 63CC9700 		bgt	s1,a5,.L162
 3665              	.LBB235:
 3666              	.LBB234:
 585:test/Test8.cpp ****             thread_dispatch();
 3667              		.loc 1 585 22 is_stmt 0
 3668 0048 93070000 		li	a5,0
 3669              	.L164:
 3670              	.LVL386:
 585:test/Test8.cpp ****             thread_dispatch();
 3671              		.loc 1 585 31 is_stmt 1 discriminator 3
 3672 004c 1307703E 		li	a4,999
 3673 0050 E342F7FE 		bgt	a5,a4,.L163
 585:test/Test8.cpp ****             thread_dispatch();
 3674              		.loc 1 585 13 discriminator 2
 3675 0054 9B871700 		addiw	a5,a5,1
 3676              	.LVL387:
 3677 0058 6FF05FFF 		j	.L164
 3678              	.L162:
 3679              	.LBE234:
 3680              	.LBE235:
 3681              	.LBE232:
 588:test/Test8.cpp ****         Thread::producer(id);
 3682              		.loc 1 588 9
 588:test/Test8.cpp ****         Thread::producer(id);
 3683              		.loc 1 588 20 is_stmt 0
 3684 005c 17050000 		lla	a0,.LC42
 3684      13050500 
 3685 0064 97000000 		call	_Z11printStringPKc@plt
 3685      E7800000 
 3686              	.LVL388:
 589:test/Test8.cpp **** 
 3687              		.loc 1 589 9 is_stmt 1
 589:test/Test8.cpp **** 
 3688              		.loc 1 589 25 is_stmt 0
 3689 006c 83250902 		lw	a1,32(s2)
 3690 0070 13050900 		mv	a0,s2
 3691 0074 97000000 		call	_ZN6Thread8producerEi@plt
 3691      E7800000 
 3692              	.LVL389:
 591:test/Test8.cpp ****         thread_dispatch();
 3693              		.loc 1 591 9 is_stmt 1
 591:test/Test8.cpp ****         thread_dispatch();
GAS LISTING /tmp/ccCnP6rB.s 			page 100


 3694              		.loc 1 591 20 is_stmt 0
 3695 007c 17050000 		lla	a0,.LC43
 3695      13050500 
 3696 0084 97000000 		call	_Z11printStringPKc@plt
 3696      E7800000 
 3697              	.LVL390:
 592:test/Test8.cpp ****     }
 3698              		.loc 1 592 9 is_stmt 1
 592:test/Test8.cpp ****     }
 3699              		.loc 1 592 24 is_stmt 0
 3700 008c 97000000 		call	_Z15thread_dispatchv@plt
 3700      E7800000 
 3701              	.LVL391:
 593:test/Test8.cpp **** };
 3702              		.loc 1 593 5
 3703 0094 83308101 		ld	ra,24(sp)
 3704              		.cfi_restore 1
 3705 0098 03340101 		ld	s0,16(sp)
 3706              		.cfi_restore 8
 3707              		.cfi_def_cfa 2, 32
 3708 009c 83348100 		ld	s1,8(sp)
 3709              		.cfi_restore 9
 3710              	.LVL392:
 3711 00a0 03390100 		ld	s2,0(sp)
 3712              		.cfi_restore 18
 3713              	.LVL393:
 3714 00a4 13010102 		addi	sp,sp,32
 3715              		.cfi_def_cfa_offset 0
 3716 00a8 67800000 		jr	ra
 3717              		.cfi_endproc
 3718              	.LFE57:
 3720              		.section	.rodata._ZN2B73runEv.str1.8,"aMS",@progbits,1
 3721              		.align	3
 3722              	.LC44:
 3723 0000 436F6E73 		.string	"Consumer run wrapper\n"
 3723      756D6572 
 3723      2072756E 
 3723      20777261 
 3723      70706572 
 3724 0016 0000     		.align	3
 3725              	.LC45:
 3726 0018 506F7A69 		.string	"Pozivam consumer metod\n"
 3726      76616D20 
 3726      636F6E73 
 3726      756D6572 
 3726      206D6574 
 3727              		.align	3
 3728              	.LC46:
 3729 0030 436F6E73 		.string	"Consumer finished\n"
 3729      756D6572 
 3729      2066696E 
 3729      69736865 
 3729      640A00
 3730              		.section	.text._ZN2B73runEv,"axG",@progbits,_ZN2B73runEv,comdat
 3731              		.align	2
 3732              		.weak	_ZN2B73runEv
 3734              	_ZN2B73runEv:
GAS LISTING /tmp/ccCnP6rB.s 			page 101


 3735              	.LFB61:
 605:test/Test8.cpp **** //    }
 3736              		.loc 1 605 10 is_stmt 1
 3737              		.cfi_startproc
 3738              	.LVL394:
 3739 0000 130101FE 		addi	sp,sp,-32
 3740              		.cfi_def_cfa_offset 32
 3741 0004 233C1100 		sd	ra,24(sp)
 3742 0008 23388100 		sd	s0,16(sp)
 3743 000c 23349100 		sd	s1,8(sp)
 3744 0010 23302101 		sd	s2,0(sp)
 3745              		.cfi_offset 1, -8
 3746              		.cfi_offset 8, -16
 3747              		.cfi_offset 9, -24
 3748              		.cfi_offset 18, -32
 3749 0014 13040102 		addi	s0,sp,32
 3750              		.cfi_def_cfa 8, 0
 3751 0018 13090500 		mv	s2,a0
 607:test/Test8.cpp ****         for (int i = 0;i < 1000; i++) {
 3752              		.loc 1 607 9
 607:test/Test8.cpp ****         for (int i = 0;i < 1000; i++) {
 3753              		.loc 1 607 20 is_stmt 0
 3754 001c 17050000 		lla	a0,.LC44
 3754      13050500 
 3755              	.LVL395:
 3756 0024 97000000 		call	_Z11printStringPKc@plt
 3756      E7800000 
 3757              	.LVL396:
 608:test/Test8.cpp ****             for (int j = 0; j < 1000; j++) {}
 3758              		.loc 1 608 9 is_stmt 1
 3759              	.LBB236:
 608:test/Test8.cpp ****             for (int j = 0; j < 1000; j++) {}
 3760              		.loc 1 608 18 is_stmt 0
 3761 002c 93040000 		li	s1,0
 3762 0030 6F000001 		j	.L171
 3763              	.LVL397:
 3764              	.L169:
 3765              	.LBB237:
 610:test/Test8.cpp ****         }
 3766              		.loc 1 610 13 is_stmt 1 discriminator 2
 610:test/Test8.cpp ****         }
 3767              		.loc 1 610 28 is_stmt 0 discriminator 2
 3768 0034 97000000 		call	_Z15thread_dispatchv@plt
 3768      E7800000 
 3769              	.LVL398:
 3770              	.LBE237:
 608:test/Test8.cpp ****             for (int j = 0; j < 1000; j++) {}
 3771              		.loc 1 608 9 is_stmt 1 discriminator 2
 3772 003c 9B841400 		addiw	s1,s1,1
 3773              	.LVL399:
 3774              	.L171:
 608:test/Test8.cpp ****             for (int j = 0; j < 1000; j++) {}
 3775              		.loc 1 608 26 discriminator 1
 3776 0040 9307703E 		li	a5,999
 3777 0044 63CC9700 		bgt	s1,a5,.L168
 3778              	.LBB239:
 3779              	.LBB238:
GAS LISTING /tmp/ccCnP6rB.s 			page 102


 609:test/Test8.cpp ****             thread_dispatch();
 3780              		.loc 1 609 22 is_stmt 0
 3781 0048 93070000 		li	a5,0
 3782              	.L170:
 3783              	.LVL400:
 609:test/Test8.cpp ****             thread_dispatch();
 3784              		.loc 1 609 31 is_stmt 1 discriminator 3
 3785 004c 1307703E 		li	a4,999
 3786 0050 E342F7FE 		bgt	a5,a4,.L169
 609:test/Test8.cpp ****             thread_dispatch();
 3787              		.loc 1 609 13 discriminator 2
 3788 0054 9B871700 		addiw	a5,a5,1
 3789              	.LVL401:
 3790 0058 6FF05FFF 		j	.L170
 3791              	.L168:
 3792              	.LBE238:
 3793              	.LBE239:
 3794              	.LBE236:
 612:test/Test8.cpp ****         Thread::consumer(id);
 3795              		.loc 1 612 9
 612:test/Test8.cpp ****         Thread::consumer(id);
 3796              		.loc 1 612 20 is_stmt 0
 3797 005c 17050000 		lla	a0,.LC45
 3797      13050500 
 3798 0064 97000000 		call	_Z11printStringPKc@plt
 3798      E7800000 
 3799              	.LVL402:
 613:test/Test8.cpp **** 
 3800              		.loc 1 613 9 is_stmt 1
 613:test/Test8.cpp **** 
 3801              		.loc 1 613 25 is_stmt 0
 3802 006c 83250902 		lw	a1,32(s2)
 3803 0070 13050900 		mv	a0,s2
 3804 0074 97000000 		call	_ZN6Thread8consumerEi@plt
 3804      E7800000 
 3805              	.LVL403:
 615:test/Test8.cpp **** 
 3806              		.loc 1 615 9 is_stmt 1
 615:test/Test8.cpp **** 
 3807              		.loc 1 615 20 is_stmt 0
 3808 007c 17050000 		lla	a0,.LC46
 3808      13050500 
 3809 0084 97000000 		call	_Z11printStringPKc@plt
 3809      E7800000 
 3810              	.LVL404:
 617:test/Test8.cpp ****     }
 3811              		.loc 1 617 9 is_stmt 1
 617:test/Test8.cpp ****     }
 3812              		.loc 1 617 24 is_stmt 0
 3813 008c 97000000 		call	_Z15thread_dispatchv@plt
 3813      E7800000 
 3814              	.LVL405:
 618:test/Test8.cpp **** };
 3815              		.loc 1 618 5
 3816 0094 83308101 		ld	ra,24(sp)
 3817              		.cfi_restore 1
 3818 0098 03340101 		ld	s0,16(sp)
GAS LISTING /tmp/ccCnP6rB.s 			page 103


 3819              		.cfi_restore 8
 3820              		.cfi_def_cfa 2, 32
 3821 009c 83348100 		ld	s1,8(sp)
 3822              		.cfi_restore 9
 3823              	.LVL406:
 3824 00a0 03390100 		ld	s2,0(sp)
 3825              		.cfi_restore 18
 3826              	.LVL407:
 3827 00a4 13010102 		addi	sp,sp,32
 3828              		.cfi_def_cfa_offset 0
 3829 00a8 67800000 		jr	ra
 3830              		.cfi_endproc
 3831              	.LFE61:
 3833              		.text
 3834              		.align	2
 3835              		.globl	_ZN2A83runEv
 3837              	_ZN2A83runEv:
 3838              	.LFB66:
 661:test/Test8.cpp ****     for(int m=0;m<3;m++){
 3839              		.loc 1 661 16 is_stmt 1
 3840              		.cfi_startproc
 3841              	.LVL408:
 3842 0cec 130101FD 		addi	sp,sp,-48
 3843              		.cfi_def_cfa_offset 48
 3844 0cf0 23341102 		sd	ra,40(sp)
 3845 0cf4 23308102 		sd	s0,32(sp)
 3846 0cf8 233C9100 		sd	s1,24(sp)
 3847 0cfc 23382101 		sd	s2,16(sp)
 3848 0d00 23343101 		sd	s3,8(sp)
 3849              		.cfi_offset 1, -8
 3850              		.cfi_offset 8, -16
 3851              		.cfi_offset 9, -24
 3852              		.cfi_offset 18, -32
 3853              		.cfi_offset 19, -40
 3854 0d04 13040103 		addi	s0,sp,48
 3855              		.cfi_def_cfa 8, 0
 3856 0d08 13090500 		mv	s2,a0
 662:test/Test8.cpp ****         printString("Nit, pocetak wrappera- id: ");
 3857              		.loc 1 662 5
 3858              	.LVL409:
 3859              	.LBB240:
 662:test/Test8.cpp ****         printString("Nit, pocetak wrappera- id: ");
 3860              		.loc 1 662 13 is_stmt 0
 3861 0d0c 93090000 		li	s3,0
 3862 0d10 6F00800C 		j	.L181
 3863              	.LVL410:
 3864              	.L176:
 3865              	.LBB241:
 3866              	.LBB242:
 3867              	.LBB243:
 671:test/Test8.cpp ****         }
 3868              		.loc 1 671 13 is_stmt 1 discriminator 2
 671:test/Test8.cpp ****         }
 3869              		.loc 1 671 28 is_stmt 0 discriminator 2
 3870 0d14 97000000 		call	_Z15thread_dispatchv@plt
 3870      E7800000 
 3871              	.LVL411:
GAS LISTING /tmp/ccCnP6rB.s 			page 104


 3872              	.LBE243:
 669:test/Test8.cpp ****             for(int j=0;j<1000;j++){}
 3873              		.loc 1 669 9 is_stmt 1 discriminator 2
 3874 0d1c 9B841400 		addiw	s1,s1,1
 3875              	.LVL412:
 3876              	.L178:
 669:test/Test8.cpp ****             for(int j=0;j<1000;j++){}
 3877              		.loc 1 669 22 discriminator 1
 3878 0d20 9307703E 		li	a5,999
 3879 0d24 63CC9700 		bgt	s1,a5,.L175
 3880              	.LBB245:
 3881              	.LBB244:
 670:test/Test8.cpp ****             thread_dispatch();
 3882              		.loc 1 670 21 is_stmt 0
 3883 0d28 93070000 		li	a5,0
 3884              	.L177:
 3885              	.LVL413:
 670:test/Test8.cpp ****             thread_dispatch();
 3886              		.loc 1 670 26 is_stmt 1 discriminator 3
 3887 0d2c 1307703E 		li	a4,999
 3888 0d30 E342F7FE 		bgt	a5,a4,.L176
 670:test/Test8.cpp ****             thread_dispatch();
 3889              		.loc 1 670 13 discriminator 2
 3890 0d34 9B871700 		addiw	a5,a5,1
 3891              	.LVL414:
 3892 0d38 6FF05FFF 		j	.L177
 3893              	.L175:
 3894              	.LBE244:
 3895              	.LBE245:
 3896              	.LBE242:
 673:test/Test8.cpp ****         printInt(id);
 3897              		.loc 1 673 9
 673:test/Test8.cpp ****         printInt(id);
 3898              		.loc 1 673 20 is_stmt 0
 3899 0d3c 17050000 		lla	a0,.LC11
 3899      13050500 
 3900 0d44 97000000 		call	_Z11printStringPKc@plt
 3900      E7800000 
 3901              	.LVL415:
 674:test/Test8.cpp ****         printString("\n");
 3902              		.loc 1 674 9 is_stmt 1
 674:test/Test8.cpp ****         printString("\n");
 3903              		.loc 1 674 17 is_stmt 0
 3904 0d4c 13060000 		li	a2,0
 3905 0d50 9305A000 		li	a1,10
 3906 0d54 03250902 		lw	a0,32(s2)
 3907 0d58 97000000 		call	_Z8printIntiii@plt
 3907      E7800000 
 3908              	.LVL416:
 675:test/Test8.cpp ****         printString("Iteracija: ");
 3909              		.loc 1 675 9 is_stmt 1
 675:test/Test8.cpp ****         printString("Iteracija: ");
 3910              		.loc 1 675 20 is_stmt 0
 3911 0d60 17050000 		lla	a0,.LC1
 3911      13050500 
 3912 0d68 97000000 		call	_Z11printStringPKc@plt
 3912      E7800000 
GAS LISTING /tmp/ccCnP6rB.s 			page 105


 3913              	.LVL417:
 676:test/Test8.cpp ****         printInt(m);
 3914              		.loc 1 676 9 is_stmt 1
 676:test/Test8.cpp ****         printInt(m);
 3915              		.loc 1 676 20 is_stmt 0
 3916 0d70 17050000 		lla	a0,.LC10
 3916      13050500 
 3917 0d78 97000000 		call	_Z11printStringPKc@plt
 3917      E7800000 
 3918              	.LVL418:
 677:test/Test8.cpp ****         printString("\n");
 3919              		.loc 1 677 9 is_stmt 1
 677:test/Test8.cpp ****         printString("\n");
 3920              		.loc 1 677 17 is_stmt 0
 3921 0d80 13060000 		li	a2,0
 3922 0d84 9305A000 		li	a1,10
 3923 0d88 13850900 		mv	a0,s3
 3924 0d8c 97000000 		call	_Z8printIntiii@plt
 3924      E7800000 
 3925              	.LVL419:
 678:test/Test8.cpp ****         if(type){
 3926              		.loc 1 678 9 is_stmt 1
 678:test/Test8.cpp ****         if(type){
 3927              		.loc 1 678 20 is_stmt 0
 3928 0d94 17050000 		lla	a0,.LC1
 3928      13050500 
 3929 0d9c 97000000 		call	_Z11printStringPKc@plt
 3929      E7800000 
 3930              	.LVL420:
 679:test/Test8.cpp ****             H(id);
 3931              		.loc 1 679 9 is_stmt 1
 679:test/Test8.cpp ****             H(id);
 3932              		.loc 1 679 12 is_stmt 0
 3933 0da4 83274902 		lw	a5,36(s2)
 679:test/Test8.cpp ****             H(id);
 3934              		.loc 1 679 9
 3935 0da8 6384070A 		beqz	a5,.L179
 680:test/Test8.cpp ****         }else if(type==0){
 3936              		.loc 1 680 13 is_stmt 1
 680:test/Test8.cpp ****         }else if(type==0){
 3937              		.loc 1 680 14 is_stmt 0
 3938 0dac 83250902 		lw	a1,32(s2)
 3939 0db0 13050900 		mv	a0,s2
 3940 0db4 97000000 		call	_ZN6Thread1HEj@plt
 3940      E7800000 
 3941              	.LVL421:
 3942              	.L180:
 684:test/Test8.cpp ****         printString("Jedna itercija gotova\n");
 3943              		.loc 1 684 9 is_stmt 1 discriminator 2
 684:test/Test8.cpp ****         printString("Jedna itercija gotova\n");
 3944              		.loc 1 684 24 is_stmt 0 discriminator 2
 3945 0dbc 97000000 		call	_Z15thread_dispatchv@plt
 3945      E7800000 
 3946              	.LVL422:
 685:test/Test8.cpp ****     }
 3947              		.loc 1 685 9 is_stmt 1 discriminator 2
 685:test/Test8.cpp ****     }
GAS LISTING /tmp/ccCnP6rB.s 			page 106


 3948              		.loc 1 685 20 is_stmt 0 discriminator 2
 3949 0dc4 17050000 		lla	a0,.LC12
 3949      13050500 
 3950 0dcc 97000000 		call	_Z11printStringPKc@plt
 3950      E7800000 
 3951              	.LVL423:
 3952              	.LBE241:
 662:test/Test8.cpp ****         printString("Nit, pocetak wrappera- id: ");
 3953              		.loc 1 662 5 is_stmt 1 discriminator 2
 3954 0dd4 9B891900 		addiw	s3,s3,1
 3955              	.LVL424:
 3956              	.L181:
 662:test/Test8.cpp ****         printString("Nit, pocetak wrappera- id: ");
 3957              		.loc 1 662 18 discriminator 1
 3958 0dd8 93072000 		li	a5,2
 3959 0ddc 63C43709 		bgt	s3,a5,.L173
 3960              	.LBB247:
 663:test/Test8.cpp ****         printInt(id);
 3961              		.loc 1 663 9
 663:test/Test8.cpp ****         printInt(id);
 3962              		.loc 1 663 20 is_stmt 0
 3963 0de0 17050000 		lla	a0,.LC9
 3963      13050500 
 3964 0de8 97000000 		call	_Z11printStringPKc@plt
 3964      E7800000 
 3965              	.LVL425:
 664:test/Test8.cpp ****         printString("\n");
 3966              		.loc 1 664 9 is_stmt 1
 664:test/Test8.cpp ****         printString("\n");
 3967              		.loc 1 664 17 is_stmt 0
 3968 0df0 13060000 		li	a2,0
 3969 0df4 9305A000 		li	a1,10
 3970 0df8 03250902 		lw	a0,32(s2)
 3971 0dfc 97000000 		call	_Z8printIntiii@plt
 3971      E7800000 
 3972              	.LVL426:
 665:test/Test8.cpp ****         printString("Iteracija: ");
 3973              		.loc 1 665 9 is_stmt 1
 665:test/Test8.cpp ****         printString("Iteracija: ");
 3974              		.loc 1 665 20 is_stmt 0
 3975 0e04 17050000 		lla	a0,.LC1
 3975      13050500 
 3976 0e0c 97000000 		call	_Z11printStringPKc@plt
 3976      E7800000 
 3977              	.LVL427:
 666:test/Test8.cpp ****         printInt(m);
 3978              		.loc 1 666 9 is_stmt 1
 666:test/Test8.cpp ****         printInt(m);
 3979              		.loc 1 666 20 is_stmt 0
 3980 0e14 17050000 		lla	a0,.LC10
 3980      13050500 
 3981 0e1c 97000000 		call	_Z11printStringPKc@plt
 3981      E7800000 
 3982              	.LVL428:
 667:test/Test8.cpp ****         printString("\n");
 3983              		.loc 1 667 9 is_stmt 1
 667:test/Test8.cpp ****         printString("\n");
GAS LISTING /tmp/ccCnP6rB.s 			page 107


 3984              		.loc 1 667 17 is_stmt 0
 3985 0e24 13060000 		li	a2,0
 3986 0e28 9305A000 		li	a1,10
 3987 0e2c 13850900 		mv	a0,s3
 3988 0e30 97000000 		call	_Z8printIntiii@plt
 3988      E7800000 
 3989              	.LVL429:
 668:test/Test8.cpp ****         for(int i=0;i<1000;i++){
 3990              		.loc 1 668 9 is_stmt 1
 668:test/Test8.cpp ****         for(int i=0;i<1000;i++){
 3991              		.loc 1 668 20 is_stmt 0
 3992 0e38 17050000 		lla	a0,.LC1
 3992      13050500 
 3993 0e40 97000000 		call	_Z11printStringPKc@plt
 3993      E7800000 
 3994              	.LVL430:
 669:test/Test8.cpp ****             for(int j=0;j<1000;j++){}
 3995              		.loc 1 669 9 is_stmt 1
 3996              	.LBB246:
 669:test/Test8.cpp ****             for(int j=0;j<1000;j++){}
 3997              		.loc 1 669 17 is_stmt 0
 3998 0e48 93040000 		li	s1,0
 3999 0e4c 6FF05FED 		j	.L178
 4000              	.LVL431:
 4001              	.L179:
 4002              	.LBE246:
 681:test/Test8.cpp ****             O(id);
 4003              		.loc 1 681 15 is_stmt 1
 682:test/Test8.cpp ****         }
 4004              		.loc 1 682 13
 682:test/Test8.cpp ****         }
 4005              		.loc 1 682 14 is_stmt 0
 4006 0e50 83250902 		lw	a1,32(s2)
 4007 0e54 13050900 		mv	a0,s2
 4008 0e58 97000000 		call	_ZN6Thread1OEj@plt
 4008      E7800000 
 4009              	.LVL432:
 4010 0e60 6FF0DFF5 		j	.L180
 4011              	.LVL433:
 4012              	.L173:
 4013              	.LBE247:
 4014              	.LBE240:
 688:test/Test8.cpp **** void testH2O(){
 4015              		.loc 1 688 1
 4016 0e64 83308102 		ld	ra,40(sp)
 4017              		.cfi_restore 1
 4018 0e68 03340102 		ld	s0,32(sp)
 4019              		.cfi_restore 8
 4020              		.cfi_def_cfa 2, 48
 4021 0e6c 83348101 		ld	s1,24(sp)
 4022              		.cfi_restore 9
 4023 0e70 03390101 		ld	s2,16(sp)
 4024              		.cfi_restore 18
 4025              	.LVL434:
 4026 0e74 83398100 		ld	s3,8(sp)
 4027              		.cfi_restore 19
 4028              	.LVL435:
GAS LISTING /tmp/ccCnP6rB.s 			page 108


 4029 0e78 13010103 		addi	sp,sp,48
 4030              		.cfi_def_cfa_offset 0
 4031 0e7c 67800000 		jr	ra
 4032              		.cfi_endproc
 4033              	.LFE66:
 4035              		.align	2
 4036              		.globl	_ZN2A93runEv
 4038              	_ZN2A93runEv:
 4039              	.LFB71:
 728:test/Test8.cpp ****     for(int m=0;m<3;m++){
 4040              		.loc 1 728 16 is_stmt 1
 4041              		.cfi_startproc
 4042              	.LVL436:
 4043 0e80 130101FD 		addi	sp,sp,-48
 4044              		.cfi_def_cfa_offset 48
 4045 0e84 23341102 		sd	ra,40(sp)
 4046 0e88 23308102 		sd	s0,32(sp)
 4047 0e8c 233C9100 		sd	s1,24(sp)
 4048 0e90 23382101 		sd	s2,16(sp)
 4049 0e94 23343101 		sd	s3,8(sp)
 4050              		.cfi_offset 1, -8
 4051              		.cfi_offset 8, -16
 4052              		.cfi_offset 9, -24
 4053              		.cfi_offset 18, -32
 4054              		.cfi_offset 19, -40
 4055 0e98 13040103 		addi	s0,sp,48
 4056              		.cfi_def_cfa 8, 0
 4057 0e9c 13090500 		mv	s2,a0
 729:test/Test8.cpp ****         printString("Nit, pocetak wrappera- id: ");
 4058              		.loc 1 729 5
 4059              	.LVL437:
 4060              	.LBB248:
 729:test/Test8.cpp ****         printString("Nit, pocetak wrappera- id: ");
 4061              		.loc 1 729 13 is_stmt 0
 4062 0ea0 93090000 		li	s3,0
 4063 0ea4 6F00400C 		j	.L191
 4064              	.LVL438:
 4065              	.L186:
 4066              	.LBB249:
 4067              	.LBB250:
 4068              	.LBB251:
 738:test/Test8.cpp ****         }
 4069              		.loc 1 738 13 is_stmt 1 discriminator 2
 738:test/Test8.cpp ****         }
 4070              		.loc 1 738 28 is_stmt 0 discriminator 2
 4071 0ea8 97000000 		call	_Z15thread_dispatchv@plt
 4071      E7800000 
 4072              	.LVL439:
 4073              	.LBE251:
 736:test/Test8.cpp ****             for(int j=0;j<1000;j++){}
 4074              		.loc 1 736 9 is_stmt 1 discriminator 2
 4075 0eb0 9B841400 		addiw	s1,s1,1
 4076              	.LVL440:
 4077              	.L188:
 736:test/Test8.cpp ****             for(int j=0;j<1000;j++){}
 4078              		.loc 1 736 22 discriminator 1
 4079 0eb4 9307703E 		li	a5,999
GAS LISTING /tmp/ccCnP6rB.s 			page 109


 4080 0eb8 63CC9700 		bgt	s1,a5,.L185
 4081              	.LBB253:
 4082              	.LBB252:
 737:test/Test8.cpp ****             thread_dispatch();
 4083              		.loc 1 737 21 is_stmt 0
 4084 0ebc 93070000 		li	a5,0
 4085              	.L187:
 4086              	.LVL441:
 737:test/Test8.cpp ****             thread_dispatch();
 4087              		.loc 1 737 26 is_stmt 1 discriminator 3
 4088 0ec0 1307703E 		li	a4,999
 4089 0ec4 E342F7FE 		bgt	a5,a4,.L186
 737:test/Test8.cpp ****             thread_dispatch();
 4090              		.loc 1 737 13 discriminator 2
 4091 0ec8 9B871700 		addiw	a5,a5,1
 4092              	.LVL442:
 4093 0ecc 6FF05FFF 		j	.L187
 4094              	.L185:
 4095              	.LBE252:
 4096              	.LBE253:
 4097              	.LBE250:
 740:test/Test8.cpp ****         printInt(id);
 4098              		.loc 1 740 9
 740:test/Test8.cpp ****         printInt(id);
 4099              		.loc 1 740 20 is_stmt 0
 4100 0ed0 17050000 		lla	a0,.LC11
 4100      13050500 
 4101 0ed8 97000000 		call	_Z11printStringPKc@plt
 4101      E7800000 
 4102              	.LVL443:
 741:test/Test8.cpp ****         printString("\n");
 4103              		.loc 1 741 9 is_stmt 1
 741:test/Test8.cpp ****         printString("\n");
 4104              		.loc 1 741 17 is_stmt 0
 4105 0ee0 13060000 		li	a2,0
 4106 0ee4 9305A000 		li	a1,10
 4107 0ee8 03250902 		lw	a0,32(s2)
 4108 0eec 97000000 		call	_Z8printIntiii@plt
 4108      E7800000 
 4109              	.LVL444:
 742:test/Test8.cpp ****         printString("Iteracija: ");
 4110              		.loc 1 742 9 is_stmt 1
 742:test/Test8.cpp ****         printString("Iteracija: ");
 4111              		.loc 1 742 20 is_stmt 0
 4112 0ef4 17050000 		lla	a0,.LC1
 4112      13050500 
 4113 0efc 97000000 		call	_Z11printStringPKc@plt
 4113      E7800000 
 4114              	.LVL445:
 743:test/Test8.cpp ****         printInt(m);
 4115              		.loc 1 743 9 is_stmt 1
 743:test/Test8.cpp ****         printInt(m);
 4116              		.loc 1 743 20 is_stmt 0
 4117 0f04 17050000 		lla	a0,.LC10
 4117      13050500 
 4118 0f0c 97000000 		call	_Z11printStringPKc@plt
 4118      E7800000 
GAS LISTING /tmp/ccCnP6rB.s 			page 110


 4119              	.LVL446:
 744:test/Test8.cpp ****         printString("\n");
 4120              		.loc 1 744 9 is_stmt 1
 744:test/Test8.cpp ****         printString("\n");
 4121              		.loc 1 744 17 is_stmt 0
 4122 0f14 13060000 		li	a2,0
 4123 0f18 9305A000 		li	a1,10
 4124 0f1c 13850900 		mv	a0,s3
 4125 0f20 97000000 		call	_Z8printIntiii@plt
 4125      E7800000 
 4126              	.LVL447:
 745:test/Test8.cpp ****         if(type){
 4127              		.loc 1 745 9 is_stmt 1
 745:test/Test8.cpp ****         if(type){
 4128              		.loc 1 745 20 is_stmt 0
 4129 0f28 17050000 		lla	a0,.LC1
 4129      13050500 
 4130 0f30 97000000 		call	_Z11printStringPKc@plt
 4130      E7800000 
 4131              	.LVL448:
 746:test/Test8.cpp ****             cook();
 4132              		.loc 1 746 9 is_stmt 1
 746:test/Test8.cpp ****             cook();
 4133              		.loc 1 746 12 is_stmt 0
 4134 0f38 83274902 		lw	a5,36(s2)
 746:test/Test8.cpp ****             cook();
 4135              		.loc 1 746 9
 4136 0f3c 6382070A 		beqz	a5,.L189
 747:test/Test8.cpp ****         }else if(type==0){
 4137              		.loc 1 747 13 is_stmt 1
 747:test/Test8.cpp ****         }else if(type==0){
 4138              		.loc 1 747 17 is_stmt 0
 4139 0f40 13050900 		mv	a0,s2
 4140 0f44 97000000 		call	_ZN6Thread4cookEv@plt
 4140      E7800000 
 4141              	.LVL449:
 4142              	.L190:
 751:test/Test8.cpp ****         printString("Jedna itercija gotova\n");
 4143              		.loc 1 751 9 is_stmt 1 discriminator 2
 751:test/Test8.cpp ****         printString("Jedna itercija gotova\n");
 4144              		.loc 1 751 24 is_stmt 0 discriminator 2
 4145 0f4c 97000000 		call	_Z15thread_dispatchv@plt
 4145      E7800000 
 4146              	.LVL450:
 752:test/Test8.cpp ****     }
 4147              		.loc 1 752 9 is_stmt 1 discriminator 2
 752:test/Test8.cpp ****     }
 4148              		.loc 1 752 20 is_stmt 0 discriminator 2
 4149 0f54 17050000 		lla	a0,.LC12
 4149      13050500 
 4150 0f5c 97000000 		call	_Z11printStringPKc@plt
 4150      E7800000 
 4151              	.LVL451:
 4152              	.LBE249:
 729:test/Test8.cpp ****         printString("Nit, pocetak wrappera- id: ");
 4153              		.loc 1 729 5 is_stmt 1 discriminator 2
 4154 0f64 9B891900 		addiw	s3,s3,1
GAS LISTING /tmp/ccCnP6rB.s 			page 111


 4155              	.LVL452:
 4156              	.L191:
 729:test/Test8.cpp ****         printString("Nit, pocetak wrappera- id: ");
 4157              		.loc 1 729 18 discriminator 1
 4158 0f68 93072000 		li	a5,2
 4159 0f6c 63C43709 		bgt	s3,a5,.L183
 4160              	.LBB255:
 730:test/Test8.cpp ****         printInt(id);
 4161              		.loc 1 730 9
 730:test/Test8.cpp ****         printInt(id);
 4162              		.loc 1 730 20 is_stmt 0
 4163 0f70 17050000 		lla	a0,.LC9
 4163      13050500 
 4164 0f78 97000000 		call	_Z11printStringPKc@plt
 4164      E7800000 
 4165              	.LVL453:
 731:test/Test8.cpp ****         printString("\n");
 4166              		.loc 1 731 9 is_stmt 1
 731:test/Test8.cpp ****         printString("\n");
 4167              		.loc 1 731 17 is_stmt 0
 4168 0f80 13060000 		li	a2,0
 4169 0f84 9305A000 		li	a1,10
 4170 0f88 03250902 		lw	a0,32(s2)
 4171 0f8c 97000000 		call	_Z8printIntiii@plt
 4171      E7800000 
 4172              	.LVL454:
 732:test/Test8.cpp ****         printString("Iteracija: ");
 4173              		.loc 1 732 9 is_stmt 1
 732:test/Test8.cpp ****         printString("Iteracija: ");
 4174              		.loc 1 732 20 is_stmt 0
 4175 0f94 17050000 		lla	a0,.LC1
 4175      13050500 
 4176 0f9c 97000000 		call	_Z11printStringPKc@plt
 4176      E7800000 
 4177              	.LVL455:
 733:test/Test8.cpp ****         printInt(m);
 4178              		.loc 1 733 9 is_stmt 1
 733:test/Test8.cpp ****         printInt(m);
 4179              		.loc 1 733 20 is_stmt 0
 4180 0fa4 17050000 		lla	a0,.LC10
 4180      13050500 
 4181 0fac 97000000 		call	_Z11printStringPKc@plt
 4181      E7800000 
 4182              	.LVL456:
 734:test/Test8.cpp ****         printString("\n");
 4183              		.loc 1 734 9 is_stmt 1
 734:test/Test8.cpp ****         printString("\n");
 4184              		.loc 1 734 17 is_stmt 0
 4185 0fb4 13060000 		li	a2,0
 4186 0fb8 9305A000 		li	a1,10
 4187 0fbc 13850900 		mv	a0,s3
 4188 0fc0 97000000 		call	_Z8printIntiii@plt
 4188      E7800000 
 4189              	.LVL457:
 735:test/Test8.cpp ****         for(int i=0;i<1000;i++){
 4190              		.loc 1 735 9 is_stmt 1
 735:test/Test8.cpp ****         for(int i=0;i<1000;i++){
GAS LISTING /tmp/ccCnP6rB.s 			page 112


 4191              		.loc 1 735 20 is_stmt 0
 4192 0fc8 17050000 		lla	a0,.LC1
 4192      13050500 
 4193 0fd0 97000000 		call	_Z11printStringPKc@plt
 4193      E7800000 
 4194              	.LVL458:
 736:test/Test8.cpp ****             for(int j=0;j<1000;j++){}
 4195              		.loc 1 736 9 is_stmt 1
 4196              	.LBB254:
 736:test/Test8.cpp ****             for(int j=0;j<1000;j++){}
 4197              		.loc 1 736 17 is_stmt 0
 4198 0fd8 93040000 		li	s1,0
 4199 0fdc 6FF09FED 		j	.L188
 4200              	.LVL459:
 4201              	.L189:
 4202              	.LBE254:
 748:test/Test8.cpp ****             savage(id);
 4203              		.loc 1 748 15 is_stmt 1
 749:test/Test8.cpp ****         }
 4204              		.loc 1 749 13
 749:test/Test8.cpp ****         }
 4205              		.loc 1 749 19 is_stmt 0
 4206 0fe0 83250902 		lw	a1,32(s2)
 4207 0fe4 13050900 		mv	a0,s2
 4208 0fe8 97000000 		call	_ZN6Thread6savageEj@plt
 4208      E7800000 
 4209              	.LVL460:
 4210 0ff0 6FF0DFF5 		j	.L190
 4211              	.LVL461:
 4212              	.L183:
 4213              	.LBE255:
 4214              	.LBE248:
 755:test/Test8.cpp **** 
 4215              		.loc 1 755 1
 4216 0ff4 83308102 		ld	ra,40(sp)
 4217              		.cfi_restore 1
 4218 0ff8 03340102 		ld	s0,32(sp)
 4219              		.cfi_restore 8
 4220              		.cfi_def_cfa 2, 48
 4221 0ffc 83348101 		ld	s1,24(sp)
 4222              		.cfi_restore 9
 4223 1000 03390101 		ld	s2,16(sp)
 4224              		.cfi_restore 18
 4225              	.LVL462:
 4226 1004 83398100 		ld	s3,8(sp)
 4227              		.cfi_restore 19
 4228              	.LVL463:
 4229 1008 13010103 		addi	sp,sp,48
 4230              		.cfi_def_cfa_offset 0
 4231 100c 67800000 		jr	ra
 4232              		.cfi_endproc
 4233              	.LFE71:
 4235              		.align	2
 4236              		.globl	_ZN3A103runEv
 4238              	_ZN3A103runEv:
 4239              	.LFB76:
 796:test/Test8.cpp ****     for(int m=0;m<3;m++){
GAS LISTING /tmp/ccCnP6rB.s 			page 113


 4240              		.loc 1 796 17 is_stmt 1
 4241              		.cfi_startproc
 4242              	.LVL464:
 4243 1010 130101FD 		addi	sp,sp,-48
 4244              		.cfi_def_cfa_offset 48
 4245 1014 23341102 		sd	ra,40(sp)
 4246 1018 23308102 		sd	s0,32(sp)
 4247 101c 233C9100 		sd	s1,24(sp)
 4248 1020 23382101 		sd	s2,16(sp)
 4249 1024 23343101 		sd	s3,8(sp)
 4250              		.cfi_offset 1, -8
 4251              		.cfi_offset 8, -16
 4252              		.cfi_offset 9, -24
 4253              		.cfi_offset 18, -32
 4254              		.cfi_offset 19, -40
 4255 1028 13040103 		addi	s0,sp,48
 4256              		.cfi_def_cfa 8, 0
 4257 102c 13090500 		mv	s2,a0
 797:test/Test8.cpp ****         printString("Nit, pocetak wrappera- id: ");
 4258              		.loc 1 797 5
 4259              	.LVL465:
 4260              	.LBB256:
 797:test/Test8.cpp ****         printString("Nit, pocetak wrappera- id: ");
 4261              		.loc 1 797 13 is_stmt 0
 4262 1030 93090000 		li	s3,0
 4263 1034 6F00000C 		j	.L201
 4264              	.LVL466:
